Archive member included because of file (symbol)

c:/program files/microchip/xc32/v2.50/bin/bin/../../lib/gcc/pic32mx/4.8.3/../../../../pic32mx/lib/fpu64\libpic32.a(memcpy.o)
                              build/default/production/_ext/60176403/plib_nvm.o (memcpy)
c:/program files/microchip/xc32/v2.50/bin/bin/../../lib/gcc/pic32mx/4.8.3/../../../../pic32mx/lib/fpu64\libpic32.a(strcmp.o)
                              build/default/production/_ext/481733874/dialog_number_entry.o (strcmp)
c:/program files/microchip/xc32/v2.50/bin/bin/../../lib/gcc/pic32mx/4.8.3/../../../../pic32mx/lib/fpu64\libpic32.a(strlen.o)
                              build/default/production/_ext/481733874/dialog_file_chooser.o (strlen)
c:/program files/microchip/xc32/v2.50/bin/bin/../../lib/gcc/pic32mx/4.8.3/../../../../pic32mx/lib/fpu64\libpic32.a(default-on-reset.o)
                              C:\Users\John\AppData\Local\Temp\ccWRxhWa.o (_on_reset)
c:/program files/microchip/xc32/v2.50/bin/bin/../../lib/gcc/pic32mx/4.8.3/../../../../pic32mx/lib/fpu64\libpic32.a(default-on-bootstrap.o)
                              C:\Users\John\AppData\Local\Temp\ccWRxhWa.o (_on_bootstrap)
c:/program files/microchip/xc32/v2.50/bin/bin/../../lib/gcc/pic32mx/4.8.3/../../../../pic32mx/lib/fpu64\libpic32.a(default-nmi-handler.o)
                              C:\Users\John\AppData\Local\Temp\ccWRxhWa.o (_nmi_handler)
c:/program files/microchip/xc32/v2.50/bin/bin/../../lib/gcc/pic32mx/4.8.3/../../../../pic32mx/lib/fpu64\libpic32.a(pic32_data_init.o)
                              C:\Users\John\AppData\Local\Temp\ccWRxhWa.o (__pic32_data_init)
c:/program files/microchip/xc32/v2.50/bin/bin/../../lib/gcc/pic32mx/4.8.3/../../../../pic32mx/lib/fpu64\libpic32.a(pic32_init_cache.o)
                              C:\Users\John\AppData\Local\Temp\ccWRxhWa.o (__pic32_init_cache)
c:/program files/microchip/xc32/v2.50/bin/bin/../../lib/gcc/pic32mx/4.8.3/../../../../pic32mx/lib/fpu64\libpic32.a(pic32_init_tlb_ebi_sqi.o)
                              C:\Users\John\AppData\Local\Temp\ccWRxhWa.o (__pic32_tlb_init_ebi_sqi)
c:/program files/microchip/xc32/v2.50/bin/bin/../../lib/gcc/pic32mx/4.8.3/../../../../pic32mx/lib/fpu64\libpic32.a(general-exception.o)
                              C:\Users\John\AppData\Local\Temp\ccWRxhWa.o (_general_exception_context)
c:/program files/microchip/xc32/v2.50/bin/bin/../../lib/gcc/pic32mx/4.8.3/../../../../pic32mx/lib/fpu64\libpic32.a(cache-err-exception.o)
                              C:\Users\John\AppData\Local\Temp\ccWRxhWa.o (_cache_err_exception_context)
c:/program files/microchip/xc32/v2.50/bin/bin/../../lib/gcc/pic32mx/4.8.3/../../../../pic32mx/lib/fpu64\libpic32.a(simple-tlb-refill-exception.o)
                              C:\Users\John\AppData\Local\Temp\ccWRxhWa.o (_simple_tlb_refill_exception_context)
c:/program files/microchip/xc32/v2.50/bin/bin/../../lib/gcc/pic32mx/4.8.3/../../../../pic32mx/lib/fpu64\libpic32.a(defaultinterrupt.o)
                              C:\Users\John\AppData\Local\Temp\ccn6h3Pn.o (_DefaultInterrupt)
c:/program files/microchip/xc32/v2.50/bin/bin/../../lib/gcc/pic32mx/4.8.3/../../../../pic32mx/lib/fpu64\libc.a(ctypef.o)
                              build/default/production/_ext/59636182/miniwin_utilities.o (tolower)
c:/program files/microchip/xc32/v2.50/bin/bin/../../lib/gcc/pic32mx/4.8.3/../../../../pic32mx/lib/fpu64\libc.a(malloc.o)
                              build/default/production/_ext/165771656/miniwin_user.o (malloc)
c:/program files/microchip/xc32/v2.50/bin/bin/../../lib/gcc/pic32mx/4.8.3/../../../../pic32mx/lib/fpu64\libc.a(memmove.o)
                              build/default/production/_ext/481733874/dialog_number_entry.o (memmove)
c:/program files/microchip/xc32/v2.50/bin/bin/../../lib/gcc/pic32mx/4.8.3/../../../../pic32mx/lib/fpu64\libc.a(strncat.o)
                              build/default/production/_ext/59636182/miniwin_utilities.o (strncat)
c:/program files/microchip/xc32/v2.50/bin/bin/../../lib/gcc/pic32mx/4.8.3/../../../../pic32mx/lib/fpu64\libc.a(strrchr.o)
                              build/default/production/_ext/481733874/dialog_file_chooser.o (strrchr)
c:/program files/microchip/xc32/v2.50/bin/bin/../../lib/gcc/pic32mx/4.8.3/../../../../pic32mx/lib/fpu64\libc.a(ctype.o)
                              c:/program files/microchip/xc32/v2.50/bin/bin/../../lib/gcc/pic32mx/4.8.3/../../../../pic32mx/lib/fpu64\libc.a(ctypef.o) (_ctype)
c:/program files/microchip/xc32/v2.50/bin/bin/../../lib/gcc/pic32mx/4.8.3/../../../../pic32mx/lib/fpu64\libmfd.a(s_cos.o)
                              build/default/production/_ext/1494914114/gl.o (_cosx)
c:/program files/microchip/xc32/v2.50/bin/bin/../../lib/gcc/pic32mx/4.8.3/../../../../pic32mx/lib/fpu64\libmfd.a(s_floor.o)
                              build/default/production/_ext/1494914114/gl.o (_floorx)
c:/program files/microchip/xc32/v2.50/bin/bin/../../lib/gcc/pic32mx/4.8.3/../../../../pic32mx/lib/fpu64\libmfd.a(s_sin.o)
                              build/default/production/_ext/1494914114/gl.o (_sinx)
c:/program files/microchip/xc32/v2.50/bin/bin/../../lib/gcc/pic32mx/4.8.3/../../../../pic32mx/lib/fpu64\libmfd.a(w_atan2.o)
                              build/default/production/_ext/1494914114/gl.o (_atan2x)
c:/program files/microchip/xc32/v2.50/bin/bin/../../lib/gcc/pic32mx/4.8.3/../../../../pic32mx/lib/fpu64\libmfd.a(e_atan2.o)
                              c:/program files/microchip/xc32/v2.50/bin/bin/../../lib/gcc/pic32mx/4.8.3/../../../../pic32mx/lib/fpu64\libmfd.a(w_atan2.o) (__ieee754_atan2)
c:/program files/microchip/xc32/v2.50/bin/bin/../../lib/gcc/pic32mx/4.8.3/../../../../pic32mx/lib/fpu64\libmfd.a(e_rem_pio2.o)
                              c:/program files/microchip/xc32/v2.50/bin/bin/../../lib/gcc/pic32mx/4.8.3/../../../../pic32mx/lib/fpu64\libmfd.a(s_cos.o) (__ieee754_rem_pio2)
c:/program files/microchip/xc32/v2.50/bin/bin/../../lib/gcc/pic32mx/4.8.3/../../../../pic32mx/lib/fpu64\libmfd.a(k_cos.o)
                              c:/program files/microchip/xc32/v2.50/bin/bin/../../lib/gcc/pic32mx/4.8.3/../../../../pic32mx/lib/fpu64\libmfd.a(s_cos.o) (__kernel_cos)
c:/program files/microchip/xc32/v2.50/bin/bin/../../lib/gcc/pic32mx/4.8.3/../../../../pic32mx/lib/fpu64\libmfd.a(k_sin.o)
                              c:/program files/microchip/xc32/v2.50/bin/bin/../../lib/gcc/pic32mx/4.8.3/../../../../pic32mx/lib/fpu64\libmfd.a(s_cos.o) (__kernel_sin)
c:/program files/microchip/xc32/v2.50/bin/bin/../../lib/gcc/pic32mx/4.8.3/../../../../pic32mx/lib/fpu64\libmfd.a(k_standard.o)
                              c:/program files/microchip/xc32/v2.50/bin/bin/../../lib/gcc/pic32mx/4.8.3/../../../../pic32mx/lib/fpu64\libmfd.a(w_atan2.o) (__kernel_standard)
c:/program files/microchip/xc32/v2.50/bin/bin/../../lib/gcc/pic32mx/4.8.3/../../../../pic32mx/lib/fpu64\libmfd.a(s_atan.o)
                              c:/program files/microchip/xc32/v2.50/bin/bin/../../lib/gcc/pic32mx/4.8.3/../../../../pic32mx/lib/fpu64\libmfd.a(e_atan2.o) (_atanx)
c:/program files/microchip/xc32/v2.50/bin/bin/../../lib/gcc/pic32mx/4.8.3/../../../../pic32mx/lib/fpu64\libmfd.a(s_fabs.o)
                              c:/program files/microchip/xc32/v2.50/bin/bin/../../lib/gcc/pic32mx/4.8.3/../../../../pic32mx/lib/fpu64\libmfd.a(e_atan2.o) (_fabsx)
c:/program files/microchip/xc32/v2.50/bin/bin/../../lib/gcc/pic32mx/4.8.3/../../../../pic32mx/lib/fpu64\libmfd.a(s_rint.o)
                              c:/program files/microchip/xc32/v2.50/bin/bin/../../lib/gcc/pic32mx/4.8.3/../../../../pic32mx/lib/fpu64\libmfd.a(k_standard.o) (rint)
c:/program files/microchip/xc32/v2.50/bin/bin/../../lib/gcc/pic32mx/4.8.3/../../../../pic32mx/lib/fpu64\libpic32.a(sbrk.o)
                              c:/program files/microchip/xc32/v2.50/bin/bin/../../lib/gcc/pic32mx/4.8.3/../../../../pic32mx/lib/fpu64\libc.a(malloc.o) (sbrk)
c:/program files/microchip/xc32/v2.50/bin/bin/../../lib/gcc/pic32mx/4.8.3/../../../../pic32mx/lib/fpu64\libpic32.a(errno.o)
                              c:/program files/microchip/xc32/v2.50/bin/bin/../../lib/gcc/pic32mx/4.8.3/../../../../pic32mx/lib/fpu64\libmfd.a(k_standard.o) (errno)
c:/program files/microchip/xc32/v2.50/bin/bin/../../lib/gcc/pic32mx/4.8.3/../../../../pic32mx/lib/fpu64\libpic32.a(memset.o)
                              c:/program files/microchip/xc32/v2.50/bin/bin/../../lib/gcc/pic32mx/4.8.3/../../../../pic32mx/lib/fpu64\libpic32.a(sbrk.o) (memset)

Allocating common symbols
Common symbol       size              file

window_file_tree_handle
                    0x4               build/default/production/_ext/165771656/miniwin_user.o
window_file_handle  0x4               build/default/production/_ext/165771656/miniwin_user.o
mw_tick_counter     0x4               build/default/production/_ext/776318040/hal_timer.o
button_open_handle  0x4               build/default/production/_ext/165771656/miniwin_user.o
label_date_handle   0x4               build/default/production/_ext/165771656/miniwin_user.o
button_show_handle  0x4               build/default/production/_ext/165771656/miniwin_user.o
window_selection_handle
                    0x4               build/default/production/_ext/165771656/miniwin_user.o
label_time_handle   0x4               build/default/production/_ext/165771656/miniwin_user.o
tree_handle         0x4               build/default/production/_ext/165771656/miniwin_user.o
label_path_handle   0x4               build/default/production/_ext/165771656/miniwin_user.o
button_create_handle
                    0x4               build/default/production/_ext/165771656/miniwin_user.o
button_set_clock_handle
                    0x4               build/default/production/_ext/165771656/miniwin_user.o
scroll_bar_vert_handle
                    0x4               build/default/production/_ext/165771656/miniwin_user.o

Microchip PIC32 Memory-Usage Report

kseg0 Program-Memory Usage
section                    address  length [bytes]      (dec)  Description
-------                 ----------  -------------------------  -----------
.simple_tlb_refill_excp 0x9d000000           0x10          16   
.text.f_opendir         0x9d000010           0xf0         240   
.cache_err_excpt        0x9d000100           0x10          16   
.text.mw_paint_window_c 0x9d000110           0x70         112   
.app_excpt              0x9d000180           0x10          16  General-Exception 
.text.mw_paint_control  0x9d000190           0x70         112   
.vectors                0x9d000200           0x58          88   
.rodata                 0x9d000258         0x1ac0        6848  Read-only const 
.text.mw_process_messag 0x9d001d18         0x1720        5920   
.rodata                 0x9d003438         0x1ac8        6856  Read-only const 
.text.do_paint_window_f 0x9d004f00          0xb48        2888   
.text.window_file_messa 0x9d005a48          0xaf0        2800   
.text.keyboard_paint_fu 0x9d006538          0xa10        2576   
.rodata                 0x9d006f48          0x910        2320  Read-only const 
.text.mw_gl_character   0x9d007858          0x8dc        2268   
.text.mw_hal_lcd_monoch 0x9d008134          0x76c        1900   
.text.list_box_paint_fu 0x9d0088a0          0x6d4        1748   
.text.mw_dialog_file_ch 0x9d008f74          0x6d0        1744   
.dinit                  0x9d009644          0x6a0        1696   
.text.tree_message_func 0x9d009ce4          0x67c        1660   
.rodata                 0x9d00a360          0x630        1584  Read-only const 
.text.window_image_pain 0x9d00a990          0x5f8        1528   
.text.do_paint_window_c 0x9d00af88          0x5b4        1460   
.text.title_font_string 0x9d00b53c          0x588        1416   
.text.mw_create_window_ 0x9d00bac4          0x540        1344   
.text.mw_hal_lcd_colour 0x9d00c004          0x528        1320   
.text.find_rect_window_ 0x9d00c52c          0x500        1280   
.text.mw_create_window_ 0x9d00ca2c          0x4f0        1264   
.text.filled_poly       0x9d00cf1c          0x4f0        1264   
.text.f_lseek           0x9d00d40c          0x4c8        1224   
.text.find_volume       0x9d00d8d4          0x484        1156   
.rodata                 0x9d00dd58          0x47c        1148  Read-only const 
.text.mw_dialog_text_en 0x9d00e1d4          0x428        1064   
.text.node_callback     0x9d00e5fc          0x41c        1052   
.text.mw_create_window_ 0x9d00ea18          0x404        1028   
.text.mw_gl_line        0x9d00ee1c          0x3fc        1020   
.text.list_box_message_ 0x9d00f218          0x3d4         980   
.rodata                 0x9d00f5ec          0x3b4         948  Read-only const 
.text.mw_add_control    0x9d00f9a0          0x384         900   
.text.mw_user_init      0x9d00fd24          0x36c         876   
.rodata                 0x9d010090          0x360         864  Read-only const 
.text.f_open            0x9d0103f0          0x354         852   
.text.mw_hal_lcd_init   0x9d010744          0x348         840   
.text.__ieee754_rem_pio 0x9d010a8c          0x344         836   
.text.button_paint_func 0x9d010dd0          0x340         832   
.text.f_write           0x9d011110          0x338         824   
.text.do_paint_control_ 0x9d011448          0x31c         796   
.text.window_text_messa 0x9d011764          0x31c         796   
.text.follow_path       0x9d011a80          0x318         792   
.text.mw_create_window_ 0x9d011d98          0x310         784   
.text.mw_create_window_ 0x9d0120a8          0x30c         780   
.text.arrow_paint_funct 0x9d0123b4          0x300         768   
.rodata                 0x9d0126b4            0x3           3  Read-only const 
.rodata                 0x9d0126b8          0x2f8         760  Read-only const 
.text.mw_gl_rectangle   0x9d0129b0          0x2e4         740   
.text.mw_dialog_text_en 0x9d012c94          0x2dc         732   
.text.f_read            0x9d012f70          0x2d4         724   
.text.draw_vertical_win 0x9d013244          0x2d0         720   
.text.draw_horizontal_w 0x9d013514          0x2c4         708   
.text.mw_add_window     0x9d0137d8          0x29c         668   
.text.mw_tree_container 0x9d013a74          0x290         656   
.text.mw_dialog_date_ch 0x9d013d04          0x28c         652   
.text.mw_create_window_ 0x9d013f90          0x28c         652   
.text.mw_hal_touch_get_ 0x9d01421c          0x28c         652   
.text.malloc            0x9d0144a8          0x28c         652   
.text.calculate_new_win 0x9d014734          0x278         632   
.text.SPI2_WriteRead    0x9d0149ac          0x274         628   
.text.SPI1_WriteRead    0x9d014c20          0x274         628   
.text.mw_gl_monochrome_ 0x9d014e94          0x274         628   
.text.do_paint_window_f 0x9d015108          0x26c         620   
.text.scroll_bar_vert_p 0x9d015374          0x264         612   
.text.window_text_paint 0x9d0155d8          0x254         596   
.text.window_file_tree_ 0x9d01582c          0x24c         588   
.text.mw_tree_container 0x9d015a78          0x248         584   
.text.mw_dialog_date_ch 0x9d015cc0          0x240         576   
.text.create_chain      0x9d015f00          0x238         568   
.text.do_paint_control  0x9d016138          0x234         564   
.text.keyboard_message_ 0x9d01636c          0x22c         556   
.text.mw_util_safe_itoa 0x9d016598          0x228         552   
.text.mw_dialog_time_ch 0x9d0167c0          0x214         532   
.text.mw_tree_container 0x9d0169d4          0x200         512   
.text.set_window_detail 0x9d016bd4          0x1f8         504   
.text.filled_rectangle  0x9d016dcc          0x1f4         500   
.text.scroll_bar_vert_m 0x9d016fc0          0x1f4         500   
.text.mw_gl_string      0x9d0171b4          0x1ec         492   
.text.mw_hal_lcd_filled 0x9d0173a0          0x1ec         492   
.text.setCalibrationMat 0x9d01758c          0x1ec         492   
.text.mw_remove_window  0x9d017778          0x1e4         484   
.text.root_message_func 0x9d01795c          0x1e0         480   
.text.disk_initialize   0x9d017b3c          0x1dc         476   
.text.put_fat           0x9d017d18          0x1cc         460   
.text.mw_dialog_time_ch 0x9d017ee4          0x1cc         460   
.text.mw_tree_container 0x9d0180b0          0x1c8         456   
.text.do_paint_control2 0x9d018278          0x1c4         452   
.text.mw_touch_calibrat 0x9d01843c          0x1c4         452   
.text.set_focus         0x9d018600          0x1bc         444   
.text.mw_gl_poly        0x9d0187bc          0x1b8         440   
.text.mw_reposition_win 0x9d018974          0x1b4         436   
.text.mw_gl_hline       0x9d018b28          0x1b0         432   
.text.mw_gl_vline       0x9d018cd8          0x1b0         432   
.text.update_arrow_enab 0x9d018e88          0x1a8         424   
.text.arrow_message_fun 0x9d019030          0x1a8         424   
.text.mw_tree_container 0x9d0191d8          0x1a8         424   
.text.TIMER_2_Handler   0x9d019380          0x1a0         416   
.text.TIMER_3_Handler   0x9d019520          0x1a0         416   
.text.tree_paint_functi 0x9d0196c0          0x1a0         416   
.text.mw_tree_container 0x9d019860          0x19c         412   
.rodata                 0x9d0199fc          0x198         408  Read-only const 
.text.process_keypress  0x9d019b94          0x194         404   
.text._sbrk_init        0x9d019d28          0x194         404   
.text.dir_next          0x9d019ebc          0x188         392   
.text.mw_set_timer      0x9d01a044          0x188         392   
.text.draw_min_restore_ 0x9d01a1cc          0x184         388   
.text._floorx           0x9d01a350          0x184         388   
.text.draw_titlebar_tex 0x9d01a4d4          0x180         384   
.text.mw_remove_control 0x9d01a654          0x180         384   
.text.check_and_process 0x9d01a7d4          0x178         376   
.text.check_and_process 0x9d01a94c          0x178         376   
.text.mw_tree_container 0x9d01aac4          0x178         376   
.text.send_cmd          0x9d01ac3c          0x174         372   
.text.mw_ui_list_box_ad 0x9d01adb0          0x174         372   
.text.get_fat           0x9d01af24          0x170         368   
.text.mw_post_message   0x9d01b094          0x170         368   
.text.mw_ui_tree_add_ne 0x9d01b204          0x16c         364   
.text.mw_resize_window  0x9d01b370          0x16c         364   
.text.window_file_paint 0x9d01b4dc          0x16c         364   
.text.mw_init           0x9d01b648          0x168         360   
.text                   0x9d01b7b0          0x2d0         720  App's exec code 
.text.mw_debug_print_as 0x9d01ba80          0x164         356   
.rodata                 0x9d01bbe4          0x164         356  Read-only const 
.text.mw_gl_rotate_shap 0x9d01bd48          0x160         352   
.text.label_paint_funct 0x9d01bea8          0x15c         348   
.text.dir_sdi           0x9d01c004          0x154         340   
.text.mw_hal_lcd_pixel  0x9d01c158          0x154         340   
.text.disk_ioctl        0x9d01c2ac          0x150         336   
.text.realloc           0x9d01c3fc          0x148         328   
.text.TMR3_InterruptSvc 0x9d01c544          0x144         324   
.text.check_window_dime 0x9d01c688          0x140         320   
.text.mw_cancel_timer   0x9d01c7c8          0x140         320   
.text.find_folder_entri 0x9d01c908          0x140         320   
.text.mw_set_window_vis 0x9d01ca48          0x13c         316   
.text.window_selection_ 0x9d01cb84          0x13c         316   
.text.remove_all_childr 0x9d01ccc0          0x138         312   
.text.draw_cross        0x9d01cdf8          0x130         304   
.text.update_folder_ent 0x9d01cf28          0x120         288   
.text.__kernel_cos      0x9d01d048          0x120         288   
.text.remove_chain      0x9d01d168          0x11c         284   
.text.mw_dialog_one_but 0x9d01d284          0x11c         284   
.text.mw_dialog_two_but 0x9d01d3a0          0x11c         284   
.text.mw_touch_get_disp 0x9d01d4bc          0x11c         284   
.text.window_image_mess 0x9d01d5d8          0x118         280   
.text._cosx             0x9d01d6f0          0x118         280   
.text._sinx             0x9d01d808          0x118         280   
.text.f_sync            0x9d01d920          0x110         272   
.text.get_ldnumber      0x9d01da30          0x104         260   
.text.rationalize_z_ord 0x9d01db34          0x104         260   
.rodata                 0x9d01dc38          0x104         260  Read-only const 
.text.mw_message_queue_ 0x9d01dd3c          0x100         256   
.text.disk_write        0x9d01de3c           0xfc         252   
.text.update_arrow_enab 0x9d01df38           0xfc         252   
.text.pixel             0x9d01e034           0xfc         252   
.text.GPIO_Initialize   0x9d01e130           0xf8         248   
.text.mw_bring_window_t 0x9d01e228           0xf8         248   
.text.mw_util_shell_sor 0x9d01e320           0xf8         248   
.text.app_populate_tree 0x9d01e418           0xf8         248   
.text.button_message_fu 0x9d01e510           0xf0         240   
.text.get_fileinfo      0x9d01e600           0xec         236   
.text.sync_fs           0x9d01e6ec           0xe8         232   
.text.dir_register      0x9d01e7d4           0xe8         232   
.text.mw_gl_colour_bitm 0x9d01e8bc           0xe8         232   
.text.find_window_point 0x9d01e9a4           0xe8         232   
.text.dir_read          0x9d01ea8c           0xe4         228   
.text.get_file_dimensio 0x9d01eb70           0xe4         228   
.text.mw_gl_get_string_ 0x9d01ec54           0xe0         224   
.text.do_paint_window_c 0x9d01ed34           0xe0         224   
.text.find_control_poin 0x9d01ee14           0xe0         224   
.text.mw_tree_container 0x9d01eef4           0xe0         224   
.text.general_exception 0x9d01efd4           0xdc         220   
.text._cache_err_except 0x9d01f0b0           0xd8         216   
.text.simple_tlb_refill 0x9d01f188           0xd8         216   
.rodata                 0x9d01f260           0xd0         208  Read-only const 
.text.mw_message_queue_ 0x9d01f330           0xd0         208   
.text.mw_tree_container 0x9d01f400           0xd0         208   
.text.dir_clear         0x9d01f4d0           0xcc         204   
.rodata                 0x9d01f59c           0xcc         204  Read-only const 
.text.disk_read         0x9d01f668           0xc8         200   
.rodata                 0x9d01f730           0xc8         200  Read-only const 
.text._sbrk             0x9d01f7f8           0xc8         200   
.text.add_minimised_win 0x9d01f8c0           0xc4         196   
.text.create_new_file   0x9d01f984           0xc0         192   
.text.find_minimsed_ico 0x9d01fa44           0xbc         188   
.tlb.__pic32_tlb_init_e 0x9d01fb00           0xbc         188   
.text.SPI2_TransferSetu 0x9d01fbbc           0xb8         184   
.rodata                 0x9d01fc74           0xb8         184  Read-only const 
.text.mw_util_strrev    0x9d01fd2c           0xb8         184   
.text.__kernel_sin      0x9d01fde4           0xb8         184   
.text.check_fs          0x9d01fe9c           0xb4         180   
.rodata                 0x9d01ff50           0xb4         180  Read-only const 
.text.window_file_tree_ 0x9d020004           0xb4         180   
.text.window_selection_ 0x9d0200b8           0xb4         180   
.text.mw_dialog_file_ch 0x9d02016c           0xac         172   
.text.mw_ui_label_add_n 0x9d020218           0xac         172   
.text.mw_tree_container 0x9d0202c4           0xac         172   
.rodata                 0x9d020370           0xa8         168  Read-only const 
.text.mw_gl_solid_fill_ 0x9d020418           0xa8         168   
.text.mw_ui_arrow_add_n 0x9d0204c0           0xa8         168   
.text.mw_ui_button_add_ 0x9d020568           0xa8         168   
.text.mw_ui_keyboard_ad 0x9d020610           0xa8         168   
.text.mw_set_control_en 0x9d0206b8           0xa8         168   
.text                   0x9d020760           0xa8         168  App's exec code 
.text.CLK_Initialize    0x9d020808           0xa4         164   
.rodata                 0x9d0208ac           0xa4         164  Read-only const 
.text.remove_minimised_ 0x9d020950           0xa4         164   
.text.mw_paint_window_c 0x9d0209f4           0xa4         164   
.rodata                 0x9d020a98           0xa0         160  Read-only const 
.text.sync_window       0x9d020b38           0xa0         160   
.text.mw_ui_scroll_bar_ 0x9d020bd8           0xa0         160   
.text.rcvr_datablock    0x9d020c78           0x9c         156   
.text.get_max_date_for_ 0x9d020d14           0x9c         156   
.text.mw_dialog_two_but 0x9d020db0           0x9c         156   
.text.mw_hal_non_vol_sa 0x9d020e4c           0x9c         156   
.text.draw_redimensioni 0x9d020ee8           0x9c         156   
.text.mw_util_do_rects_ 0x9d020f84           0x9c         156   
.text.SYS_Initialize    0x9d021020           0x98         152   
.text.f_readdir         0x9d0210b8           0x98         152   
.text.mw_gl_get_font_he 0x9d021150           0x98         152   
.text.label_message_fun 0x9d0211e8           0x98         152   
.text.mw_settings_set_c 0x9d021280           0x98         152   
.text.mw_util_safe_strc 0x9d021318           0x98         152   
.text.mw_set_window_hor 0x9d0213b0           0x94         148   
.text.mw_set_window_ver 0x9d021444           0x94         148   
.text.mw_tree_container 0x9d0214d8           0x94         148   
.text.mw_tree_container 0x9d02156c           0x94         148   
.text.mw_util_limit_poi 0x9d021600           0x94         148   
.text.validate          0x9d021694           0x90         144   
.rodata                 0x9d021724          0x120         288  Read-only const 
.rodata                 0x9d021844           0x90         144  Read-only const 
.text.f_mount           0x9d0218d4           0x8c         140   
.text.get_font_data     0x9d021960           0x8c         140   
.text.mw_gl_get_font_wi 0x9d0219ec           0x8c         140   
.text.mw_get_window_cli 0x9d021a78           0x8c         140   
.text.mw_get_control_re 0x9d021b04           0x8c         140   
.text.mw_tree_container 0x9d021b90           0x8c         140   
.text.mw_util_strcicmp  0x9d021c1c           0x8c         140   
.text.xmit_datablock    0x9d021ca8           0x88         136   
.rodata                 0x9d021d30          0x110         272  Read-only const 
.text.getDisplayPoint   0x9d021e40           0x88         136   
.text.paint_all_control 0x9d021ec8           0x88         136   
.text.mw_tree_container 0x9d021f50           0x84         132   
.text                   0x9d021fd4           0x84         132  App's exec code 
.text.mw_dialog_one_but 0x9d022058           0x80         128   
.text.mw_util_is_point_ 0x9d0220d8           0x80         128   
.text.move_window       0x9d022158           0x7c         124   
.text.mw_paint_window_f 0x9d0221d4           0x7c         124   
.text.mw_paint_control_ 0x9d022250           0x7c         124   
.text.mw_util_safe_strc 0x9d0222cc           0x7c         124   
.text.mw_util_get_filen 0x9d022348           0x7c         124   
.text.SPI1_Initialize   0x9d0223c4           0x78         120   
.text.find_if_rect_is_c 0x9d02243c           0x78         120   
.text.get_id_from_handl 0x9d0224b4           0x78         120   
.text.NVM_StartOperatio 0x9d02252c           0x74         116   
.text.SPI2_Initialize   0x9d0225a0           0x74         116   
.text.clmt_clust        0x9d022614           0x74         116   
.text.mw_user_root_pain 0x9d022688           0x74         116   
.text.node_callback     0x9d0226fc           0x70         112   
.rodata                 0x9d02276c           0x6c         108  Read-only const 
.text.strncat           0x9d0227d8           0x6c         108   
.rodata                 0x9d022844           0x68         104  Read-only const 
.text.strrchr           0x9d0228ac           0x68         104   
.text.expand_node_array 0x9d022914           0x64         100   
.text.get_fattime       0x9d022978           0x64         100   
.text.memmove           0x9d0229dc           0x64         100   
.rodata                 0x9d022a40           0x60          96  Read-only const 
.text.wait_ready        0x9d022aa0           0x5c          92   
.text.select            0x9d022afc           0x5c          92   
.text.mw_hal_non_vol_lo 0x9d022b58           0x5c          92   
.rodata                 0x9d022bb4           0x5c          92  Read-only const 
.text.find_highest_z_or 0x9d022c10           0x5c          92   
.text.mw_is_window_hand 0x9d022c6c           0x5c          92   
.text.mw_is_any_window_ 0x9d022cc8           0x5c          92   
.text.mw_get_window_ins 0x9d022d24           0x5c          92   
.text.mw_get_control_pa 0x9d022d80           0x5c          92   
.text.mw_get_control_in 0x9d022ddc           0x5c          92   
.text.mw_get_control_fl 0x9d022e38           0x5c          92   
.rodata                 0x9d022e94           0xb8         184  Read-only const 
.rodata                 0x9d022f4c           0x5c          92  Read-only const 
.text.mw_gl_bg_pixel    0x9d022fa8           0x58          88   
.text.mw_find_if_any_wi 0x9d023000           0x58          88   
.text.get_control_id_fo 0x9d023058           0x54          84   
.text.mw_message_queue_ 0x9d0230ac           0x54          84   
.rodata                 0x9d023100           0x54          84  Read-only const 
.text.app_init          0x9d023154           0x54          84   
.text.main_entry        0x9d0231a8           0x54          84   
.text.get_window_id_for 0x9d0231fc           0x50          80   
.text.root_paint_functi 0x9d02324c           0x50          80   
.text.sbrk              0x9d02329c           0x50          80   
.text.find_number_of_di 0x9d0232ec           0x4c          76   
.text.mw_util_set_rect  0x9d023338           0x4c          76   
.text.mw_util_get_bit   0x9d023384           0x4c          76   
.rodata                 0x9d0233d0           0x90         144  Read-only const 
.rodata                 0x9d023460           0x48          72  Read-only const 
.text.CORETIMER_DelayMs 0x9d0234a8           0x44          68   
.text.mw_gl_init        0x9d0234ec           0x44          68   
.text.mw_gl_set_font    0x9d023530           0x44          68   
.text.mw_gl_fg_pixel    0x9d023574           0x44          68   
.text.mw_ui_common_scal 0x9d0235b8           0x44          68   
.text                   0x9d0235fc           0x44          68  App's exec code 
.text.TMR2_Initialize   0x9d023640           0x40          64   
.text.TIMER_2_Interrupt 0x9d023680           0x40          64   
.text.TMR3_Initialize   0x9d0236c0           0x40          64   
.text.TIMER_3_Interrupt 0x9d023700           0x40          64   
.text.ld_clust          0x9d023740           0x40          64   
.text.f_close           0x9d023780           0x40          64   
.text.mw_tree_container 0x9d0237c0           0x40          64   
.text.mw_tree_container 0x9d023800           0x40          64   
.text.mw_tree_container 0x9d023840           0x40          64   
.text.CORETIMER_Initial 0x9d023880           0x3c          60   
.text.EVIC_Initialize   0x9d0238bc           0x3c          60   
.rodata                 0x9d0238f8           0x78         120  Read-only const 
.rodata                 0x9d023970           0x78         120  Read-only const 
.text.mw_hal_init       0x9d0239e8           0x3c          60   
.rodata                 0x9d023a24           0x74         116  Read-only const 
.text.CORETIMER_DelayUs 0x9d023a98           0x34          52   
.text.mw_paint_all      0x9d023acc           0x34          52   
.text.app_set_time_date 0x9d023b00           0x34          52   
.text.NVM_RowWrite      0x9d023b34           0x30          48   
.text.clst2sect         0x9d023b64           0x30          48   
.text.st_clust          0x9d023b94           0x30          48   
.text.f_closedir        0x9d023bc4           0x30          48   
.text.write_command     0x9d023bf4           0x30          48   
.text.write_data        0x9d023c24           0x30          48   
.text.main              0x9d023c54           0x30          48   
.text.app_file_getc     0x9d023c84           0x30          48   
.text.app_file_read     0x9d023cb4           0x30          48   
.text.app_file_write    0x9d023ce4           0x30          48   
.text.NVM_Read          0x9d023d14           0x2c          44   
.text.ld_dword          0x9d023d40           0x2c          44   
.text.mem_cmp           0x9d023d6c           0x2c          44   
.text.deselect          0x9d023d98           0x2c          44   
.text.mw_hal_timer_init 0x9d023dc4           0x2c          44   
.text.app_file_open     0x9d023df0           0x2c          44   
.text.app_file_create   0x9d023e1c           0x2c          44   
.text._stub_sbd_memlayo 0x9d023e48           0x2c          44   
.text.NVM_WriteUnlockSe 0x9d023e74           0x28          40   
.text.SPI1_Read         0x9d023e9c           0x28          40   
.text.get_cursor_x_coor 0x9d023ec4           0x28          40   
.text.TMR2_InterruptSvc 0x9d023eec           0x28          40   
.text.NVM_Initialize    0x9d023f14           0x24          36   
.text._general_exceptio 0x9d023f38           0x24          36   
.text._bootstrap_except 0x9d023f5c           0x24          36   
.text._cache_err_except 0x9d023f80           0x24          36   
.text._simple_tlb_refil 0x9d023fa4           0x24          36   
.text.mem_cpy           0x9d023fc8           0x24          36   
.text.mw_settings_load  0x9d023fec           0x24          36   
.text.mw_settings_save  0x9d024010           0x24          36   
.text.app_file_seek     0x9d024034           0x24          36   
.text.tolower           0x9d024058           0x24          36   
.text.NVM_PageErase     0x9d02407c           0x20          32   
.text.SPI2_Write        0x9d02409c           0x20          32   
.text.SPI1_Write        0x9d0240bc           0x20          32   
.text.st_dword          0x9d0240dc           0x20          32   
.rodata                 0x9d0240fc           0x40          64  Read-only const 
.rodata                 0x9d02413c           0x40          64  Read-only const 
.rodata                 0x9d02417c           0x40          64  Read-only const 
.rodata                 0x9d0241bc           0x40          64  Read-only const 
.rodata                 0x9d0241fc           0x20          32  Read-only const 
.text.app_file_close    0x9d02421c           0x20          32   
.text.app_get_time_date 0x9d02423c           0x20          32   
.text.SPI1_send         0x9d02425c           0x1c          28   
.text.SPI1_receive      0x9d024278           0x1c          28   
.text.delay_us          0x9d024294           0x1c          28   
.rodata                 0x9d0242b0           0x38          56  Read-only const 
.rodata                 0x9d0242e8           0x38          56  Read-only const 
.text.mw_hal_delay_ms   0x9d024320           0x1c          28   
.text.mw_settings_is_in 0x9d02433c           0x1c          28   
.text.mw_settings_set_t 0x9d024358           0x1c          28   
.text                   0x9d024374           0x18          24  App's exec code 
.text.TMR2_Start        0x9d02438c           0x14          20   
.text.TMR3_Start        0x9d0243a0           0x14          20   
.text.TMR3_Stop         0x9d0243b4           0x14          20   
.text.SPI1_init         0x9d0243c8           0x14          20   
.text.mw_hal_timer_fire 0x9d0243dc           0x14          20   
.text.mw_hal_touch_is_r 0x9d0243f0           0x14          20   
.text.NVM_IsBusy        0x9d024404           0x10          16   
.text.disk_status       0x9d024414           0x10          16   
.text.mw_hal_touch_get_ 0x9d024424           0x10          16   
.text.get_next_handle   0x9d024434           0x10          16   
.rodata                 0x9d024444           0x10          16  Read-only const 
.text.__exception_handl 0x9d024454            0xc          12   
.text.TMR2_CallbackRegi 0x9d024460            0xc          12   
.text.TMR3_CallbackRegi 0x9d02446c            0xc          12   
.text.mw_gl_set_fg_colo 0x9d024478            0xc          12   
.text.mw_gl_set_bg_colo 0x9d024484            0xc          12   
.text.mw_gl_set_solid_f 0x9d024490            0xc          12   
.text.mw_gl_set_line    0x9d02449c            0xc          12   
.text.mw_gl_clear_patte 0x9d0244a8            0xc          12   
.text.mw_gl_set_border  0x9d0244b4            0xc          12   
.text.mw_gl_set_fill    0x9d0244c0            0xc          12   
.text.mw_gl_set_bg_tran 0x9d0244cc            0xc          12   
.text.mw_gl_set_text_ro 0x9d0244d8            0xc          12   
.text.mw_settings_is_ca 0x9d0244e4            0xc          12   
.text.mw_settings_set_c 0x9d0244f0            0xc          12   
.text.mw_settings_get_c 0x9d0244fc            0xc          12   
.text.app_file_size     0x9d024508            0xc          12   
.rodata                 0x9d024514           0x10          16  Read-only const 
.rodata                 0x9d024524           0x10          16  Read-only const 
.text.mw_hal_delay_init 0x9d024534            0x8           8   
.text.mw_hal_lcd_get_di 0x9d02453c            0x8           8   
.text.mw_hal_lcd_get_di 0x9d024544            0x8           8   
.text.mw_hal_non_vol_in 0x9d02454c            0x8           8   
.text.mw_hal_touch_init 0x9d024554            0x8           8   
.text.mw_user_root_mess 0x9d02455c            0x8           8   
.text.app_main_loop_pro 0x9d024564            0x8           8   
.text.app_get_root_fold 0x9d02456c            0x8           8   
.text._on_reset         0x9d024574            0x8           8   
.text._on_bootstrap     0x9d02457c            0x8           8   
.rodata                 0x9d024588            0x8           8  Read-only const 
reserve_prog_0x1d1fc000 0x9d1fc000         0x4000       16384   
      Total kseg0_program_mem used  :     0x2858b      165259  7.9% of 0x200000

kseg0 Boot-Memory Usage
section                    address  length [bytes]      (dec)  Description
-------                 ----------  -------------------------  -----------
         Total kseg0_boot_mem used  :           0           0  

kseg1 Boot-Memory Usage
section                    address  length [bytes]      (dec)  Description
-------                 ----------  -------------------------  -----------
.reset                  0xbfc00000          0x1b4         436  Reset handler 
.bev_excpt              0xbfc00380           0x10          16  BEV-Exception 
         Total kseg1_boot_mem used  :       0x1c4         452  39.2% of 0x480
        --------------------------------------------------------------------------
         Total Program Memory used  :     0x2874f      165711  7.9% of 0x200480
        --------------------------------------------------------------------------


kseg0 Data-Memory Usage
section                    address  length [bytes]      (dec)  Description
-------                 ----------  -------------------------  -----------
.sdata                  0x80000000           0x6c         108  Small init data 
.sbss                   0x8000006c           0xc0         192  Small uninit data 
.bss.errno              0x8000012c            0x4           4   
.bss                    0x80004130         0x10f8        4344  Uninitialized data 
.bss                    0x80005228          0x824        2084  Uninitialized data 
.bss                    0x80005a4c          0x468        1128  Uninitialized data 
.bss                    0x80005eb4          0x1a4         420  Uninitialized data 
.bss                    0x80006058           0xf4         244  Uninitialized data 
.data                   0x8000614c           0x70         112  Initialized data 
.bss                    0x800061bc           0xac         172  Uninitialized data 
.bss                    0x80006268           0x60          96  Uninitialized data 
.bss                    0x800062c8           0x48          72  Uninitialized data 
.bss                    0x80006310           0x20          32  Uninitialized data 
.data                   0x80006330           0x20          32  Initialized data 
.bss                    0x80006350           0x20          32  Uninitialized data 
         Total kseg0_data_mem used  :      0x2370        9072  1.7% of 0x80000
        --------------------------------------------------------------------------
            Total Data Memory used  :      0x2370        9072  1.7% of 0x80000
        --------------------------------------------------------------------------


Dynamic Data-Memory Reservation
section                    address  length [bytes]      (dec)  Description
-------                 ----------  -------------------------  -----------
heap                    0x80006378          0x200         512  Reserved for heap 
stack                   0x80006590        0x79a68      498280  Reserved for stack 

        --------------------------------------------------------------------------

Discarded input sections

 .text          0x00000000        0x0 c:/program files/microchip/xc32/v2.50/bin/bin/../../lib/gcc/pic32mx/4.8.3/../../../../pic32mx/lib/fpu64\software-debug-break.o
 .data          0x00000000        0x0 c:/program files/microchip/xc32/v2.50/bin/bin/../../lib/gcc/pic32mx/4.8.3/../../../../pic32mx/lib/fpu64\software-debug-break.o
 .bss           0x00000000        0x0 c:/program files/microchip/xc32/v2.50/bin/bin/../../lib/gcc/pic32mx/4.8.3/../../../../pic32mx/lib/fpu64\software-debug-break.o
 .text          0x00000000        0x0 build/default/production/_ext/60165520/plib_clk.o
 .data          0x00000000        0x0 build/default/production/_ext/60165520/plib_clk.o
 .bss           0x00000000        0x0 build/default/production/_ext/60165520/plib_clk.o
 .reginfo       0x00000000       0x18 build/default/production/_ext/60165520/plib_clk.o
 .text          0x00000000        0x0 build/default/production/_ext/1249264884/plib_coretimer.o
 .data          0x00000000        0x0 build/default/production/_ext/1249264884/plib_coretimer.o
 .bss           0x00000000        0x0 build/default/production/_ext/1249264884/plib_coretimer.o
 .reginfo       0x00000000       0x18 build/default/production/_ext/1249264884/plib_coretimer.o
 .text.CORETIMER_Start
                0x00000000       0x5c build/default/production/_ext/1249264884/plib_coretimer.o
 .text.CORETIMER_Stop
                0x00000000       0x28 build/default/production/_ext/1249264884/plib_coretimer.o
 .text.CORETIMER_FrequencyGet
                0x00000000        0xc build/default/production/_ext/1249264884/plib_coretimer.o
 .text.CORETIMER_CompareSet
                0x00000000       0x20 build/default/production/_ext/1249264884/plib_coretimer.o
 .text.CORETIMER_CounterGet
                0x00000000       0x18 build/default/production/_ext/1249264884/plib_coretimer.o
 .text.CORETIMER_CompareHasExpired
                0x00000000       0x2c build/default/production/_ext/1249264884/plib_coretimer.o
 .text          0x00000000        0x0 build/default/production/_ext/1865200349/plib_evic.o
 .data          0x00000000        0x0 build/default/production/_ext/1865200349/plib_evic.o
 .bss           0x00000000        0x0 build/default/production/_ext/1865200349/plib_evic.o
 .reginfo       0x00000000       0x18 build/default/production/_ext/1865200349/plib_evic.o
 .text.EVIC_SourceEnable
                0x00000000       0x28 build/default/production/_ext/1865200349/plib_evic.o
 .text.EVIC_SourceDisable
                0x00000000       0x28 build/default/production/_ext/1865200349/plib_evic.o
 .text.EVIC_SourceIsEnabled
                0x00000000       0x20 build/default/production/_ext/1865200349/plib_evic.o
 .text.EVIC_SourceStatusGet
                0x00000000       0x20 build/default/production/_ext/1865200349/plib_evic.o
 .text.EVIC_SourceStatusSet
                0x00000000       0x28 build/default/production/_ext/1865200349/plib_evic.o
 .text.EVIC_SourceStatusClear
                0x00000000       0x28 build/default/production/_ext/1865200349/plib_evic.o
 .text          0x00000000        0x0 build/default/production/_ext/1865254177/plib_gpio.o
 .data          0x00000000        0x0 build/default/production/_ext/1865254177/plib_gpio.o
 .bss           0x00000000        0x0 build/default/production/_ext/1865254177/plib_gpio.o
 .reginfo       0x00000000       0x18 build/default/production/_ext/1865254177/plib_gpio.o
 .text.GPIO_PortRead
                0x00000000       0x18 build/default/production/_ext/1865254177/plib_gpio.o
 .text.GPIO_PortWrite
                0x00000000       0x30 build/default/production/_ext/1865254177/plib_gpio.o
 .text.GPIO_PortLatchRead
                0x00000000       0x18 build/default/production/_ext/1865254177/plib_gpio.o
 .text.GPIO_PortSet
                0x00000000       0x1c build/default/production/_ext/1865254177/plib_gpio.o
 .text.GPIO_PortClear
                0x00000000       0x1c build/default/production/_ext/1865254177/plib_gpio.o
 .text.GPIO_PortToggle
                0x00000000       0x1c build/default/production/_ext/1865254177/plib_gpio.o
 .text.GPIO_PortInputEnable
                0x00000000       0x1c build/default/production/_ext/1865254177/plib_gpio.o
 .text.GPIO_PortOutputEnable
                0x00000000       0x1c build/default/production/_ext/1865254177/plib_gpio.o
 .text          0x00000000        0x0 build/default/production/_ext/60176403/plib_nvm.o
 .data          0x00000000        0x0 build/default/production/_ext/60176403/plib_nvm.o
 .bss           0x00000000        0x0 build/default/production/_ext/60176403/plib_nvm.o
 .reginfo       0x00000000       0x18 build/default/production/_ext/60176403/plib_nvm.o
 .text.NVM_WordWrite
                0x00000000       0x2c build/default/production/_ext/60176403/plib_nvm.o
 .text.NVM_QuadWordWrite
                0x00000000       0x54 build/default/production/_ext/60176403/plib_nvm.o
 .text.NVM_ErrorGet
                0x00000000       0x10 build/default/production/_ext/60176403/plib_nvm.o
 .text.NVM_ProgramFlashSwapBank
                0x00000000       0x4c build/default/production/_ext/60176403/plib_nvm.o
 .text.NVM_ProgramFlashWriteProtect
                0x00000000       0x48 build/default/production/_ext/60176403/plib_nvm.o
 .text.NVM_ProgramFlashWriteProtectLock
                0x00000000       0x40 build/default/production/_ext/60176403/plib_nvm.o
 .text.NVM_BootFlashWriteProtectEnable
                0x00000000       0x48 build/default/production/_ext/60176403/plib_nvm.o
 .text.NVM_BootFlashWriteProtectDisable
                0x00000000       0x48 build/default/production/_ext/60176403/plib_nvm.o
 .text.NVM_BootFlashWriteProtectLock
                0x00000000       0x48 build/default/production/_ext/60176403/plib_nvm.o
 .text          0x00000000        0x0 build/default/production/_ext/298189674/plib_spi2_master.o
 .data          0x00000000        0x0 build/default/production/_ext/298189674/plib_spi2_master.o
 .bss           0x00000000        0x0 build/default/production/_ext/298189674/plib_spi2_master.o
 .reginfo       0x00000000       0x18 build/default/production/_ext/298189674/plib_spi2_master.o
 .text.SPI2_Read
                0x00000000       0x28 build/default/production/_ext/298189674/plib_spi2_master.o
 .text          0x00000000        0x0 build/default/production/_ext/298189674/plib_spi1_master.o
 .data          0x00000000        0x0 build/default/production/_ext/298189674/plib_spi1_master.o
 .bss           0x00000000        0x0 build/default/production/_ext/298189674/plib_spi1_master.o
 .reginfo       0x00000000       0x18 build/default/production/_ext/298189674/plib_spi1_master.o
 .text.SPI1_TransferSetup
                0x00000000       0xb8 build/default/production/_ext/298189674/plib_spi1_master.o
 .text          0x00000000        0x0 build/default/production/_ext/60181895/plib_tmr2.o
 .data          0x00000000        0x0 build/default/production/_ext/60181895/plib_tmr2.o
 .bss           0x00000000        0x0 build/default/production/_ext/60181895/plib_tmr2.o
 .reginfo       0x00000000       0x18 build/default/production/_ext/60181895/plib_tmr2.o
 .text.TMR2_Stop
                0x00000000       0x14 build/default/production/_ext/60181895/plib_tmr2.o
 .text.TMR2_PeriodSet
                0x00000000       0x10 build/default/production/_ext/60181895/plib_tmr2.o
 .text.TMR2_PeriodGet
                0x00000000       0x10 build/default/production/_ext/60181895/plib_tmr2.o
 .text.TMR2_CounterGet
                0x00000000       0x10 build/default/production/_ext/60181895/plib_tmr2.o
 .text.TMR2_FrequencyGet
                0x00000000        0xc build/default/production/_ext/60181895/plib_tmr2.o
 .text.TMR2_InterruptEnable
                0x00000000       0x14 build/default/production/_ext/60181895/plib_tmr2.o
 .text.TMR2_InterruptDisable
                0x00000000       0x14 build/default/production/_ext/60181895/plib_tmr2.o
 .text          0x00000000        0x0 build/default/production/_ext/60181895/plib_tmr3.o
 .data          0x00000000        0x0 build/default/production/_ext/60181895/plib_tmr3.o
 .bss           0x00000000        0x0 build/default/production/_ext/60181895/plib_tmr3.o
 .reginfo       0x00000000       0x18 build/default/production/_ext/60181895/plib_tmr3.o
 .text.TMR3_PeriodSet
                0x00000000       0x10 build/default/production/_ext/60181895/plib_tmr3.o
 .text.TMR3_PeriodGet
                0x00000000       0x10 build/default/production/_ext/60181895/plib_tmr3.o
 .text.TMR3_CounterGet
                0x00000000       0x10 build/default/production/_ext/60181895/plib_tmr3.o
 .text.TMR3_FrequencyGet
                0x00000000        0xc build/default/production/_ext/60181895/plib_tmr3.o
 .text.TMR3_InterruptEnable
                0x00000000       0x14 build/default/production/_ext/60181895/plib_tmr3.o
 .text.TMR3_InterruptDisable
                0x00000000       0x14 build/default/production/_ext/60181895/plib_tmr3.o
 .text          0x00000000        0x0 build/default/production/_ext/163028504/xc32_monitor.o
 .data          0x00000000        0x0 build/default/production/_ext/163028504/xc32_monitor.o
 .bss           0x00000000        0x0 build/default/production/_ext/163028504/xc32_monitor.o
 .reginfo       0x00000000       0x18 build/default/production/_ext/163028504/xc32_monitor.o
 .text._mon_getc
                0x00000000        0x8 build/default/production/_ext/163028504/xc32_monitor.o
 .text._mon_putc
                0x00000000        0x8 build/default/production/_ext/163028504/xc32_monitor.o
 .text          0x00000000        0x0 build/default/production/_ext/1171490990/initialization.o
 .data          0x00000000        0x0 build/default/production/_ext/1171490990/initialization.o
 .bss           0x00000000        0x0 build/default/production/_ext/1171490990/initialization.o
 .reginfo       0x00000000       0x18 build/default/production/_ext/1171490990/initialization.o
 .text          0x00000000        0x0 build/default/production/_ext/1171490990/interrupts.o
 .data          0x00000000        0x0 build/default/production/_ext/1171490990/interrupts.o
 .bss           0x00000000        0x0 build/default/production/_ext/1171490990/interrupts.o
 .reginfo       0x00000000       0x18 build/default/production/_ext/1171490990/interrupts.o
 .text          0x00000000        0x0 build/default/production/_ext/1171490990/exceptions.o
 .data          0x00000000        0x0 build/default/production/_ext/1171490990/exceptions.o
 .bss           0x00000000        0x0 build/default/production/_ext/1171490990/exceptions.o
 .reginfo       0x00000000       0x18 build/default/production/_ext/1171490990/exceptions.o
 .text          0x00000000        0x0 build/default/production/_ext/1592496102/ff.o
 .data          0x00000000        0x0 build/default/production/_ext/1592496102/ff.o
 .bss           0x00000000        0x0 build/default/production/_ext/1592496102/ff.o
 .reginfo       0x00000000       0x18 build/default/production/_ext/1592496102/ff.o
 .text.f_stat   0x00000000       0x80 build/default/production/_ext/1592496102/ff.o
 .text.f_getfree
                0x00000000      0x1b4 build/default/production/_ext/1592496102/ff.o
 .text.f_truncate
                0x00000000      0x15c build/default/production/_ext/1592496102/ff.o
 .text.f_unlink
                0x00000000      0x148 build/default/production/_ext/1592496102/ff.o
 .text.f_mkdir  0x00000000      0x1f0 build/default/production/_ext/1592496102/ff.o
 .text.f_rename
                0x00000000      0x1f4 build/default/production/_ext/1592496102/ff.o
 .text          0x00000000        0x0 build/default/production/_ext/1592496102/sdmm.o
 .data          0x00000000        0x0 build/default/production/_ext/1592496102/sdmm.o
 .bss           0x00000000        0x0 build/default/production/_ext/1592496102/sdmm.o
 .reginfo       0x00000000       0x18 build/default/production/_ext/1592496102/sdmm.o
 .text          0x00000000        0x0 build/default/production/_ext/1592496102/spi_driver.o
 .data          0x00000000        0x0 build/default/production/_ext/1592496102/spi_driver.o
 .bss           0x00000000        0x0 build/default/production/_ext/1592496102/spi_driver.o
 .reginfo       0x00000000       0x18 build/default/production/_ext/1592496102/spi_driver.o
 .text          0x00000000        0x0 build/default/production/_ext/1275709973/backspace_key.o
 .data          0x00000000        0x0 build/default/production/_ext/1275709973/backspace_key.o
 .bss           0x00000000        0x0 build/default/production/_ext/1275709973/backspace_key.o
 .reginfo       0x00000000       0x18 build/default/production/_ext/1275709973/backspace_key.o
 .text          0x00000000        0x0 build/default/production/_ext/1275709973/close_icon.o
 .data          0x00000000        0x0 build/default/production/_ext/1275709973/close_icon.o
 .bss           0x00000000        0x0 build/default/production/_ext/1275709973/close_icon.o
 .reginfo       0x00000000       0x18 build/default/production/_ext/1275709973/close_icon.o
 .text          0x00000000        0x0 build/default/production/_ext/1275709973/close_icon_large.o
 .data          0x00000000        0x0 build/default/production/_ext/1275709973/close_icon_large.o
 .bss           0x00000000        0x0 build/default/production/_ext/1275709973/close_icon_large.o
 .reginfo       0x00000000       0x18 build/default/production/_ext/1275709973/close_icon_large.o
 .text          0x00000000        0x0 build/default/production/_ext/1275709973/file_icon_large.o
 .data          0x00000000        0x0 build/default/production/_ext/1275709973/file_icon_large.o
 .bss           0x00000000        0x0 build/default/production/_ext/1275709973/file_icon_large.o
 .reginfo       0x00000000       0x18 build/default/production/_ext/1275709973/file_icon_large.o
 .text          0x00000000        0x0 build/default/production/_ext/1275709973/file_icon_small.o
 .data          0x00000000        0x0 build/default/production/_ext/1275709973/file_icon_small.o
 .bss           0x00000000        0x0 build/default/production/_ext/1275709973/file_icon_small.o
 .reginfo       0x00000000       0x18 build/default/production/_ext/1275709973/file_icon_small.o
 .text          0x00000000        0x0 build/default/production/_ext/1275709973/folder_close_icon_large.o
 .data          0x00000000        0x0 build/default/production/_ext/1275709973/folder_close_icon_large.o
 .bss           0x00000000        0x0 build/default/production/_ext/1275709973/folder_close_icon_large.o
 .reginfo       0x00000000       0x18 build/default/production/_ext/1275709973/folder_close_icon_large.o
 .text          0x00000000        0x0 build/default/production/_ext/1275709973/folder_close_icon_small.o
 .data          0x00000000        0x0 build/default/production/_ext/1275709973/folder_close_icon_small.o
 .bss           0x00000000        0x0 build/default/production/_ext/1275709973/folder_close_icon_small.o
 .reginfo       0x00000000       0x18 build/default/production/_ext/1275709973/folder_close_icon_small.o
 .text          0x00000000        0x0 build/default/production/_ext/1275709973/folder_icon_large.o
 .data          0x00000000        0x0 build/default/production/_ext/1275709973/folder_icon_large.o
 .bss           0x00000000        0x0 build/default/production/_ext/1275709973/folder_icon_large.o
 .reginfo       0x00000000       0x18 build/default/production/_ext/1275709973/folder_icon_large.o
 .text          0x00000000        0x0 build/default/production/_ext/1275709973/folder_icon_small.o
 .data          0x00000000        0x0 build/default/production/_ext/1275709973/folder_icon_small.o
 .bss           0x00000000        0x0 build/default/production/_ext/1275709973/folder_icon_small.o
 .reginfo       0x00000000       0x18 build/default/production/_ext/1275709973/folder_icon_small.o
 .text          0x00000000        0x0 build/default/production/_ext/1275709973/folder_open_icon_large.o
 .data          0x00000000        0x0 build/default/production/_ext/1275709973/folder_open_icon_large.o
 .bss           0x00000000        0x0 build/default/production/_ext/1275709973/folder_open_icon_large.o
 .reginfo       0x00000000       0x18 build/default/production/_ext/1275709973/folder_open_icon_large.o
 .text          0x00000000        0x0 build/default/production/_ext/1275709973/folder_open_icon_small.o
 .data          0x00000000        0x0 build/default/production/_ext/1275709973/folder_open_icon_small.o
 .bss           0x00000000        0x0 build/default/production/_ext/1275709973/folder_open_icon_small.o
 .reginfo       0x00000000       0x18 build/default/production/_ext/1275709973/folder_open_icon_small.o
 .text          0x00000000        0x0 build/default/production/_ext/1275709973/let_key.o
 .data          0x00000000        0x0 build/default/production/_ext/1275709973/let_key.o
 .bss           0x00000000        0x0 build/default/production/_ext/1275709973/let_key.o
 .reginfo       0x00000000       0x18 build/default/production/_ext/1275709973/let_key.o
 .text          0x00000000        0x0 build/default/production/_ext/1275709973/maximise_icon.o
 .data          0x00000000        0x0 build/default/production/_ext/1275709973/maximise_icon.o
 .bss           0x00000000        0x0 build/default/production/_ext/1275709973/maximise_icon.o
 .reginfo       0x00000000       0x18 build/default/production/_ext/1275709973/maximise_icon.o
 .text          0x00000000        0x0 build/default/production/_ext/1275709973/maximise_icon_large.o
 .data          0x00000000        0x0 build/default/production/_ext/1275709973/maximise_icon_large.o
 .bss           0x00000000        0x0 build/default/production/_ext/1275709973/maximise_icon_large.o
 .reginfo       0x00000000       0x18 build/default/production/_ext/1275709973/maximise_icon_large.o
 .text          0x00000000        0x0 build/default/production/_ext/1275709973/minimise_icon.o
 .data          0x00000000        0x0 build/default/production/_ext/1275709973/minimise_icon.o
 .bss           0x00000000        0x0 build/default/production/_ext/1275709973/minimise_icon.o
 .reginfo       0x00000000       0x18 build/default/production/_ext/1275709973/minimise_icon.o
 .text          0x00000000        0x0 build/default/production/_ext/1275709973/minimise_icon_large.o
 .data          0x00000000        0x0 build/default/production/_ext/1275709973/minimise_icon_large.o
 .bss           0x00000000        0x0 build/default/production/_ext/1275709973/minimise_icon_large.o
 .reginfo       0x00000000       0x18 build/default/production/_ext/1275709973/minimise_icon_large.o
 .text          0x00000000        0x0 build/default/production/_ext/1275709973/num_key.o
 .data          0x00000000        0x0 build/default/production/_ext/1275709973/num_key.o
 .bss           0x00000000        0x0 build/default/production/_ext/1275709973/num_key.o
 .reginfo       0x00000000       0x18 build/default/production/_ext/1275709973/num_key.o
 .text          0x00000000        0x0 build/default/production/_ext/1275709973/resize_icon.o
 .data          0x00000000        0x0 build/default/production/_ext/1275709973/resize_icon.o
 .bss           0x00000000        0x0 build/default/production/_ext/1275709973/resize_icon.o
 .reginfo       0x00000000       0x18 build/default/production/_ext/1275709973/resize_icon.o
 .text          0x00000000        0x0 build/default/production/_ext/1275709973/resize_icon_large.o
 .data          0x00000000        0x0 build/default/production/_ext/1275709973/resize_icon_large.o
 .bss           0x00000000        0x0 build/default/production/_ext/1275709973/resize_icon_large.o
 .reginfo       0x00000000       0x18 build/default/production/_ext/1275709973/resize_icon_large.o
 .text          0x00000000        0x0 build/default/production/_ext/1275709973/shift_key.o
 .data          0x00000000        0x0 build/default/production/_ext/1275709973/shift_key.o
 .bss           0x00000000        0x0 build/default/production/_ext/1275709973/shift_key.o
 .reginfo       0x00000000       0x18 build/default/production/_ext/1275709973/shift_key.o
 .text          0x00000000        0x0 build/default/production/_ext/1275709973/sym_key.o
 .data          0x00000000        0x0 build/default/production/_ext/1275709973/sym_key.o
 .bss           0x00000000        0x0 build/default/production/_ext/1275709973/sym_key.o
 .reginfo       0x00000000       0x18 build/default/production/_ext/1275709973/sym_key.o
 .text          0x00000000        0x0 build/default/production/_ext/1275709973/tick.o
 .data          0x00000000        0x0 build/default/production/_ext/1275709973/tick.o
 .bss           0x00000000        0x0 build/default/production/_ext/1275709973/tick.o
 .reginfo       0x00000000       0x18 build/default/production/_ext/1275709973/tick.o
 .rodata        0x00000000       0x18 build/default/production/_ext/1275709973/tick.o
 .text          0x00000000        0x0 build/default/production/_ext/1275709973/tick_large.o
 .data          0x00000000        0x0 build/default/production/_ext/1275709973/tick_large.o
 .bss           0x00000000        0x0 build/default/production/_ext/1275709973/tick_large.o
 .reginfo       0x00000000       0x18 build/default/production/_ext/1275709973/tick_large.o
 .rodata        0x00000000       0x48 build/default/production/_ext/1275709973/tick_large.o
 .text          0x00000000        0x0 build/default/production/_ext/481733874/dialog_colour_chooser.o
 .data          0x00000000        0x0 build/default/production/_ext/481733874/dialog_colour_chooser.o
 .bss           0x00000000       0x3c build/default/production/_ext/481733874/dialog_colour_chooser.o
 .reginfo       0x00000000       0x18 build/default/production/_ext/481733874/dialog_colour_chooser.o
 .rodata        0x00000000       0xa4 build/default/production/_ext/481733874/dialog_colour_chooser.o
 .text.mw_dialog_colour_chooser_message_function
                0x00000000      0x230 build/default/production/_ext/481733874/dialog_colour_chooser.o
 .text.mw_dialog_colour_chooser_paint_function
                0x00000000      0x26c build/default/production/_ext/481733874/dialog_colour_chooser.o
 .text.mw_create_window_dialog_colour_chooser
                0x00000000      0x3b4 build/default/production/_ext/481733874/dialog_colour_chooser.o
 .text          0x00000000        0x0 build/default/production/_ext/481733874/dialog_date_chooser.o
 .data          0x00000000        0x0 build/default/production/_ext/481733874/dialog_date_chooser.o
 .reginfo       0x00000000       0x18 build/default/production/_ext/481733874/dialog_date_chooser.o
 .text          0x00000000        0x0 build/default/production/_ext/481733874/dialog_file_chooser.o
 .data          0x00000000        0x0 build/default/production/_ext/481733874/dialog_file_chooser.o
 .reginfo       0x00000000       0x18 build/default/production/_ext/481733874/dialog_file_chooser.o
 .text          0x00000000        0x0 build/default/production/_ext/481733874/dialog_number_entry.o
 .data          0x00000000        0x0 build/default/production/_ext/481733874/dialog_number_entry.o
 .bss           0x00000000       0x68 build/default/production/_ext/481733874/dialog_number_entry.o
 .reginfo       0x00000000       0x18 build/default/production/_ext/481733874/dialog_number_entry.o
 .rodata        0x00000000       0xc8 build/default/production/_ext/481733874/dialog_number_entry.o
 .text.get_cursor_x_coordinate
                0x00000000       0x8c build/default/production/_ext/481733874/dialog_number_entry.o
 .text.mw_dialog_number_entry_message_function
                0x00000000      0x324 build/default/production/_ext/481733874/dialog_number_entry.o
 .text.mw_dialog_number_entry_paint_function
                0x00000000      0x31c build/default/production/_ext/481733874/dialog_number_entry.o
 .text.mw_create_window_dialog_number_entry
                0x00000000      0x344 build/default/production/_ext/481733874/dialog_number_entry.o
 .text          0x00000000        0x0 build/default/production/_ext/481733874/dialog_one_button.o
 .data          0x00000000        0x0 build/default/production/_ext/481733874/dialog_one_button.o
 .reginfo       0x00000000       0x18 build/default/production/_ext/481733874/dialog_one_button.o
 .text          0x00000000        0x0 build/default/production/_ext/481733874/dialog_text_entry.o
 .data          0x00000000        0x0 build/default/production/_ext/481733874/dialog_text_entry.o
 .reginfo       0x00000000       0x18 build/default/production/_ext/481733874/dialog_text_entry.o
 .text          0x00000000        0x0 build/default/production/_ext/481733874/dialog_time_chooser.o
 .data          0x00000000        0x0 build/default/production/_ext/481733874/dialog_time_chooser.o
 .reginfo       0x00000000       0x18 build/default/production/_ext/481733874/dialog_time_chooser.o
 .text          0x00000000        0x0 build/default/production/_ext/481733874/dialog_two_button.o
 .data          0x00000000        0x0 build/default/production/_ext/481733874/dialog_two_button.o
 .reginfo       0x00000000       0x18 build/default/production/_ext/481733874/dialog_two_button.o
 .text          0x00000000        0x0 build/default/production/_ext/194049764/font12.o
 .data          0x00000000        0x0 build/default/production/_ext/194049764/font12.o
 .bss           0x00000000        0x0 build/default/production/_ext/194049764/font12.o
 .reginfo       0x00000000       0x18 build/default/production/_ext/194049764/font12.o
 .text          0x00000000        0x0 build/default/production/_ext/194049764/font16.o
 .data          0x00000000        0x0 build/default/production/_ext/194049764/font16.o
 .bss           0x00000000        0x0 build/default/production/_ext/194049764/font16.o
 .reginfo       0x00000000       0x18 build/default/production/_ext/194049764/font16.o
 .text          0x00000000        0x0 build/default/production/_ext/194049764/font20.o
 .data          0x00000000        0x0 build/default/production/_ext/194049764/font20.o
 .bss           0x00000000        0x0 build/default/production/_ext/194049764/font20.o
 .reginfo       0x00000000       0x18 build/default/production/_ext/194049764/font20.o
 .text          0x00000000        0x0 build/default/production/_ext/194049764/font24.o
 .data          0x00000000        0x0 build/default/production/_ext/194049764/font24.o
 .bss           0x00000000        0x0 build/default/production/_ext/194049764/font24.o
 .reginfo       0x00000000       0x18 build/default/production/_ext/194049764/font24.o
 .text          0x00000000        0x0 build/default/production/_ext/194049764/font9.o
 .data          0x00000000        0x0 build/default/production/_ext/194049764/font9.o
 .bss           0x00000000        0x0 build/default/production/_ext/194049764/font9.o
 .reginfo       0x00000000       0x18 build/default/production/_ext/194049764/font9.o
 .text          0x00000000        0x0 build/default/production/_ext/194049764/gl_title_font.o
 .data          0x00000000        0x0 build/default/production/_ext/194049764/gl_title_font.o
 .bss           0x00000000        0x0 build/default/production/_ext/194049764/gl_title_font.o
 .reginfo       0x00000000       0x18 build/default/production/_ext/194049764/gl_title_font.o
 .text          0x00000000        0x0 build/default/production/_ext/1391772861/mf_bwfont.o
 .data          0x00000000        0x0 build/default/production/_ext/1391772861/mf_bwfont.o
 .bss           0x00000000        0x0 build/default/production/_ext/1391772861/mf_bwfont.o
 .reginfo       0x00000000       0x18 build/default/production/_ext/1391772861/mf_bwfont.o
 .text.mf_bwfont_render_character
                0x00000000      0x2c8 build/default/production/_ext/1391772861/mf_bwfont.o
 .text.mf_bwfont_character_width
                0x00000000       0x8c build/default/production/_ext/1391772861/mf_bwfont.o
 .text          0x00000000        0x0 build/default/production/_ext/1391772861/mf_encoding.o
 .data          0x00000000        0x0 build/default/production/_ext/1391772861/mf_encoding.o
 .bss           0x00000000        0x0 build/default/production/_ext/1391772861/mf_encoding.o
 .reginfo       0x00000000       0x18 build/default/production/_ext/1391772861/mf_encoding.o
 .text.mf_getchar
                0x00000000      0x104 build/default/production/_ext/1391772861/mf_encoding.o
 .text.mf_rewind
                0x00000000       0x44 build/default/production/_ext/1391772861/mf_encoding.o
 .text          0x00000000        0x0 build/default/production/_ext/1391772861/mf_font.o
 .data          0x00000000        0x0 build/default/production/_ext/1391772861/mf_font.o
 .bss           0x00000000        0x0 build/default/production/_ext/1391772861/mf_font.o
 .reginfo       0x00000000       0x18 build/default/production/_ext/1391772861/mf_font.o
 .text.whitespace_callback
                0x00000000       0x64 build/default/production/_ext/1391772861/mf_font.o
 .text.mf_render_character
                0x00000000       0x88 build/default/production/_ext/1391772861/mf_font.o
 .text.mf_character_width
                0x00000000       0x40 build/default/production/_ext/1391772861/mf_font.o
 .rodata        0x00000000        0x4 build/default/production/_ext/1391772861/mf_font.o
 .text.mf_character_whitespace
                0x00000000      0x120 build/default/production/_ext/1391772861/mf_font.o
 .text          0x00000000        0x0 build/default/production/_ext/1391772861/mf_justify.o
 .data          0x00000000        0x0 build/default/production/_ext/1391772861/mf_justify.o
 .bss           0x00000000        0x0 build/default/production/_ext/1391772861/mf_justify.o
 .reginfo       0x00000000       0x18 build/default/production/_ext/1391772861/mf_justify.o
 .text.strip_spaces
                0x00000000       0xc4 build/default/production/_ext/1391772861/mf_justify.o
 .text.mf_round_to_tab
                0x00000000       0x90 build/default/production/_ext/1391772861/mf_justify.o
 .text.render_left
                0x00000000      0x108 build/default/production/_ext/1391772861/mf_justify.o
 .text.mf_get_string_width
                0x00000000      0x100 build/default/production/_ext/1391772861/mf_justify.o
 .text.mf_render_aligned
                0x00000000      0x250 build/default/production/_ext/1391772861/mf_justify.o
 .text.mf_render_justified
                0x00000000      0x248 build/default/production/_ext/1391772861/mf_justify.o
 .text          0x00000000        0x0 build/default/production/_ext/1391772861/mf_kerning.o
 .data          0x00000000        0x0 build/default/production/_ext/1391772861/mf_kerning.o
 .bss           0x00000000        0x0 build/default/production/_ext/1391772861/mf_kerning.o
 .reginfo       0x00000000       0x18 build/default/production/_ext/1391772861/mf_kerning.o
 .text.fit_leftedge
                0x00000000       0x3c build/default/production/_ext/1391772861/mf_kerning.o
 .text.fit_rightedge
                0x00000000       0x4c build/default/production/_ext/1391772861/mf_kerning.o
 .text.do_kerning
                0x00000000       0x54 build/default/production/_ext/1391772861/mf_kerning.o
 .text.mf_compute_kerning
                0x00000000      0x220 build/default/production/_ext/1391772861/mf_kerning.o
 .text          0x00000000        0x0 build/default/production/_ext/1391772861/mf_rlefont.o
 .data          0x00000000        0x0 build/default/production/_ext/1391772861/mf_rlefont.o
 .bss           0x00000000        0x0 build/default/production/_ext/1391772861/mf_rlefont.o
 .reginfo       0x00000000       0x18 build/default/production/_ext/1391772861/mf_rlefont.o
 .text.find_glyph
                0x00000000       0x70 build/default/production/_ext/1391772861/mf_rlefont.o
 .text.write_pixels
                0x00000000       0xdc build/default/production/_ext/1391772861/mf_rlefont.o
 .text.skip_pixels
                0x00000000       0x60 build/default/production/_ext/1391772861/mf_rlefont.o
 .text.write_ref_codeword
                0x00000000      0x264 build/default/production/_ext/1391772861/mf_rlefont.o
 .text.mf_rlefont_render_character
                0x00000000      0x140 build/default/production/_ext/1391772861/mf_rlefont.o
 .text.mf_rlefont_character_width
                0x00000000       0x28 build/default/production/_ext/1391772861/mf_rlefont.o
 .text          0x00000000        0x0 build/default/production/_ext/1391772861/mf_scaledfont.o
 .data          0x00000000        0x0 build/default/production/_ext/1391772861/mf_scaledfont.o
 .bss           0x00000000        0x0 build/default/production/_ext/1391772861/mf_scaledfont.o
 .reginfo       0x00000000       0x18 build/default/production/_ext/1391772861/mf_scaledfont.o
 .text.scaled_pixel_callback
                0x00000000       0xc0 build/default/production/_ext/1391772861/mf_scaledfont.o
 .text.scaled_character_width
                0x00000000       0x3c build/default/production/_ext/1391772861/mf_scaledfont.o
 .text.scaled_render_character
                0x00000000       0x7c build/default/production/_ext/1391772861/mf_scaledfont.o
 .text.mf_scale_font
                0x00000000       0x98 build/default/production/_ext/1391772861/mf_scaledfont.o
 .text          0x00000000        0x0 build/default/production/_ext/1391772861/mf_wordwrap.o
 .data          0x00000000        0x0 build/default/production/_ext/1391772861/mf_wordwrap.o
 .bss           0x00000000        0x0 build/default/production/_ext/1391772861/mf_wordwrap.o
 .reginfo       0x00000000       0x18 build/default/production/_ext/1391772861/mf_wordwrap.o
 .text.is_wrap_space
                0x00000000       0x40 build/default/production/_ext/1391772861/mf_wordwrap.o
 .text.mf_wordwrap
                0x00000000      0x44c build/default/production/_ext/1391772861/mf_wordwrap.o
 .text          0x00000000        0x0 build/default/production/_ext/2039457820/BLKCHCRY16.o
 .data          0x00000000        0x0 build/default/production/_ext/2039457820/BLKCHCRY16.o
 .bss           0x00000000        0x0 build/default/production/_ext/2039457820/BLKCHCRY16.o
 .reginfo       0x00000000       0x18 build/default/production/_ext/2039457820/BLKCHCRY16.o
 .rodata        0x00000000     0x151c build/default/production/_ext/2039457820/BLKCHCRY16.o
 .text          0x00000000        0x0 build/default/production/_ext/2039457820/BLKCHCRY16bw.o
 .data          0x00000000        0x0 build/default/production/_ext/2039457820/BLKCHCRY16bw.o
 .bss           0x00000000        0x0 build/default/production/_ext/2039457820/BLKCHCRY16bw.o
 .reginfo       0x00000000       0x18 build/default/production/_ext/2039457820/BLKCHCRY16bw.o
 .rodata        0x00000000     0x12a0 build/default/production/_ext/2039457820/BLKCHCRY16bw.o
 .text          0x00000000        0x0 build/default/production/_ext/2039457820/dejavu_sans_12.o
 .data          0x00000000        0x0 build/default/production/_ext/2039457820/dejavu_sans_12.o
 .bss           0x00000000        0x0 build/default/production/_ext/2039457820/dejavu_sans_12.o
 .reginfo       0x00000000       0x18 build/default/production/_ext/2039457820/dejavu_sans_12.o
 .rodata        0x00000000      0xd20 build/default/production/_ext/2039457820/dejavu_sans_12.o
 .text          0x00000000        0x0 build/default/production/_ext/1494914114/gl.o
 .data          0x00000000        0x0 build/default/production/_ext/1494914114/gl.o
 .reginfo       0x00000000       0x18 build/default/production/_ext/1494914114/gl.o
 .text.tt_dummy_line_callback
                0x00000000       0x14 build/default/production/_ext/1494914114/gl.o
 .text.tt_character_callback
                0x00000000       0x84 build/default/production/_ext/1494914114/gl.o
 .text.mw_gl_get_gc
                0x00000000        0xc build/default/production/_ext/1494914114/gl.o
 .text.mw_gl_set_pattern
                0x00000000       0x78 build/default/production/_ext/1494914114/gl.o
 .text.arc_point
                0x00000000      0x13c build/default/production/_ext/1494914114/gl.o
 .text.tt_pixel_callback_anti_aliasing
                0x00000000      0x15c build/default/production/_ext/1494914114/gl.o
 .text.tt_pixel_callback_no_anti_aliasing
                0x00000000       0x94 build/default/production/_ext/1494914114/gl.o
 .text.tt_line_callback
                0x00000000      0x1bc build/default/production/_ext/1494914114/gl.o
 .text.mw_gl_largest_string_width
                0x00000000       0xb0 build/default/production/_ext/1494914114/gl.o
 .text.mw_gl_scale_shape
                0x00000000       0xc0 build/default/production/_ext/1494914114/gl.o
 .text.mw_gl_arc
                0x00000000      0x53c build/default/production/_ext/1494914114/gl.o
 .text.mw_gl_circle
                0x00000000      0x68c build/default/production/_ext/1494914114/gl.o
 .text.mw_gl_segment
                0x00000000      0x42c build/default/production/_ext/1494914114/gl.o
 .text.mw_gl_rounded_rectangle
                0x00000000      0x380 build/default/production/_ext/1494914114/gl.o
 .text.mw_gl_tt_render_text
                0x00000000      0x11c build/default/production/_ext/1494914114/gl.o
 .text.mw_gl_tt_get_render_text_lines
                0x00000000       0xb4 build/default/production/_ext/1494914114/gl.o
 .text          0x00000000        0x0 build/default/production/_ext/1063548019/hal_delay.o
 .data          0x00000000        0x0 build/default/production/_ext/1063548019/hal_delay.o
 .bss           0x00000000        0x0 build/default/production/_ext/1063548019/hal_delay.o
 .reginfo       0x00000000       0x18 build/default/production/_ext/1063548019/hal_delay.o
 .text          0x00000000        0x0 build/default/production/_ext/1063548019/hal_lcd.o
 .data          0x00000000        0x0 build/default/production/_ext/1063548019/hal_lcd.o
 .bss           0x00000000        0x0 build/default/production/_ext/1063548019/hal_lcd.o
 .reginfo       0x00000000       0x18 build/default/production/_ext/1063548019/hal_lcd.o
 .text          0x00000000        0x0 build/default/production/_ext/1063548019/hal_non_vol.o
 .data          0x00000000        0x0 build/default/production/_ext/1063548019/hal_non_vol.o
 .bss           0x00000000        0x0 build/default/production/_ext/1063548019/hal_non_vol.o
 .reginfo       0x00000000       0x18 build/default/production/_ext/1063548019/hal_non_vol.o
 .text          0x00000000        0x0 build/default/production/_ext/1063548019/hal_timer.o
 .data          0x00000000        0x0 build/default/production/_ext/1063548019/hal_timer.o
 .bss           0x00000000        0x0 build/default/production/_ext/1063548019/hal_timer.o
 .reginfo       0x00000000       0x18 build/default/production/_ext/1063548019/hal_timer.o
 .text          0x00000000        0x0 build/default/production/_ext/1063548019/hal_touch.o
 .data          0x00000000        0x0 build/default/production/_ext/1063548019/hal_touch.o
 .bss           0x00000000        0x0 build/default/production/_ext/1063548019/hal_touch.o
 .reginfo       0x00000000       0x18 build/default/production/_ext/1063548019/hal_touch.o
 .text          0x00000000        0x0 build/default/production/_ext/1184163457/hal_delay.o
 .data          0x00000000        0x0 build/default/production/_ext/1184163457/hal_delay.o
 .bss           0x00000000        0x0 build/default/production/_ext/1184163457/hal_delay.o
 .reginfo       0x00000000       0x18 build/default/production/_ext/1184163457/hal_delay.o
 .text          0x00000000        0x0 build/default/production/_ext/1184163457/hal_lcd.o
 .data          0x00000000        0x0 build/default/production/_ext/1184163457/hal_lcd.o
 .bss           0x00000000        0x0 build/default/production/_ext/1184163457/hal_lcd.o
 .reginfo       0x00000000       0x18 build/default/production/_ext/1184163457/hal_lcd.o
 .text          0x00000000        0x0 build/default/production/_ext/1184163457/hal_non_vol.o
 .data          0x00000000        0x0 build/default/production/_ext/1184163457/hal_non_vol.o
 .bss           0x00000000        0x0 build/default/production/_ext/1184163457/hal_non_vol.o
 .reginfo       0x00000000       0x18 build/default/production/_ext/1184163457/hal_non_vol.o
 .text          0x00000000        0x0 build/default/production/_ext/1184163457/hal_timer.o
 .data          0x00000000        0x0 build/default/production/_ext/1184163457/hal_timer.o
 .bss           0x00000000        0x0 build/default/production/_ext/1184163457/hal_timer.o
 .reginfo       0x00000000       0x18 build/default/production/_ext/1184163457/hal_timer.o
 .text          0x00000000        0x0 build/default/production/_ext/1184163457/hal_touch.o
 .data          0x00000000        0x0 build/default/production/_ext/1184163457/hal_touch.o
 .bss           0x00000000        0x0 build/default/production/_ext/1184163457/hal_touch.o
 .reginfo       0x00000000       0x18 build/default/production/_ext/1184163457/hal_touch.o
 .text          0x00000000        0x0 build/default/production/_ext/1305585261/hal_delay.o
 .data          0x00000000        0x0 build/default/production/_ext/1305585261/hal_delay.o
 .bss           0x00000000        0x0 build/default/production/_ext/1305585261/hal_delay.o
 .reginfo       0x00000000       0x18 build/default/production/_ext/1305585261/hal_delay.o
 .text          0x00000000        0x0 build/default/production/_ext/1305585261/hal_lcd.o
 .data          0x00000000        0x0 build/default/production/_ext/1305585261/hal_lcd.o
 .bss           0x00000000        0x0 build/default/production/_ext/1305585261/hal_lcd.o
 .reginfo       0x00000000       0x18 build/default/production/_ext/1305585261/hal_lcd.o
 .text          0x00000000        0x0 build/default/production/_ext/1305585261/hal_non_vol.o
 .data          0x00000000        0x0 build/default/production/_ext/1305585261/hal_non_vol.o
 .bss           0x00000000        0x0 build/default/production/_ext/1305585261/hal_non_vol.o
 .reginfo       0x00000000       0x18 build/default/production/_ext/1305585261/hal_non_vol.o
 .text          0x00000000        0x0 build/default/production/_ext/1305585261/hal_timer.o
 .data          0x00000000        0x0 build/default/production/_ext/1305585261/hal_timer.o
 .bss           0x00000000        0x0 build/default/production/_ext/1305585261/hal_timer.o
 .reginfo       0x00000000       0x18 build/default/production/_ext/1305585261/hal_timer.o
 .text          0x00000000        0x0 build/default/production/_ext/1305585261/hal_touch.o
 .data          0x00000000        0x0 build/default/production/_ext/1305585261/hal_touch.o
 .bss           0x00000000        0x0 build/default/production/_ext/1305585261/hal_touch.o
 .reginfo       0x00000000       0x18 build/default/production/_ext/1305585261/hal_touch.o
 .text          0x00000000        0x0 build/default/production/_ext/818872118/hal_delay.o
 .data          0x00000000        0x0 build/default/production/_ext/818872118/hal_delay.o
 .bss           0x00000000        0x0 build/default/production/_ext/818872118/hal_delay.o
 .reginfo       0x00000000       0x18 build/default/production/_ext/818872118/hal_delay.o
 .text          0x00000000        0x0 build/default/production/_ext/818872118/hal_lcd.o
 .data          0x00000000        0x0 build/default/production/_ext/818872118/hal_lcd.o
 .bss           0x00000000        0x0 build/default/production/_ext/818872118/hal_lcd.o
 .reginfo       0x00000000       0x18 build/default/production/_ext/818872118/hal_lcd.o
 .text          0x00000000        0x0 build/default/production/_ext/818872118/hal_non_vol.o
 .data          0x00000000        0x0 build/default/production/_ext/818872118/hal_non_vol.o
 .bss           0x00000000        0x0 build/default/production/_ext/818872118/hal_non_vol.o
 .reginfo       0x00000000       0x18 build/default/production/_ext/818872118/hal_non_vol.o
 .text          0x00000000        0x0 build/default/production/_ext/818872118/hal_timer.o
 .data          0x00000000        0x0 build/default/production/_ext/818872118/hal_timer.o
 .bss           0x00000000        0x0 build/default/production/_ext/818872118/hal_timer.o
 .reginfo       0x00000000       0x18 build/default/production/_ext/818872118/hal_timer.o
 .text          0x00000000        0x0 build/default/production/_ext/818872118/hal_touch.o
 .data          0x00000000        0x0 build/default/production/_ext/818872118/hal_touch.o
 .bss           0x00000000        0x0 build/default/production/_ext/818872118/hal_touch.o
 .reginfo       0x00000000       0x18 build/default/production/_ext/818872118/hal_touch.o
 .text          0x00000000        0x0 build/default/production/_ext/776318040/hal_delay.o
 .data          0x00000000        0x0 build/default/production/_ext/776318040/hal_delay.o
 .bss           0x00000000        0x0 build/default/production/_ext/776318040/hal_delay.o
 .reginfo       0x00000000       0x18 build/default/production/_ext/776318040/hal_delay.o
 .text.mw_hal_delay_us
                0x00000000       0x1c build/default/production/_ext/776318040/hal_delay.o
 .text          0x00000000        0x0 build/default/production/_ext/776318040/hal_lcd.o
 .data          0x00000000        0x0 build/default/production/_ext/776318040/hal_lcd.o
 .reginfo       0x00000000       0x18 build/default/production/_ext/776318040/hal_lcd.o
 .text          0x00000000        0x0 build/default/production/_ext/776318040/hal_non_vol.o
 .data          0x00000000        0x0 build/default/production/_ext/776318040/hal_non_vol.o
 .bss           0x00000000        0x0 build/default/production/_ext/776318040/hal_non_vol.o
 .reginfo       0x00000000       0x18 build/default/production/_ext/776318040/hal_non_vol.o
 .text          0x00000000        0x0 build/default/production/_ext/776318040/hal_timer.o
 .data          0x00000000        0x0 build/default/production/_ext/776318040/hal_timer.o
 .bss           0x00000000        0x0 build/default/production/_ext/776318040/hal_timer.o
 .reginfo       0x00000000       0x18 build/default/production/_ext/776318040/hal_timer.o
 .text          0x00000000        0x0 build/default/production/_ext/776318040/hal_touch.o
 .bss           0x00000000        0x0 build/default/production/_ext/776318040/hal_touch.o
 .reginfo       0x00000000       0x18 build/default/production/_ext/776318040/hal_touch.o
 .text          0x00000000        0x0 build/default/production/_ext/1178231276/hal_delay.o
 .data          0x00000000        0x0 build/default/production/_ext/1178231276/hal_delay.o
 .bss           0x00000000        0x0 build/default/production/_ext/1178231276/hal_delay.o
 .reginfo       0x00000000       0x18 build/default/production/_ext/1178231276/hal_delay.o
 .text          0x00000000        0x0 build/default/production/_ext/1178231276/hal_lcd.o
 .data          0x00000000        0x0 build/default/production/_ext/1178231276/hal_lcd.o
 .bss           0x00000000        0x0 build/default/production/_ext/1178231276/hal_lcd.o
 .reginfo       0x00000000       0x18 build/default/production/_ext/1178231276/hal_lcd.o
 .text          0x00000000        0x0 build/default/production/_ext/1178231276/hal_non_vol.o
 .data          0x00000000        0x0 build/default/production/_ext/1178231276/hal_non_vol.o
 .bss           0x00000000        0x0 build/default/production/_ext/1178231276/hal_non_vol.o
 .reginfo       0x00000000       0x18 build/default/production/_ext/1178231276/hal_non_vol.o
 .text          0x00000000        0x0 build/default/production/_ext/1178231276/hal_timer.o
 .data          0x00000000        0x0 build/default/production/_ext/1178231276/hal_timer.o
 .bss           0x00000000        0x0 build/default/production/_ext/1178231276/hal_timer.o
 .reginfo       0x00000000       0x18 build/default/production/_ext/1178231276/hal_timer.o
 .text          0x00000000        0x0 build/default/production/_ext/1178231276/hal_touch.o
 .data          0x00000000        0x0 build/default/production/_ext/1178231276/hal_touch.o
 .bss           0x00000000        0x0 build/default/production/_ext/1178231276/hal_touch.o
 .reginfo       0x00000000       0x18 build/default/production/_ext/1178231276/hal_touch.o
 .text          0x00000000        0x0 build/default/production/_ext/51196508/hal_delay.o
 .data          0x00000000        0x0 build/default/production/_ext/51196508/hal_delay.o
 .bss           0x00000000        0x0 build/default/production/_ext/51196508/hal_delay.o
 .reginfo       0x00000000       0x18 build/default/production/_ext/51196508/hal_delay.o
 .text          0x00000000        0x0 build/default/production/_ext/51196508/hal_lcd.o
 .data          0x00000000        0x0 build/default/production/_ext/51196508/hal_lcd.o
 .bss           0x00000000        0x0 build/default/production/_ext/51196508/hal_lcd.o
 .reginfo       0x00000000       0x18 build/default/production/_ext/51196508/hal_lcd.o
 .text          0x00000000        0x0 build/default/production/_ext/51196508/hal_non_vol.o
 .data          0x00000000        0x0 build/default/production/_ext/51196508/hal_non_vol.o
 .bss           0x00000000        0x0 build/default/production/_ext/51196508/hal_non_vol.o
 .reginfo       0x00000000       0x18 build/default/production/_ext/51196508/hal_non_vol.o
 .text          0x00000000        0x0 build/default/production/_ext/51196508/hal_timer.o
 .data          0x00000000        0x0 build/default/production/_ext/51196508/hal_timer.o
 .bss           0x00000000        0x0 build/default/production/_ext/51196508/hal_timer.o
 .reginfo       0x00000000       0x18 build/default/production/_ext/51196508/hal_timer.o
 .text          0x00000000        0x0 build/default/production/_ext/51196508/hal_touch.o
 .data          0x00000000        0x0 build/default/production/_ext/51196508/hal_touch.o
 .bss           0x00000000        0x0 build/default/production/_ext/51196508/hal_touch.o
 .reginfo       0x00000000       0x18 build/default/production/_ext/51196508/hal_touch.o
 .text          0x00000000        0x0 build/default/production/_ext/1317985835/hal_delay.o
 .data          0x00000000        0x0 build/default/production/_ext/1317985835/hal_delay.o
 .bss           0x00000000        0x0 build/default/production/_ext/1317985835/hal_delay.o
 .reginfo       0x00000000       0x18 build/default/production/_ext/1317985835/hal_delay.o
 .text          0x00000000        0x0 build/default/production/_ext/1317985835/hal_lcd.o
 .data          0x00000000        0x0 build/default/production/_ext/1317985835/hal_lcd.o
 .bss           0x00000000        0x0 build/default/production/_ext/1317985835/hal_lcd.o
 .reginfo       0x00000000       0x18 build/default/production/_ext/1317985835/hal_lcd.o
 .text          0x00000000        0x0 build/default/production/_ext/1317985835/hal_non_vol.o
 .data          0x00000000        0x0 build/default/production/_ext/1317985835/hal_non_vol.o
 .bss           0x00000000        0x0 build/default/production/_ext/1317985835/hal_non_vol.o
 .reginfo       0x00000000       0x18 build/default/production/_ext/1317985835/hal_non_vol.o
 .text          0x00000000        0x0 build/default/production/_ext/1317985835/hal_timer.o
 .data          0x00000000        0x0 build/default/production/_ext/1317985835/hal_timer.o
 .bss           0x00000000        0x0 build/default/production/_ext/1317985835/hal_timer.o
 .reginfo       0x00000000       0x18 build/default/production/_ext/1317985835/hal_timer.o
 .text          0x00000000        0x0 build/default/production/_ext/1317985835/hal_touch.o
 .data          0x00000000        0x0 build/default/production/_ext/1317985835/hal_touch.o
 .bss           0x00000000        0x0 build/default/production/_ext/1317985835/hal_touch.o
 .reginfo       0x00000000       0x18 build/default/production/_ext/1317985835/hal_touch.o
 .text          0x00000000        0x0 build/default/production/_ext/1317985899/hal_delay.o
 .data          0x00000000        0x0 build/default/production/_ext/1317985899/hal_delay.o
 .bss           0x00000000        0x0 build/default/production/_ext/1317985899/hal_delay.o
 .reginfo       0x00000000       0x18 build/default/production/_ext/1317985899/hal_delay.o
 .text          0x00000000        0x0 build/default/production/_ext/1317985899/hal_lcd.o
 .data          0x00000000        0x0 build/default/production/_ext/1317985899/hal_lcd.o
 .bss           0x00000000        0x0 build/default/production/_ext/1317985899/hal_lcd.o
 .reginfo       0x00000000       0x18 build/default/production/_ext/1317985899/hal_lcd.o
 .text          0x00000000        0x0 build/default/production/_ext/1317985899/hal_non_vol.o
 .data          0x00000000        0x0 build/default/production/_ext/1317985899/hal_non_vol.o
 .bss           0x00000000        0x0 build/default/production/_ext/1317985899/hal_non_vol.o
 .reginfo       0x00000000       0x18 build/default/production/_ext/1317985899/hal_non_vol.o
 .text          0x00000000        0x0 build/default/production/_ext/1317985899/hal_timer.o
 .data          0x00000000        0x0 build/default/production/_ext/1317985899/hal_timer.o
 .bss           0x00000000        0x0 build/default/production/_ext/1317985899/hal_timer.o
 .reginfo       0x00000000       0x18 build/default/production/_ext/1317985899/hal_timer.o
 .text          0x00000000        0x0 build/default/production/_ext/1317985899/hal_touch.o
 .data          0x00000000        0x0 build/default/production/_ext/1317985899/hal_touch.o
 .bss           0x00000000        0x0 build/default/production/_ext/1317985899/hal_touch.o
 .reginfo       0x00000000       0x18 build/default/production/_ext/1317985899/hal_touch.o
 .text          0x00000000        0x0 build/default/production/_ext/1357345870/hal_delay.o
 .data          0x00000000        0x0 build/default/production/_ext/1357345870/hal_delay.o
 .bss           0x00000000        0x0 build/default/production/_ext/1357345870/hal_delay.o
 .reginfo       0x00000000       0x18 build/default/production/_ext/1357345870/hal_delay.o
 .text          0x00000000        0x0 build/default/production/_ext/1357345870/hal_lcd.o
 .data          0x00000000        0x0 build/default/production/_ext/1357345870/hal_lcd.o
 .bss           0x00000000        0x0 build/default/production/_ext/1357345870/hal_lcd.o
 .reginfo       0x00000000       0x18 build/default/production/_ext/1357345870/hal_lcd.o
 .text          0x00000000        0x0 build/default/production/_ext/1357345870/hal_non_vol.o
 .data          0x00000000        0x0 build/default/production/_ext/1357345870/hal_non_vol.o
 .bss           0x00000000        0x0 build/default/production/_ext/1357345870/hal_non_vol.o
 .reginfo       0x00000000       0x18 build/default/production/_ext/1357345870/hal_non_vol.o
 .text          0x00000000        0x0 build/default/production/_ext/1357345870/hal_timer.o
 .data          0x00000000        0x0 build/default/production/_ext/1357345870/hal_timer.o
 .bss           0x00000000        0x0 build/default/production/_ext/1357345870/hal_timer.o
 .reginfo       0x00000000       0x18 build/default/production/_ext/1357345870/hal_timer.o
 .text          0x00000000        0x0 build/default/production/_ext/1357345870/hal_touch.o
 .data          0x00000000        0x0 build/default/production/_ext/1357345870/hal_touch.o
 .bss           0x00000000        0x0 build/default/production/_ext/1357345870/hal_touch.o
 .reginfo       0x00000000       0x18 build/default/production/_ext/1357345870/hal_touch.o
 .text          0x00000000        0x0 build/default/production/_ext/902303450/hal_init.o
 .data          0x00000000        0x0 build/default/production/_ext/902303450/hal_init.o
 .bss           0x00000000        0x0 build/default/production/_ext/902303450/hal_init.o
 .reginfo       0x00000000       0x18 build/default/production/_ext/902303450/hal_init.o
 .text          0x00000000        0x0 build/default/production/_ext/1494913683/ui_arrow.o
 .data          0x00000000        0x0 build/default/production/_ext/1494913683/ui_arrow.o
 .bss           0x00000000        0x0 build/default/production/_ext/1494913683/ui_arrow.o
 .reginfo       0x00000000       0x18 build/default/production/_ext/1494913683/ui_arrow.o
 .text          0x00000000        0x0 build/default/production/_ext/1494913683/ui_button.o
 .data          0x00000000        0x0 build/default/production/_ext/1494913683/ui_button.o
 .bss           0x00000000        0x0 build/default/production/_ext/1494913683/ui_button.o
 .reginfo       0x00000000       0x18 build/default/production/_ext/1494913683/ui_button.o
 .text          0x00000000        0x0 build/default/production/_ext/1494913683/ui_check_box.o
 .data          0x00000000        0x0 build/default/production/_ext/1494913683/ui_check_box.o
 .bss           0x00000000        0x0 build/default/production/_ext/1494913683/ui_check_box.o
 .reginfo       0x00000000       0x18 build/default/production/_ext/1494913683/ui_check_box.o
 .rodata        0x00000000       0x50 build/default/production/_ext/1494913683/ui_check_box.o
 .text.check_box_message_function
                0x00000000       0xdc build/default/production/_ext/1494913683/ui_check_box.o
 .text.check_box_paint_function
                0x00000000      0x238 build/default/production/_ext/1494913683/ui_check_box.o
 .text.mw_ui_check_box_add_new
                0x00000000       0xa8 build/default/production/_ext/1494913683/ui_check_box.o
 .text          0x00000000        0x0 build/default/production/_ext/1494913683/ui_common.o
 .data          0x00000000        0x0 build/default/production/_ext/1494913683/ui_common.o
 .bss           0x00000000        0x0 build/default/production/_ext/1494913683/ui_common.o
 .reginfo       0x00000000       0x18 build/default/production/_ext/1494913683/ui_common.o
 .text          0x00000000        0x0 build/default/production/_ext/1494913683/ui_keyboard.o
 .data          0x00000000        0x0 build/default/production/_ext/1494913683/ui_keyboard.o
 .bss           0x00000000        0x0 build/default/production/_ext/1494913683/ui_keyboard.o
 .reginfo       0x00000000       0x18 build/default/production/_ext/1494913683/ui_keyboard.o
 .text          0x00000000        0x0 build/default/production/_ext/1494913683/ui_keypad.o
 .data          0x00000000        0x0 build/default/production/_ext/1494913683/ui_keypad.o
 .bss           0x00000000        0x0 build/default/production/_ext/1494913683/ui_keypad.o
 .reginfo       0x00000000       0x18 build/default/production/_ext/1494913683/ui_keypad.o
 .text.process_keypress
                0x00000000       0xd4 build/default/production/_ext/1494913683/ui_keypad.o
 .rodata        0x00000000       0x58 build/default/production/_ext/1494913683/ui_keypad.o
 .text.keypad_message_function
                0x00000000      0x208 build/default/production/_ext/1494913683/ui_keypad.o
 .text.keypad_paint_function
                0x00000000      0x4ac build/default/production/_ext/1494913683/ui_keypad.o
 .text.mw_ui_keypad_add_new
                0x00000000       0xa8 build/default/production/_ext/1494913683/ui_keypad.o
 .text          0x00000000        0x0 build/default/production/_ext/1494913683/ui_label.o
 .data          0x00000000        0x0 build/default/production/_ext/1494913683/ui_label.o
 .bss           0x00000000        0x0 build/default/production/_ext/1494913683/ui_label.o
 .reginfo       0x00000000       0x18 build/default/production/_ext/1494913683/ui_label.o
 .text          0x00000000        0x0 build/default/production/_ext/1494913683/ui_list_box.o
 .data          0x00000000        0x0 build/default/production/_ext/1494913683/ui_list_box.o
 .bss           0x00000000        0x0 build/default/production/_ext/1494913683/ui_list_box.o
 .reginfo       0x00000000       0x18 build/default/production/_ext/1494913683/ui_list_box.o
 .text          0x00000000        0x0 build/default/production/_ext/1494913683/ui_progress_bar.o
 .data          0x00000000        0x0 build/default/production/_ext/1494913683/ui_progress_bar.o
 .bss           0x00000000        0x0 build/default/production/_ext/1494913683/ui_progress_bar.o
 .reginfo       0x00000000       0x18 build/default/production/_ext/1494913683/ui_progress_bar.o
 .rodata        0x00000000       0x84 build/default/production/_ext/1494913683/ui_progress_bar.o
 .text.progress_bar_message_function
                0x00000000       0x68 build/default/production/_ext/1494913683/ui_progress_bar.o
 .text.progress_bar_paint_function
                0x00000000      0x274 build/default/production/_ext/1494913683/ui_progress_bar.o
 .text.mw_ui_progress_bar_add_new
                0x00000000       0x98 build/default/production/_ext/1494913683/ui_progress_bar.o
 .text          0x00000000        0x0 build/default/production/_ext/1494913683/ui_radio_button.o
 .data          0x00000000        0x0 build/default/production/_ext/1494913683/ui_radio_button.o
 .bss           0x00000000        0x0 build/default/production/_ext/1494913683/ui_radio_button.o
 .reginfo       0x00000000       0x18 build/default/production/_ext/1494913683/ui_radio_button.o
 .rodata        0x00000000       0x9c build/default/production/_ext/1494913683/ui_radio_button.o
 .text.radio_button_message_function
                0x00000000      0x118 build/default/production/_ext/1494913683/ui_radio_button.o
 .text.radio_button_paint_function
                0x00000000      0x304 build/default/production/_ext/1494913683/ui_radio_button.o
 .text.mw_ui_radio_button_add_new
                0x00000000      0x198 build/default/production/_ext/1494913683/ui_radio_button.o
 .text          0x00000000        0x0 build/default/production/_ext/1494913683/ui_scroll_bar_horiz.o
 .data          0x00000000        0x0 build/default/production/_ext/1494913683/ui_scroll_bar_horiz.o
 .bss           0x00000000        0x0 build/default/production/_ext/1494913683/ui_scroll_bar_horiz.o
 .reginfo       0x00000000       0x18 build/default/production/_ext/1494913683/ui_scroll_bar_horiz.o
 .rodata        0x00000000       0x5c build/default/production/_ext/1494913683/ui_scroll_bar_horiz.o
 .text.scroll_bar_horiz_message_function
                0x00000000      0x1f4 build/default/production/_ext/1494913683/ui_scroll_bar_horiz.o
 .text.scroll_bar_horiz_paint_function
                0x00000000      0x26c build/default/production/_ext/1494913683/ui_scroll_bar_horiz.o
 .text.mw_ui_scroll_bar_horiz_add_new
                0x00000000       0xac build/default/production/_ext/1494913683/ui_scroll_bar_horiz.o
 .text          0x00000000        0x0 build/default/production/_ext/1494913683/ui_scroll_bar_vert.o
 .data          0x00000000        0x0 build/default/production/_ext/1494913683/ui_scroll_bar_vert.o
 .bss           0x00000000        0x0 build/default/production/_ext/1494913683/ui_scroll_bar_vert.o
 .reginfo       0x00000000       0x18 build/default/production/_ext/1494913683/ui_scroll_bar_vert.o
 .text          0x00000000        0x0 build/default/production/_ext/1494913683/ui_tabs.o
 .data          0x00000000        0x0 build/default/production/_ext/1494913683/ui_tabs.o
 .bss           0x00000000        0x0 build/default/production/_ext/1494913683/ui_tabs.o
 .reginfo       0x00000000       0x18 build/default/production/_ext/1494913683/ui_tabs.o
 .rodata        0x00000000       0x9c build/default/production/_ext/1494913683/ui_tabs.o
 .text.tabs_message_function
                0x00000000      0x188 build/default/production/_ext/1494913683/ui_tabs.o
 .text.tabs_paint_function
                0x00000000      0x464 build/default/production/_ext/1494913683/ui_tabs.o
 .text.mw_ui_tabs_add_new
                0x00000000      0x1d8 build/default/production/_ext/1494913683/ui_tabs.o
 .text.mw_ui_tabs_get_selection
                0x00000000       0x28 build/default/production/_ext/1494913683/ui_tabs.o
 .text          0x00000000        0x0 build/default/production/_ext/1494913683/ui_text_box.o
 .data          0x00000000        0x0 build/default/production/_ext/1494913683/ui_text_box.o
 .bss           0x00000000        0x0 build/default/production/_ext/1494913683/ui_text_box.o
 .reginfo       0x00000000       0x18 build/default/production/_ext/1494913683/ui_text_box.o
 .rodata        0x00000000       0x64 build/default/production/_ext/1494913683/ui_text_box.o
 .text.text_box_message_function
                0x00000000      0x2ac build/default/production/_ext/1494913683/ui_text_box.o
 .text.text_box_paint_function
                0x00000000      0x124 build/default/production/_ext/1494913683/ui_text_box.o
 .text.mw_ui_text_box_add_new
                0x00000000       0x74 build/default/production/_ext/1494913683/ui_text_box.o
 .text          0x00000000        0x0 build/default/production/_ext/1494913683/ui_tree.o
 .data          0x00000000        0x0 build/default/production/_ext/1494913683/ui_tree.o
 .bss           0x00000000        0x0 build/default/production/_ext/1494913683/ui_tree.o
 .reginfo       0x00000000       0x18 build/default/production/_ext/1494913683/ui_tree.o
 .text          0x00000000        0x0 build/default/production/_ext/59636182/calibrate.o
 .data          0x00000000        0x0 build/default/production/_ext/59636182/calibrate.o
 .bss           0x00000000        0x0 build/default/production/_ext/59636182/calibrate.o
 .reginfo       0x00000000       0x18 build/default/production/_ext/59636182/calibrate.o
 .text          0x00000000        0x0 build/default/production/_ext/59636182/miniwin.o
 .data          0x00000000        0x0 build/default/production/_ext/59636182/miniwin.o
 .reginfo       0x00000000       0x18 build/default/production/_ext/59636182/miniwin.o
 .text.mw_is_init_complete
                0x00000000        0xc build/default/production/_ext/59636182/miniwin.o
 .text.mw_find_window_with_focus
                0x00000000        0x8 build/default/production/_ext/59636182/miniwin.o
 .text.mw_set_menu_bar_enabled_state
                0x00000000       0x94 build/default/production/_ext/59636182/miniwin.o
 .text.mw_set_menu_bar_items_enabled_state
                0x00000000       0x6c build/default/production/_ext/59636182/miniwin.o
 .text.mw_set_position_window_horiz_scroll_bar
                0x00000000       0x6c build/default/production/_ext/59636182/miniwin.o
 .text.mw_set_position_window_vert_scroll_bar
                0x00000000       0x6c build/default/production/_ext/59636182/miniwin.o
 .text.mw_get_window_flags
                0x00000000       0x5c build/default/production/_ext/59636182/miniwin.o
 .text.wm_set_window_title
                0x00000000       0x78 build/default/production/_ext/59636182/miniwin.o
 .text.mw_find_if_any_control_slots_free
                0x00000000       0x60 build/default/production/_ext/59636182/miniwin.o
 .text.mw_is_control_handle_valid
                0x00000000       0x5c build/default/production/_ext/59636182/miniwin.o
 .text.mw_set_window_modal
                0x00000000      0x110 build/default/production/_ext/59636182/miniwin.o
 .text.mw_send_window_to_back
                0x00000000       0xa8 build/default/production/_ext/59636182/miniwin.o
 .text.mw_set_window_minimised
                0x00000000       0xb4 build/default/production/_ext/59636182/miniwin.o
 .text.mw_set_control_visible
                0x00000000       0xf4 build/default/production/_ext/59636182/miniwin.o
 .text.mw_resize_control
                0x00000000       0xbc build/default/production/_ext/59636182/miniwin.o
 .text.mw_show_busy
                0x00000000      0x158 build/default/production/_ext/59636182/miniwin.o
 .text          0x00000000        0x0 build/default/production/_ext/59636182/miniwin_debug.o
 .data          0x00000000        0x0 build/default/production/_ext/59636182/miniwin_debug.o
 .bss           0x00000000        0x0 build/default/production/_ext/59636182/miniwin_debug.o
 .reginfo       0x00000000       0x18 build/default/production/_ext/59636182/miniwin_debug.o
 .text          0x00000000        0x0 build/default/production/_ext/59636182/miniwin_message_queue.o
 .data          0x00000000        0x0 build/default/production/_ext/59636182/miniwin_message_queue.o
 .reginfo       0x00000000       0x18 build/default/production/_ext/59636182/miniwin_message_queue.o
 .text          0x00000000        0x0 build/default/production/_ext/59636182/miniwin_settings.o
 .data          0x00000000        0x0 build/default/production/_ext/59636182/miniwin_settings.o
 .reginfo       0x00000000       0x18 build/default/production/_ext/59636182/miniwin_settings.o
 .text          0x00000000        0x0 build/default/production/_ext/59636182/miniwin_touch.o
 .data          0x00000000        0x0 build/default/production/_ext/59636182/miniwin_touch.o
 .bss           0x00000000        0x0 build/default/production/_ext/59636182/miniwin_touch.o
 .reginfo       0x00000000       0x18 build/default/production/_ext/59636182/miniwin_touch.o
 .text          0x00000000        0x0 build/default/production/_ext/59636182/miniwin_tree_container.o
 .data          0x00000000        0x0 build/default/production/_ext/59636182/miniwin_tree_container.o
 .bss           0x00000000        0x0 build/default/production/_ext/59636182/miniwin_tree_container.o
 .reginfo       0x00000000       0x18 build/default/production/_ext/59636182/miniwin_tree_container.o
 .text.mw_tree_container_change_node_label
                0x00000000       0xd8 build/default/production/_ext/59636182/miniwin_tree_container.o
 .text.mw_tree_container_remove_node
                0x00000000      0x140 build/default/production/_ext/59636182/miniwin_tree_container.o
 .text          0x00000000        0x0 build/default/production/_ext/59636182/miniwin_utilities.o
 .data          0x00000000        0x0 build/default/production/_ext/59636182/miniwin_utilities.o
 .bss           0x00000000        0x0 build/default/production/_ext/59636182/miniwin_utilities.o
 .reginfo       0x00000000       0x18 build/default/production/_ext/59636182/miniwin_utilities.o
 .text.mw_util_does_rect_a_obscure_rect_b
                0x00000000       0x9c build/default/production/_ext/59636182/miniwin_utilities.o
 .text.mw_util_change_bit
                0x00000000       0x54 build/default/production/_ext/59636182/miniwin_utilities.o
 .text          0x00000000        0x0 build/default/production/_ext/165771656/main.o
 .data          0x00000000        0x0 build/default/production/_ext/165771656/main.o
 .bss           0x00000000        0x0 build/default/production/_ext/165771656/main.o
 .reginfo       0x00000000       0x18 build/default/production/_ext/165771656/main.o
 .text          0x00000000        0x0 build/default/production/_ext/165771656/miniwin_user.o
 .data          0x00000000        0x0 build/default/production/_ext/165771656/miniwin_user.o
 .reginfo       0x00000000       0x18 build/default/production/_ext/165771656/miniwin_user.o
 .text.tree_container_add_file_to_folder
                0x00000000       0x30 build/default/production/_ext/165771656/miniwin_user.o
 .text          0x00000000        0x0 build/default/production/_ext/165771656/window_file.o
 .reginfo       0x00000000       0x18 build/default/production/_ext/165771656/window_file.o
 .text          0x00000000        0x0 build/default/production/_ext/165771656/window_file_tree.o
 .data          0x00000000        0x0 build/default/production/_ext/165771656/window_file_tree.o
 .reginfo       0x00000000       0x18 build/default/production/_ext/165771656/window_file_tree.o
 .text          0x00000000        0x0 build/default/production/_ext/165771656/window_image.o
 .data          0x00000000        0x0 build/default/production/_ext/165771656/window_image.o
 .reginfo       0x00000000       0x18 build/default/production/_ext/165771656/window_image.o
 .text          0x00000000        0x0 build/default/production/_ext/165771656/window_selection.o
 .data          0x00000000        0x0 build/default/production/_ext/165771656/window_selection.o
 .bss           0x00000000        0x0 build/default/production/_ext/165771656/window_selection.o
 .reginfo       0x00000000       0x18 build/default/production/_ext/165771656/window_selection.o
 .text          0x00000000        0x0 build/default/production/_ext/165771656/window_text.o
 .data          0x00000000        0x0 build/default/production/_ext/165771656/window_text.o
 .bss           0x00000000        0x0 build/default/production/_ext/165771656/window_text.o
 .reginfo       0x00000000       0x18 build/default/production/_ext/165771656/window_text.o
 .text          0x00000000        0x0 build/default/production/_ext/1445274692/app.o
 .data          0x00000000        0x0 build/default/production/_ext/1445274692/app.o
 .reginfo       0x00000000       0x18 build/default/production/_ext/1445274692/app.o
 .text          0x00000000        0x0 c:/program files/microchip/xc32/v2.50/bin/bin/../../lib/gcc/pic32mx/4.8.3/../../../../pic32mx/lib/./proc/32MZ2048EFM100\vector_offset_init.o
 .data          0x00000000        0x0 c:/program files/microchip/xc32/v2.50/bin/bin/../../lib/gcc/pic32mx/4.8.3/../../../../pic32mx/lib/./proc/32MZ2048EFM100\vector_offset_init.o
 .bss           0x00000000        0x0 c:/program files/microchip/xc32/v2.50/bin/bin/../../lib/gcc/pic32mx/4.8.3/../../../../pic32mx/lib/./proc/32MZ2048EFM100\vector_offset_init.o
 .reginfo       0x00000000       0x18 c:/program files/microchip/xc32/v2.50/bin/bin/../../lib/gcc/pic32mx/4.8.3/../../../../pic32mx/lib/./proc/32MZ2048EFM100\vector_offset_init.o
 .text          0x00000000        0x0 C:\Users\John\AppData\Local\Temp\ccWRxhWa.o
 .data          0x00000000        0x0 C:\Users\John\AppData\Local\Temp\ccWRxhWa.o
 .bss           0x00000000        0x0 C:\Users\John\AppData\Local\Temp\ccWRxhWa.o
 .reginfo       0x00000000       0x18 C:\Users\John\AppData\Local\Temp\ccWRxhWa.o
 .text          0x00000000        0x0 C:\Users\John\AppData\Local\Temp\ccZdoXud.o
 .data          0x00000000        0x0 C:\Users\John\AppData\Local\Temp\ccZdoXud.o
 .bss           0x00000000        0x0 C:\Users\John\AppData\Local\Temp\ccZdoXud.o
 .reginfo       0x00000000       0x18 C:\Users\John\AppData\Local\Temp\ccZdoXud.o
 .text          0x00000000        0x0 C:\Users\John\AppData\Local\Temp\ccn6h3Pn.o
 .data          0x00000000        0x0 C:\Users\John\AppData\Local\Temp\ccn6h3Pn.o
 .bss           0x00000000        0x0 C:\Users\John\AppData\Local\Temp\ccn6h3Pn.o
 .reginfo       0x00000000       0x18 C:\Users\John\AppData\Local\Temp\ccn6h3Pn.o
 .discard       0x00000000        0x4 C:\Users\John\AppData\Local\Temp\ccn6h3Pn.o
 .text          0x00000000        0x0 c:/program files/microchip/xc32/v2.50/bin/bin/../../lib/gcc/pic32mx/4.8.3/../../../../pic32mx/lib/./proc/32MZ2048EFM100\default_isr_vectors.o
 .data          0x00000000        0x0 c:/program files/microchip/xc32/v2.50/bin/bin/../../lib/gcc/pic32mx/4.8.3/../../../../pic32mx/lib/./proc/32MZ2048EFM100\default_isr_vectors.o
 .bss           0x00000000        0x0 c:/program files/microchip/xc32/v2.50/bin/bin/../../lib/gcc/pic32mx/4.8.3/../../../../pic32mx/lib/./proc/32MZ2048EFM100\default_isr_vectors.o
 .reginfo       0x00000000       0x18 c:/program files/microchip/xc32/v2.50/bin/bin/../../lib/gcc/pic32mx/4.8.3/../../../../pic32mx/lib/./proc/32MZ2048EFM100\default_isr_vectors.o
 .discard       0x00000000        0x4 c:/program files/microchip/xc32/v2.50/bin/bin/../../lib/gcc/pic32mx/4.8.3/../../../../pic32mx/lib/./proc/32MZ2048EFM100\default_isr_vectors.o
 .data          0x00000000        0x0 c:/program files/microchip/xc32/v2.50/bin/bin/../../lib/gcc/pic32mx/4.8.3/../../../../pic32mx/lib/fpu64\pic32_software_reset.o
 .bss           0x00000000        0x0 c:/program files/microchip/xc32/v2.50/bin/bin/../../lib/gcc/pic32mx/4.8.3/../../../../pic32mx/lib/fpu64\pic32_software_reset.o
 .reginfo       0x00000000       0x18 c:/program files/microchip/xc32/v2.50/bin/bin/../../lib/gcc/pic32mx/4.8.3/../../../../pic32mx/lib/fpu64\pic32_software_reset.o
 .data          0x00000000        0x0 c:/program files/microchip/xc32/v2.50/bin/bin/../../lib/gcc/pic32mx/4.8.3/../../../../pic32mx/lib/fpu64\libpic32.a(memcpy.o)
 .bss           0x00000000        0x0 c:/program files/microchip/xc32/v2.50/bin/bin/../../lib/gcc/pic32mx/4.8.3/../../../../pic32mx/lib/fpu64\libpic32.a(memcpy.o)
 .reginfo       0x00000000       0x18 c:/program files/microchip/xc32/v2.50/bin/bin/../../lib/gcc/pic32mx/4.8.3/../../../../pic32mx/lib/fpu64\libpic32.a(memcpy.o)
 .text          0x00000000      0x120 c:/program files/microchip/xc32/v2.50/bin/bin/../../lib/gcc/pic32mx/4.8.3/../../../../pic32mx/lib/fpu64\libpic32.a(strcmp.o)
 .data          0x00000000        0x0 c:/program files/microchip/xc32/v2.50/bin/bin/../../lib/gcc/pic32mx/4.8.3/../../../../pic32mx/lib/fpu64\libpic32.a(strcmp.o)
 .bss           0x00000000        0x0 c:/program files/microchip/xc32/v2.50/bin/bin/../../lib/gcc/pic32mx/4.8.3/../../../../pic32mx/lib/fpu64\libpic32.a(strcmp.o)
 .reginfo       0x00000000       0x18 c:/program files/microchip/xc32/v2.50/bin/bin/../../lib/gcc/pic32mx/4.8.3/../../../../pic32mx/lib/fpu64\libpic32.a(strcmp.o)
 .comment       0x00000000       0x1a c:/program files/microchip/xc32/v2.50/bin/bin/../../lib/gcc/pic32mx/4.8.3/../../../../pic32mx/lib/fpu64\libpic32.a(strcmp.o)
 .data          0x00000000        0x0 c:/program files/microchip/xc32/v2.50/bin/bin/../../lib/gcc/pic32mx/4.8.3/../../../../pic32mx/lib/fpu64\libpic32.a(strlen.o)
 .bss           0x00000000        0x0 c:/program files/microchip/xc32/v2.50/bin/bin/../../lib/gcc/pic32mx/4.8.3/../../../../pic32mx/lib/fpu64\libpic32.a(strlen.o)
 .reginfo       0x00000000       0x18 c:/program files/microchip/xc32/v2.50/bin/bin/../../lib/gcc/pic32mx/4.8.3/../../../../pic32mx/lib/fpu64\libpic32.a(strlen.o)
 .text          0x00000000        0x0 c:/program files/microchip/xc32/v2.50/bin/bin/../../lib/gcc/pic32mx/4.8.3/../../../../pic32mx/lib/fpu64\libpic32.a(default-on-reset.o)
 .data          0x00000000        0x0 c:/program files/microchip/xc32/v2.50/bin/bin/../../lib/gcc/pic32mx/4.8.3/../../../../pic32mx/lib/fpu64\libpic32.a(default-on-reset.o)
 .bss           0x00000000        0x0 c:/program files/microchip/xc32/v2.50/bin/bin/../../lib/gcc/pic32mx/4.8.3/../../../../pic32mx/lib/fpu64\libpic32.a(default-on-reset.o)
 .reginfo       0x00000000       0x18 c:/program files/microchip/xc32/v2.50/bin/bin/../../lib/gcc/pic32mx/4.8.3/../../../../pic32mx/lib/fpu64\libpic32.a(default-on-reset.o)
 .text          0x00000000        0x0 c:/program files/microchip/xc32/v2.50/bin/bin/../../lib/gcc/pic32mx/4.8.3/../../../../pic32mx/lib/fpu64\libpic32.a(default-on-bootstrap.o)
 .data          0x00000000        0x0 c:/program files/microchip/xc32/v2.50/bin/bin/../../lib/gcc/pic32mx/4.8.3/../../../../pic32mx/lib/fpu64\libpic32.a(default-on-bootstrap.o)
 .bss           0x00000000        0x0 c:/program files/microchip/xc32/v2.50/bin/bin/../../lib/gcc/pic32mx/4.8.3/../../../../pic32mx/lib/fpu64\libpic32.a(default-on-bootstrap.o)
 .reginfo       0x00000000       0x18 c:/program files/microchip/xc32/v2.50/bin/bin/../../lib/gcc/pic32mx/4.8.3/../../../../pic32mx/lib/fpu64\libpic32.a(default-on-bootstrap.o)
 .data          0x00000000        0x0 c:/program files/microchip/xc32/v2.50/bin/bin/../../lib/gcc/pic32mx/4.8.3/../../../../pic32mx/lib/fpu64\libpic32.a(default-nmi-handler.o)
 .bss           0x00000000        0x0 c:/program files/microchip/xc32/v2.50/bin/bin/../../lib/gcc/pic32mx/4.8.3/../../../../pic32mx/lib/fpu64\libpic32.a(default-nmi-handler.o)
 .reginfo       0x00000000       0x18 c:/program files/microchip/xc32/v2.50/bin/bin/../../lib/gcc/pic32mx/4.8.3/../../../../pic32mx/lib/fpu64\libpic32.a(default-nmi-handler.o)
 .data          0x00000000        0x0 c:/program files/microchip/xc32/v2.50/bin/bin/../../lib/gcc/pic32mx/4.8.3/../../../../pic32mx/lib/fpu64\libpic32.a(pic32_data_init.o)
 .bss           0x00000000        0x0 c:/program files/microchip/xc32/v2.50/bin/bin/../../lib/gcc/pic32mx/4.8.3/../../../../pic32mx/lib/fpu64\libpic32.a(pic32_data_init.o)
 .reginfo       0x00000000       0x18 c:/program files/microchip/xc32/v2.50/bin/bin/../../lib/gcc/pic32mx/4.8.3/../../../../pic32mx/lib/fpu64\libpic32.a(pic32_data_init.o)
 .text          0x00000000        0x0 c:/program files/microchip/xc32/v2.50/bin/bin/../../lib/gcc/pic32mx/4.8.3/../../../../pic32mx/lib/fpu64\libpic32.a(pic32_init_cache.o)
 .data          0x00000000        0x0 c:/program files/microchip/xc32/v2.50/bin/bin/../../lib/gcc/pic32mx/4.8.3/../../../../pic32mx/lib/fpu64\libpic32.a(pic32_init_cache.o)
 .bss           0x00000000        0x0 c:/program files/microchip/xc32/v2.50/bin/bin/../../lib/gcc/pic32mx/4.8.3/../../../../pic32mx/lib/fpu64\libpic32.a(pic32_init_cache.o)
 .reginfo       0x00000000       0x18 c:/program files/microchip/xc32/v2.50/bin/bin/../../lib/gcc/pic32mx/4.8.3/../../../../pic32mx/lib/fpu64\libpic32.a(pic32_init_cache.o)
 .cache_init.pic32_size_cache
                0x00000000       0x58 c:/program files/microchip/xc32/v2.50/bin/bin/../../lib/gcc/pic32mx/4.8.3/../../../../pic32mx/lib/fpu64\libpic32.a(pic32_init_cache.o)
 .text          0x00000000        0x0 c:/program files/microchip/xc32/v2.50/bin/bin/../../lib/gcc/pic32mx/4.8.3/../../../../pic32mx/lib/fpu64\libpic32.a(pic32_init_tlb_ebi_sqi.o)
 .data          0x00000000        0x0 c:/program files/microchip/xc32/v2.50/bin/bin/../../lib/gcc/pic32mx/4.8.3/../../../../pic32mx/lib/fpu64\libpic32.a(pic32_init_tlb_ebi_sqi.o)
 .bss           0x00000000        0x0 c:/program files/microchip/xc32/v2.50/bin/bin/../../lib/gcc/pic32mx/4.8.3/../../../../pic32mx/lib/fpu64\libpic32.a(pic32_init_tlb_ebi_sqi.o)
 .reginfo       0x00000000       0x18 c:/program files/microchip/xc32/v2.50/bin/bin/../../lib/gcc/pic32mx/4.8.3/../../../../pic32mx/lib/fpu64\libpic32.a(pic32_init_tlb_ebi_sqi.o)
 .text          0x00000000        0x0 c:/program files/microchip/xc32/v2.50/bin/bin/../../lib/gcc/pic32mx/4.8.3/../../../../pic32mx/lib/fpu64\libpic32.a(general-exception.o)
 .data          0x00000000        0x0 c:/program files/microchip/xc32/v2.50/bin/bin/../../lib/gcc/pic32mx/4.8.3/../../../../pic32mx/lib/fpu64\libpic32.a(general-exception.o)
 .bss           0x00000000        0x0 c:/program files/microchip/xc32/v2.50/bin/bin/../../lib/gcc/pic32mx/4.8.3/../../../../pic32mx/lib/fpu64\libpic32.a(general-exception.o)
 .reginfo       0x00000000       0x18 c:/program files/microchip/xc32/v2.50/bin/bin/../../lib/gcc/pic32mx/4.8.3/../../../../pic32mx/lib/fpu64\libpic32.a(general-exception.o)
 .text          0x00000000        0x0 c:/program files/microchip/xc32/v2.50/bin/bin/../../lib/gcc/pic32mx/4.8.3/../../../../pic32mx/lib/fpu64\libpic32.a(cache-err-exception.o)
 .data          0x00000000        0x0 c:/program files/microchip/xc32/v2.50/bin/bin/../../lib/gcc/pic32mx/4.8.3/../../../../pic32mx/lib/fpu64\libpic32.a(cache-err-exception.o)
 .bss           0x00000000        0x0 c:/program files/microchip/xc32/v2.50/bin/bin/../../lib/gcc/pic32mx/4.8.3/../../../../pic32mx/lib/fpu64\libpic32.a(cache-err-exception.o)
 .reginfo       0x00000000       0x18 c:/program files/microchip/xc32/v2.50/bin/bin/../../lib/gcc/pic32mx/4.8.3/../../../../pic32mx/lib/fpu64\libpic32.a(cache-err-exception.o)
 .text          0x00000000        0x0 c:/program files/microchip/xc32/v2.50/bin/bin/../../lib/gcc/pic32mx/4.8.3/../../../../pic32mx/lib/fpu64\libpic32.a(simple-tlb-refill-exception.o)
 .data          0x00000000        0x0 c:/program files/microchip/xc32/v2.50/bin/bin/../../lib/gcc/pic32mx/4.8.3/../../../../pic32mx/lib/fpu64\libpic32.a(simple-tlb-refill-exception.o)
 .bss           0x00000000        0x0 c:/program files/microchip/xc32/v2.50/bin/bin/../../lib/gcc/pic32mx/4.8.3/../../../../pic32mx/lib/fpu64\libpic32.a(simple-tlb-refill-exception.o)
 .reginfo       0x00000000       0x18 c:/program files/microchip/xc32/v2.50/bin/bin/../../lib/gcc/pic32mx/4.8.3/../../../../pic32mx/lib/fpu64\libpic32.a(simple-tlb-refill-exception.o)
 .text          0x00000000        0x0 c:/program files/microchip/xc32/v2.50/bin/bin/../../lib/gcc/pic32mx/4.8.3/../../../../pic32mx/lib/fpu64\libpic32.a(defaultinterrupt.o)
 .data          0x00000000        0x0 c:/program files/microchip/xc32/v2.50/bin/bin/../../lib/gcc/pic32mx/4.8.3/../../../../pic32mx/lib/fpu64\libpic32.a(defaultinterrupt.o)
 .bss           0x00000000        0x0 c:/program files/microchip/xc32/v2.50/bin/bin/../../lib/gcc/pic32mx/4.8.3/../../../../pic32mx/lib/fpu64\libpic32.a(defaultinterrupt.o)
 .reginfo       0x00000000       0x18 c:/program files/microchip/xc32/v2.50/bin/bin/../../lib/gcc/pic32mx/4.8.3/../../../../pic32mx/lib/fpu64\libpic32.a(defaultinterrupt.o)
 .text          0x00000000        0x0 c:/program files/microchip/xc32/v2.50/bin/bin/../../lib/gcc/pic32mx/4.8.3/../../../../pic32mx/lib/fpu64\libc.a(ctypef.o)
 .data          0x00000000        0x0 c:/program files/microchip/xc32/v2.50/bin/bin/../../lib/gcc/pic32mx/4.8.3/../../../../pic32mx/lib/fpu64\libc.a(ctypef.o)
 .bss           0x00000000        0x0 c:/program files/microchip/xc32/v2.50/bin/bin/../../lib/gcc/pic32mx/4.8.3/../../../../pic32mx/lib/fpu64\libc.a(ctypef.o)
 .reginfo       0x00000000       0x18 c:/program files/microchip/xc32/v2.50/bin/bin/../../lib/gcc/pic32mx/4.8.3/../../../../pic32mx/lib/fpu64\libc.a(ctypef.o)
 .text.toupper  0x00000000       0x24 c:/program files/microchip/xc32/v2.50/bin/bin/../../lib/gcc/pic32mx/4.8.3/../../../../pic32mx/lib/fpu64\libc.a(ctypef.o)
 .text.isalnum  0x00000000       0x18 c:/program files/microchip/xc32/v2.50/bin/bin/../../lib/gcc/pic32mx/4.8.3/../../../../pic32mx/lib/fpu64\libc.a(ctypef.o)
 .text.isalpha  0x00000000       0x18 c:/program files/microchip/xc32/v2.50/bin/bin/../../lib/gcc/pic32mx/4.8.3/../../../../pic32mx/lib/fpu64\libc.a(ctypef.o)
 .text.isascii  0x00000000        0x8 c:/program files/microchip/xc32/v2.50/bin/bin/../../lib/gcc/pic32mx/4.8.3/../../../../pic32mx/lib/fpu64\libc.a(ctypef.o)
 .text.iscntrl  0x00000000       0x18 c:/program files/microchip/xc32/v2.50/bin/bin/../../lib/gcc/pic32mx/4.8.3/../../../../pic32mx/lib/fpu64\libc.a(ctypef.o)
 .text.isdigit  0x00000000       0x18 c:/program files/microchip/xc32/v2.50/bin/bin/../../lib/gcc/pic32mx/4.8.3/../../../../pic32mx/lib/fpu64\libc.a(ctypef.o)
 .text.isgraph  0x00000000       0x18 c:/program files/microchip/xc32/v2.50/bin/bin/../../lib/gcc/pic32mx/4.8.3/../../../../pic32mx/lib/fpu64\libc.a(ctypef.o)
 .text.islower  0x00000000       0x18 c:/program files/microchip/xc32/v2.50/bin/bin/../../lib/gcc/pic32mx/4.8.3/../../../../pic32mx/lib/fpu64\libc.a(ctypef.o)
 .text.isprint  0x00000000       0x18 c:/program files/microchip/xc32/v2.50/bin/bin/../../lib/gcc/pic32mx/4.8.3/../../../../pic32mx/lib/fpu64\libc.a(ctypef.o)
 .text.ispunct  0x00000000       0x18 c:/program files/microchip/xc32/v2.50/bin/bin/../../lib/gcc/pic32mx/4.8.3/../../../../pic32mx/lib/fpu64\libc.a(ctypef.o)
 .text.isspace  0x00000000       0x18 c:/program files/microchip/xc32/v2.50/bin/bin/../../lib/gcc/pic32mx/4.8.3/../../../../pic32mx/lib/fpu64\libc.a(ctypef.o)
 .text.isupper  0x00000000       0x18 c:/program files/microchip/xc32/v2.50/bin/bin/../../lib/gcc/pic32mx/4.8.3/../../../../pic32mx/lib/fpu64\libc.a(ctypef.o)
 .text.isxdigit
                0x00000000       0x18 c:/program files/microchip/xc32/v2.50/bin/bin/../../lib/gcc/pic32mx/4.8.3/../../../../pic32mx/lib/fpu64\libc.a(ctypef.o)
 .text.toascii  0x00000000        0x8 c:/program files/microchip/xc32/v2.50/bin/bin/../../lib/gcc/pic32mx/4.8.3/../../../../pic32mx/lib/fpu64\libc.a(ctypef.o)
 .text._tolower
                0x00000000        0x8 c:/program files/microchip/xc32/v2.50/bin/bin/../../lib/gcc/pic32mx/4.8.3/../../../../pic32mx/lib/fpu64\libc.a(ctypef.o)
 .text._toupper
                0x00000000        0x8 c:/program files/microchip/xc32/v2.50/bin/bin/../../lib/gcc/pic32mx/4.8.3/../../../../pic32mx/lib/fpu64\libc.a(ctypef.o)
 .text          0x00000000        0x0 c:/program files/microchip/xc32/v2.50/bin/bin/../../lib/gcc/pic32mx/4.8.3/../../../../pic32mx/lib/fpu64\libc.a(malloc.o)
 .data          0x00000000        0x0 c:/program files/microchip/xc32/v2.50/bin/bin/../../lib/gcc/pic32mx/4.8.3/../../../../pic32mx/lib/fpu64\libc.a(malloc.o)
 .reginfo       0x00000000       0x18 c:/program files/microchip/xc32/v2.50/bin/bin/../../lib/gcc/pic32mx/4.8.3/../../../../pic32mx/lib/fpu64\libc.a(malloc.o)
 .text.free     0x00000000       0x30 c:/program files/microchip/xc32/v2.50/bin/bin/../../lib/gcc/pic32mx/4.8.3/../../../../pic32mx/lib/fpu64\libc.a(malloc.o)
 .text          0x00000000        0x0 c:/program files/microchip/xc32/v2.50/bin/bin/../../lib/gcc/pic32mx/4.8.3/../../../../pic32mx/lib/fpu64\libc.a(memmove.o)
 .data          0x00000000        0x0 c:/program files/microchip/xc32/v2.50/bin/bin/../../lib/gcc/pic32mx/4.8.3/../../../../pic32mx/lib/fpu64\libc.a(memmove.o)
 .bss           0x00000000        0x0 c:/program files/microchip/xc32/v2.50/bin/bin/../../lib/gcc/pic32mx/4.8.3/../../../../pic32mx/lib/fpu64\libc.a(memmove.o)
 .reginfo       0x00000000       0x18 c:/program files/microchip/xc32/v2.50/bin/bin/../../lib/gcc/pic32mx/4.8.3/../../../../pic32mx/lib/fpu64\libc.a(memmove.o)
 .text          0x00000000        0x0 c:/program files/microchip/xc32/v2.50/bin/bin/../../lib/gcc/pic32mx/4.8.3/../../../../pic32mx/lib/fpu64\libc.a(strncat.o)
 .data          0x00000000        0x0 c:/program files/microchip/xc32/v2.50/bin/bin/../../lib/gcc/pic32mx/4.8.3/../../../../pic32mx/lib/fpu64\libc.a(strncat.o)
 .bss           0x00000000        0x0 c:/program files/microchip/xc32/v2.50/bin/bin/../../lib/gcc/pic32mx/4.8.3/../../../../pic32mx/lib/fpu64\libc.a(strncat.o)
 .reginfo       0x00000000       0x18 c:/program files/microchip/xc32/v2.50/bin/bin/../../lib/gcc/pic32mx/4.8.3/../../../../pic32mx/lib/fpu64\libc.a(strncat.o)
 .text          0x00000000        0x0 c:/program files/microchip/xc32/v2.50/bin/bin/../../lib/gcc/pic32mx/4.8.3/../../../../pic32mx/lib/fpu64\libc.a(strrchr.o)
 .data          0x00000000        0x0 c:/program files/microchip/xc32/v2.50/bin/bin/../../lib/gcc/pic32mx/4.8.3/../../../../pic32mx/lib/fpu64\libc.a(strrchr.o)
 .bss           0x00000000        0x0 c:/program files/microchip/xc32/v2.50/bin/bin/../../lib/gcc/pic32mx/4.8.3/../../../../pic32mx/lib/fpu64\libc.a(strrchr.o)
 .reginfo       0x00000000       0x18 c:/program files/microchip/xc32/v2.50/bin/bin/../../lib/gcc/pic32mx/4.8.3/../../../../pic32mx/lib/fpu64\libc.a(strrchr.o)
 .text          0x00000000        0x0 c:/program files/microchip/xc32/v2.50/bin/bin/../../lib/gcc/pic32mx/4.8.3/../../../../pic32mx/lib/fpu64\libc.a(ctype.o)
 .data          0x00000000        0x0 c:/program files/microchip/xc32/v2.50/bin/bin/../../lib/gcc/pic32mx/4.8.3/../../../../pic32mx/lib/fpu64\libc.a(ctype.o)
 .bss           0x00000000        0x0 c:/program files/microchip/xc32/v2.50/bin/bin/../../lib/gcc/pic32mx/4.8.3/../../../../pic32mx/lib/fpu64\libc.a(ctype.o)
 .reginfo       0x00000000       0x18 c:/program files/microchip/xc32/v2.50/bin/bin/../../lib/gcc/pic32mx/4.8.3/../../../../pic32mx/lib/fpu64\libc.a(ctype.o)
 .text          0x00000000        0x0 c:/program files/microchip/xc32/v2.50/bin/bin/../../lib/gcc/pic32mx/4.8.3/../../../../pic32mx/lib/fpu64\libmfd.a(s_cos.o)
 .data          0x00000000        0x0 c:/program files/microchip/xc32/v2.50/bin/bin/../../lib/gcc/pic32mx/4.8.3/../../../../pic32mx/lib/fpu64\libmfd.a(s_cos.o)
 .bss           0x00000000        0x0 c:/program files/microchip/xc32/v2.50/bin/bin/../../lib/gcc/pic32mx/4.8.3/../../../../pic32mx/lib/fpu64\libmfd.a(s_cos.o)
 .reginfo       0x00000000       0x18 c:/program files/microchip/xc32/v2.50/bin/bin/../../lib/gcc/pic32mx/4.8.3/../../../../pic32mx/lib/fpu64\libmfd.a(s_cos.o)
 .text          0x00000000        0x0 c:/program files/microchip/xc32/v2.50/bin/bin/../../lib/gcc/pic32mx/4.8.3/../../../../pic32mx/lib/fpu64\libmfd.a(s_floor.o)
 .data          0x00000000        0x0 c:/program files/microchip/xc32/v2.50/bin/bin/../../lib/gcc/pic32mx/4.8.3/../../../../pic32mx/lib/fpu64\libmfd.a(s_floor.o)
 .bss           0x00000000        0x0 c:/program files/microchip/xc32/v2.50/bin/bin/../../lib/gcc/pic32mx/4.8.3/../../../../pic32mx/lib/fpu64\libmfd.a(s_floor.o)
 .reginfo       0x00000000       0x18 c:/program files/microchip/xc32/v2.50/bin/bin/../../lib/gcc/pic32mx/4.8.3/../../../../pic32mx/lib/fpu64\libmfd.a(s_floor.o)
 .text          0x00000000        0x0 c:/program files/microchip/xc32/v2.50/bin/bin/../../lib/gcc/pic32mx/4.8.3/../../../../pic32mx/lib/fpu64\libmfd.a(s_sin.o)
 .data          0x00000000        0x0 c:/program files/microchip/xc32/v2.50/bin/bin/../../lib/gcc/pic32mx/4.8.3/../../../../pic32mx/lib/fpu64\libmfd.a(s_sin.o)
 .bss           0x00000000        0x0 c:/program files/microchip/xc32/v2.50/bin/bin/../../lib/gcc/pic32mx/4.8.3/../../../../pic32mx/lib/fpu64\libmfd.a(s_sin.o)
 .reginfo       0x00000000       0x18 c:/program files/microchip/xc32/v2.50/bin/bin/../../lib/gcc/pic32mx/4.8.3/../../../../pic32mx/lib/fpu64\libmfd.a(s_sin.o)
 .text          0x00000000        0x0 c:/program files/microchip/xc32/v2.50/bin/bin/../../lib/gcc/pic32mx/4.8.3/../../../../pic32mx/lib/fpu64\libmfd.a(w_atan2.o)
 .data          0x00000000        0x0 c:/program files/microchip/xc32/v2.50/bin/bin/../../lib/gcc/pic32mx/4.8.3/../../../../pic32mx/lib/fpu64\libmfd.a(w_atan2.o)
 .bss           0x00000000        0x0 c:/program files/microchip/xc32/v2.50/bin/bin/../../lib/gcc/pic32mx/4.8.3/../../../../pic32mx/lib/fpu64\libmfd.a(w_atan2.o)
 .reginfo       0x00000000       0x18 c:/program files/microchip/xc32/v2.50/bin/bin/../../lib/gcc/pic32mx/4.8.3/../../../../pic32mx/lib/fpu64\libmfd.a(w_atan2.o)
 .text._atan2x  0x00000000       0x84 c:/program files/microchip/xc32/v2.50/bin/bin/../../lib/gcc/pic32mx/4.8.3/../../../../pic32mx/lib/fpu64\libmfd.a(w_atan2.o)
 .text          0x00000000        0x0 c:/program files/microchip/xc32/v2.50/bin/bin/../../lib/gcc/pic32mx/4.8.3/../../../../pic32mx/lib/fpu64\libmfd.a(e_atan2.o)
 .data          0x00000000        0x0 c:/program files/microchip/xc32/v2.50/bin/bin/../../lib/gcc/pic32mx/4.8.3/../../../../pic32mx/lib/fpu64\libmfd.a(e_atan2.o)
 .bss           0x00000000        0x0 c:/program files/microchip/xc32/v2.50/bin/bin/../../lib/gcc/pic32mx/4.8.3/../../../../pic32mx/lib/fpu64\libmfd.a(e_atan2.o)
 .reginfo       0x00000000       0x18 c:/program files/microchip/xc32/v2.50/bin/bin/../../lib/gcc/pic32mx/4.8.3/../../../../pic32mx/lib/fpu64\libmfd.a(e_atan2.o)
 .text.__ieee754_atan2
                0x00000000      0x2e8 c:/program files/microchip/xc32/v2.50/bin/bin/../../lib/gcc/pic32mx/4.8.3/../../../../pic32mx/lib/fpu64\libmfd.a(e_atan2.o)
 .rodata        0x00000000       0x50 c:/program files/microchip/xc32/v2.50/bin/bin/../../lib/gcc/pic32mx/4.8.3/../../../../pic32mx/lib/fpu64\libmfd.a(e_atan2.o)
 .text          0x00000000        0x0 c:/program files/microchip/xc32/v2.50/bin/bin/../../lib/gcc/pic32mx/4.8.3/../../../../pic32mx/lib/fpu64\libmfd.a(e_rem_pio2.o)
 .data          0x00000000        0x0 c:/program files/microchip/xc32/v2.50/bin/bin/../../lib/gcc/pic32mx/4.8.3/../../../../pic32mx/lib/fpu64\libmfd.a(e_rem_pio2.o)
 .bss           0x00000000        0x0 c:/program files/microchip/xc32/v2.50/bin/bin/../../lib/gcc/pic32mx/4.8.3/../../../../pic32mx/lib/fpu64\libmfd.a(e_rem_pio2.o)
 .reginfo       0x00000000       0x18 c:/program files/microchip/xc32/v2.50/bin/bin/../../lib/gcc/pic32mx/4.8.3/../../../../pic32mx/lib/fpu64\libmfd.a(e_rem_pio2.o)
 .text          0x00000000        0x0 c:/program files/microchip/xc32/v2.50/bin/bin/../../lib/gcc/pic32mx/4.8.3/../../../../pic32mx/lib/fpu64\libmfd.a(k_cos.o)
 .data          0x00000000        0x0 c:/program files/microchip/xc32/v2.50/bin/bin/../../lib/gcc/pic32mx/4.8.3/../../../../pic32mx/lib/fpu64\libmfd.a(k_cos.o)
 .bss           0x00000000        0x0 c:/program files/microchip/xc32/v2.50/bin/bin/../../lib/gcc/pic32mx/4.8.3/../../../../pic32mx/lib/fpu64\libmfd.a(k_cos.o)
 .reginfo       0x00000000       0x18 c:/program files/microchip/xc32/v2.50/bin/bin/../../lib/gcc/pic32mx/4.8.3/../../../../pic32mx/lib/fpu64\libmfd.a(k_cos.o)
 .text          0x00000000        0x0 c:/program files/microchip/xc32/v2.50/bin/bin/../../lib/gcc/pic32mx/4.8.3/../../../../pic32mx/lib/fpu64\libmfd.a(k_sin.o)
 .data          0x00000000        0x0 c:/program files/microchip/xc32/v2.50/bin/bin/../../lib/gcc/pic32mx/4.8.3/../../../../pic32mx/lib/fpu64\libmfd.a(k_sin.o)
 .bss           0x00000000        0x0 c:/program files/microchip/xc32/v2.50/bin/bin/../../lib/gcc/pic32mx/4.8.3/../../../../pic32mx/lib/fpu64\libmfd.a(k_sin.o)
 .reginfo       0x00000000       0x18 c:/program files/microchip/xc32/v2.50/bin/bin/../../lib/gcc/pic32mx/4.8.3/../../../../pic32mx/lib/fpu64\libmfd.a(k_sin.o)
 .text          0x00000000        0x0 c:/program files/microchip/xc32/v2.50/bin/bin/../../lib/gcc/pic32mx/4.8.3/../../../../pic32mx/lib/fpu64\libmfd.a(k_standard.o)
 .data          0x00000000        0x0 c:/program files/microchip/xc32/v2.50/bin/bin/../../lib/gcc/pic32mx/4.8.3/../../../../pic32mx/lib/fpu64\libmfd.a(k_standard.o)
 .bss           0x00000000        0x0 c:/program files/microchip/xc32/v2.50/bin/bin/../../lib/gcc/pic32mx/4.8.3/../../../../pic32mx/lib/fpu64\libmfd.a(k_standard.o)
 .reginfo       0x00000000       0x18 c:/program files/microchip/xc32/v2.50/bin/bin/../../lib/gcc/pic32mx/4.8.3/../../../../pic32mx/lib/fpu64\libmfd.a(k_standard.o)
 .text.__kernel_standard
                0x00000000      0x77c c:/program files/microchip/xc32/v2.50/bin/bin/../../lib/gcc/pic32mx/4.8.3/../../../../pic32mx/lib/fpu64\libmfd.a(k_standard.o)
 .rodata        0x00000000       0x18 c:/program files/microchip/xc32/v2.50/bin/bin/../../lib/gcc/pic32mx/4.8.3/../../../../pic32mx/lib/fpu64\libmfd.a(k_standard.o)
 .text          0x00000000        0x0 c:/program files/microchip/xc32/v2.50/bin/bin/../../lib/gcc/pic32mx/4.8.3/../../../../pic32mx/lib/fpu64\libmfd.a(s_atan.o)
 .data          0x00000000        0x0 c:/program files/microchip/xc32/v2.50/bin/bin/../../lib/gcc/pic32mx/4.8.3/../../../../pic32mx/lib/fpu64\libmfd.a(s_atan.o)
 .bss           0x00000000        0x0 c:/program files/microchip/xc32/v2.50/bin/bin/../../lib/gcc/pic32mx/4.8.3/../../../../pic32mx/lib/fpu64\libmfd.a(s_atan.o)
 .reginfo       0x00000000       0x18 c:/program files/microchip/xc32/v2.50/bin/bin/../../lib/gcc/pic32mx/4.8.3/../../../../pic32mx/lib/fpu64\libmfd.a(s_atan.o)
 .text._atanx   0x00000000      0x284 c:/program files/microchip/xc32/v2.50/bin/bin/../../lib/gcc/pic32mx/4.8.3/../../../../pic32mx/lib/fpu64\libmfd.a(s_atan.o)
 .rodata        0x00000000       0xd0 c:/program files/microchip/xc32/v2.50/bin/bin/../../lib/gcc/pic32mx/4.8.3/../../../../pic32mx/lib/fpu64\libmfd.a(s_atan.o)
 .text          0x00000000        0x0 c:/program files/microchip/xc32/v2.50/bin/bin/../../lib/gcc/pic32mx/4.8.3/../../../../pic32mx/lib/fpu64\libmfd.a(s_fabs.o)
 .data          0x00000000        0x0 c:/program files/microchip/xc32/v2.50/bin/bin/../../lib/gcc/pic32mx/4.8.3/../../../../pic32mx/lib/fpu64\libmfd.a(s_fabs.o)
 .bss           0x00000000        0x0 c:/program files/microchip/xc32/v2.50/bin/bin/../../lib/gcc/pic32mx/4.8.3/../../../../pic32mx/lib/fpu64\libmfd.a(s_fabs.o)
 .reginfo       0x00000000       0x18 c:/program files/microchip/xc32/v2.50/bin/bin/../../lib/gcc/pic32mx/4.8.3/../../../../pic32mx/lib/fpu64\libmfd.a(s_fabs.o)
 .text._fabsx   0x00000000       0x18 c:/program files/microchip/xc32/v2.50/bin/bin/../../lib/gcc/pic32mx/4.8.3/../../../../pic32mx/lib/fpu64\libmfd.a(s_fabs.o)
 .text          0x00000000        0x0 c:/program files/microchip/xc32/v2.50/bin/bin/../../lib/gcc/pic32mx/4.8.3/../../../../pic32mx/lib/fpu64\libmfd.a(s_rint.o)
 .data          0x00000000        0x0 c:/program files/microchip/xc32/v2.50/bin/bin/../../lib/gcc/pic32mx/4.8.3/../../../../pic32mx/lib/fpu64\libmfd.a(s_rint.o)
 .bss           0x00000000        0x0 c:/program files/microchip/xc32/v2.50/bin/bin/../../lib/gcc/pic32mx/4.8.3/../../../../pic32mx/lib/fpu64\libmfd.a(s_rint.o)
 .reginfo       0x00000000       0x18 c:/program files/microchip/xc32/v2.50/bin/bin/../../lib/gcc/pic32mx/4.8.3/../../../../pic32mx/lib/fpu64\libmfd.a(s_rint.o)
 .text.rint     0x00000000      0x180 c:/program files/microchip/xc32/v2.50/bin/bin/../../lib/gcc/pic32mx/4.8.3/../../../../pic32mx/lib/fpu64\libmfd.a(s_rint.o)
 .rodata        0x00000000       0x10 c:/program files/microchip/xc32/v2.50/bin/bin/../../lib/gcc/pic32mx/4.8.3/../../../../pic32mx/lib/fpu64\libmfd.a(s_rint.o)
 .text          0x00000000        0x0 c:/program files/microchip/xc32/v2.50/bin/bin/../../lib/gcc/pic32mx/4.8.3/../../../../pic32mx/lib/fpu64\libpic32.a(sbrk.o)
 .data          0x00000000        0x0 c:/program files/microchip/xc32/v2.50/bin/bin/../../lib/gcc/pic32mx/4.8.3/../../../../pic32mx/lib/fpu64\libpic32.a(sbrk.o)
 .reginfo       0x00000000       0x18 c:/program files/microchip/xc32/v2.50/bin/bin/../../lib/gcc/pic32mx/4.8.3/../../../../pic32mx/lib/fpu64\libpic32.a(sbrk.o)
 .text.getpagesize
                0x00000000        0x8 c:/program files/microchip/xc32/v2.50/bin/bin/../../lib/gcc/pic32mx/4.8.3/../../../../pic32mx/lib/fpu64\libpic32.a(sbrk.o)
 .text          0x00000000        0x0 c:/program files/microchip/xc32/v2.50/bin/bin/../../lib/gcc/pic32mx/4.8.3/../../../../pic32mx/lib/fpu64\libpic32.a(errno.o)
 .data          0x00000000        0x0 c:/program files/microchip/xc32/v2.50/bin/bin/../../lib/gcc/pic32mx/4.8.3/../../../../pic32mx/lib/fpu64\libpic32.a(errno.o)
 .bss           0x00000000        0x0 c:/program files/microchip/xc32/v2.50/bin/bin/../../lib/gcc/pic32mx/4.8.3/../../../../pic32mx/lib/fpu64\libpic32.a(errno.o)
 .reginfo       0x00000000       0x18 c:/program files/microchip/xc32/v2.50/bin/bin/../../lib/gcc/pic32mx/4.8.3/../../../../pic32mx/lib/fpu64\libpic32.a(errno.o)
 .data          0x00000000        0x0 c:/program files/microchip/xc32/v2.50/bin/bin/../../lib/gcc/pic32mx/4.8.3/../../../../pic32mx/lib/fpu64\libpic32.a(memset.o)
 .bss           0x00000000        0x0 c:/program files/microchip/xc32/v2.50/bin/bin/../../lib/gcc/pic32mx/4.8.3/../../../../pic32mx/lib/fpu64\libpic32.a(memset.o)
 .reginfo       0x00000000       0x18 c:/program files/microchip/xc32/v2.50/bin/bin/../../lib/gcc/pic32mx/4.8.3/../../../../pic32mx/lib/fpu64\libpic32.a(memset.o)

Memory Configuration

Name             Origin             Length             Attributes
kseg0_prog_mem   0x9d1fc000         0x00004000
kseg1_prog_mem   0xbd1fc000         0x00004000
kseg0_program_mem 0x9d000000         0x00200000         xr
kseg0_boot_mem   0x9fc004b0         0x00000000
kseg1_boot_mem   0xbfc00000         0x00000480
kseg1_boot_mem_4B0 0xbfc004b0         0x0000fa50
config_BFC0FF40  0xbfc0ff40         0x00000004
config_BFC0FF44  0xbfc0ff44         0x00000004
config_BFC0FF48  0xbfc0ff48         0x00000004
config_BFC0FF4C  0xbfc0ff4c         0x00000004
config_BFC0FF50  0xbfc0ff50         0x00000004
config_BFC0FF54  0xbfc0ff54         0x00000004
config_BFC0FF58  0xbfc0ff58         0x00000004
config_BFC0FF5C  0xbfc0ff5c         0x00000004
config_BFC0FF60  0xbfc0ff60         0x00000004
config_BFC0FF64  0xbfc0ff64         0x00000004
config_BFC0FF68  0xbfc0ff68         0x00000004
config_BFC0FF6C  0xbfc0ff6c         0x00000004
config_BFC0FF70  0xbfc0ff70         0x00000004
config_BFC0FF74  0xbfc0ff74         0x00000004
config_BFC0FF78  0xbfc0ff78         0x00000004
config_BFC0FF7C  0xbfc0ff7c         0x00000004
config_BFC0FFC0  0xbfc0ffc0         0x00000004
config_BFC0FFC4  0xbfc0ffc4         0x00000004
config_BFC0FFC8  0xbfc0ffc8         0x00000004
config_BFC0FFCC  0xbfc0ffcc         0x00000004
config_BFC0FFD0  0xbfc0ffd0         0x00000004
config_BFC0FFD4  0xbfc0ffd4         0x00000004
config_BFC0FFD8  0xbfc0ffd8         0x00000004
config_BFC0FFDC  0xbfc0ffdc         0x00000004
config_BFC0FFE0  0xbfc0ffe0         0x00000004
config_BFC0FFE4  0xbfc0ffe4         0x00000004
config_BFC0FFE8  0xbfc0ffe8         0x00000004
config_BFC0FFEC  0xbfc0ffec         0x00000004
config_BFC0FFF0  0xbfc0fff0         0x00000004
config_BFC0FFF4  0xbfc0fff4         0x00000004
config_BFC0FFF8  0xbfc0fff8         0x00000004
config_BFC0FFFC  0xbfc0fffc         0x00000004
lowerbootaliaslastpage 0xbfc10000         0x00004000
upperbootalias   0xbfc20000         0x0000ff00
config_BFC2FF40  0xbfc2ff40         0x00000004
config_BFC2FF44  0xbfc2ff44         0x00000004
config_BFC2FF48  0xbfc2ff48         0x00000004
config_BFC2FF4C  0xbfc2ff4c         0x00000004
config_BFC2FF50  0xbfc2ff50         0x00000004
config_BFC2FF54  0xbfc2ff54         0x00000004
config_BFC2FF58  0xbfc2ff58         0x00000004
config_BFC2FF5C  0xbfc2ff5c         0x00000004
config_BFC2FF60  0xbfc2ff60         0x00000004
config_BFC2FF64  0xbfc2ff64         0x00000004
config_BFC2FF68  0xbfc2ff68         0x00000004
config_BFC2FF6C  0xbfc2ff6c         0x00000004
config_BFC2FF70  0xbfc2ff70         0x00000004
config_BFC2FF74  0xbfc2ff74         0x00000004
config_BFC2FF78  0xbfc2ff78         0x00000004
config_BFC2FF7C  0xbfc2ff7c         0x00000004
config_BFC2FFC0  0xbfc2ffc0         0x00000004
config_BFC2FFC4  0xbfc2ffc4         0x00000004
config_BFC2FFC8  0xbfc2ffc8         0x00000004
config_BFC2FFCC  0xbfc2ffcc         0x00000004
config_BFC2FFD0  0xbfc2ffd0         0x00000004
config_BFC2FFD4  0xbfc2ffd4         0x00000004
config_BFC2FFD8  0xbfc2ffd8         0x00000004
config_BFC2FFDC  0xbfc2ffdc         0x00000004
config_BFC2FFE0  0xbfc2ffe0         0x00000004
config_BFC2FFE4  0xbfc2ffe4         0x00000004
config_BFC2FFE8  0xbfc2ffe8         0x00000004
config_BFC2FFEC  0xbfc2ffec         0x00000004
config_BFC2FFF0  0xbfc2fff0         0x00000004
config_BFC2FFF4  0xbfc2fff4         0x00000004
config_BFC2FFF8  0xbfc2fff8         0x00000004
config_BFC2FFFC  0xbfc2fffc         0x00000004
upperbootaliaslastpage 0xbfc30000         0x00004000
boot1            0xbfc40000         0x0000ff00
config_BFC4FF40  0xbfc4ff40         0x00000004
config_BFC4FF44  0xbfc4ff44         0x00000004
config_BFC4FF48  0xbfc4ff48         0x00000004
config_BFC4FF4C  0xbfc4ff4c         0x00000004
config_BFC4FF50  0xbfc4ff50         0x00000004
config_BFC4FF54  0xbfc4ff54         0x00000004
config_BFC4FF58  0xbfc4ff58         0x00000004
config_BFC4FF5C  0xbfc4ff5c         0x00000004
config_BFC4FF60  0xbfc4ff60         0x00000004
config_BFC4FF64  0xbfc4ff64         0x00000004
config_BFC4FF68  0xbfc4ff68         0x00000004
config_BFC4FF6C  0xbfc4ff6c         0x00000004
config_BFC4FF70  0xbfc4ff70         0x00000004
config_BFC4FF74  0xbfc4ff74         0x00000004
config_BFC4FF78  0xbfc4ff78         0x00000004
config_BFC4FF7C  0xbfc4ff7c         0x00000004
config_BFC4FFC0  0xbfc4ffc0         0x00000004
config_BFC4FFC4  0xbfc4ffc4         0x00000004
config_BFC4FFC8  0xbfc4ffc8         0x00000004
config_BFC4FFCC  0xbfc4ffcc         0x00000004
config_BFC4FFD0  0xbfc4ffd0         0x00000004
config_BFC4FFD4  0xbfc4ffd4         0x00000004
config_BFC4FFD8  0xbfc4ffd8         0x00000004
config_BFC4FFDC  0xbfc4ffdc         0x00000004
config_BFC4FFE0  0xbfc4ffe0         0x00000004
config_BFC4FFE4  0xbfc4ffe4         0x00000004
config_BFC4FFE8  0xbfc4ffe8         0x00000004
config_BFC4FFEC  0xbfc4ffec         0x00000004
config_BFC4FFF0  0xbfc4fff0         0x00000004
config_BFC4FFF4  0xbfc4fff4         0x00000004
config_BFC4FFF8  0xbfc4fff8         0x00000004
config_BFC4FFFC  0xbfc4fffc         0x00000004
boot1lastpage    0xbfc50000         0x00004000
config_BFC54000  0xbfc54000         0x00000004
config_BFC54004  0xbfc54004         0x00000004
config_BFC54008  0xbfc54008         0x00000004
config_BFC5400C  0xbfc5400c         0x00000004
config_BFC54010  0xbfc54010         0x00000004
config_BFC5401C  0xbfc5401c         0x00000004
config_BFC54020  0xbfc54020         0x00000004
config_BFC54024  0xbfc54024         0x00000004
boot2            0xbfc60000         0x0000ff00
config_BFC6FF40  0xbfc6ff40         0x00000004
config_BFC6FF44  0xbfc6ff44         0x00000004
config_BFC6FF48  0xbfc6ff48         0x00000004
config_BFC6FF4C  0xbfc6ff4c         0x00000004
config_BFC6FF50  0xbfc6ff50         0x00000004
config_BFC6FF54  0xbfc6ff54         0x00000004
config_BFC6FF58  0xbfc6ff58         0x00000004
config_BFC6FF5C  0xbfc6ff5c         0x00000004
config_BFC6FF60  0xbfc6ff60         0x00000004
config_BFC6FF64  0xbfc6ff64         0x00000004
config_BFC6FF68  0xbfc6ff68         0x00000004
config_BFC6FF6C  0xbfc6ff6c         0x00000004
config_BFC6FF70  0xbfc6ff70         0x00000004
config_BFC6FF74  0xbfc6ff74         0x00000004
config_BFC6FF78  0xbfc6ff78         0x00000004
config_BFC6FF7C  0xbfc6ff7c         0x00000004
config_BFC6FFC0  0xbfc6ffc0         0x00000004
config_BFC6FFC4  0xbfc6ffc4         0x00000004
config_BFC6FFC8  0xbfc6ffc8         0x00000004
config_BFC6FFCC  0xbfc6ffcc         0x00000004
config_BFC6FFD0  0xbfc6ffd0         0x00000004
config_BFC6FFD4  0xbfc6ffd4         0x00000004
config_BFC6FFD8  0xbfc6ffd8         0x00000004
config_BFC6FFDC  0xbfc6ffdc         0x00000004
config_BFC6FFE0  0xbfc6ffe0         0x00000004
config_BFC6FFE4  0xbfc6ffe4         0x00000004
config_BFC6FFE8  0xbfc6ffe8         0x00000004
config_BFC6FFEC  0xbfc6ffec         0x00000004
config_BFC6FFF0  0xbfc6fff0         0x00000004
config_BFC6FFF4  0xbfc6fff4         0x00000004
config_BFC6FFF8  0xbfc6fff8         0x00000004
config_BFC6FFFC  0xbfc6fffc         0x00000004
boot2lastpage    0xbfc70000         0x00004000
kseg0_data_mem   0x80000000         0x00080000         w !x
sfrs             0xbf800000         0x00100000
configsfrs_BFC0FF40 0xbfc0ff40         0x00000040
configsfrs_BFC0FFC0 0xbfc0ffc0         0x00000040
configsfrs_BFC2FF40 0xbfc2ff40         0x00000040
configsfrs_BFC2FFC0 0xbfc2ffc0         0x00000040
configsfrs_BFC4FF40 0xbfc4ff40         0x00000040
configsfrs_BFC4FFC0 0xbfc4ffc0         0x00000040
configsfrs_BFC54000 0xbfc54000         0x00000020
configsfrs_BFC6FF40 0xbfc6ff40         0x00000040
configsfrs_BFC6FFC0 0xbfc6ffc0         0x00000040
kseg2_ebi_data_mem 0xc0000000         0x04000000
kseg2_sqi_data_mem 0xd0000000         0x04000000
kseg3_ebi_data_mem 0xe0000000         0x04000000
kseg3_sqi_data_mem 0xf0000000         0x04000000
*default*        0x00000000         0xffffffff

Linker script and memory map


reserve_prog_0x1d1fc000_kseg0
                0x9d1fc000     0x4000
                0x9d1fc000        0x2 SHORT 0x0
                0x00004000                . = 0x4000
 *fill*         0x9d1fc002     0x3ffe 
                0x9d200000                . = ALIGN (0x4)

reserve_prog_0x1d1fc000_kseg1
                0xbd1fc000     0x4000
                0xbd1fc000        0x2 SHORT 0x0
                0x00004000                . = 0x4000
 *fill*         0xbd1fc002     0x3ffe 
                0xbd200000                . = ALIGN (0x4)
LOAD c:/program files/microchip/xc32/v2.50/bin/bin/../../lib/gcc/pic32mx/4.8.3/../../../../pic32mx/lib/fpu64\software-debug-break.o
LOAD build/default/production/_ext/60165520/plib_clk.o
LOAD build/default/production/_ext/1249264884/plib_coretimer.o
LOAD build/default/production/_ext/1865200349/plib_evic.o
LOAD build/default/production/_ext/1865254177/plib_gpio.o
LOAD build/default/production/_ext/60176403/plib_nvm.o
LOAD build/default/production/_ext/298189674/plib_spi2_master.o
LOAD build/default/production/_ext/298189674/plib_spi1_master.o
LOAD build/default/production/_ext/60181895/plib_tmr2.o
LOAD build/default/production/_ext/60181895/plib_tmr3.o
LOAD build/default/production/_ext/163028504/xc32_monitor.o
LOAD build/default/production/_ext/1171490990/initialization.o
LOAD build/default/production/_ext/1171490990/interrupts.o
LOAD build/default/production/_ext/1171490990/exceptions.o
LOAD build/default/production/_ext/1592496102/ff.o
LOAD build/default/production/_ext/1592496102/sdmm.o
LOAD build/default/production/_ext/1592496102/spi_driver.o
LOAD build/default/production/_ext/1275709973/backspace_key.o
LOAD build/default/production/_ext/1275709973/close_icon.o
LOAD build/default/production/_ext/1275709973/close_icon_large.o
LOAD build/default/production/_ext/1275709973/file_icon_large.o
LOAD build/default/production/_ext/1275709973/file_icon_small.o
LOAD build/default/production/_ext/1275709973/folder_close_icon_large.o
LOAD build/default/production/_ext/1275709973/folder_close_icon_small.o
LOAD build/default/production/_ext/1275709973/folder_icon_large.o
LOAD build/default/production/_ext/1275709973/folder_icon_small.o
LOAD build/default/production/_ext/1275709973/folder_open_icon_large.o
LOAD build/default/production/_ext/1275709973/folder_open_icon_small.o
LOAD build/default/production/_ext/1275709973/let_key.o
LOAD build/default/production/_ext/1275709973/maximise_icon.o
LOAD build/default/production/_ext/1275709973/maximise_icon_large.o
LOAD build/default/production/_ext/1275709973/minimise_icon.o
LOAD build/default/production/_ext/1275709973/minimise_icon_large.o
LOAD build/default/production/_ext/1275709973/num_key.o
LOAD build/default/production/_ext/1275709973/resize_icon.o
LOAD build/default/production/_ext/1275709973/resize_icon_large.o
LOAD build/default/production/_ext/1275709973/shift_key.o
LOAD build/default/production/_ext/1275709973/sym_key.o
LOAD build/default/production/_ext/1275709973/tick.o
LOAD build/default/production/_ext/1275709973/tick_large.o
LOAD build/default/production/_ext/481733874/dialog_colour_chooser.o
LOAD build/default/production/_ext/481733874/dialog_date_chooser.o
LOAD build/default/production/_ext/481733874/dialog_file_chooser.o
LOAD build/default/production/_ext/481733874/dialog_number_entry.o
LOAD build/default/production/_ext/481733874/dialog_one_button.o
LOAD build/default/production/_ext/481733874/dialog_text_entry.o
LOAD build/default/production/_ext/481733874/dialog_time_chooser.o
LOAD build/default/production/_ext/481733874/dialog_two_button.o
LOAD build/default/production/_ext/194049764/font12.o
LOAD build/default/production/_ext/194049764/font16.o
LOAD build/default/production/_ext/194049764/font20.o
LOAD build/default/production/_ext/194049764/font24.o
LOAD build/default/production/_ext/194049764/font9.o
LOAD build/default/production/_ext/194049764/gl_title_font.o
LOAD build/default/production/_ext/1391772861/mf_bwfont.o
LOAD build/default/production/_ext/1391772861/mf_encoding.o
LOAD build/default/production/_ext/1391772861/mf_font.o
LOAD build/default/production/_ext/1391772861/mf_justify.o
LOAD build/default/production/_ext/1391772861/mf_kerning.o
LOAD build/default/production/_ext/1391772861/mf_rlefont.o
LOAD build/default/production/_ext/1391772861/mf_scaledfont.o
LOAD build/default/production/_ext/1391772861/mf_wordwrap.o
LOAD build/default/production/_ext/2039457820/BLKCHCRY16.o
LOAD build/default/production/_ext/2039457820/BLKCHCRY16bw.o
LOAD build/default/production/_ext/2039457820/dejavu_sans_12.o
LOAD build/default/production/_ext/1494914114/gl.o
LOAD build/default/production/_ext/1063548019/hal_delay.o
LOAD build/default/production/_ext/1063548019/hal_lcd.o
LOAD build/default/production/_ext/1063548019/hal_non_vol.o
LOAD build/default/production/_ext/1063548019/hal_timer.o
LOAD build/default/production/_ext/1063548019/hal_touch.o
LOAD build/default/production/_ext/1184163457/hal_delay.o
LOAD build/default/production/_ext/1184163457/hal_lcd.o
LOAD build/default/production/_ext/1184163457/hal_non_vol.o
LOAD build/default/production/_ext/1184163457/hal_timer.o
LOAD build/default/production/_ext/1184163457/hal_touch.o
LOAD build/default/production/_ext/1305585261/hal_delay.o
LOAD build/default/production/_ext/1305585261/hal_lcd.o
LOAD build/default/production/_ext/1305585261/hal_non_vol.o
LOAD build/default/production/_ext/1305585261/hal_timer.o
LOAD build/default/production/_ext/1305585261/hal_touch.o
LOAD build/default/production/_ext/818872118/hal_delay.o
LOAD build/default/production/_ext/818872118/hal_lcd.o
LOAD build/default/production/_ext/818872118/hal_non_vol.o
LOAD build/default/production/_ext/818872118/hal_timer.o
LOAD build/default/production/_ext/818872118/hal_touch.o
LOAD build/default/production/_ext/776318040/hal_delay.o
LOAD build/default/production/_ext/776318040/hal_lcd.o
LOAD build/default/production/_ext/776318040/hal_non_vol.o
LOAD build/default/production/_ext/776318040/hal_timer.o
LOAD build/default/production/_ext/776318040/hal_touch.o
LOAD build/default/production/_ext/1178231276/hal_delay.o
LOAD build/default/production/_ext/1178231276/hal_lcd.o
LOAD build/default/production/_ext/1178231276/hal_non_vol.o
LOAD build/default/production/_ext/1178231276/hal_timer.o
LOAD build/default/production/_ext/1178231276/hal_touch.o
LOAD build/default/production/_ext/51196508/hal_delay.o
LOAD build/default/production/_ext/51196508/hal_lcd.o
LOAD build/default/production/_ext/51196508/hal_non_vol.o
LOAD build/default/production/_ext/51196508/hal_timer.o
LOAD build/default/production/_ext/51196508/hal_touch.o
LOAD build/default/production/_ext/1317985835/hal_delay.o
LOAD build/default/production/_ext/1317985835/hal_lcd.o
LOAD build/default/production/_ext/1317985835/hal_non_vol.o
LOAD build/default/production/_ext/1317985835/hal_timer.o
LOAD build/default/production/_ext/1317985835/hal_touch.o
LOAD build/default/production/_ext/1317985899/hal_delay.o
LOAD build/default/production/_ext/1317985899/hal_lcd.o
LOAD build/default/production/_ext/1317985899/hal_non_vol.o
LOAD build/default/production/_ext/1317985899/hal_timer.o
LOAD build/default/production/_ext/1317985899/hal_touch.o
LOAD build/default/production/_ext/1357345870/hal_delay.o
LOAD build/default/production/_ext/1357345870/hal_lcd.o
LOAD build/default/production/_ext/1357345870/hal_non_vol.o
LOAD build/default/production/_ext/1357345870/hal_timer.o
LOAD build/default/production/_ext/1357345870/hal_touch.o
LOAD build/default/production/_ext/902303450/hal_init.o
LOAD build/default/production/_ext/1494913683/ui_arrow.o
LOAD build/default/production/_ext/1494913683/ui_button.o
LOAD build/default/production/_ext/1494913683/ui_check_box.o
LOAD build/default/production/_ext/1494913683/ui_common.o
LOAD build/default/production/_ext/1494913683/ui_keyboard.o
LOAD build/default/production/_ext/1494913683/ui_keypad.o
LOAD build/default/production/_ext/1494913683/ui_label.o
LOAD build/default/production/_ext/1494913683/ui_list_box.o
LOAD build/default/production/_ext/1494913683/ui_progress_bar.o
LOAD build/default/production/_ext/1494913683/ui_radio_button.o
LOAD build/default/production/_ext/1494913683/ui_scroll_bar_horiz.o
LOAD build/default/production/_ext/1494913683/ui_scroll_bar_vert.o
LOAD build/default/production/_ext/1494913683/ui_tabs.o
LOAD build/default/production/_ext/1494913683/ui_text_box.o
LOAD build/default/production/_ext/1494913683/ui_tree.o
LOAD build/default/production/_ext/59636182/calibrate.o
LOAD build/default/production/_ext/59636182/miniwin.o
LOAD build/default/production/_ext/59636182/miniwin_debug.o
LOAD build/default/production/_ext/59636182/miniwin_message_queue.o
LOAD build/default/production/_ext/59636182/miniwin_settings.o
LOAD build/default/production/_ext/59636182/miniwin_touch.o
LOAD build/default/production/_ext/59636182/miniwin_tree_container.o
LOAD build/default/production/_ext/59636182/miniwin_utilities.o
LOAD build/default/production/_ext/165771656/main.o
LOAD build/default/production/_ext/165771656/miniwin_user.o
LOAD build/default/production/_ext/165771656/window_file.o
LOAD build/default/production/_ext/165771656/window_file_tree.o
LOAD build/default/production/_ext/165771656/window_image.o
LOAD build/default/production/_ext/165771656/window_selection.o
LOAD build/default/production/_ext/165771656/window_text.o
LOAD build/default/production/_ext/1445274692/app.o
                0x00000001                __MPLAB_BUILD = 0x1
                0x00000400                PROVIDE (_min_stack_size, 0x400)
START GROUP
LOAD c:/program files/microchip/xc32/v2.50/bin/bin/../../lib/gcc/pic32mx/4.8.3/../../../../pic32mx/lib/./proc/32MZ2048EFM100\vector_offset_init.o
END GROUP
                0x00000001                PROVIDE (_vector_spacing, 0x1)
                0x9d000000                PROVIDE (_ebase_address, 0x9d000000)
                0xbfc00000                _RESET_ADDR = 0xbfc00000
                0xbfc00380                _BEV_EXCPT_ADDR = 0xbfc00380
                0xbfc00480                _DBG_EXCPT_ADDR = 0xbfc00480
                0x9d000000                _SIMPLE_TLB_REFILL_EXCPT_ADDR = (_ebase_address + 0x0)
                0x9d000100                _CACHE_ERR_EXCPT_ADDR = (_ebase_address + 0x100)
                0x9d000180                _GEN_EXCPT_ADDR = (_ebase_address + 0x180)

.config_BFC0FF40
 *(.config_BFC0FF40)

.config_BFC0FF44
 *(.config_BFC0FF44)

.config_BFC0FF48
 *(.config_BFC0FF48)

.config_BFC0FF4C
 *(.config_BFC0FF4C)

.config_BFC0FF50
 *(.config_BFC0FF50)

.config_BFC0FF54
 *(.config_BFC0FF54)

.config_BFC0FF58
 *(.config_BFC0FF58)

.config_BFC0FF5C
 *(.config_BFC0FF5C)

.config_BFC0FF60
 *(.config_BFC0FF60)

.config_BFC0FF64
 *(.config_BFC0FF64)

.config_BFC0FF68
 *(.config_BFC0FF68)

.config_BFC0FF6C
 *(.config_BFC0FF6C)

.config_BFC0FF70
 *(.config_BFC0FF70)

.config_BFC0FF74
 *(.config_BFC0FF74)

.config_BFC0FF78
 *(.config_BFC0FF78)

.config_BFC0FF7C
 *(.config_BFC0FF7C)

.config_BFC0FFC0
                0xbfc0ffc0        0x4
 *(.config_BFC0FFC0)
 .config_BFC0FFC0
                0xbfc0ffc0        0x4 build/default/production/_ext/1171490990/initialization.o

.config_BFC0FFC4
                0xbfc0ffc4        0x4
 *(.config_BFC0FFC4)
 .config_BFC0FFC4
                0xbfc0ffc4        0x4 build/default/production/_ext/1171490990/initialization.o

.config_BFC0FFC8
                0xbfc0ffc8        0x4
 *(.config_BFC0FFC8)
 .config_BFC0FFC8
                0xbfc0ffc8        0x4 build/default/production/_ext/1171490990/initialization.o

.config_BFC0FFCC
                0xbfc0ffcc        0x4
 *(.config_BFC0FFCC)
 .config_BFC0FFCC
                0xbfc0ffcc        0x4 build/default/production/_ext/1171490990/initialization.o

.config_BFC0FFD0
 *(.config_BFC0FFD0)

.config_BFC0FFD4
 *(.config_BFC0FFD4)

.config_BFC0FFD8
 *(.config_BFC0FFD8)

.config_BFC0FFDC
                0xbfc0ffdc        0x4
 *(.config_BFC0FFDC)
 .config_BFC0FFDC
                0xbfc0ffdc        0x4 build/default/production/_ext/1171490990/initialization.o

.config_BFC0FFE0
 *(.config_BFC0FFE0)

.config_BFC0FFE4
 *(.config_BFC0FFE4)

.config_BFC0FFE8
 *(.config_BFC0FFE8)

.config_BFC0FFEC
 *(.config_BFC0FFEC)

.config_BFC0FFF0
                0xbfc0fff0        0x4
 *(.config_BFC0FFF0)
 .config_BFC0FFF0
                0xbfc0fff0        0x4 build/default/production/_ext/1171490990/initialization.o

.config_BFC0FFF4
 *(.config_BFC0FFF4)

.config_BFC0FFF8
 *(.config_BFC0FFF8)

.config_BFC0FFFC
 *(.config_BFC0FFFC)

.config_BFC2FF40
 *(.config_BFC2FF40)

.config_BFC2FF44
 *(.config_BFC2FF44)

.config_BFC2FF48
 *(.config_BFC2FF48)

.config_BFC2FF4C
 *(.config_BFC2FF4C)

.config_BFC2FF50
 *(.config_BFC2FF50)

.config_BFC2FF54
 *(.config_BFC2FF54)

.config_BFC2FF58
 *(.config_BFC2FF58)

.config_BFC2FF5C
 *(.config_BFC2FF5C)

.config_BFC2FF60
 *(.config_BFC2FF60)

.config_BFC2FF64
 *(.config_BFC2FF64)

.config_BFC2FF68
 *(.config_BFC2FF68)

.config_BFC2FF6C
 *(.config_BFC2FF6C)

.config_BFC2FF70
 *(.config_BFC2FF70)

.config_BFC2FF74
 *(.config_BFC2FF74)

.config_BFC2FF78
 *(.config_BFC2FF78)

.config_BFC2FF7C
 *(.config_BFC2FF7C)

.config_BFC2FFC0
 *(.config_BFC2FFC0)

.config_BFC2FFC4
 *(.config_BFC2FFC4)

.config_BFC2FFC8
 *(.config_BFC2FFC8)

.config_BFC2FFCC
 *(.config_BFC2FFCC)

.config_BFC2FFD0
 *(.config_BFC2FFD0)

.config_BFC2FFD4
 *(.config_BFC2FFD4)

.config_BFC2FFD8
 *(.config_BFC2FFD8)

.config_BFC2FFDC
 *(.config_BFC2FFDC)

.config_BFC2FFE0
 *(.config_BFC2FFE0)

.config_BFC2FFE4
 *(.config_BFC2FFE4)

.config_BFC2FFE8
 *(.config_BFC2FFE8)

.config_BFC2FFEC
 *(.config_BFC2FFEC)

.config_BFC2FFF0
 *(.config_BFC2FFF0)

.config_BFC2FFF4
 *(.config_BFC2FFF4)

.config_BFC2FFF8
 *(.config_BFC2FFF8)

.config_BFC2FFFC
 *(.config_BFC2FFFC)

.config_BFC4FF40
 *(.config_BFC4FF40)

.config_BFC4FF44
 *(.config_BFC4FF44)

.config_BFC4FF48
 *(.config_BFC4FF48)

.config_BFC4FF4C
 *(.config_BFC4FF4C)

.config_BFC4FF50
 *(.config_BFC4FF50)

.config_BFC4FF54
 *(.config_BFC4FF54)

.config_BFC4FF58
 *(.config_BFC4FF58)

.config_BFC4FF5C
 *(.config_BFC4FF5C)

.config_BFC4FF60
 *(.config_BFC4FF60)

.config_BFC4FF64
 *(.config_BFC4FF64)

.config_BFC4FF68
 *(.config_BFC4FF68)

.config_BFC4FF6C
 *(.config_BFC4FF6C)

.config_BFC4FF70
 *(.config_BFC4FF70)

.config_BFC4FF74
 *(.config_BFC4FF74)

.config_BFC4FF78
 *(.config_BFC4FF78)

.config_BFC4FF7C
 *(.config_BFC4FF7C)

.config_BFC4FFC0
 *(.config_BFC4FFC0)

.config_BFC4FFC4
 *(.config_BFC4FFC4)

.config_BFC4FFC8
 *(.config_BFC4FFC8)

.config_BFC4FFCC
 *(.config_BFC4FFCC)

.config_BFC4FFD0
 *(.config_BFC4FFD0)

.config_BFC4FFD4
 *(.config_BFC4FFD4)

.config_BFC4FFD8
 *(.config_BFC4FFD8)

.config_BFC4FFDC
 *(.config_BFC4FFDC)

.config_BFC4FFE0
 *(.config_BFC4FFE0)

.config_BFC4FFE4
 *(.config_BFC4FFE4)

.config_BFC4FFE8
 *(.config_BFC4FFE8)

.config_BFC4FFEC
 *(.config_BFC4FFEC)

.config_BFC4FFF0
 *(.config_BFC4FFF0)

.config_BFC4FFF4
 *(.config_BFC4FFF4)

.config_BFC4FFF8
 *(.config_BFC4FFF8)

.config_BFC4FFFC
 *(.config_BFC4FFFC)

.config_BFC54000
 *(.config_BFC54000)

.config_BFC54004
 *(.config_BFC54004)

.config_BFC54008
 *(.config_BFC54008)

.config_BFC5400C
 *(.config_BFC5400C)

.config_BFC54010
 *(.config_BFC54010)

.config_BFC5401C
 *(.config_BFC5401C)

.config_BFC54020
 *(.config_BFC54020)

.config_BFC54024
 *(.config_BFC54024)

.config_BFC6FF40
 *(.config_BFC6FF40)

.config_BFC6FF44
 *(.config_BFC6FF44)

.config_BFC6FF48
 *(.config_BFC6FF48)

.config_BFC6FF4C
 *(.config_BFC6FF4C)

.config_BFC6FF50
 *(.config_BFC6FF50)

.config_BFC6FF54
 *(.config_BFC6FF54)

.config_BFC6FF58
 *(.config_BFC6FF58)

.config_BFC6FF5C
 *(.config_BFC6FF5C)

.config_BFC6FF60
 *(.config_BFC6FF60)

.config_BFC6FF64
 *(.config_BFC6FF64)

.config_BFC6FF68
 *(.config_BFC6FF68)

.config_BFC6FF6C
 *(.config_BFC6FF6C)

.config_BFC6FF70
 *(.config_BFC6FF70)

.config_BFC6FF74
 *(.config_BFC6FF74)

.config_BFC6FF78
 *(.config_BFC6FF78)

.config_BFC6FF7C
 *(.config_BFC6FF7C)

.config_BFC6FFC0
 *(.config_BFC6FFC0)

.config_BFC6FFC4
 *(.config_BFC6FFC4)

.config_BFC6FFC8
 *(.config_BFC6FFC8)

.config_BFC6FFCC
 *(.config_BFC6FFCC)

.config_BFC6FFD0
 *(.config_BFC6FFD0)

.config_BFC6FFD4
 *(.config_BFC6FFD4)

.config_BFC6FFD8
 *(.config_BFC6FFD8)

.config_BFC6FFDC
 *(.config_BFC6FFDC)

.config_BFC6FFE0
 *(.config_BFC6FFE0)

.config_BFC6FFE4
 *(.config_BFC6FFE4)

.config_BFC6FFE8
 *(.config_BFC6FFE8)

.config_BFC6FFEC
 *(.config_BFC6FFEC)

.config_BFC6FFF0
 *(.config_BFC6FFF0)

.config_BFC6FFF4
 *(.config_BFC6FFF4)

.config_BFC6FFF8
 *(.config_BFC6FFF8)

.config_BFC6FFFC
 *(.config_BFC6FFFC)

.reset          0xbfc00000      0x1b4
 *(.reset)
 .reset         0xbfc00000       0x18 C:\Users\John\AppData\Local\Temp\ccWRxhWa.o
                0xbfc00000                _reset
 *(.reset.startup)
 .reset.startup
                0xbfc00018      0x19c C:\Users\John\AppData\Local\Temp\ccWRxhWa.o
                0xbfc00018                _startup

.bev_excpt      0xbfc00380       0x10
 *(.bev_handler)
 .bev_handler   0xbfc00380       0x10 C:\Users\John\AppData\Local\Temp\ccWRxhWa.o

.cache_init     0xbfc004b0      0x1c0
 *(.cache_init)
 *(.cache_init.*)
 .cache_init.cache
                0xbfc004b0       0xc0 c:/program files/microchip/xc32/v2.50/bin/bin/../../lib/gcc/pic32mx/4.8.3/../../../../pic32mx/lib/fpu64\libpic32.a(pic32_init_cache.o)
 .cache_init.pic32_init_cache
                0xbfc00570      0x100 c:/program files/microchip/xc32/v2.50/bin/bin/../../lib/gcc/pic32mx/4.8.3/../../../../pic32mx/lib/fpu64\libpic32.a(pic32_init_cache.o)
                0xbfc00570                __pic32_init_cache

.simple_tlb_refill_excpt
                0x9d000000       0x10
 *(.simple_tlb_refill_vector)
 .simple_tlb_refill_vector
                0x9d000000       0x10 C:\Users\John\AppData\Local\Temp\ccWRxhWa.o

.cache_err_excpt
                0x9d000100       0x10
 *(.cache_err_vector)
 .cache_err_vector
                0x9d000100       0x10 C:\Users\John\AppData\Local\Temp\ccWRxhWa.o

.app_excpt      0x9d000180       0x10
 *(.gen_handler)
 .gen_handler   0x9d000180       0x10 C:\Users\John\AppData\Local\Temp\ccWRxhWa.o

.vectors        0x9d000200       0x58
                0x9d000200                . = ALIGN (0x4)
                0x00000210                __vector_offset_0 = DEFINED (__vector_dispatch_0)?(. - _ebase_address):__vector_offset_default
 *(.vector_0)
                0x9d000200                . = ALIGN (0x4)
                0x00000210                __vector_offset_1 = DEFINED (__vector_dispatch_1)?(. - _ebase_address):__vector_offset_default
 *(.vector_1)
                0x9d000200                . = ALIGN (0x4)
                0x00000210                __vector_offset_2 = DEFINED (__vector_dispatch_2)?(. - _ebase_address):__vector_offset_default
 *(.vector_2)
                0x9d000200                . = ALIGN (0x4)
                0x00000210                __vector_offset_3 = DEFINED (__vector_dispatch_3)?(. - _ebase_address):__vector_offset_default
 *(.vector_3)
                0x9d000200                . = ALIGN (0x4)
                0x00000210                __vector_offset_4 = DEFINED (__vector_dispatch_4)?(. - _ebase_address):__vector_offset_default
 *(.vector_4)
                0x9d000200                . = ALIGN (0x4)
                0x00000210                __vector_offset_5 = DEFINED (__vector_dispatch_5)?(. - _ebase_address):__vector_offset_default
 *(.vector_5)
                0x9d000200                . = ALIGN (0x4)
                0x00000210                __vector_offset_6 = DEFINED (__vector_dispatch_6)?(. - _ebase_address):__vector_offset_default
 *(.vector_6)
                0x9d000200                . = ALIGN (0x4)
                0x00000210                __vector_offset_7 = DEFINED (__vector_dispatch_7)?(. - _ebase_address):__vector_offset_default
 *(.vector_7)
                0x9d000200                . = ALIGN (0x4)
                0x00000210                __vector_offset_8 = DEFINED (__vector_dispatch_8)?(. - _ebase_address):__vector_offset_default
 *(.vector_8)
                0x9d000200                . = ALIGN (0x4)
                0x00000200                __vector_offset_9 = DEFINED (__vector_dispatch_9)?(. - _ebase_address):__vector_offset_default
 *(.vector_9)
 .vector_9      0x9d000200        0x8 build/default/production/_ext/1171490990/interrupts.o
                0x9d000200                __vector_dispatch_9
                0x9d000208                . = ALIGN (0x4)
                0x00000210                __vector_offset_10 = DEFINED (__vector_dispatch_10)?(. - _ebase_address):__vector_offset_default
 *(.vector_10)
                0x9d000208                . = ALIGN (0x4)
                0x00000210                __vector_offset_11 = DEFINED (__vector_dispatch_11)?(. - _ebase_address):__vector_offset_default
 *(.vector_11)
                0x9d000208                . = ALIGN (0x4)
                0x00000210                __vector_offset_12 = DEFINED (__vector_dispatch_12)?(. - _ebase_address):__vector_offset_default
 *(.vector_12)
                0x9d000208                . = ALIGN (0x4)
                0x00000210                __vector_offset_13 = DEFINED (__vector_dispatch_13)?(. - _ebase_address):__vector_offset_default
 *(.vector_13)
                0x9d000208                . = ALIGN (0x4)
                0x00000208                __vector_offset_14 = DEFINED (__vector_dispatch_14)?(. - _ebase_address):__vector_offset_default
 *(.vector_14)
 .vector_14     0x9d000208        0x8 build/default/production/_ext/1171490990/interrupts.o
                0x9d000208                __vector_dispatch_14
                0x9d000210                . = ALIGN (0x4)
                0x00000210                __vector_offset_15 = DEFINED (__vector_dispatch_15)?(. - _ebase_address):__vector_offset_default
 *(.vector_15)
                0x9d000210                . = ALIGN (0x4)
                0x00000210                __vector_offset_16 = DEFINED (__vector_dispatch_16)?(. - _ebase_address):__vector_offset_default
 *(.vector_16)
                0x9d000210                . = ALIGN (0x4)
                0x00000210                __vector_offset_17 = DEFINED (__vector_dispatch_17)?(. - _ebase_address):__vector_offset_default
 *(.vector_17)
                0x9d000210                . = ALIGN (0x4)
                0x00000210                __vector_offset_18 = DEFINED (__vector_dispatch_18)?(. - _ebase_address):__vector_offset_default
 *(.vector_18)
                0x9d000210                . = ALIGN (0x4)
                0x00000210                __vector_offset_19 = DEFINED (__vector_dispatch_19)?(. - _ebase_address):__vector_offset_default
 *(.vector_19)
                0x9d000210                . = ALIGN (0x4)
                0x00000210                __vector_offset_20 = DEFINED (__vector_dispatch_20)?(. - _ebase_address):__vector_offset_default
 *(.vector_20)
                0x9d000210                . = ALIGN (0x4)
                0x00000210                __vector_offset_21 = DEFINED (__vector_dispatch_21)?(. - _ebase_address):__vector_offset_default
 *(.vector_21)
                0x9d000210                . = ALIGN (0x4)
                0x00000210                __vector_offset_22 = DEFINED (__vector_dispatch_22)?(. - _ebase_address):__vector_offset_default
 *(.vector_22)
                0x9d000210                . = ALIGN (0x4)
                0x00000210                __vector_offset_23 = DEFINED (__vector_dispatch_23)?(. - _ebase_address):__vector_offset_default
 *(.vector_23)
                0x9d000210                . = ALIGN (0x4)
                0x00000210                __vector_offset_24 = DEFINED (__vector_dispatch_24)?(. - _ebase_address):__vector_offset_default
 *(.vector_24)
                0x9d000210                . = ALIGN (0x4)
                0x00000210                __vector_offset_25 = DEFINED (__vector_dispatch_25)?(. - _ebase_address):__vector_offset_default
 *(.vector_25)
                0x9d000210                . = ALIGN (0x4)
                0x00000210                __vector_offset_26 = DEFINED (__vector_dispatch_26)?(. - _ebase_address):__vector_offset_default
 *(.vector_26)
                0x9d000210                . = ALIGN (0x4)
                0x00000210                __vector_offset_27 = DEFINED (__vector_dispatch_27)?(. - _ebase_address):__vector_offset_default
 *(.vector_27)
                0x9d000210                . = ALIGN (0x4)
                0x00000210                __vector_offset_28 = DEFINED (__vector_dispatch_28)?(. - _ebase_address):__vector_offset_default
 *(.vector_28)
                0x9d000210                . = ALIGN (0x4)
                0x00000210                __vector_offset_29 = DEFINED (__vector_dispatch_29)?(. - _ebase_address):__vector_offset_default
 *(.vector_29)
                0x9d000210                . = ALIGN (0x4)
                0x00000210                __vector_offset_30 = DEFINED (__vector_dispatch_30)?(. - _ebase_address):__vector_offset_default
 *(.vector_30)
                0x9d000210                . = ALIGN (0x4)
                0x00000210                __vector_offset_31 = DEFINED (__vector_dispatch_31)?(. - _ebase_address):__vector_offset_default
 *(.vector_31)
                0x9d000210                . = ALIGN (0x4)
                0x00000210                __vector_offset_32 = DEFINED (__vector_dispatch_32)?(. - _ebase_address):__vector_offset_default
 *(.vector_32)
                0x9d000210                . = ALIGN (0x4)
                0x00000210                __vector_offset_33 = DEFINED (__vector_dispatch_33)?(. - _ebase_address):__vector_offset_default
 *(.vector_33)
                0x9d000210                . = ALIGN (0x4)
                0x00000210                __vector_offset_34 = DEFINED (__vector_dispatch_34)?(. - _ebase_address):__vector_offset_default
 *(.vector_34)
                0x9d000210                . = ALIGN (0x4)
                0x00000210                __vector_offset_35 = DEFINED (__vector_dispatch_35)?(. - _ebase_address):__vector_offset_default
 *(.vector_35)
                0x9d000210                . = ALIGN (0x4)
                0x00000210                __vector_offset_36 = DEFINED (__vector_dispatch_36)?(. - _ebase_address):__vector_offset_default
 *(.vector_36)
                0x9d000210                . = ALIGN (0x4)
                0x00000210                __vector_offset_37 = DEFINED (__vector_dispatch_37)?(. - _ebase_address):__vector_offset_default
 *(.vector_37)
                0x9d000210                . = ALIGN (0x4)
                0x00000210                __vector_offset_38 = DEFINED (__vector_dispatch_38)?(. - _ebase_address):__vector_offset_default
 *(.vector_38)
                0x9d000210                . = ALIGN (0x4)
                0x00000210                __vector_offset_39 = DEFINED (__vector_dispatch_39)?(. - _ebase_address):__vector_offset_default
 *(.vector_39)
                0x9d000210                . = ALIGN (0x4)
                0x00000210                __vector_offset_40 = DEFINED (__vector_dispatch_40)?(. - _ebase_address):__vector_offset_default
 *(.vector_40)
                0x9d000210                . = ALIGN (0x4)
                0x00000210                __vector_offset_41 = DEFINED (__vector_dispatch_41)?(. - _ebase_address):__vector_offset_default
 *(.vector_41)
                0x9d000210                . = ALIGN (0x4)
                0x00000210                __vector_offset_42 = DEFINED (__vector_dispatch_42)?(. - _ebase_address):__vector_offset_default
 *(.vector_42)
                0x9d000210                . = ALIGN (0x4)
                0x00000210                __vector_offset_43 = DEFINED (__vector_dispatch_43)?(. - _ebase_address):__vector_offset_default
 *(.vector_43)
                0x9d000210                . = ALIGN (0x4)
                0x00000210                __vector_offset_44 = DEFINED (__vector_dispatch_44)?(. - _ebase_address):__vector_offset_default
 *(.vector_44)
                0x9d000210                . = ALIGN (0x4)
                0x00000210                __vector_offset_45 = DEFINED (__vector_dispatch_45)?(. - _ebase_address):__vector_offset_default
 *(.vector_45)
                0x9d000210                . = ALIGN (0x4)
                0x00000210                __vector_offset_46 = DEFINED (__vector_dispatch_46)?(. - _ebase_address):__vector_offset_default
 *(.vector_46)
                0x9d000210                . = ALIGN (0x4)
                0x00000210                __vector_offset_47 = DEFINED (__vector_dispatch_47)?(. - _ebase_address):__vector_offset_default
 *(.vector_47)
                0x9d000210                . = ALIGN (0x4)
                0x00000210                __vector_offset_48 = DEFINED (__vector_dispatch_48)?(. - _ebase_address):__vector_offset_default
 *(.vector_48)
                0x9d000210                . = ALIGN (0x4)
                0x00000210                __vector_offset_49 = DEFINED (__vector_dispatch_49)?(. - _ebase_address):__vector_offset_default
 *(.vector_49)
                0x9d000210                . = ALIGN (0x4)
                0x00000210                __vector_offset_50 = DEFINED (__vector_dispatch_50)?(. - _ebase_address):__vector_offset_default
 *(.vector_50)
                0x9d000210                . = ALIGN (0x4)
                0x00000210                __vector_offset_51 = DEFINED (__vector_dispatch_51)?(. - _ebase_address):__vector_offset_default
 *(.vector_51)
                0x9d000210                . = ALIGN (0x4)
                0x00000210                __vector_offset_52 = DEFINED (__vector_dispatch_52)?(. - _ebase_address):__vector_offset_default
 *(.vector_52)
                0x9d000210                . = ALIGN (0x4)
                0x00000210                __vector_offset_53 = DEFINED (__vector_dispatch_53)?(. - _ebase_address):__vector_offset_default
 *(.vector_53)
                0x9d000210                . = ALIGN (0x4)
                0x00000210                __vector_offset_54 = DEFINED (__vector_dispatch_54)?(. - _ebase_address):__vector_offset_default
 *(.vector_54)
                0x9d000210                . = ALIGN (0x4)
                0x00000210                __vector_offset_55 = DEFINED (__vector_dispatch_55)?(. - _ebase_address):__vector_offset_default
 *(.vector_55)
                0x9d000210                . = ALIGN (0x4)
                0x00000210                __vector_offset_56 = DEFINED (__vector_dispatch_56)?(. - _ebase_address):__vector_offset_default
 *(.vector_56)
                0x9d000210                . = ALIGN (0x4)
                0x00000210                __vector_offset_57 = DEFINED (__vector_dispatch_57)?(. - _ebase_address):__vector_offset_default
 *(.vector_57)
                0x9d000210                . = ALIGN (0x4)
                0x00000210                __vector_offset_58 = DEFINED (__vector_dispatch_58)?(. - _ebase_address):__vector_offset_default
 *(.vector_58)
                0x9d000210                . = ALIGN (0x4)
                0x00000210                __vector_offset_59 = DEFINED (__vector_dispatch_59)?(. - _ebase_address):__vector_offset_default
 *(.vector_59)
                0x9d000210                . = ALIGN (0x4)
                0x00000210                __vector_offset_60 = DEFINED (__vector_dispatch_60)?(. - _ebase_address):__vector_offset_default
 *(.vector_60)
                0x9d000210                . = ALIGN (0x4)
                0x00000210                __vector_offset_61 = DEFINED (__vector_dispatch_61)?(. - _ebase_address):__vector_offset_default
 *(.vector_61)
                0x9d000210                . = ALIGN (0x4)
                0x00000210                __vector_offset_62 = DEFINED (__vector_dispatch_62)?(. - _ebase_address):__vector_offset_default
 *(.vector_62)
                0x9d000210                . = ALIGN (0x4)
                0x00000210                __vector_offset_63 = DEFINED (__vector_dispatch_63)?(. - _ebase_address):__vector_offset_default
 *(.vector_63)
                0x9d000210                . = ALIGN (0x4)
                0x00000210                __vector_offset_64 = DEFINED (__vector_dispatch_64)?(. - _ebase_address):__vector_offset_default
 *(.vector_64)
                0x9d000210                . = ALIGN (0x4)
                0x00000210                __vector_offset_65 = DEFINED (__vector_dispatch_65)?(. - _ebase_address):__vector_offset_default
 *(.vector_65)
                0x9d000210                . = ALIGN (0x4)
                0x00000210                __vector_offset_66 = DEFINED (__vector_dispatch_66)?(. - _ebase_address):__vector_offset_default
 *(.vector_66)
                0x9d000210                . = ALIGN (0x4)
                0x00000210                __vector_offset_67 = DEFINED (__vector_dispatch_67)?(. - _ebase_address):__vector_offset_default
 *(.vector_67)
                0x9d000210                . = ALIGN (0x4)
                0x00000210                __vector_offset_68 = DEFINED (__vector_dispatch_68)?(. - _ebase_address):__vector_offset_default
 *(.vector_68)
                0x9d000210                . = ALIGN (0x4)
                0x00000210                __vector_offset_69 = DEFINED (__vector_dispatch_69)?(. - _ebase_address):__vector_offset_default
 *(.vector_69)
                0x9d000210                . = ALIGN (0x4)
                0x00000210                __vector_offset_70 = DEFINED (__vector_dispatch_70)?(. - _ebase_address):__vector_offset_default
 *(.vector_70)
                0x9d000210                . = ALIGN (0x4)
                0x00000210                __vector_offset_71 = DEFINED (__vector_dispatch_71)?(. - _ebase_address):__vector_offset_default
 *(.vector_71)
                0x9d000210                . = ALIGN (0x4)
                0x00000210                __vector_offset_72 = DEFINED (__vector_dispatch_72)?(. - _ebase_address):__vector_offset_default
 *(.vector_72)
                0x9d000210                . = ALIGN (0x4)
                0x00000210                __vector_offset_73 = DEFINED (__vector_dispatch_73)?(. - _ebase_address):__vector_offset_default
 *(.vector_73)
                0x9d000210                . = ALIGN (0x4)
                0x00000210                __vector_offset_74 = DEFINED (__vector_dispatch_74)?(. - _ebase_address):__vector_offset_default
 *(.vector_74)
                0x9d000210                . = ALIGN (0x4)
                0x00000210                __vector_offset_75 = DEFINED (__vector_dispatch_75)?(. - _ebase_address):__vector_offset_default
 *(.vector_75)
                0x9d000210                . = ALIGN (0x4)
                0x00000210                __vector_offset_76 = DEFINED (__vector_dispatch_76)?(. - _ebase_address):__vector_offset_default
 *(.vector_76)
                0x9d000210                . = ALIGN (0x4)
                0x00000210                __vector_offset_77 = DEFINED (__vector_dispatch_77)?(. - _ebase_address):__vector_offset_default
 *(.vector_77)
                0x9d000210                . = ALIGN (0x4)
                0x00000210                __vector_offset_78 = DEFINED (__vector_dispatch_78)?(. - _ebase_address):__vector_offset_default
 *(.vector_78)
                0x9d000210                . = ALIGN (0x4)
                0x00000210                __vector_offset_79 = DEFINED (__vector_dispatch_79)?(. - _ebase_address):__vector_offset_default
 *(.vector_79)
                0x9d000210                . = ALIGN (0x4)
                0x00000210                __vector_offset_80 = DEFINED (__vector_dispatch_80)?(. - _ebase_address):__vector_offset_default
 *(.vector_80)
                0x9d000210                . = ALIGN (0x4)
                0x00000210                __vector_offset_81 = DEFINED (__vector_dispatch_81)?(. - _ebase_address):__vector_offset_default
 *(.vector_81)
                0x9d000210                . = ALIGN (0x4)
                0x00000210                __vector_offset_82 = DEFINED (__vector_dispatch_82)?(. - _ebase_address):__vector_offset_default
 *(.vector_82)
                0x9d000210                . = ALIGN (0x4)
                0x00000210                __vector_offset_83 = DEFINED (__vector_dispatch_83)?(. - _ebase_address):__vector_offset_default
 *(.vector_83)
                0x9d000210                . = ALIGN (0x4)
                0x00000210                __vector_offset_84 = DEFINED (__vector_dispatch_84)?(. - _ebase_address):__vector_offset_default
 *(.vector_84)
                0x9d000210                . = ALIGN (0x4)
                0x00000210                __vector_offset_85 = DEFINED (__vector_dispatch_85)?(. - _ebase_address):__vector_offset_default
 *(.vector_85)
                0x9d000210                . = ALIGN (0x4)
                0x00000210                __vector_offset_86 = DEFINED (__vector_dispatch_86)?(. - _ebase_address):__vector_offset_default
 *(.vector_86)
                0x9d000210                . = ALIGN (0x4)
                0x00000210                __vector_offset_87 = DEFINED (__vector_dispatch_87)?(. - _ebase_address):__vector_offset_default
 *(.vector_87)
                0x9d000210                . = ALIGN (0x4)
                0x00000210                __vector_offset_88 = DEFINED (__vector_dispatch_88)?(. - _ebase_address):__vector_offset_default
 *(.vector_88)
                0x9d000210                . = ALIGN (0x4)
                0x00000210                __vector_offset_89 = DEFINED (__vector_dispatch_89)?(. - _ebase_address):__vector_offset_default
 *(.vector_89)
                0x9d000210                . = ALIGN (0x4)
                0x00000210                __vector_offset_90 = DEFINED (__vector_dispatch_90)?(. - _ebase_address):__vector_offset_default
 *(.vector_90)
                0x9d000210                . = ALIGN (0x4)
                0x00000210                __vector_offset_91 = DEFINED (__vector_dispatch_91)?(. - _ebase_address):__vector_offset_default
 *(.vector_91)
                0x9d000210                . = ALIGN (0x4)
                0x00000210                __vector_offset_92 = DEFINED (__vector_dispatch_92)?(. - _ebase_address):__vector_offset_default
 *(.vector_92)
                0x9d000210                . = ALIGN (0x4)
                0x00000210                __vector_offset_93 = DEFINED (__vector_dispatch_93)?(. - _ebase_address):__vector_offset_default
 *(.vector_93)
                0x9d000210                . = ALIGN (0x4)
                0x00000210                __vector_offset_94 = DEFINED (__vector_dispatch_94)?(. - _ebase_address):__vector_offset_default
 *(.vector_94)
                0x9d000210                . = ALIGN (0x4)
                0x00000210                __vector_offset_95 = DEFINED (__vector_dispatch_95)?(. - _ebase_address):__vector_offset_default
 *(.vector_95)
                0x9d000210                . = ALIGN (0x4)
                0x00000210                __vector_offset_96 = DEFINED (__vector_dispatch_96)?(. - _ebase_address):__vector_offset_default
 *(.vector_96)
                0x9d000210                . = ALIGN (0x4)
                0x00000210                __vector_offset_97 = DEFINED (__vector_dispatch_97)?(. - _ebase_address):__vector_offset_default
 *(.vector_97)
                0x9d000210                . = ALIGN (0x4)
                0x00000210                __vector_offset_98 = DEFINED (__vector_dispatch_98)?(. - _ebase_address):__vector_offset_default
 *(.vector_98)
                0x9d000210                . = ALIGN (0x4)
                0x00000210                __vector_offset_99 = DEFINED (__vector_dispatch_99)?(. - _ebase_address):__vector_offset_default
 *(.vector_99)
                0x9d000210                . = ALIGN (0x4)
                0x00000210                __vector_offset_100 = DEFINED (__vector_dispatch_100)?(. - _ebase_address):__vector_offset_default
 *(.vector_100)
                0x9d000210                . = ALIGN (0x4)
                0x00000210                __vector_offset_101 = DEFINED (__vector_dispatch_101)?(. - _ebase_address):__vector_offset_default
 *(.vector_101)
                0x9d000210                . = ALIGN (0x4)
                0x00000210                __vector_offset_102 = DEFINED (__vector_dispatch_102)?(. - _ebase_address):__vector_offset_default
 *(.vector_102)
                0x9d000210                . = ALIGN (0x4)
                0x00000210                __vector_offset_103 = DEFINED (__vector_dispatch_103)?(. - _ebase_address):__vector_offset_default
 *(.vector_103)
                0x9d000210                . = ALIGN (0x4)
                0x00000210                __vector_offset_104 = DEFINED (__vector_dispatch_104)?(. - _ebase_address):__vector_offset_default
 *(.vector_104)
                0x9d000210                . = ALIGN (0x4)
                0x00000210                __vector_offset_105 = DEFINED (__vector_dispatch_105)?(. - _ebase_address):__vector_offset_default
 *(.vector_105)
                0x9d000210                . = ALIGN (0x4)
                0x00000210                __vector_offset_106 = DEFINED (__vector_dispatch_106)?(. - _ebase_address):__vector_offset_default
 *(.vector_106)
                0x9d000210                . = ALIGN (0x4)
                0x00000210                __vector_offset_107 = DEFINED (__vector_dispatch_107)?(. - _ebase_address):__vector_offset_default
 *(.vector_107)
                0x9d000210                . = ALIGN (0x4)
                0x00000210                __vector_offset_108 = DEFINED (__vector_dispatch_108)?(. - _ebase_address):__vector_offset_default
 *(.vector_108)
                0x9d000210                . = ALIGN (0x4)
                0x00000210                __vector_offset_109 = DEFINED (__vector_dispatch_109)?(. - _ebase_address):__vector_offset_default
 *(.vector_109)
                0x9d000210                . = ALIGN (0x4)
                0x00000210                __vector_offset_110 = DEFINED (__vector_dispatch_110)?(. - _ebase_address):__vector_offset_default
 *(.vector_110)
                0x9d000210                . = ALIGN (0x4)
                0x00000210                __vector_offset_111 = DEFINED (__vector_dispatch_111)?(. - _ebase_address):__vector_offset_default
 *(.vector_111)
                0x9d000210                . = ALIGN (0x4)
                0x00000210                __vector_offset_112 = DEFINED (__vector_dispatch_112)?(. - _ebase_address):__vector_offset_default
 *(.vector_112)
                0x9d000210                . = ALIGN (0x4)
                0x00000210                __vector_offset_113 = DEFINED (__vector_dispatch_113)?(. - _ebase_address):__vector_offset_default
 *(.vector_113)
                0x9d000210                . = ALIGN (0x4)
                0x00000210                __vector_offset_114 = DEFINED (__vector_dispatch_114)?(. - _ebase_address):__vector_offset_default
 *(.vector_114)
                0x9d000210                . = ALIGN (0x4)
                0x00000210                __vector_offset_115 = DEFINED (__vector_dispatch_115)?(. - _ebase_address):__vector_offset_default
 *(.vector_115)
                0x9d000210                . = ALIGN (0x4)
                0x00000210                __vector_offset_116 = DEFINED (__vector_dispatch_116)?(. - _ebase_address):__vector_offset_default
 *(.vector_116)
                0x9d000210                . = ALIGN (0x4)
                0x00000210                __vector_offset_117 = DEFINED (__vector_dispatch_117)?(. - _ebase_address):__vector_offset_default
 *(.vector_117)
                0x9d000210                . = ALIGN (0x4)
                0x00000210                __vector_offset_118 = DEFINED (__vector_dispatch_118)?(. - _ebase_address):__vector_offset_default
 *(.vector_118)
                0x9d000210                . = ALIGN (0x4)
                0x00000210                __vector_offset_119 = DEFINED (__vector_dispatch_119)?(. - _ebase_address):__vector_offset_default
 *(.vector_119)
                0x9d000210                . = ALIGN (0x4)
                0x00000210                __vector_offset_120 = DEFINED (__vector_dispatch_120)?(. - _ebase_address):__vector_offset_default
 *(.vector_120)
                0x9d000210                . = ALIGN (0x4)
                0x00000210                __vector_offset_121 = DEFINED (__vector_dispatch_121)?(. - _ebase_address):__vector_offset_default
 *(.vector_121)
                0x9d000210                . = ALIGN (0x4)
                0x00000210                __vector_offset_122 = DEFINED (__vector_dispatch_122)?(. - _ebase_address):__vector_offset_default
 *(.vector_122)
                0x9d000210                . = ALIGN (0x4)
                0x00000210                __vector_offset_123 = DEFINED (__vector_dispatch_123)?(. - _ebase_address):__vector_offset_default
 *(.vector_123)
                0x9d000210                . = ALIGN (0x4)
                0x00000210                __vector_offset_124 = DEFINED (__vector_dispatch_124)?(. - _ebase_address):__vector_offset_default
 *(.vector_124)
                0x9d000210                . = ALIGN (0x4)
                0x00000210                __vector_offset_125 = DEFINED (__vector_dispatch_125)?(. - _ebase_address):__vector_offset_default
 *(.vector_125)
                0x9d000210                . = ALIGN (0x4)
                0x00000210                __vector_offset_126 = DEFINED (__vector_dispatch_126)?(. - _ebase_address):__vector_offset_default
 *(.vector_126)
                0x9d000210                . = ALIGN (0x4)
                0x00000210                __vector_offset_127 = DEFINED (__vector_dispatch_127)?(. - _ebase_address):__vector_offset_default
 *(.vector_127)
                0x9d000210                . = ALIGN (0x4)
                0x00000210                __vector_offset_128 = DEFINED (__vector_dispatch_128)?(. - _ebase_address):__vector_offset_default
 *(.vector_128)
                0x9d000210                . = ALIGN (0x4)
                0x00000210                __vector_offset_129 = DEFINED (__vector_dispatch_129)?(. - _ebase_address):__vector_offset_default
 *(.vector_129)
                0x9d000210                . = ALIGN (0x4)
                0x00000210                __vector_offset_130 = DEFINED (__vector_dispatch_130)?(. - _ebase_address):__vector_offset_default
 *(.vector_130)
                0x9d000210                . = ALIGN (0x4)
                0x00000210                __vector_offset_131 = DEFINED (__vector_dispatch_131)?(. - _ebase_address):__vector_offset_default
 *(.vector_131)
                0x9d000210                . = ALIGN (0x4)
                0x00000210                __vector_offset_132 = DEFINED (__vector_dispatch_132)?(. - _ebase_address):__vector_offset_default
 *(.vector_132)
                0x9d000210                . = ALIGN (0x4)
                0x00000210                __vector_offset_133 = DEFINED (__vector_dispatch_133)?(. - _ebase_address):__vector_offset_default
 *(.vector_133)
                0x9d000210                . = ALIGN (0x4)
                0x00000210                __vector_offset_134 = DEFINED (__vector_dispatch_134)?(. - _ebase_address):__vector_offset_default
 *(.vector_134)
                0x9d000210                . = ALIGN (0x4)
                0x00000210                __vector_offset_135 = DEFINED (__vector_dispatch_135)?(. - _ebase_address):__vector_offset_default
 *(.vector_135)
                0x9d000210                . = ALIGN (0x4)
                0x00000210                __vector_offset_136 = DEFINED (__vector_dispatch_136)?(. - _ebase_address):__vector_offset_default
 *(.vector_136)
                0x9d000210                . = ALIGN (0x4)
                0x00000210                __vector_offset_137 = DEFINED (__vector_dispatch_137)?(. - _ebase_address):__vector_offset_default
 *(.vector_137)
                0x9d000210                . = ALIGN (0x4)
                0x00000210                __vector_offset_138 = DEFINED (__vector_dispatch_138)?(. - _ebase_address):__vector_offset_default
 *(.vector_138)
                0x9d000210                . = ALIGN (0x4)
                0x00000210                __vector_offset_139 = DEFINED (__vector_dispatch_139)?(. - _ebase_address):__vector_offset_default
 *(.vector_139)
                0x9d000210                . = ALIGN (0x4)
                0x00000210                __vector_offset_140 = DEFINED (__vector_dispatch_140)?(. - _ebase_address):__vector_offset_default
 *(.vector_140)
                0x9d000210                . = ALIGN (0x4)
                0x00000210                __vector_offset_141 = DEFINED (__vector_dispatch_141)?(. - _ebase_address):__vector_offset_default
 *(.vector_141)
                0x9d000210                . = ALIGN (0x4)
                0x00000210                __vector_offset_142 = DEFINED (__vector_dispatch_142)?(. - _ebase_address):__vector_offset_default
 *(.vector_142)
                0x9d000210                . = ALIGN (0x4)
                0x00000210                __vector_offset_143 = DEFINED (__vector_dispatch_143)?(. - _ebase_address):__vector_offset_default
 *(.vector_143)
                0x9d000210                . = ALIGN (0x4)
                0x00000210                __vector_offset_144 = DEFINED (__vector_dispatch_144)?(. - _ebase_address):__vector_offset_default
 *(.vector_144)
                0x9d000210                . = ALIGN (0x4)
                0x00000210                __vector_offset_145 = DEFINED (__vector_dispatch_145)?(. - _ebase_address):__vector_offset_default
 *(.vector_145)
                0x9d000210                . = ALIGN (0x4)
                0x00000210                __vector_offset_146 = DEFINED (__vector_dispatch_146)?(. - _ebase_address):__vector_offset_default
 *(.vector_146)
                0x9d000210                . = ALIGN (0x4)
                0x00000210                __vector_offset_147 = DEFINED (__vector_dispatch_147)?(. - _ebase_address):__vector_offset_default
 *(.vector_147)
                0x9d000210                . = ALIGN (0x4)
                0x00000210                __vector_offset_148 = DEFINED (__vector_dispatch_148)?(. - _ebase_address):__vector_offset_default
 *(.vector_148)
                0x9d000210                . = ALIGN (0x4)
                0x00000210                __vector_offset_149 = DEFINED (__vector_dispatch_149)?(. - _ebase_address):__vector_offset_default
 *(.vector_149)
                0x9d000210                . = ALIGN (0x4)
                0x00000210                __vector_offset_150 = DEFINED (__vector_dispatch_150)?(. - _ebase_address):__vector_offset_default
 *(.vector_150)
                0x9d000210                . = ALIGN (0x4)
                0x00000210                __vector_offset_151 = DEFINED (__vector_dispatch_151)?(. - _ebase_address):__vector_offset_default
 *(.vector_151)
                0x9d000210                . = ALIGN (0x4)
                0x00000210                __vector_offset_152 = DEFINED (__vector_dispatch_152)?(. - _ebase_address):__vector_offset_default
 *(.vector_152)
                0x9d000210                . = ALIGN (0x4)
                0x00000210                __vector_offset_153 = DEFINED (__vector_dispatch_153)?(. - _ebase_address):__vector_offset_default
 *(.vector_153)
                0x9d000210                . = ALIGN (0x4)
                0x00000210                __vector_offset_154 = DEFINED (__vector_dispatch_154)?(. - _ebase_address):__vector_offset_default
 *(.vector_154)
                0x9d000210                . = ALIGN (0x4)
                0x00000210                __vector_offset_155 = DEFINED (__vector_dispatch_155)?(. - _ebase_address):__vector_offset_default
 *(.vector_155)
                0x9d000210                . = ALIGN (0x4)
                0x00000210                __vector_offset_156 = DEFINED (__vector_dispatch_156)?(. - _ebase_address):__vector_offset_default
 *(.vector_156)
                0x9d000210                . = ALIGN (0x4)
                0x00000210                __vector_offset_157 = DEFINED (__vector_dispatch_157)?(. - _ebase_address):__vector_offset_default
 *(.vector_157)
                0x9d000210                . = ALIGN (0x4)
                0x00000210                __vector_offset_158 = DEFINED (__vector_dispatch_158)?(. - _ebase_address):__vector_offset_default
 *(.vector_158)
                0x9d000210                . = ALIGN (0x4)
                0x00000210                __vector_offset_159 = DEFINED (__vector_dispatch_159)?(. - _ebase_address):__vector_offset_default
 *(.vector_159)
                0x9d000210                . = ALIGN (0x4)
                0x00000210                __vector_offset_160 = DEFINED (__vector_dispatch_160)?(. - _ebase_address):__vector_offset_default
 *(.vector_160)
                0x9d000210                . = ALIGN (0x4)
                0x00000210                __vector_offset_161 = DEFINED (__vector_dispatch_161)?(. - _ebase_address):__vector_offset_default
 *(.vector_161)
                0x9d000210                . = ALIGN (0x4)
                0x00000210                __vector_offset_162 = DEFINED (__vector_dispatch_162)?(. - _ebase_address):__vector_offset_default
 *(.vector_162)
                0x9d000210                . = ALIGN (0x4)
                0x00000210                __vector_offset_163 = DEFINED (__vector_dispatch_163)?(. - _ebase_address):__vector_offset_default
 *(.vector_163)
                0x9d000210                . = ALIGN (0x4)
                0x00000210                __vector_offset_164 = DEFINED (__vector_dispatch_164)?(. - _ebase_address):__vector_offset_default
 *(.vector_164)
                0x9d000210                . = ALIGN (0x4)
                0x00000210                __vector_offset_165 = DEFINED (__vector_dispatch_165)?(. - _ebase_address):__vector_offset_default
 *(.vector_165)
                0x9d000210                . = ALIGN (0x4)
                0x00000210                __vector_offset_166 = DEFINED (__vector_dispatch_166)?(. - _ebase_address):__vector_offset_default
 *(.vector_166)
                0x9d000210                . = ALIGN (0x4)
                0x00000210                __vector_offset_167 = DEFINED (__vector_dispatch_167)?(. - _ebase_address):__vector_offset_default
 *(.vector_167)
                0x9d000210                . = ALIGN (0x4)
                0x00000210                __vector_offset_168 = DEFINED (__vector_dispatch_168)?(. - _ebase_address):__vector_offset_default
 *(.vector_168)
                0x9d000210                . = ALIGN (0x4)
                0x00000210                __vector_offset_169 = DEFINED (__vector_dispatch_169)?(. - _ebase_address):__vector_offset_default
 *(.vector_169)
                0x9d000210                . = ALIGN (0x4)
                0x00000210                __vector_offset_170 = DEFINED (__vector_dispatch_170)?(. - _ebase_address):__vector_offset_default
 *(.vector_170)
                0x9d000210                . = ALIGN (0x4)
                0x00000210                __vector_offset_171 = DEFINED (__vector_dispatch_171)?(. - _ebase_address):__vector_offset_default
 *(.vector_171)
                0x9d000210                . = ALIGN (0x4)
                0x00000210                __vector_offset_172 = DEFINED (__vector_dispatch_172)?(. - _ebase_address):__vector_offset_default
 *(.vector_172)
                0x9d000210                . = ALIGN (0x4)
                0x00000210                __vector_offset_173 = DEFINED (__vector_dispatch_173)?(. - _ebase_address):__vector_offset_default
 *(.vector_173)
                0x9d000210                . = ALIGN (0x4)
                0x00000210                __vector_offset_174 = DEFINED (__vector_dispatch_174)?(. - _ebase_address):__vector_offset_default
 *(.vector_174)
                0x9d000210                . = ALIGN (0x4)
                0x00000210                __vector_offset_175 = DEFINED (__vector_dispatch_175)?(. - _ebase_address):__vector_offset_default
 *(.vector_175)
                0x9d000210                . = ALIGN (0x4)
                0x00000210                __vector_offset_176 = DEFINED (__vector_dispatch_176)?(. - _ebase_address):__vector_offset_default
 *(.vector_176)
                0x9d000210                . = ALIGN (0x4)
                0x00000210                __vector_offset_177 = DEFINED (__vector_dispatch_177)?(. - _ebase_address):__vector_offset_default
 *(.vector_177)
                0x9d000210                . = ALIGN (0x4)
                0x00000210                __vector_offset_178 = DEFINED (__vector_dispatch_178)?(. - _ebase_address):__vector_offset_default
 *(.vector_178)
                0x9d000210                . = ALIGN (0x4)
                0x00000210                __vector_offset_179 = DEFINED (__vector_dispatch_179)?(. - _ebase_address):__vector_offset_default
 *(.vector_179)
                0x9d000210                . = ALIGN (0x4)
                0x00000210                __vector_offset_180 = DEFINED (__vector_dispatch_180)?(. - _ebase_address):__vector_offset_default
 *(.vector_180)
                0x9d000210                . = ALIGN (0x4)
                0x00000210                __vector_offset_181 = DEFINED (__vector_dispatch_181)?(. - _ebase_address):__vector_offset_default
 *(.vector_181)
                0x9d000210                . = ALIGN (0x4)
                0x00000210                __vector_offset_182 = DEFINED (__vector_dispatch_182)?(. - _ebase_address):__vector_offset_default
 *(.vector_182)
                0x9d000210                . = ALIGN (0x4)
                0x00000210                __vector_offset_183 = DEFINED (__vector_dispatch_183)?(. - _ebase_address):__vector_offset_default
 *(.vector_183)
                0x9d000210                . = ALIGN (0x4)
                0x00000210                __vector_offset_184 = DEFINED (__vector_dispatch_184)?(. - _ebase_address):__vector_offset_default
 *(.vector_184)
                0x9d000210                . = ALIGN (0x4)
                0x00000210                __vector_offset_185 = DEFINED (__vector_dispatch_185)?(. - _ebase_address):__vector_offset_default
 *(.vector_185)
                0x9d000210                . = ALIGN (0x4)
                0x00000210                __vector_offset_186 = DEFINED (__vector_dispatch_186)?(. - _ebase_address):__vector_offset_default
 *(.vector_186)
                0x9d000210                . = ALIGN (0x4)
                0x00000210                __vector_offset_187 = DEFINED (__vector_dispatch_187)?(. - _ebase_address):__vector_offset_default
 *(.vector_187)
                0x9d000210                . = ALIGN (0x4)
                0x00000210                __vector_offset_188 = DEFINED (__vector_dispatch_188)?(. - _ebase_address):__vector_offset_default
 *(.vector_188)
                0x9d000210                . = ALIGN (0x4)
                0x00000210                __vector_offset_189 = DEFINED (__vector_dispatch_189)?(. - _ebase_address):__vector_offset_default
 *(.vector_189)
                0x9d000210                . = ALIGN (0x4)
                0x00000210                __vector_offset_190 = DEFINED (__vector_dispatch_190)?(. - _ebase_address):__vector_offset_default
 *(.vector_190)
                0x9d000210                . = ALIGN (0x4)
                0x00000210                __vector_offset_191 = DEFINED (__vector_dispatch_191)?(. - _ebase_address):__vector_offset_default
 *(.vector_191)
                0x9d000210                . = ALIGN (0x4)
                0x00000210                __vector_offset_192 = DEFINED (__vector_dispatch_192)?(. - _ebase_address):__vector_offset_default
 *(.vector_192)
                0x9d000210                . = ALIGN (0x4)
                0x00000210                __vector_offset_193 = DEFINED (__vector_dispatch_193)?(. - _ebase_address):__vector_offset_default
 *(.vector_193)
                0x9d000210                . = ALIGN (0x4)
                0x00000210                __vector_offset_194 = DEFINED (__vector_dispatch_194)?(. - _ebase_address):__vector_offset_default
 *(.vector_194)
                0x9d000210                . = ALIGN (0x4)
                0x00000210                __vector_offset_195 = DEFINED (__vector_dispatch_195)?(. - _ebase_address):__vector_offset_default
 *(.vector_195)
                0x9d000210                . = ALIGN (0x4)
                0x00000210                __vector_offset_196 = DEFINED (__vector_dispatch_196)?(. - _ebase_address):__vector_offset_default
 *(.vector_196)
                0x9d000210                . = ALIGN (0x4)
                0x00000210                __vector_offset_197 = DEFINED (__vector_dispatch_197)?(. - _ebase_address):__vector_offset_default
 *(.vector_197)
                0x9d000210                . = ALIGN (0x4)
                0x00000210                __vector_offset_198 = DEFINED (__vector_dispatch_198)?(. - _ebase_address):__vector_offset_default
 *(.vector_198)
                0x9d000210                . = ALIGN (0x4)
                0x00000210                __vector_offset_199 = DEFINED (__vector_dispatch_199)?(. - _ebase_address):__vector_offset_default
 *(.vector_199)
                0x9d000210                . = ALIGN (0x4)
                0x00000210                __vector_offset_200 = DEFINED (__vector_dispatch_200)?(. - _ebase_address):__vector_offset_default
 *(.vector_200)
                0x9d000210                . = ALIGN (0x4)
                0x00000210                __vector_offset_201 = DEFINED (__vector_dispatch_201)?(. - _ebase_address):__vector_offset_default
 *(.vector_201)
                0x9d000210                . = ALIGN (0x4)
                0x00000210                __vector_offset_202 = DEFINED (__vector_dispatch_202)?(. - _ebase_address):__vector_offset_default
 *(.vector_202)
                0x9d000210                . = ALIGN (0x4)
                0x00000210                __vector_offset_203 = DEFINED (__vector_dispatch_203)?(. - _ebase_address):__vector_offset_default
 *(.vector_203)
                0x9d000210                . = ALIGN (0x4)
                0x00000210                __vector_offset_204 = DEFINED (__vector_dispatch_204)?(. - _ebase_address):__vector_offset_default
 *(.vector_204)
                0x9d000210                . = ALIGN (0x4)
                0x00000210                __vector_offset_205 = DEFINED (__vector_dispatch_205)?(. - _ebase_address):__vector_offset_default
 *(.vector_205)
                0x9d000210                . = ALIGN (0x4)
                0x00000210                __vector_offset_206 = DEFINED (__vector_dispatch_206)?(. - _ebase_address):__vector_offset_default
 *(.vector_206)
                0x9d000210                . = ALIGN (0x4)
                0x00000210                __vector_offset_207 = DEFINED (__vector_dispatch_207)?(. - _ebase_address):__vector_offset_default
 *(.vector_207)
                0x9d000210                . = ALIGN (0x4)
                0x00000210                __vector_offset_208 = DEFINED (__vector_dispatch_208)?(. - _ebase_address):__vector_offset_default
 *(.vector_208)
                0x9d000210                . = ALIGN (0x4)
                0x00000210                __vector_offset_209 = DEFINED (__vector_dispatch_209)?(. - _ebase_address):__vector_offset_default
 *(.vector_209)
                0x9d000210                . = ALIGN (0x4)
                0x00000210                __vector_offset_210 = DEFINED (__vector_dispatch_210)?(. - _ebase_address):__vector_offset_default
 *(.vector_210)
                0x9d000210                . = ALIGN (0x4)
                0x00000210                __vector_offset_211 = DEFINED (__vector_dispatch_211)?(. - _ebase_address):__vector_offset_default
 *(.vector_211)
                0x9d000210                . = ALIGN (0x4)
                0x00000210                __vector_offset_212 = DEFINED (__vector_dispatch_212)?(. - _ebase_address):__vector_offset_default
 *(.vector_212)
                0x9d000210                . = ALIGN (0x4)
                0x00000210                __vector_offset_213 = DEFINED (__vector_dispatch_213)?(. - _ebase_address):__vector_offset_default
 *(.vector_213)
                0x9d000210                . = ALIGN (0x4)
                0x00000210                __vector_offset_214 = DEFINED (__vector_dispatch_214)?(. - _ebase_address):__vector_offset_default
 *(.vector_214)
                0x9d000210                . = ALIGN (0x4)
                0x00000210                __vector_offset_215 = DEFINED (__vector_dispatch_215)?(. - _ebase_address):__vector_offset_default
 *(.vector_215)
                0x9d000210                . = ALIGN (0x4)
                0x00000210                __vector_offset_216 = DEFINED (__vector_dispatch_216)?(. - _ebase_address):__vector_offset_default
 *(.vector_216)
                0x9d000210                . = ALIGN (0x4)
                0x00000210                __vector_offset_217 = DEFINED (__vector_dispatch_217)?(. - _ebase_address):__vector_offset_default
 *(.vector_217)
                0x9d000210                . = ALIGN (0x4)
                0x00000210                __vector_offset_218 = DEFINED (__vector_dispatch_218)?(. - _ebase_address):__vector_offset_default
 *(.vector_218)
                0x9d000210                . = ALIGN (0x4)
                0x00000210                __vector_offset_219 = DEFINED (__vector_dispatch_219)?(. - _ebase_address):__vector_offset_default
 *(.vector_219)
                0x9d000210                . = ALIGN (0x4)
                0x00000210                __vector_offset_220 = DEFINED (__vector_dispatch_220)?(. - _ebase_address):__vector_offset_default
 *(.vector_220)
                0x9d000210                . = ALIGN (0x4)
                0x00000210                __vector_offset_221 = DEFINED (__vector_dispatch_221)?(. - _ebase_address):__vector_offset_default
 *(.vector_221)
                0x9d000210                . = ALIGN (0x4)
                0x00000210                __vector_offset_222 = DEFINED (__vector_dispatch_222)?(. - _ebase_address):__vector_offset_default
 *(.vector_222)
                0x9d000210                . = ALIGN (0x4)
                0x00000210                __vector_offset_223 = DEFINED (__vector_dispatch_223)?(. - _ebase_address):__vector_offset_default
 *(.vector_223)
                0x9d000210                . = ALIGN (0x4)
                0x00000210                __vector_offset_224 = DEFINED (__vector_dispatch_224)?(. - _ebase_address):__vector_offset_default
 *(.vector_224)
                0x9d000210                . = ALIGN (0x4)
                0x00000210                __vector_offset_225 = DEFINED (__vector_dispatch_225)?(. - _ebase_address):__vector_offset_default
 *(.vector_225)
                0x9d000210                . = ALIGN (0x4)
                0x00000210                __vector_offset_226 = DEFINED (__vector_dispatch_226)?(. - _ebase_address):__vector_offset_default
 *(.vector_226)
                0x9d000210                . = ALIGN (0x4)
                0x00000210                __vector_offset_227 = DEFINED (__vector_dispatch_227)?(. - _ebase_address):__vector_offset_default
 *(.vector_227)
                0x9d000210                . = ALIGN (0x4)
                0x00000210                __vector_offset_228 = DEFINED (__vector_dispatch_228)?(. - _ebase_address):__vector_offset_default
 *(.vector_228)
                0x9d000210                . = ALIGN (0x4)
                0x00000210                __vector_offset_229 = DEFINED (__vector_dispatch_229)?(. - _ebase_address):__vector_offset_default
 *(.vector_229)
                0x9d000210                . = ALIGN (0x4)
                0x00000210                __vector_offset_230 = DEFINED (__vector_dispatch_230)?(. - _ebase_address):__vector_offset_default
 *(.vector_230)
                0x9d000210                . = ALIGN (0x4)
                0x00000210                __vector_offset_231 = DEFINED (__vector_dispatch_231)?(. - _ebase_address):__vector_offset_default
 *(.vector_231)
                0x9d000210                . = ALIGN (0x4)
                0x00000210                __vector_offset_232 = DEFINED (__vector_dispatch_232)?(. - _ebase_address):__vector_offset_default
 *(.vector_232)
                0x9d000210                . = ALIGN (0x4)
                0x00000210                __vector_offset_233 = DEFINED (__vector_dispatch_233)?(. - _ebase_address):__vector_offset_default
 *(.vector_233)
                0x9d000210                . = ALIGN (0x4)
                0x00000210                __vector_offset_234 = DEFINED (__vector_dispatch_234)?(. - _ebase_address):__vector_offset_default
 *(.vector_234)
                0x9d000210                . = ALIGN (0x4)
                0x00000210                __vector_offset_235 = DEFINED (__vector_dispatch_235)?(. - _ebase_address):__vector_offset_default
 *(.vector_235)
                0x9d000210                . = ALIGN (0x4)
                0x00000210                __vector_offset_236 = DEFINED (__vector_dispatch_236)?(. - _ebase_address):__vector_offset_default
 *(.vector_236)
                0x9d000210                . = ALIGN (0x4)
                0x00000210                __vector_offset_237 = DEFINED (__vector_dispatch_237)?(. - _ebase_address):__vector_offset_default
 *(.vector_237)
                0x9d000210                . = ALIGN (0x4)
                0x00000210                __vector_offset_238 = DEFINED (__vector_dispatch_238)?(. - _ebase_address):__vector_offset_default
 *(.vector_238)
                0x9d000210                . = ALIGN (0x4)
                0x00000210                __vector_offset_239 = DEFINED (__vector_dispatch_239)?(. - _ebase_address):__vector_offset_default
 *(.vector_239)
                0x9d000210                . = ALIGN (0x4)
                0x00000210                __vector_offset_240 = DEFINED (__vector_dispatch_240)?(. - _ebase_address):__vector_offset_default
 *(.vector_240)
                0x9d000210                . = ALIGN (0x4)
                0x00000210                __vector_offset_241 = DEFINED (__vector_dispatch_241)?(. - _ebase_address):__vector_offset_default
 *(.vector_241)
                0x9d000210                . = ALIGN (0x4)
                0x00000210                __vector_offset_242 = DEFINED (__vector_dispatch_242)?(. - _ebase_address):__vector_offset_default
 *(.vector_242)
                0x9d000210                . = ALIGN (0x4)
                0x00000210                __vector_offset_243 = DEFINED (__vector_dispatch_243)?(. - _ebase_address):__vector_offset_default
 *(.vector_243)
                0x9d000210                . = ALIGN (0x4)
                0x00000210                __vector_offset_244 = DEFINED (__vector_dispatch_244)?(. - _ebase_address):__vector_offset_default
 *(.vector_244)
                0x9d000210                . = ALIGN (0x4)
                0x00000210                __vector_offset_245 = DEFINED (__vector_dispatch_245)?(. - _ebase_address):__vector_offset_default
 *(.vector_245)
                0x9d000210                . = ALIGN (0x4)
                0x00000210                __vector_offset_246 = DEFINED (__vector_dispatch_246)?(. - _ebase_address):__vector_offset_default
 *(.vector_246)
                0x9d000210                . = ALIGN (0x4)
                0x00000210                __vector_offset_247 = DEFINED (__vector_dispatch_247)?(. - _ebase_address):__vector_offset_default
 *(.vector_247)
                0x9d000210                . = ALIGN (0x4)
                0x00000210                __vector_offset_248 = DEFINED (__vector_dispatch_248)?(. - _ebase_address):__vector_offset_default
 *(.vector_248)
                0x9d000210                . = ALIGN (0x4)
                0x00000210                __vector_offset_249 = DEFINED (__vector_dispatch_249)?(. - _ebase_address):__vector_offset_default
 *(.vector_249)
                0x9d000210                . = ALIGN (0x4)
                0x00000210                __vector_offset_250 = DEFINED (__vector_dispatch_250)?(. - _ebase_address):__vector_offset_default
 *(.vector_250)
                0x9d000210                . = ALIGN (0x4)
                0x00000210                __vector_offset_251 = DEFINED (__vector_dispatch_251)?(. - _ebase_address):__vector_offset_default
 *(.vector_251)
                0x9d000210                . = ALIGN (0x4)
                0x00000210                __vector_offset_252 = DEFINED (__vector_dispatch_252)?(. - _ebase_address):__vector_offset_default
 *(.vector_252)
                0x9d000210                . = ALIGN (0x4)
                0x00000210                __vector_offset_253 = DEFINED (__vector_dispatch_253)?(. - _ebase_address):__vector_offset_default
 *(.vector_253)
                0x9d000210                . = ALIGN (0x4)
                0x00000210                __vector_offset_254 = DEFINED (__vector_dispatch_254)?(. - _ebase_address):__vector_offset_default
 *(.vector_254)
                0x9d000210                . = ALIGN (0x4)
                0x00000210                __vector_offset_255 = DEFINED (__vector_dispatch_255)?(. - _ebase_address):__vector_offset_default
 *(.vector_255)
                0x9d000210                . = ALIGN (0x4)
                0x00000210                __vector_offset_default = (. - _ebase_address)
 *(.vector_default)
 .vector_default
                0x9d000210       0x48 c:/program files/microchip/xc32/v2.50/bin/bin/../../lib/gcc/pic32mx/4.8.3/../../../../pic32mx/lib/fpu64\libpic32.a(defaultinterrupt.o)
                0x9d000210                _DefaultInterrupt

.startup
 *(.startup)

.text           0x9d000258        0x0
 *(.stub .gnu.linkonce.t.*)
 *(.text.*personality*)
 *(.mips16.fn.*)
 *(.mips16.call.*)
 *(.gnu.warning)
                0x9d000258                . = ALIGN (0x4)

.init           0x9d000258        0x0
 *crti.o(.init)
 *crtbegin.o(.init)
 *(EXCLUDE_FILE(*crtn.o *crtend?.o *crtend.o) .init)
 *crtend.o(.init)
 *crtn.o(.init)
                0x9d000258                . = ALIGN (0x4)

.fini           0x9d000258        0x0
 *(.fini)
                0x9d000258                . = ALIGN (0x4)

.preinit_array  0x9d000258        0x0
                0x9d000258                PROVIDE (__preinit_array_start, .)
 *(.preinit_array)
                0x9d000258                PROVIDE (__preinit_array_end, .)
                0x9d000258                . = ALIGN (0x4)

.init_array     0x9d000258        0x0
                0x9d000258                PROVIDE (__init_array_start, .)
 *(SORT(.init_array.*))
 *(.init_array)
                0x9d000258                PROVIDE (__init_array_end, .)
                0x9d000258                . = ALIGN (0x4)

.fini_array     0x9d000258        0x0
                0x9d000258                PROVIDE (__fini_array_start, .)
 *(SORT(.fini_array.*))
 *(.fini_array)
                0x9d000258                PROVIDE (__fini_array_end, .)
                0x9d000258                . = ALIGN (0x4)

.ctors          0x9d000258        0x0
 *crtbegin.o(.ctors)
 *crtbegin?.o(.ctors)
 *(EXCLUDE_FILE(*crtend?.o *crtend.o) .ctors)
 *(SORT(.ctors.*))
 *(.ctors)
                0x9d000258                . = ALIGN (0x4)

.dtors          0x9d000258        0x0
 *crtbegin.o(.dtors)
 *crtbegin?.o(.dtors)
 *(EXCLUDE_FILE(*crtend?.o *crtend.o) .dtors)
 *(SORT(.dtors.*))
 *(.dtors)
                0x9d000258                . = ALIGN (0x4)

.rodata         0x9d000258        0x0
 *(.gnu.linkonce.r.*)
 *(.rodata1)
                0x9d000258                . = ALIGN (0x4)

.sdata2         0x9fc004b0        0x0
 *(.sdata2 .sdata2.* .gnu.linkonce.s2.*)
                0x9fc004b0                . = ALIGN (0x4)

.sbss2          0x9fc004b0        0x0
 *(.sbss2 .sbss2.* .gnu.linkonce.sb2.*)
                0x9fc004b0                . = ALIGN (0x4)

.eh_frame_hdr
 *(.eh_frame_hdr)
                0x9fc004b0                . = ALIGN (0x4)

.eh_frame
 *(.eh_frame)
                0x9fc004b0                . = ALIGN (0x4)

.gcc_except_table
 *(.gcc_except_table .gcc_except_table.*)
                0x9fc004b0                . = ALIGN (0x4)

.dbg_data       0x80000000        0x0
                0x80000000                . = (. + DEFINED (_DEBUGGER)?0x200:0x0)
                0x80000000                . = (. + DEFINED (_DEBUGGER)?0x80:0x0)
                0x80000000                . = (. + DEFINED (_DEBUGGER)?0x100:0x0)

.jcr            0x80000000        0x0
 *(.jcr)
                0x80000000                . = ALIGN (0x4)

.eh_frame
 *(.eh_frame)
                0x80000000                . = ALIGN (0x4)

.gcc_except_table
 *(.gcc_except_table .gcc_except_table.*)
                0x80000000                . = ALIGN (0x4)

.persist        0x80000000        0x0
                0x80000000                _persist_begin = .
 *(.persist .persist.*)
                0x80000000                . = ALIGN (0x4)
                0x80000000                _persist_end = .

.data           0x80000000        0x0
 *(.gnu.linkonce.d.*)
 *(.data1)
                0x80000000                . = ALIGN (0x4)
                0x80000000                . = .
                0x80007ff0                _gp = (ALIGN (0x10) + 0x7ff0)

.got            0x80000000        0x0
 *(.got.plt)
 *(.got)
                0x80000000                . = ALIGN (0x4)

.sdata          0x80000000       0x6c
                0x80000000                _sdata_begin = .
 *(.sdata .sdata.* .gnu.linkonce.s.*)
 .sdata         0x80000000        0x4 build/default/production/_ext/1249264884/plib_coretimer.o
 .sdata         0x80000004        0x1 build/default/production/_ext/1592496102/sdmm.o
 *fill*         0x80000005        0x3 
 .sdata         0x80000008       0x10 build/default/production/_ext/481733874/dialog_colour_chooser.o
 .sdata         0x80000018        0x6 build/default/production/_ext/776318040/hal_lcd.o
 *fill*         0x8000001e        0x2 
 .sdata         0x80000020        0x8 build/default/production/_ext/1494913683/ui_tabs.o
 .sdata         0x80000028        0x8 build/default/production/_ext/59636182/miniwin.o
 .sdata         0x80000030       0x14 build/default/production/_ext/165771656/window_file.o
 .sdata         0x80000044        0x4 build/default/production/_ext/1445274692/app.o
 .sdata         0x80000048       0x24 c:/program files/microchip/xc32/v2.50/bin/bin/../../lib/gcc/pic32mx/4.8.3/../../../../pic32mx/lib/fpu64\libpic32.a(pic32_init_cache.o)
                0x80000048                __pic32_icache_size
                0x8000004c                __pic32_icache_linesize
                0x80000050                __pic32_icache_ways
                0x80000054                __pic32_dcache_size
                0x80000058                __pic32_dcache_linesize
                0x8000005c                __pic32_dcache_ways
                0x80000060                __pic32_scache_size
                0x80000064                __pic32_scache_linesize
                0x80000068                __pic32_scache_ways
                0x8000006c                . = ALIGN (0x4)
                0x8000006c                _sdata_end = .

.lit8
 *(.lit8)

.lit4
 *(.lit4)
                0x8000006c                . = ALIGN (0x4)
                0x8000006c                _data_end = .
                0x8000006c                _bss_begin = .

.sbss           0x8000006c       0xc0
                0x8000006c                _sbss_begin = .
 *(.dynsbss)
 *(.sbss .sbss.* .gnu.linkonce.sb.*)
 .sbss          0x8000006c        0x8 build/default/production/_ext/60181895/plib_tmr2.o
 .sbss          0x80000074        0x8 build/default/production/_ext/60181895/plib_tmr3.o
 .sbss          0x8000007c        0x8 build/default/production/_ext/1171490990/exceptions.o
 .sbss          0x80000084        0x8 build/default/production/_ext/1592496102/ff.o
 .sbss          0x8000008c        0x1 build/default/production/_ext/1592496102/sdmm.o
 *fill*         0x8000008d        0x3 
 .sbss          0x80000090        0x8 build/default/production/_ext/776318040/hal_lcd.o
 .sbss          0x80000098       0x10 build/default/production/_ext/1494913683/ui_arrow.o
 .sbss          0x800000a8       0x20 build/default/production/_ext/59636182/miniwin.o
 .sbss          0x800000c8        0x4 build/default/production/_ext/59636182/miniwin_message_queue.o
 .sbss          0x800000cc        0x8 build/default/production/_ext/59636182/miniwin_tree_container.o
 .sbss          0x800000d4        0x4 build/default/production/_ext/59636182/miniwin_utilities.o
 .sbss          0x800000d8        0x8 build/default/production/_ext/165771656/miniwin_user.o
 .sbss          0x800000e0        0x4 build/default/production/_ext/165771656/window_file.o
 .sbss          0x800000e4        0x8 build/default/production/_ext/165771656/window_selection.o
 .sbss          0x800000ec        0xc build/default/production/_ext/1445274692/app.o
 *(.scommon)
 .scommon       0x800000f8        0x4 build/default/production/_ext/776318040/hal_timer.o
                0x800000f8                mw_tick_counter
 .scommon       0x800000fc       0x30 build/default/production/_ext/165771656/miniwin_user.o
                0x800000fc                window_file_tree_handle
                0x80000100                window_file_handle
                0x80000104                button_open_handle
                0x80000108                label_date_handle
                0x8000010c                button_show_handle
                0x80000110                window_selection_handle
                0x80000114                label_time_handle
                0x80000118                tree_handle
                0x8000011c                label_path_handle
                0x80000120                button_create_handle
                0x80000124                button_set_clock_handle
                0x80000128                scroll_bar_vert_handle
                0x8000012c                _sbss_end = .
                0x8000012c                . = ALIGN (0x4)

.bss            0x8000012c        0x0
 *(.dynbss)
 *(COMMON)
                0x8000012c                . = ALIGN ((. != 0x0)?0x4:0x1)
                0x8000012c                . = ALIGN (0x4)
                0x8000012c                _end = .
                0x8000012c                _bss_end = .
                0x00080000                _bmxdudba_address = 0x80000
                0x00080000                _bmxdupba_address = 0x80000

/DISCARD/
 *(.pdr)
 *(.rel.dyn)
 *(.note.GNU-stack)
 *(.note.GNU-stack)
 *(.gnu_debuglink)
 *(.gnu.lto_*)
 *(.discard)

.gptab.sdata
 *(.gptab.data)
 *(.gptab.sdata)

.gptab.sbss
 *(.gptab.bss)
 *(.gptab.sbss)

.mdebug.abi32   0x00000000        0x0
 *(.mdebug.abi32)
 .mdebug.abi32  0x00000000        0x0 c:/program files/microchip/xc32/v2.50/bin/bin/../../lib/gcc/pic32mx/4.8.3/../../../../pic32mx/lib/fpu64\software-debug-break.o
 .mdebug.abi32  0x00000000        0x0 build/default/production/_ext/60165520/plib_clk.o
 .mdebug.abi32  0x00000000        0x0 build/default/production/_ext/1249264884/plib_coretimer.o
 .mdebug.abi32  0x00000000        0x0 build/default/production/_ext/1865200349/plib_evic.o
 .mdebug.abi32  0x00000000        0x0 build/default/production/_ext/1865254177/plib_gpio.o
 .mdebug.abi32  0x00000000        0x0 build/default/production/_ext/60176403/plib_nvm.o
 .mdebug.abi32  0x00000000        0x0 build/default/production/_ext/298189674/plib_spi2_master.o
 .mdebug.abi32  0x00000000        0x0 build/default/production/_ext/298189674/plib_spi1_master.o
 .mdebug.abi32  0x00000000        0x0 build/default/production/_ext/60181895/plib_tmr2.o
 .mdebug.abi32  0x00000000        0x0 build/default/production/_ext/60181895/plib_tmr3.o
 .mdebug.abi32  0x00000000        0x0 build/default/production/_ext/163028504/xc32_monitor.o
 .mdebug.abi32  0x00000000        0x0 build/default/production/_ext/1171490990/initialization.o
 .mdebug.abi32  0x00000000        0x0 build/default/production/_ext/1171490990/interrupts.o
 .mdebug.abi32  0x00000000        0x0 build/default/production/_ext/1171490990/exceptions.o
 .mdebug.abi32  0x00000000        0x0 build/default/production/_ext/1592496102/ff.o
 .mdebug.abi32  0x00000000        0x0 build/default/production/_ext/1592496102/sdmm.o
 .mdebug.abi32  0x00000000        0x0 build/default/production/_ext/1592496102/spi_driver.o
 .mdebug.abi32  0x00000000        0x0 build/default/production/_ext/1275709973/backspace_key.o
 .mdebug.abi32  0x00000000        0x0 build/default/production/_ext/1275709973/close_icon.o
 .mdebug.abi32  0x00000000        0x0 build/default/production/_ext/1275709973/close_icon_large.o
 .mdebug.abi32  0x00000000        0x0 build/default/production/_ext/1275709973/file_icon_large.o
 .mdebug.abi32  0x00000000        0x0 build/default/production/_ext/1275709973/file_icon_small.o
 .mdebug.abi32  0x00000000        0x0 build/default/production/_ext/1275709973/folder_close_icon_large.o
 .mdebug.abi32  0x00000000        0x0 build/default/production/_ext/1275709973/folder_close_icon_small.o
 .mdebug.abi32  0x00000000        0x0 build/default/production/_ext/1275709973/folder_icon_large.o
 .mdebug.abi32  0x00000000        0x0 build/default/production/_ext/1275709973/folder_icon_small.o
 .mdebug.abi32  0x00000000        0x0 build/default/production/_ext/1275709973/folder_open_icon_large.o
 .mdebug.abi32  0x00000000        0x0 build/default/production/_ext/1275709973/folder_open_icon_small.o
 .mdebug.abi32  0x00000000        0x0 build/default/production/_ext/1275709973/let_key.o
 .mdebug.abi32  0x00000000        0x0 build/default/production/_ext/1275709973/maximise_icon.o
 .mdebug.abi32  0x00000000        0x0 build/default/production/_ext/1275709973/maximise_icon_large.o
 .mdebug.abi32  0x00000000        0x0 build/default/production/_ext/1275709973/minimise_icon.o
 .mdebug.abi32  0x00000000        0x0 build/default/production/_ext/1275709973/minimise_icon_large.o
 .mdebug.abi32  0x00000000        0x0 build/default/production/_ext/1275709973/num_key.o
 .mdebug.abi32  0x00000000        0x0 build/default/production/_ext/1275709973/resize_icon.o
 .mdebug.abi32  0x00000000        0x0 build/default/production/_ext/1275709973/resize_icon_large.o
 .mdebug.abi32  0x00000000        0x0 build/default/production/_ext/1275709973/shift_key.o
 .mdebug.abi32  0x00000000        0x0 build/default/production/_ext/1275709973/sym_key.o
 .mdebug.abi32  0x00000000        0x0 build/default/production/_ext/1275709973/tick.o
 .mdebug.abi32  0x00000000        0x0 build/default/production/_ext/1275709973/tick_large.o
 .mdebug.abi32  0x00000000        0x0 build/default/production/_ext/481733874/dialog_colour_chooser.o
 .mdebug.abi32  0x00000000        0x0 build/default/production/_ext/481733874/dialog_date_chooser.o
 .mdebug.abi32  0x00000000        0x0 build/default/production/_ext/481733874/dialog_file_chooser.o
 .mdebug.abi32  0x00000000        0x0 build/default/production/_ext/481733874/dialog_number_entry.o
 .mdebug.abi32  0x00000000        0x0 build/default/production/_ext/481733874/dialog_one_button.o
 .mdebug.abi32  0x00000000        0x0 build/default/production/_ext/481733874/dialog_text_entry.o
 .mdebug.abi32  0x00000000        0x0 build/default/production/_ext/481733874/dialog_time_chooser.o
 .mdebug.abi32  0x00000000        0x0 build/default/production/_ext/481733874/dialog_two_button.o
 .mdebug.abi32  0x00000000        0x0 build/default/production/_ext/194049764/font12.o
 .mdebug.abi32  0x00000000        0x0 build/default/production/_ext/194049764/font16.o
 .mdebug.abi32  0x00000000        0x0 build/default/production/_ext/194049764/font20.o
 .mdebug.abi32  0x00000000        0x0 build/default/production/_ext/194049764/font24.o
 .mdebug.abi32  0x00000000        0x0 build/default/production/_ext/194049764/font9.o
 .mdebug.abi32  0x00000000        0x0 build/default/production/_ext/194049764/gl_title_font.o
 .mdebug.abi32  0x00000000        0x0 build/default/production/_ext/1391772861/mf_bwfont.o
 .mdebug.abi32  0x00000000        0x0 build/default/production/_ext/1391772861/mf_encoding.o
 .mdebug.abi32  0x00000000        0x0 build/default/production/_ext/1391772861/mf_font.o
 .mdebug.abi32  0x00000000        0x0 build/default/production/_ext/1391772861/mf_justify.o
 .mdebug.abi32  0x00000000        0x0 build/default/production/_ext/1391772861/mf_kerning.o
 .mdebug.abi32  0x00000000        0x0 build/default/production/_ext/1391772861/mf_rlefont.o
 .mdebug.abi32  0x00000000        0x0 build/default/production/_ext/1391772861/mf_scaledfont.o
 .mdebug.abi32  0x00000000        0x0 build/default/production/_ext/1391772861/mf_wordwrap.o
 .mdebug.abi32  0x00000000        0x0 build/default/production/_ext/2039457820/BLKCHCRY16.o
 .mdebug.abi32  0x00000000        0x0 build/default/production/_ext/2039457820/BLKCHCRY16bw.o
 .mdebug.abi32  0x00000000        0x0 build/default/production/_ext/2039457820/dejavu_sans_12.o
 .mdebug.abi32  0x00000000        0x0 build/default/production/_ext/1494914114/gl.o
 .mdebug.abi32  0x00000000        0x0 build/default/production/_ext/1063548019/hal_delay.o
 .mdebug.abi32  0x00000000        0x0 build/default/production/_ext/1063548019/hal_lcd.o
 .mdebug.abi32  0x00000000        0x0 build/default/production/_ext/1063548019/hal_non_vol.o
 .mdebug.abi32  0x00000000        0x0 build/default/production/_ext/1063548019/hal_timer.o
 .mdebug.abi32  0x00000000        0x0 build/default/production/_ext/1063548019/hal_touch.o
 .mdebug.abi32  0x00000000        0x0 build/default/production/_ext/1184163457/hal_delay.o
 .mdebug.abi32  0x00000000        0x0 build/default/production/_ext/1184163457/hal_lcd.o
 .mdebug.abi32  0x00000000        0x0 build/default/production/_ext/1184163457/hal_non_vol.o
 .mdebug.abi32  0x00000000        0x0 build/default/production/_ext/1184163457/hal_timer.o
 .mdebug.abi32  0x00000000        0x0 build/default/production/_ext/1184163457/hal_touch.o
 .mdebug.abi32  0x00000000        0x0 build/default/production/_ext/1305585261/hal_delay.o
 .mdebug.abi32  0x00000000        0x0 build/default/production/_ext/1305585261/hal_lcd.o
 .mdebug.abi32  0x00000000        0x0 build/default/production/_ext/1305585261/hal_non_vol.o
 .mdebug.abi32  0x00000000        0x0 build/default/production/_ext/1305585261/hal_timer.o
 .mdebug.abi32  0x00000000        0x0 build/default/production/_ext/1305585261/hal_touch.o
 .mdebug.abi32  0x00000000        0x0 build/default/production/_ext/818872118/hal_delay.o
 .mdebug.abi32  0x00000000        0x0 build/default/production/_ext/818872118/hal_lcd.o
 .mdebug.abi32  0x00000000        0x0 build/default/production/_ext/818872118/hal_non_vol.o
 .mdebug.abi32  0x00000000        0x0 build/default/production/_ext/818872118/hal_timer.o
 .mdebug.abi32  0x00000000        0x0 build/default/production/_ext/818872118/hal_touch.o
 .mdebug.abi32  0x00000000        0x0 build/default/production/_ext/776318040/hal_delay.o
 .mdebug.abi32  0x00000000        0x0 build/default/production/_ext/776318040/hal_lcd.o
 .mdebug.abi32  0x00000000        0x0 build/default/production/_ext/776318040/hal_non_vol.o
 .mdebug.abi32  0x00000000        0x0 build/default/production/_ext/776318040/hal_timer.o
 .mdebug.abi32  0x00000000        0x0 build/default/production/_ext/776318040/hal_touch.o
 .mdebug.abi32  0x00000000        0x0 build/default/production/_ext/1178231276/hal_delay.o
 .mdebug.abi32  0x00000000        0x0 build/default/production/_ext/1178231276/hal_lcd.o
 .mdebug.abi32  0x00000000        0x0 build/default/production/_ext/1178231276/hal_non_vol.o
 .mdebug.abi32  0x00000000        0x0 build/default/production/_ext/1178231276/hal_timer.o
 .mdebug.abi32  0x00000000        0x0 build/default/production/_ext/1178231276/hal_touch.o
 .mdebug.abi32  0x00000000        0x0 build/default/production/_ext/51196508/hal_delay.o
 .mdebug.abi32  0x00000000        0x0 build/default/production/_ext/51196508/hal_lcd.o
 .mdebug.abi32  0x00000000        0x0 build/default/production/_ext/51196508/hal_non_vol.o
 .mdebug.abi32  0x00000000        0x0 build/default/production/_ext/51196508/hal_timer.o
 .mdebug.abi32  0x00000000        0x0 build/default/production/_ext/51196508/hal_touch.o
 .mdebug.abi32  0x00000000        0x0 build/default/production/_ext/1317985835/hal_delay.o
 .mdebug.abi32  0x00000000        0x0 build/default/production/_ext/1317985835/hal_lcd.o
 .mdebug.abi32  0x00000000        0x0 build/default/production/_ext/1317985835/hal_non_vol.o
 .mdebug.abi32  0x00000000        0x0 build/default/production/_ext/1317985835/hal_timer.o
 .mdebug.abi32  0x00000000        0x0 build/default/production/_ext/1317985835/hal_touch.o
 .mdebug.abi32  0x00000000        0x0 build/default/production/_ext/1317985899/hal_delay.o
 .mdebug.abi32  0x00000000        0x0 build/default/production/_ext/1317985899/hal_lcd.o
 .mdebug.abi32  0x00000000        0x0 build/default/production/_ext/1317985899/hal_non_vol.o
 .mdebug.abi32  0x00000000        0x0 build/default/production/_ext/1317985899/hal_timer.o
 .mdebug.abi32  0x00000000        0x0 build/default/production/_ext/1317985899/hal_touch.o
 .mdebug.abi32  0x00000000        0x0 build/default/production/_ext/1357345870/hal_delay.o
 .mdebug.abi32  0x00000000        0x0 build/default/production/_ext/1357345870/hal_lcd.o
 .mdebug.abi32  0x00000000        0x0 build/default/production/_ext/1357345870/hal_non_vol.o
 .mdebug.abi32  0x00000000        0x0 build/default/production/_ext/1357345870/hal_timer.o
 .mdebug.abi32  0x00000000        0x0 build/default/production/_ext/1357345870/hal_touch.o
 .mdebug.abi32  0x00000000        0x0 build/default/production/_ext/902303450/hal_init.o
 .mdebug.abi32  0x00000000        0x0 build/default/production/_ext/1494913683/ui_arrow.o
 .mdebug.abi32  0x00000000        0x0 build/default/production/_ext/1494913683/ui_button.o
 .mdebug.abi32  0x00000000        0x0 build/default/production/_ext/1494913683/ui_check_box.o
 .mdebug.abi32  0x00000000        0x0 build/default/production/_ext/1494913683/ui_common.o
 .mdebug.abi32  0x00000000        0x0 build/default/production/_ext/1494913683/ui_keyboard.o
 .mdebug.abi32  0x00000000        0x0 build/default/production/_ext/1494913683/ui_keypad.o
 .mdebug.abi32  0x00000000        0x0 build/default/production/_ext/1494913683/ui_label.o
 .mdebug.abi32  0x00000000        0x0 build/default/production/_ext/1494913683/ui_list_box.o
 .mdebug.abi32  0x00000000        0x0 build/default/production/_ext/1494913683/ui_progress_bar.o
 .mdebug.abi32  0x00000000        0x0 build/default/production/_ext/1494913683/ui_radio_button.o
 .mdebug.abi32  0x00000000        0x0 build/default/production/_ext/1494913683/ui_scroll_bar_horiz.o
 .mdebug.abi32  0x00000000        0x0 build/default/production/_ext/1494913683/ui_scroll_bar_vert.o
 .mdebug.abi32  0x00000000        0x0 build/default/production/_ext/1494913683/ui_tabs.o
 .mdebug.abi32  0x00000000        0x0 build/default/production/_ext/1494913683/ui_text_box.o
 .mdebug.abi32  0x00000000        0x0 build/default/production/_ext/1494913683/ui_tree.o
 .mdebug.abi32  0x00000000        0x0 build/default/production/_ext/59636182/calibrate.o
 .mdebug.abi32  0x00000000        0x0 build/default/production/_ext/59636182/miniwin.o
 .mdebug.abi32  0x00000000        0x0 build/default/production/_ext/59636182/miniwin_debug.o
 .mdebug.abi32  0x00000000        0x0 build/default/production/_ext/59636182/miniwin_message_queue.o
 .mdebug.abi32  0x00000000        0x0 build/default/production/_ext/59636182/miniwin_settings.o
 .mdebug.abi32  0x00000000        0x0 build/default/production/_ext/59636182/miniwin_touch.o
 .mdebug.abi32  0x00000000        0x0 build/default/production/_ext/59636182/miniwin_tree_container.o
 .mdebug.abi32  0x00000000        0x0 build/default/production/_ext/59636182/miniwin_utilities.o
 .mdebug.abi32  0x00000000        0x0 build/default/production/_ext/165771656/main.o
 .mdebug.abi32  0x00000000        0x0 build/default/production/_ext/165771656/miniwin_user.o
 .mdebug.abi32  0x00000000        0x0 build/default/production/_ext/165771656/window_file.o
 .mdebug.abi32  0x00000000        0x0 build/default/production/_ext/165771656/window_file_tree.o
 .mdebug.abi32  0x00000000        0x0 build/default/production/_ext/165771656/window_image.o
 .mdebug.abi32  0x00000000        0x0 build/default/production/_ext/165771656/window_selection.o
 .mdebug.abi32  0x00000000        0x0 build/default/production/_ext/165771656/window_text.o
 .mdebug.abi32  0x00000000        0x0 build/default/production/_ext/1445274692/app.o
 .mdebug.abi32  0x00000000        0x0 c:/program files/microchip/xc32/v2.50/bin/bin/../../lib/gcc/pic32mx/4.8.3/../../../../pic32mx/lib/fpu64\libpic32.a(default-on-reset.o)
 .mdebug.abi32  0x00000000        0x0 c:/program files/microchip/xc32/v2.50/bin/bin/../../lib/gcc/pic32mx/4.8.3/../../../../pic32mx/lib/fpu64\libpic32.a(default-on-bootstrap.o)
 .mdebug.abi32  0x00000000        0x0 c:/program files/microchip/xc32/v2.50/bin/bin/../../lib/gcc/pic32mx/4.8.3/../../../../pic32mx/lib/fpu64\libpic32.a(defaultinterrupt.o)
 .mdebug.abi32  0x00000000        0x0 c:/program files/microchip/xc32/v2.50/bin/bin/../../lib/gcc/pic32mx/4.8.3/../../../../pic32mx/lib/fpu64\libc.a(ctypef.o)
 .mdebug.abi32  0x00000000        0x0 c:/program files/microchip/xc32/v2.50/bin/bin/../../lib/gcc/pic32mx/4.8.3/../../../../pic32mx/lib/fpu64\libc.a(malloc.o)
 .mdebug.abi32  0x00000000        0x0 c:/program files/microchip/xc32/v2.50/bin/bin/../../lib/gcc/pic32mx/4.8.3/../../../../pic32mx/lib/fpu64\libc.a(memmove.o)
 .mdebug.abi32  0x00000000        0x0 c:/program files/microchip/xc32/v2.50/bin/bin/../../lib/gcc/pic32mx/4.8.3/../../../../pic32mx/lib/fpu64\libc.a(strncat.o)
 .mdebug.abi32  0x00000000        0x0 c:/program files/microchip/xc32/v2.50/bin/bin/../../lib/gcc/pic32mx/4.8.3/../../../../pic32mx/lib/fpu64\libc.a(strrchr.o)
 .mdebug.abi32  0x00000000        0x0 c:/program files/microchip/xc32/v2.50/bin/bin/../../lib/gcc/pic32mx/4.8.3/../../../../pic32mx/lib/fpu64\libc.a(ctype.o)
 .mdebug.abi32  0x00000000        0x0 c:/program files/microchip/xc32/v2.50/bin/bin/../../lib/gcc/pic32mx/4.8.3/../../../../pic32mx/lib/fpu64\libmfd.a(s_cos.o)
 .mdebug.abi32  0x00000000        0x0 c:/program files/microchip/xc32/v2.50/bin/bin/../../lib/gcc/pic32mx/4.8.3/../../../../pic32mx/lib/fpu64\libmfd.a(s_floor.o)
 .mdebug.abi32  0x00000000        0x0 c:/program files/microchip/xc32/v2.50/bin/bin/../../lib/gcc/pic32mx/4.8.3/../../../../pic32mx/lib/fpu64\libmfd.a(s_sin.o)
 .mdebug.abi32  0x00000000        0x0 c:/program files/microchip/xc32/v2.50/bin/bin/../../lib/gcc/pic32mx/4.8.3/../../../../pic32mx/lib/fpu64\libmfd.a(w_atan2.o)
 .mdebug.abi32  0x00000000        0x0 c:/program files/microchip/xc32/v2.50/bin/bin/../../lib/gcc/pic32mx/4.8.3/../../../../pic32mx/lib/fpu64\libmfd.a(e_atan2.o)
 .mdebug.abi32  0x00000000        0x0 c:/program files/microchip/xc32/v2.50/bin/bin/../../lib/gcc/pic32mx/4.8.3/../../../../pic32mx/lib/fpu64\libmfd.a(e_rem_pio2.o)
 .mdebug.abi32  0x00000000        0x0 c:/program files/microchip/xc32/v2.50/bin/bin/../../lib/gcc/pic32mx/4.8.3/../../../../pic32mx/lib/fpu64\libmfd.a(k_cos.o)
 .mdebug.abi32  0x00000000        0x0 c:/program files/microchip/xc32/v2.50/bin/bin/../../lib/gcc/pic32mx/4.8.3/../../../../pic32mx/lib/fpu64\libmfd.a(k_sin.o)
 .mdebug.abi32  0x00000000        0x0 c:/program files/microchip/xc32/v2.50/bin/bin/../../lib/gcc/pic32mx/4.8.3/../../../../pic32mx/lib/fpu64\libmfd.a(k_standard.o)
 .mdebug.abi32  0x00000000        0x0 c:/program files/microchip/xc32/v2.50/bin/bin/../../lib/gcc/pic32mx/4.8.3/../../../../pic32mx/lib/fpu64\libmfd.a(s_atan.o)
 .mdebug.abi32  0x00000000        0x0 c:/program files/microchip/xc32/v2.50/bin/bin/../../lib/gcc/pic32mx/4.8.3/../../../../pic32mx/lib/fpu64\libmfd.a(s_fabs.o)
 .mdebug.abi32  0x00000000        0x0 c:/program files/microchip/xc32/v2.50/bin/bin/../../lib/gcc/pic32mx/4.8.3/../../../../pic32mx/lib/fpu64\libmfd.a(s_rint.o)
 .mdebug.abi32  0x00000000        0x0 c:/program files/microchip/xc32/v2.50/bin/bin/../../lib/gcc/pic32mx/4.8.3/../../../../pic32mx/lib/fpu64\libpic32.a(sbrk.o)
 .mdebug.abi32  0x00000000        0x0 c:/program files/microchip/xc32/v2.50/bin/bin/../../lib/gcc/pic32mx/4.8.3/../../../../pic32mx/lib/fpu64\libpic32.a(errno.o)

.mdebug.abiN32
 *(.mdebug.abiN32)

.mdebug.abi64
 *(.mdebug.abi64)

.mdebug.abiO64
 *(.mdebug.abiO64)

.mdebug.eabi32
 *(.mdebug.eabi32)

.mdebug.eabi64
 *(.mdebug.eabi64)

.gcc_compiled_long32
 *(.gcc_compiled_long32)

.gcc_compiled_long64
 *(.gcc_compiled_long64)

.stab
 *(.stab)

.stabstr
 *(.stabstr)

.stab.excl
 *(.stab.excl)

.stab.exclstr
 *(.stab.exclstr)

.stab.index
 *(.stab.index)

.stab.indexstr
 *(.stab.indexstr)

.comment        0x00000000      0x155
 *(.comment)
 .comment       0x00000000       0x3c c:/program files/microchip/xc32/v2.50/bin/bin/../../lib/gcc/pic32mx/4.8.3/../../../../pic32mx/lib/fpu64\software-debug-break.o
                                 0x3d (size before relaxing)
 .comment       0x00000000       0x3d build/default/production/_ext/60165520/plib_clk.o
 .comment       0x00000000       0x3d build/default/production/_ext/1249264884/plib_coretimer.o
 .comment       0x00000000       0x3d build/default/production/_ext/1865200349/plib_evic.o
 .comment       0x00000000       0x3d build/default/production/_ext/1865254177/plib_gpio.o
 .comment       0x00000000       0x3d build/default/production/_ext/60176403/plib_nvm.o
 .comment       0x00000000       0x3d build/default/production/_ext/298189674/plib_spi2_master.o
 .comment       0x00000000       0x3d build/default/production/_ext/298189674/plib_spi1_master.o
 .comment       0x00000000       0x3d build/default/production/_ext/60181895/plib_tmr2.o
 .comment       0x00000000       0x3d build/default/production/_ext/60181895/plib_tmr3.o
 .comment       0x00000000       0x3d build/default/production/_ext/163028504/xc32_monitor.o
 .comment       0x00000000       0x3d build/default/production/_ext/1171490990/initialization.o
 .comment       0x00000000       0x3d build/default/production/_ext/1171490990/interrupts.o
 .comment       0x00000000       0x3d build/default/production/_ext/1171490990/exceptions.o
 .comment       0x00000000       0x3d build/default/production/_ext/1592496102/ff.o
 .comment       0x00000000       0x3d build/default/production/_ext/1592496102/sdmm.o
 .comment       0x00000000       0x3d build/default/production/_ext/1592496102/spi_driver.o
 .comment       0x00000000       0x3d build/default/production/_ext/1275709973/backspace_key.o
 .comment       0x00000000       0x3d build/default/production/_ext/1275709973/close_icon.o
 .comment       0x00000000       0x3d build/default/production/_ext/1275709973/close_icon_large.o
 .comment       0x00000000       0x3d build/default/production/_ext/1275709973/file_icon_large.o
 .comment       0x00000000       0x3d build/default/production/_ext/1275709973/file_icon_small.o
 .comment       0x00000000       0x3d build/default/production/_ext/1275709973/folder_close_icon_large.o
 .comment       0x00000000       0x3d build/default/production/_ext/1275709973/folder_close_icon_small.o
 .comment       0x00000000       0x3d build/default/production/_ext/1275709973/folder_icon_large.o
 .comment       0x00000000       0x3d build/default/production/_ext/1275709973/folder_icon_small.o
 .comment       0x00000000       0x3d build/default/production/_ext/1275709973/folder_open_icon_large.o
 .comment       0x00000000       0x3d build/default/production/_ext/1275709973/folder_open_icon_small.o
 .comment       0x00000000       0x3d build/default/production/_ext/1275709973/let_key.o
 .comment       0x00000000       0x3d build/default/production/_ext/1275709973/maximise_icon.o
 .comment       0x00000000       0x3d build/default/production/_ext/1275709973/maximise_icon_large.o
 .comment       0x00000000       0x3d build/default/production/_ext/1275709973/minimise_icon.o
 .comment       0x00000000       0x3d build/default/production/_ext/1275709973/minimise_icon_large.o
 .comment       0x00000000       0x3d build/default/production/_ext/1275709973/num_key.o
 .comment       0x00000000       0x3d build/default/production/_ext/1275709973/resize_icon.o
 .comment       0x00000000       0x3d build/default/production/_ext/1275709973/resize_icon_large.o
 .comment       0x00000000       0x3d build/default/production/_ext/1275709973/shift_key.o
 .comment       0x00000000       0x3d build/default/production/_ext/1275709973/sym_key.o
 .comment       0x00000000       0x3d build/default/production/_ext/1275709973/tick.o
 .comment       0x00000000       0x3d build/default/production/_ext/1275709973/tick_large.o
 .comment       0x00000000       0x3d build/default/production/_ext/481733874/dialog_colour_chooser.o
 .comment       0x00000000       0x3d build/default/production/_ext/481733874/dialog_date_chooser.o
 .comment       0x00000000       0x3d build/default/production/_ext/481733874/dialog_file_chooser.o
 .comment       0x00000000       0x3d build/default/production/_ext/481733874/dialog_number_entry.o
 .comment       0x00000000       0x3d build/default/production/_ext/481733874/dialog_one_button.o
 .comment       0x00000000       0x3d build/default/production/_ext/481733874/dialog_text_entry.o
 .comment       0x00000000       0x3d build/default/production/_ext/481733874/dialog_time_chooser.o
 .comment       0x00000000       0x3d build/default/production/_ext/481733874/dialog_two_button.o
 .comment       0x00000000       0x3d build/default/production/_ext/194049764/font12.o
 .comment       0x00000000       0x3d build/default/production/_ext/194049764/font16.o
 .comment       0x00000000       0x3d build/default/production/_ext/194049764/font20.o
 .comment       0x00000000       0x3d build/default/production/_ext/194049764/font24.o
 .comment       0x00000000       0x3d build/default/production/_ext/194049764/font9.o
 .comment       0x00000000       0x3d build/default/production/_ext/194049764/gl_title_font.o
 .comment       0x00000000       0x3d build/default/production/_ext/1391772861/mf_bwfont.o
 .comment       0x00000000       0x3d build/default/production/_ext/1391772861/mf_encoding.o
 .comment       0x00000000       0x3d build/default/production/_ext/1391772861/mf_font.o
 .comment       0x00000000       0x3d build/default/production/_ext/1391772861/mf_justify.o
 .comment       0x00000000       0x3d build/default/production/_ext/1391772861/mf_kerning.o
 .comment       0x00000000       0x3d build/default/production/_ext/1391772861/mf_rlefont.o
 .comment       0x00000000       0x3d build/default/production/_ext/1391772861/mf_scaledfont.o
 .comment       0x00000000       0x3d build/default/production/_ext/1391772861/mf_wordwrap.o
 .comment       0x00000000       0x3d build/default/production/_ext/2039457820/BLKCHCRY16.o
 .comment       0x00000000       0x3d build/default/production/_ext/2039457820/BLKCHCRY16bw.o
 .comment       0x00000000       0x3d build/default/production/_ext/2039457820/dejavu_sans_12.o
 .comment       0x00000000       0x3d build/default/production/_ext/1494914114/gl.o
 .comment       0x00000000       0x3d build/default/production/_ext/1063548019/hal_delay.o
 .comment       0x00000000       0x3d build/default/production/_ext/1063548019/hal_lcd.o
 .comment       0x00000000       0x3d build/default/production/_ext/1063548019/hal_non_vol.o
 .comment       0x00000000       0x3d build/default/production/_ext/1063548019/hal_timer.o
 .comment       0x00000000       0x3d build/default/production/_ext/1063548019/hal_touch.o
 .comment       0x00000000       0x3d build/default/production/_ext/1184163457/hal_delay.o
 .comment       0x00000000       0x3d build/default/production/_ext/1184163457/hal_lcd.o
 .comment       0x00000000       0x3d build/default/production/_ext/1184163457/hal_non_vol.o
 .comment       0x00000000       0x3d build/default/production/_ext/1184163457/hal_timer.o
 .comment       0x00000000       0x3d build/default/production/_ext/1184163457/hal_touch.o
 .comment       0x00000000       0x3d build/default/production/_ext/1305585261/hal_delay.o
 .comment       0x00000000       0x3d build/default/production/_ext/1305585261/hal_lcd.o
 .comment       0x00000000       0x3d build/default/production/_ext/1305585261/hal_non_vol.o
 .comment       0x00000000       0x3d build/default/production/_ext/1305585261/hal_timer.o
 .comment       0x00000000       0x3d build/default/production/_ext/1305585261/hal_touch.o
 .comment       0x00000000       0x3d build/default/production/_ext/818872118/hal_delay.o
 .comment       0x00000000       0x3d build/default/production/_ext/818872118/hal_lcd.o
 .comment       0x00000000       0x3d build/default/production/_ext/818872118/hal_non_vol.o
 .comment       0x00000000       0x3d build/default/production/_ext/818872118/hal_timer.o
 .comment       0x00000000       0x3d build/default/production/_ext/818872118/hal_touch.o
 .comment       0x00000000       0x3d build/default/production/_ext/776318040/hal_delay.o
 .comment       0x00000000       0x3d build/default/production/_ext/776318040/hal_lcd.o
 .comment       0x00000000       0x3d build/default/production/_ext/776318040/hal_non_vol.o
 .comment       0x00000000       0x3d build/default/production/_ext/776318040/hal_timer.o
 .comment       0x00000000       0x3d build/default/production/_ext/776318040/hal_touch.o
 .comment       0x00000000       0x3d build/default/production/_ext/1178231276/hal_delay.o
 .comment       0x00000000       0x3d build/default/production/_ext/1178231276/hal_lcd.o
 .comment       0x00000000       0x3d build/default/production/_ext/1178231276/hal_non_vol.o
 .comment       0x00000000       0x3d build/default/production/_ext/1178231276/hal_timer.o
 .comment       0x00000000       0x3d build/default/production/_ext/1178231276/hal_touch.o
 .comment       0x00000000       0x3d build/default/production/_ext/51196508/hal_delay.o
 .comment       0x00000000       0x3d build/default/production/_ext/51196508/hal_lcd.o
 .comment       0x00000000       0x3d build/default/production/_ext/51196508/hal_non_vol.o
 .comment       0x00000000       0x3d build/default/production/_ext/51196508/hal_timer.o
 .comment       0x00000000       0x3d build/default/production/_ext/51196508/hal_touch.o
 .comment       0x00000000       0x3d build/default/production/_ext/1317985835/hal_delay.o
 .comment       0x00000000       0x3d build/default/production/_ext/1317985835/hal_lcd.o
 .comment       0x00000000       0x3d build/default/production/_ext/1317985835/hal_non_vol.o
 .comment       0x00000000       0x3d build/default/production/_ext/1317985835/hal_timer.o
 .comment       0x00000000       0x3d build/default/production/_ext/1317985835/hal_touch.o
 .comment       0x00000000       0x3d build/default/production/_ext/1317985899/hal_delay.o
 .comment       0x00000000       0x3d build/default/production/_ext/1317985899/hal_lcd.o
 .comment       0x00000000       0x3d build/default/production/_ext/1317985899/hal_non_vol.o
 .comment       0x00000000       0x3d build/default/production/_ext/1317985899/hal_timer.o
 .comment       0x00000000       0x3d build/default/production/_ext/1317985899/hal_touch.o
 .comment       0x00000000       0x3d build/default/production/_ext/1357345870/hal_delay.o
 .comment       0x00000000       0x3d build/default/production/_ext/1357345870/hal_lcd.o
 .comment       0x00000000       0x3d build/default/production/_ext/1357345870/hal_non_vol.o
 .comment       0x00000000       0x3d build/default/production/_ext/1357345870/hal_timer.o
 .comment       0x00000000       0x3d build/default/production/_ext/1357345870/hal_touch.o
 .comment       0x00000000       0x3d build/default/production/_ext/902303450/hal_init.o
 .comment       0x00000000       0x3d build/default/production/_ext/1494913683/ui_arrow.o
 .comment       0x00000000       0x3d build/default/production/_ext/1494913683/ui_button.o
 .comment       0x00000000       0x3d build/default/production/_ext/1494913683/ui_check_box.o
 .comment       0x00000000       0x3d build/default/production/_ext/1494913683/ui_common.o
 .comment       0x00000000       0x3d build/default/production/_ext/1494913683/ui_keyboard.o
 .comment       0x00000000       0x3d build/default/production/_ext/1494913683/ui_keypad.o
 .comment       0x00000000       0x3d build/default/production/_ext/1494913683/ui_label.o
 .comment       0x00000000       0x3d build/default/production/_ext/1494913683/ui_list_box.o
 .comment       0x00000000       0x3d build/default/production/_ext/1494913683/ui_progress_bar.o
 .comment       0x00000000       0x3d build/default/production/_ext/1494913683/ui_radio_button.o
 .comment       0x00000000       0x3d build/default/production/_ext/1494913683/ui_scroll_bar_horiz.o
 .comment       0x00000000       0x3d build/default/production/_ext/1494913683/ui_scroll_bar_vert.o
 .comment       0x00000000       0x3d build/default/production/_ext/1494913683/ui_tabs.o
 .comment       0x00000000       0x3d build/default/production/_ext/1494913683/ui_text_box.o
 .comment       0x00000000       0x3d build/default/production/_ext/1494913683/ui_tree.o
 .comment       0x00000000       0x3d build/default/production/_ext/59636182/calibrate.o
 .comment       0x00000000       0x3d build/default/production/_ext/59636182/miniwin.o
 .comment       0x00000000       0x3d build/default/production/_ext/59636182/miniwin_debug.o
 .comment       0x00000000       0x3d build/default/production/_ext/59636182/miniwin_message_queue.o
 .comment       0x00000000       0x3d build/default/production/_ext/59636182/miniwin_settings.o
 .comment       0x00000000       0x3d build/default/production/_ext/59636182/miniwin_touch.o
 .comment       0x00000000       0x3d build/default/production/_ext/59636182/miniwin_tree_container.o
 .comment       0x00000000       0x3d build/default/production/_ext/59636182/miniwin_utilities.o
 .comment       0x00000000       0x3d build/default/production/_ext/165771656/main.o
 .comment       0x00000000       0x3d build/default/production/_ext/165771656/miniwin_user.o
 .comment       0x00000000       0x3d build/default/production/_ext/165771656/window_file.o
 .comment       0x00000000       0x3d build/default/production/_ext/165771656/window_file_tree.o
 .comment       0x00000000       0x3d build/default/production/_ext/165771656/window_image.o
 .comment       0x00000000       0x3d build/default/production/_ext/165771656/window_selection.o
 .comment       0x00000000       0x3d build/default/production/_ext/165771656/window_text.o
 .comment       0x00000000       0x3d build/default/production/_ext/1445274692/app.o
 .comment       0x0000003c       0x19 c:/program files/microchip/xc32/v2.50/bin/bin/../../lib/gcc/pic32mx/4.8.3/../../../../pic32mx/lib/fpu64\libpic32.a(strlen.o)
                                 0x1a (size before relaxing)
 .comment       0x00000000       0x3d c:/program files/microchip/xc32/v2.50/bin/bin/../../lib/gcc/pic32mx/4.8.3/../../../../pic32mx/lib/fpu64\libpic32.a(default-on-reset.o)
 .comment       0x00000000       0x3d c:/program files/microchip/xc32/v2.50/bin/bin/../../lib/gcc/pic32mx/4.8.3/../../../../pic32mx/lib/fpu64\libpic32.a(default-on-bootstrap.o)
 .comment       0x00000000       0x3d c:/program files/microchip/xc32/v2.50/bin/bin/../../lib/gcc/pic32mx/4.8.3/../../../../pic32mx/lib/fpu64\libpic32.a(defaultinterrupt.o)
 .comment       0x00000055       0x4f c:/program files/microchip/xc32/v2.50/bin/bin/../../lib/gcc/pic32mx/4.8.3/../../../../pic32mx/lib/fpu64\libc.a(ctypef.o)
                                 0x8c (size before relaxing)
 .comment       0x00000000       0x3d c:/program files/microchip/xc32/v2.50/bin/bin/../../lib/gcc/pic32mx/4.8.3/../../../../pic32mx/lib/fpu64\libc.a(malloc.o)
 .comment       0x00000000       0x3d c:/program files/microchip/xc32/v2.50/bin/bin/../../lib/gcc/pic32mx/4.8.3/../../../../pic32mx/lib/fpu64\libc.a(memmove.o)
 .comment       0x00000000       0x3d c:/program files/microchip/xc32/v2.50/bin/bin/../../lib/gcc/pic32mx/4.8.3/../../../../pic32mx/lib/fpu64\libc.a(strncat.o)
 .comment       0x00000000       0x3d c:/program files/microchip/xc32/v2.50/bin/bin/../../lib/gcc/pic32mx/4.8.3/../../../../pic32mx/lib/fpu64\libc.a(strrchr.o)
 .comment       0x000000a4       0x4e c:/program files/microchip/xc32/v2.50/bin/bin/../../lib/gcc/pic32mx/4.8.3/../../../../pic32mx/lib/fpu64\libc.a(ctype.o)
                                 0x8b (size before relaxing)
 .comment       0x00000000       0x3d c:/program files/microchip/xc32/v2.50/bin/bin/../../lib/gcc/pic32mx/4.8.3/../../../../pic32mx/lib/fpu64\libmfd.a(s_cos.o)
 .comment       0x00000000       0x3d c:/program files/microchip/xc32/v2.50/bin/bin/../../lib/gcc/pic32mx/4.8.3/../../../../pic32mx/lib/fpu64\libmfd.a(s_floor.o)
 .comment       0x00000000       0x3d c:/program files/microchip/xc32/v2.50/bin/bin/../../lib/gcc/pic32mx/4.8.3/../../../../pic32mx/lib/fpu64\libmfd.a(s_sin.o)
 .comment       0x00000000       0x3d c:/program files/microchip/xc32/v2.50/bin/bin/../../lib/gcc/pic32mx/4.8.3/../../../../pic32mx/lib/fpu64\libmfd.a(w_atan2.o)
 .comment       0x00000000       0x3d c:/program files/microchip/xc32/v2.50/bin/bin/../../lib/gcc/pic32mx/4.8.3/../../../../pic32mx/lib/fpu64\libmfd.a(e_atan2.o)
 .comment       0x00000000       0x3d c:/program files/microchip/xc32/v2.50/bin/bin/../../lib/gcc/pic32mx/4.8.3/../../../../pic32mx/lib/fpu64\libmfd.a(e_rem_pio2.o)
 .comment       0x00000000       0x3d c:/program files/microchip/xc32/v2.50/bin/bin/../../lib/gcc/pic32mx/4.8.3/../../../../pic32mx/lib/fpu64\libmfd.a(k_cos.o)
 .comment       0x00000000       0x3d c:/program files/microchip/xc32/v2.50/bin/bin/../../lib/gcc/pic32mx/4.8.3/../../../../pic32mx/lib/fpu64\libmfd.a(k_sin.o)
 .comment       0x00000000       0x3d c:/program files/microchip/xc32/v2.50/bin/bin/../../lib/gcc/pic32mx/4.8.3/../../../../pic32mx/lib/fpu64\libmfd.a(k_standard.o)
 .comment       0x00000000       0x3d c:/program files/microchip/xc32/v2.50/bin/bin/../../lib/gcc/pic32mx/4.8.3/../../../../pic32mx/lib/fpu64\libmfd.a(s_atan.o)
 .comment       0x00000000       0x3d c:/program files/microchip/xc32/v2.50/bin/bin/../../lib/gcc/pic32mx/4.8.3/../../../../pic32mx/lib/fpu64\libmfd.a(s_fabs.o)
 .comment       0x00000000       0x3d c:/program files/microchip/xc32/v2.50/bin/bin/../../lib/gcc/pic32mx/4.8.3/../../../../pic32mx/lib/fpu64\libmfd.a(s_rint.o)
 .comment       0x000000f2       0x4b c:/program files/microchip/xc32/v2.50/bin/bin/../../lib/gcc/pic32mx/4.8.3/../../../../pic32mx/lib/fpu64\libpic32.a(sbrk.o)
                                 0x88 (size before relaxing)
 .comment       0x00000000       0x3d c:/program files/microchip/xc32/v2.50/bin/bin/../../lib/gcc/pic32mx/4.8.3/../../../../pic32mx/lib/fpu64\libpic32.a(errno.o)
 .comment       0x0000013d       0x18 c:/program files/microchip/xc32/v2.50/bin/bin/../../lib/gcc/pic32mx/4.8.3/../../../../pic32mx/lib/fpu64\libpic32.a(memset.o)
                                 0x19 (size before relaxing)

.debug
 *.elf(.debug)
 *(.debug)

.line
 *.elf(.line)
 *(.line)

.debug_srcinfo
 *.elf(.debug_srcinfo)
 *(.debug_srcinfo)

.debug_sfnames
 *.elf(.debug_sfnames)
 *(.debug_sfnames)

.debug_aranges  0x00000000     0x1c38
 *.elf(.debug_aranges)
 *(.debug_aranges)
 .debug_aranges
                0x00000000       0x20 c:/program files/microchip/xc32/v2.50/bin/bin/../../lib/gcc/pic32mx/4.8.3/../../../../pic32mx/lib/fpu64\software-debug-break.o
 .debug_aranges
                0x00000020       0x20 build/default/production/_ext/60165520/plib_clk.o
 .debug_aranges
                0x00000040       0x60 build/default/production/_ext/1249264884/plib_coretimer.o
 .debug_aranges
                0x000000a0       0x50 build/default/production/_ext/1865200349/plib_evic.o
 .debug_aranges
                0x000000f0       0x60 build/default/production/_ext/1865254177/plib_gpio.o
 .debug_aranges
                0x00000150       0x98 build/default/production/_ext/60176403/plib_nvm.o
 .debug_aranges
                0x000001e8       0x40 build/default/production/_ext/298189674/plib_spi2_master.o
 .debug_aranges
                0x00000228       0x40 build/default/production/_ext/298189674/plib_spi1_master.o
 .debug_aranges
                0x00000268       0x70 build/default/production/_ext/60181895/plib_tmr2.o
 .debug_aranges
                0x000002d8       0x70 build/default/production/_ext/60181895/plib_tmr3.o
 .debug_aranges
                0x00000348       0x28 build/default/production/_ext/163028504/xc32_monitor.o
 .debug_aranges
                0x00000370       0x20 build/default/production/_ext/1171490990/initialization.o
 .debug_aranges
                0x00000390       0x28 build/default/production/_ext/1171490990/interrupts.o
 .debug_aranges
                0x000003b8       0x38 build/default/production/_ext/1171490990/exceptions.o
 .debug_aranges
                0x000003f0      0x168 build/default/production/_ext/1592496102/ff.o
 .debug_aranges
                0x00000558       0x70 build/default/production/_ext/1592496102/sdmm.o
 .debug_aranges
                0x000005c8       0x38 build/default/production/_ext/1592496102/spi_driver.o
 .debug_aranges
                0x00000600       0x18 build/default/production/_ext/1275709973/backspace_key.o
 .debug_aranges
                0x00000618       0x18 build/default/production/_ext/1275709973/close_icon.o
 .debug_aranges
                0x00000630       0x18 build/default/production/_ext/1275709973/close_icon_large.o
 .debug_aranges
                0x00000648       0x18 build/default/production/_ext/1275709973/file_icon_large.o
 .debug_aranges
                0x00000660       0x18 build/default/production/_ext/1275709973/file_icon_small.o
 .debug_aranges
                0x00000678       0x18 build/default/production/_ext/1275709973/folder_close_icon_large.o
 .debug_aranges
                0x00000690       0x18 build/default/production/_ext/1275709973/folder_close_icon_small.o
 .debug_aranges
                0x000006a8       0x18 build/default/production/_ext/1275709973/folder_icon_large.o
 .debug_aranges
                0x000006c0       0x18 build/default/production/_ext/1275709973/folder_icon_small.o
 .debug_aranges
                0x000006d8       0x18 build/default/production/_ext/1275709973/folder_open_icon_large.o
 .debug_aranges
                0x000006f0       0x18 build/default/production/_ext/1275709973/folder_open_icon_small.o
 .debug_aranges
                0x00000708       0x18 build/default/production/_ext/1275709973/let_key.o
 .debug_aranges
                0x00000720       0x18 build/default/production/_ext/1275709973/maximise_icon.o
 .debug_aranges
                0x00000738       0x18 build/default/production/_ext/1275709973/maximise_icon_large.o
 .debug_aranges
                0x00000750       0x18 build/default/production/_ext/1275709973/minimise_icon.o
 .debug_aranges
                0x00000768       0x18 build/default/production/_ext/1275709973/minimise_icon_large.o
 .debug_aranges
                0x00000780       0x18 build/default/production/_ext/1275709973/num_key.o
 .debug_aranges
                0x00000798       0x18 build/default/production/_ext/1275709973/resize_icon.o
 .debug_aranges
                0x000007b0       0x18 build/default/production/_ext/1275709973/resize_icon_large.o
 .debug_aranges
                0x000007c8       0x18 build/default/production/_ext/1275709973/shift_key.o
 .debug_aranges
                0x000007e0       0x18 build/default/production/_ext/1275709973/sym_key.o
 .debug_aranges
                0x000007f8       0x18 build/default/production/_ext/1275709973/tick.o
 .debug_aranges
                0x00000810       0x18 build/default/production/_ext/1275709973/tick_large.o
 .debug_aranges
                0x00000828       0x30 build/default/production/_ext/481733874/dialog_colour_chooser.o
 .debug_aranges
                0x00000858       0x40 build/default/production/_ext/481733874/dialog_date_chooser.o
 .debug_aranges
                0x00000898       0x38 build/default/production/_ext/481733874/dialog_file_chooser.o
 .debug_aranges
                0x000008d0       0x38 build/default/production/_ext/481733874/dialog_number_entry.o
 .debug_aranges
                0x00000908       0x30 build/default/production/_ext/481733874/dialog_one_button.o
 .debug_aranges
                0x00000938       0x38 build/default/production/_ext/481733874/dialog_text_entry.o
 .debug_aranges
                0x00000970       0x38 build/default/production/_ext/481733874/dialog_time_chooser.o
 .debug_aranges
                0x000009a8       0x30 build/default/production/_ext/481733874/dialog_two_button.o
 .debug_aranges
                0x000009d8       0x18 build/default/production/_ext/194049764/font12.o
 .debug_aranges
                0x000009f0       0x18 build/default/production/_ext/194049764/font16.o
 .debug_aranges
                0x00000a08       0x18 build/default/production/_ext/194049764/font20.o
 .debug_aranges
                0x00000a20       0x18 build/default/production/_ext/194049764/font24.o
 .debug_aranges
                0x00000a38       0x18 build/default/production/_ext/194049764/font9.o
 .debug_aranges
                0x00000a50       0x18 build/default/production/_ext/194049764/gl_title_font.o
 .debug_aranges
                0x00000a68       0x28 build/default/production/_ext/1391772861/mf_bwfont.o
 .debug_aranges
                0x00000a90       0x28 build/default/production/_ext/1391772861/mf_encoding.o
 .debug_aranges
                0x00000ab8       0x38 build/default/production/_ext/1391772861/mf_font.o
 .debug_aranges
                0x00000af0       0x48 build/default/production/_ext/1391772861/mf_justify.o
 .debug_aranges
                0x00000b38       0x38 build/default/production/_ext/1391772861/mf_kerning.o
 .debug_aranges
                0x00000b70       0x48 build/default/production/_ext/1391772861/mf_rlefont.o
 .debug_aranges
                0x00000bb8       0x38 build/default/production/_ext/1391772861/mf_scaledfont.o
 .debug_aranges
                0x00000bf0       0x28 build/default/production/_ext/1391772861/mf_wordwrap.o
 .debug_aranges
                0x00000c18       0x18 build/default/production/_ext/2039457820/BLKCHCRY16.o
 .debug_aranges
                0x00000c30       0x18 build/default/production/_ext/2039457820/BLKCHCRY16bw.o
 .debug_aranges
                0x00000c48       0x18 build/default/production/_ext/2039457820/dejavu_sans_12.o
 .debug_aranges
                0x00000c60      0x198 build/default/production/_ext/1494914114/gl.o
 .debug_aranges
                0x00000df8       0x30 build/default/production/_ext/776318040/hal_delay.o
 .debug_aranges
                0x00000e28       0x60 build/default/production/_ext/776318040/hal_lcd.o
 .debug_aranges
                0x00000e88       0x30 build/default/production/_ext/776318040/hal_non_vol.o
 .debug_aranges
                0x00000eb8       0x30 build/default/production/_ext/776318040/hal_timer.o
 .debug_aranges
                0x00000ee8       0x38 build/default/production/_ext/776318040/hal_touch.o
 .debug_aranges
                0x00000f20       0x20 build/default/production/_ext/902303450/hal_init.o
 .debug_aranges
                0x00000f40       0x30 build/default/production/_ext/1494913683/ui_arrow.o
 .debug_aranges
                0x00000f70       0x30 build/default/production/_ext/1494913683/ui_button.o
 .debug_aranges
                0x00000fa0       0x30 build/default/production/_ext/1494913683/ui_check_box.o
 .debug_aranges
                0x00000fd0       0x20 build/default/production/_ext/1494913683/ui_common.o
 .debug_aranges
                0x00000ff0       0x38 build/default/production/_ext/1494913683/ui_keyboard.o
 .debug_aranges
                0x00001028       0x38 build/default/production/_ext/1494913683/ui_keypad.o
 .debug_aranges
                0x00001060       0x30 build/default/production/_ext/1494913683/ui_label.o
 .debug_aranges
                0x00001090       0x30 build/default/production/_ext/1494913683/ui_list_box.o
 .debug_aranges
                0x000010c0       0x30 build/default/production/_ext/1494913683/ui_progress_bar.o
 .debug_aranges
                0x000010f0       0x30 build/default/production/_ext/1494913683/ui_radio_button.o
 .debug_aranges
                0x00001120       0x30 build/default/production/_ext/1494913683/ui_scroll_bar_horiz.o
 .debug_aranges
                0x00001150       0x30 build/default/production/_ext/1494913683/ui_scroll_bar_vert.o
 .debug_aranges
                0x00001180       0x38 build/default/production/_ext/1494913683/ui_tabs.o
 .debug_aranges
                0x000011b8       0x30 build/default/production/_ext/1494913683/ui_text_box.o
 .debug_aranges
                0x000011e8       0x38 build/default/production/_ext/1494913683/ui_tree.o
 .debug_aranges
                0x00001220       0x28 build/default/production/_ext/59636182/calibrate.o
 .debug_aranges
                0x00001248      0x2a0 build/default/production/_ext/59636182/miniwin.o
 .debug_aranges
                0x000014e8       0x20 build/default/production/_ext/59636182/miniwin_debug.o
 .debug_aranges
                0x00001508       0x30 build/default/production/_ext/59636182/miniwin_message_queue.o
 .debug_aranges
                0x00001538       0x58 build/default/production/_ext/59636182/miniwin_settings.o
 .debug_aranges
                0x00001590       0x30 build/default/production/_ext/59636182/miniwin_touch.o
 .debug_aranges
                0x000015c0       0xc0 build/default/production/_ext/59636182/miniwin_tree_container.o
 .debug_aranges
                0x00001680       0x88 build/default/production/_ext/59636182/miniwin_utilities.o
 .debug_aranges
                0x00001708       0x20 build/default/production/_ext/165771656/main.o
 .debug_aranges
                0x00001728       0x40 build/default/production/_ext/165771656/miniwin_user.o
 .debug_aranges
                0x00001768       0x30 build/default/production/_ext/165771656/window_file.o
 .debug_aranges
                0x00001798       0x28 build/default/production/_ext/165771656/window_file_tree.o
 .debug_aranges
                0x000017c0       0x28 build/default/production/_ext/165771656/window_image.o
 .debug_aranges
                0x000017e8       0x30 build/default/production/_ext/165771656/window_selection.o
 .debug_aranges
                0x00001818       0x30 build/default/production/_ext/165771656/window_text.o
 .debug_aranges
                0x00001848       0xa0 build/default/production/_ext/1445274692/app.o
 .debug_aranges
                0x000018e8       0x20 c:/program files/microchip/xc32/v2.50/bin/bin/../../lib/gcc/pic32mx/4.8.3/../../../../pic32mx/lib/fpu64\libpic32.a(default-on-reset.o)
 .debug_aranges
                0x00001908       0x20 c:/program files/microchip/xc32/v2.50/bin/bin/../../lib/gcc/pic32mx/4.8.3/../../../../pic32mx/lib/fpu64\libpic32.a(default-on-bootstrap.o)
 .debug_aranges
                0x00001928       0x20 c:/program files/microchip/xc32/v2.50/bin/bin/../../lib/gcc/pic32mx/4.8.3/../../../../pic32mx/lib/fpu64\libpic32.a(defaultinterrupt.o)
 .debug_aranges
                0x00001948       0xa0 c:/program files/microchip/xc32/v2.50/bin/bin/../../lib/gcc/pic32mx/4.8.3/../../../../pic32mx/lib/fpu64\libc.a(ctypef.o)
 .debug_aranges
                0x000019e8       0x30 c:/program files/microchip/xc32/v2.50/bin/bin/../../lib/gcc/pic32mx/4.8.3/../../../../pic32mx/lib/fpu64\libc.a(malloc.o)
 .debug_aranges
                0x00001a18       0x20 c:/program files/microchip/xc32/v2.50/bin/bin/../../lib/gcc/pic32mx/4.8.3/../../../../pic32mx/lib/fpu64\libc.a(memmove.o)
 .debug_aranges
                0x00001a38       0x20 c:/program files/microchip/xc32/v2.50/bin/bin/../../lib/gcc/pic32mx/4.8.3/../../../../pic32mx/lib/fpu64\libc.a(strncat.o)
 .debug_aranges
                0x00001a58       0x20 c:/program files/microchip/xc32/v2.50/bin/bin/../../lib/gcc/pic32mx/4.8.3/../../../../pic32mx/lib/fpu64\libc.a(strrchr.o)
 .debug_aranges
                0x00001a78       0x20 c:/program files/microchip/xc32/v2.50/bin/bin/../../lib/gcc/pic32mx/4.8.3/../../../../pic32mx/lib/fpu64\libmfd.a(s_cos.o)
 .debug_aranges
                0x00001a98       0x20 c:/program files/microchip/xc32/v2.50/bin/bin/../../lib/gcc/pic32mx/4.8.3/../../../../pic32mx/lib/fpu64\libmfd.a(s_floor.o)
 .debug_aranges
                0x00001ab8       0x20 c:/program files/microchip/xc32/v2.50/bin/bin/../../lib/gcc/pic32mx/4.8.3/../../../../pic32mx/lib/fpu64\libmfd.a(s_sin.o)
 .debug_aranges
                0x00001ad8       0x20 c:/program files/microchip/xc32/v2.50/bin/bin/../../lib/gcc/pic32mx/4.8.3/../../../../pic32mx/lib/fpu64\libmfd.a(w_atan2.o)
 .debug_aranges
                0x00001af8       0x20 c:/program files/microchip/xc32/v2.50/bin/bin/../../lib/gcc/pic32mx/4.8.3/../../../../pic32mx/lib/fpu64\libmfd.a(e_atan2.o)
 .debug_aranges
                0x00001b18       0x20 c:/program files/microchip/xc32/v2.50/bin/bin/../../lib/gcc/pic32mx/4.8.3/../../../../pic32mx/lib/fpu64\libmfd.a(e_rem_pio2.o)
 .debug_aranges
                0x00001b38       0x20 c:/program files/microchip/xc32/v2.50/bin/bin/../../lib/gcc/pic32mx/4.8.3/../../../../pic32mx/lib/fpu64\libmfd.a(k_cos.o)
 .debug_aranges
                0x00001b58       0x20 c:/program files/microchip/xc32/v2.50/bin/bin/../../lib/gcc/pic32mx/4.8.3/../../../../pic32mx/lib/fpu64\libmfd.a(k_sin.o)
 .debug_aranges
                0x00001b78       0x20 c:/program files/microchip/xc32/v2.50/bin/bin/../../lib/gcc/pic32mx/4.8.3/../../../../pic32mx/lib/fpu64\libmfd.a(k_standard.o)
 .debug_aranges
                0x00001b98       0x20 c:/program files/microchip/xc32/v2.50/bin/bin/../../lib/gcc/pic32mx/4.8.3/../../../../pic32mx/lib/fpu64\libmfd.a(s_atan.o)
 .debug_aranges
                0x00001bb8       0x20 c:/program files/microchip/xc32/v2.50/bin/bin/../../lib/gcc/pic32mx/4.8.3/../../../../pic32mx/lib/fpu64\libmfd.a(s_fabs.o)
 .debug_aranges
                0x00001bd8       0x20 c:/program files/microchip/xc32/v2.50/bin/bin/../../lib/gcc/pic32mx/4.8.3/../../../../pic32mx/lib/fpu64\libmfd.a(s_rint.o)
 .debug_aranges
                0x00001bf8       0x40 c:/program files/microchip/xc32/v2.50/bin/bin/../../lib/gcc/pic32mx/4.8.3/../../../../pic32mx/lib/fpu64\libpic32.a(sbrk.o)

.debug_pubnames
 *.elf(.debug_pubnames)
 *(.debug_pubnames)

.debug_info     0x00000000    0x697b1
 *.elf(.debug_info .gnu.linkonce.wi.*)
 *(.debug_info .gnu.linkonce.wi.*)
 .debug_info    0x00000000       0xe3 c:/program files/microchip/xc32/v2.50/bin/bin/../../lib/gcc/pic32mx/4.8.3/../../../../pic32mx/lib/fpu64\software-debug-break.o
 .debug_info    0x000000e3      0x2ac build/default/production/_ext/60165520/plib_clk.o
 .debug_info    0x0000038f      0x6be build/default/production/_ext/1249264884/plib_coretimer.o
 .debug_info    0x00000a4d     0x1805 build/default/production/_ext/1865200349/plib_evic.o
 .debug_info    0x00002252      0x751 build/default/production/_ext/1865254177/plib_gpio.o
 .debug_info    0x000029a3      0xd6d build/default/production/_ext/60176403/plib_nvm.o
 .debug_info    0x00003710      0x72b build/default/production/_ext/298189674/plib_spi2_master.o
 .debug_info    0x00003e3b      0x72b build/default/production/_ext/298189674/plib_spi1_master.o
 .debug_info    0x00004566      0x786 build/default/production/_ext/60181895/plib_tmr2.o
 .debug_info    0x00004cec      0x786 build/default/production/_ext/60181895/plib_tmr3.o
 .debug_info    0x00005472      0x146 build/default/production/_ext/163028504/xc32_monitor.o
 .debug_info    0x000055b8      0x4f3 build/default/production/_ext/1171490990/initialization.o
 .debug_info    0x00005aab      0x22d build/default/production/_ext/1171490990/interrupts.o
 .debug_info    0x00005cd8      0x348 build/default/production/_ext/1171490990/exceptions.o
 .debug_info    0x00006020     0x36a7 build/default/production/_ext/1592496102/ff.o
 .debug_info    0x000096c7      0xf6d build/default/production/_ext/1592496102/sdmm.o
 .debug_info    0x0000a634      0x362 build/default/production/_ext/1592496102/spi_driver.o
 .debug_info    0x0000a996      0x1ab build/default/production/_ext/1275709973/backspace_key.o
 .debug_info    0x0000ab41      0x1a5 build/default/production/_ext/1275709973/close_icon.o
 .debug_info    0x0000ace6      0x1b1 build/default/production/_ext/1275709973/close_icon_large.o
 .debug_info    0x0000ae97      0x1af build/default/production/_ext/1275709973/file_icon_large.o
 .debug_info    0x0000b046      0x1af build/default/production/_ext/1275709973/file_icon_small.o
 .debug_info    0x0000b1f5      0x1bf build/default/production/_ext/1275709973/folder_close_icon_large.o
 .debug_info    0x0000b3b4      0x1bf build/default/production/_ext/1275709973/folder_close_icon_small.o
 .debug_info    0x0000b573      0x1b3 build/default/production/_ext/1275709973/folder_icon_large.o
 .debug_info    0x0000b726      0x1b3 build/default/production/_ext/1275709973/folder_icon_small.o
 .debug_info    0x0000b8d9      0x1bd build/default/production/_ext/1275709973/folder_open_icon_large.o
 .debug_info    0x0000ba96      0x1bd build/default/production/_ext/1275709973/folder_open_icon_small.o
 .debug_info    0x0000bc53      0x19f build/default/production/_ext/1275709973/let_key.o
 .debug_info    0x0000bdf2      0x1ab build/default/production/_ext/1275709973/maximise_icon.o
 .debug_info    0x0000bf9d      0x1b7 build/default/production/_ext/1275709973/maximise_icon_large.o
 .debug_info    0x0000c154      0x1ab build/default/production/_ext/1275709973/minimise_icon.o
 .debug_info    0x0000c2ff      0x1b7 build/default/production/_ext/1275709973/minimise_icon_large.o
 .debug_info    0x0000c4b6      0x19f build/default/production/_ext/1275709973/num_key.o
 .debug_info    0x0000c655      0x1a7 build/default/production/_ext/1275709973/resize_icon.o
 .debug_info    0x0000c7fc      0x1b3 build/default/production/_ext/1275709973/resize_icon_large.o
 .debug_info    0x0000c9af      0x1a3 build/default/production/_ext/1275709973/shift_key.o
 .debug_info    0x0000cb52      0x19f build/default/production/_ext/1275709973/sym_key.o
 .debug_info    0x0000ccf1      0x199 build/default/production/_ext/1275709973/tick.o
 .debug_info    0x0000ce8a      0x1a5 build/default/production/_ext/1275709973/tick_large.o
 .debug_info    0x0000d02f     0x2586 build/default/production/_ext/481733874/dialog_colour_chooser.o
 .debug_info    0x0000f5b5     0x2911 build/default/production/_ext/481733874/dialog_date_chooser.o
 .debug_info    0x00011ec6     0x29ea build/default/production/_ext/481733874/dialog_file_chooser.o
 .debug_info    0x000148b0     0x26dd build/default/production/_ext/481733874/dialog_number_entry.o
 .debug_info    0x00016f8d     0x1d4f build/default/production/_ext/481733874/dialog_one_button.o
 .debug_info    0x00018cdc     0x26b5 build/default/production/_ext/481733874/dialog_text_entry.o
 .debug_info    0x0001b391     0x25b2 build/default/production/_ext/481733874/dialog_time_chooser.o
 .debug_info    0x0001d943     0x1e14 build/default/production/_ext/481733874/dialog_two_button.o
 .debug_info    0x0001f757      0x22a build/default/production/_ext/194049764/font12.o
 .debug_info    0x0001f981      0x22a build/default/production/_ext/194049764/font16.o
 .debug_info    0x0001fbab      0x22a build/default/production/_ext/194049764/font20.o
 .debug_info    0x0001fdd5      0x22a build/default/production/_ext/194049764/font24.o
 .debug_info    0x0001ffff      0x227 build/default/production/_ext/194049764/font9.o
 .debug_info    0x00020226      0x200 build/default/production/_ext/194049764/gl_title_font.o
 .debug_info    0x00020426      0x9e5 build/default/production/_ext/1391772861/mf_bwfont.o
 .debug_info    0x00020e0b      0x260 build/default/production/_ext/1391772861/mf_encoding.o
 .debug_info    0x0002106b      0x6a2 build/default/production/_ext/1391772861/mf_font.o
 .debug_info    0x0002170d      0xf64 build/default/production/_ext/1391772861/mf_justify.o
 .debug_info    0x00022671      0x7c1 build/default/production/_ext/1391772861/mf_kerning.o
 .debug_info    0x00022e32      0xcbd build/default/production/_ext/1391772861/mf_rlefont.o
 .debug_info    0x00023aef      0x6c9 build/default/production/_ext/1391772861/mf_scaledfont.o
 .debug_info    0x000241b8      0xafe build/default/production/_ext/1391772861/mf_wordwrap.o
 .debug_info    0x00024cb6      0x691 build/default/production/_ext/2039457820/BLKCHCRY16.o
 .debug_info    0x00025347      0xf3b build/default/production/_ext/2039457820/BLKCHCRY16bw.o
 .debug_info    0x00026282      0x69e build/default/production/_ext/2039457820/dejavu_sans_12.o
 .debug_info    0x00026920     0x5a03 build/default/production/_ext/1494914114/gl.o
 .debug_info    0x0002c323      0x26e build/default/production/_ext/776318040/hal_delay.o
 .debug_info    0x0002c591     0x18cf build/default/production/_ext/776318040/hal_lcd.o
 .debug_info    0x0002de60      0x475 build/default/production/_ext/776318040/hal_non_vol.o
 .debug_info    0x0002e2d5      0x334 build/default/production/_ext/776318040/hal_timer.o
 .debug_info    0x0002e609      0x760 build/default/production/_ext/776318040/hal_touch.o
 .debug_info    0x0002ed69      0x21b build/default/production/_ext/902303450/hal_init.o
 .debug_info    0x0002ef84     0x1eb5 build/default/production/_ext/1494913683/ui_arrow.o
 .debug_info    0x00030e39     0x1f7e build/default/production/_ext/1494913683/ui_button.o
 .debug_info    0x00032db7     0x1d87 build/default/production/_ext/1494913683/ui_check_box.o
 .debug_info    0x00034b3e      0x21a build/default/production/_ext/1494913683/ui_common.o
 .debug_info    0x00034d58     0x2324 build/default/production/_ext/1494913683/ui_keyboard.o
 .debug_info    0x0003707c     0x1fd6 build/default/production/_ext/1494913683/ui_keypad.o
 .debug_info    0x00039052     0x1b0a build/default/production/_ext/1494913683/ui_label.o
 .debug_info    0x0003ab5c     0x25ce build/default/production/_ext/1494913683/ui_list_box.o
 .debug_info    0x0003d12a     0x1acd build/default/production/_ext/1494913683/ui_progress_bar.o
 .debug_info    0x0003ebf7     0x1e2c build/default/production/_ext/1494913683/ui_radio_button.o
 .debug_info    0x00040a23     0x1c82 build/default/production/_ext/1494913683/ui_scroll_bar_horiz.o
 .debug_info    0x000426a5     0x1c78 build/default/production/_ext/1494913683/ui_scroll_bar_vert.o
 .debug_info    0x0004431d     0x2332 build/default/production/_ext/1494913683/ui_tabs.o
 .debug_info    0x0004664f     0x1b0e build/default/production/_ext/1494913683/ui_text_box.o
 .debug_info    0x0004815d     0x2988 build/default/production/_ext/1494913683/ui_tree.o
 .debug_info    0x0004aae5      0x265 build/default/production/_ext/59636182/calibrate.o
 .debug_info    0x0004ad4a     0xa05b build/default/production/_ext/59636182/miniwin.o
 .debug_info    0x00054da5      0x821 build/default/production/_ext/59636182/miniwin_debug.o
 .debug_info    0x000555c6     0x120b build/default/production/_ext/59636182/miniwin_message_queue.o
 .debug_info    0x000567d1      0x5b1 build/default/production/_ext/59636182/miniwin_settings.o
 .debug_info    0x00056d82      0xc87 build/default/production/_ext/59636182/miniwin_touch.o
 .debug_info    0x00057a09     0x1ce4 build/default/production/_ext/59636182/miniwin_tree_container.o
 .debug_info    0x000596ed      0xdd6 build/default/production/_ext/59636182/miniwin_utilities.o
 .debug_info    0x0005a4c3      0x233 build/default/production/_ext/165771656/main.o
 .debug_info    0x0005a6f6     0x234b build/default/production/_ext/165771656/miniwin_user.o
 .debug_info    0x0005ca41     0x315d build/default/production/_ext/165771656/window_file.o
 .debug_info    0x0005fb9e     0x1be0 build/default/production/_ext/165771656/window_file_tree.o
 .debug_info    0x0006177e     0x1ccf build/default/production/_ext/165771656/window_image.o
 .debug_info    0x0006344d     0x1e51 build/default/production/_ext/165771656/window_selection.o
 .debug_info    0x0006529e     0x1c6e build/default/production/_ext/165771656/window_text.o
 .debug_info    0x00066f0c     0x1653 build/default/production/_ext/1445274692/app.o
 .debug_info    0x0006855f       0xcd c:/program files/microchip/xc32/v2.50/bin/bin/../../lib/gcc/pic32mx/4.8.3/../../../../pic32mx/lib/fpu64\libpic32.a(default-on-reset.o)
 .debug_info    0x0006862c       0xd5 c:/program files/microchip/xc32/v2.50/bin/bin/../../lib/gcc/pic32mx/4.8.3/../../../../pic32mx/lib/fpu64\libpic32.a(default-on-bootstrap.o)
 .debug_info    0x00068701       0xe7 c:/program files/microchip/xc32/v2.50/bin/bin/../../lib/gcc/pic32mx/4.8.3/../../../../pic32mx/lib/fpu64\libpic32.a(defaultinterrupt.o)
 .debug_info    0x000687e8      0x238 c:/program files/microchip/xc32/v2.50/bin/bin/../../lib/gcc/pic32mx/4.8.3/../../../../pic32mx/lib/fpu64\libc.a(ctypef.o)
 .debug_info    0x00068a20       0xf5 c:/program files/microchip/xc32/v2.50/bin/bin/../../lib/gcc/pic32mx/4.8.3/../../../../pic32mx/lib/fpu64\libc.a(malloc.o)
 .debug_info    0x00068b15       0xc6 c:/program files/microchip/xc32/v2.50/bin/bin/../../lib/gcc/pic32mx/4.8.3/../../../../pic32mx/lib/fpu64\libc.a(memmove.o)
 .debug_info    0x00068bdb       0xc6 c:/program files/microchip/xc32/v2.50/bin/bin/../../lib/gcc/pic32mx/4.8.3/../../../../pic32mx/lib/fpu64\libc.a(strncat.o)
 .debug_info    0x00068ca1       0xc6 c:/program files/microchip/xc32/v2.50/bin/bin/../../lib/gcc/pic32mx/4.8.3/../../../../pic32mx/lib/fpu64\libc.a(strrchr.o)
 .debug_info    0x00068d67       0xbc c:/program files/microchip/xc32/v2.50/bin/bin/../../lib/gcc/pic32mx/4.8.3/../../../../pic32mx/lib/fpu64\libmfd.a(s_cos.o)
 .debug_info    0x00068e23       0xc0 c:/program files/microchip/xc32/v2.50/bin/bin/../../lib/gcc/pic32mx/4.8.3/../../../../pic32mx/lib/fpu64\libmfd.a(s_floor.o)
 .debug_info    0x00068ee3       0xbc c:/program files/microchip/xc32/v2.50/bin/bin/../../lib/gcc/pic32mx/4.8.3/../../../../pic32mx/lib/fpu64\libmfd.a(s_sin.o)
 .debug_info    0x00068f9f       0xc0 c:/program files/microchip/xc32/v2.50/bin/bin/../../lib/gcc/pic32mx/4.8.3/../../../../pic32mx/lib/fpu64\libmfd.a(w_atan2.o)
 .debug_info    0x0006905f       0xc8 c:/program files/microchip/xc32/v2.50/bin/bin/../../lib/gcc/pic32mx/4.8.3/../../../../pic32mx/lib/fpu64\libmfd.a(e_atan2.o)
 .debug_info    0x00069127       0xce c:/program files/microchip/xc32/v2.50/bin/bin/../../lib/gcc/pic32mx/4.8.3/../../../../pic32mx/lib/fpu64\libmfd.a(e_rem_pio2.o)
 .debug_info    0x000691f5       0xc3 c:/program files/microchip/xc32/v2.50/bin/bin/../../lib/gcc/pic32mx/4.8.3/../../../../pic32mx/lib/fpu64\libmfd.a(k_cos.o)
 .debug_info    0x000692b8       0xc3 c:/program files/microchip/xc32/v2.50/bin/bin/../../lib/gcc/pic32mx/4.8.3/../../../../pic32mx/lib/fpu64\libmfd.a(k_sin.o)
 .debug_info    0x0006937b       0xcd c:/program files/microchip/xc32/v2.50/bin/bin/../../lib/gcc/pic32mx/4.8.3/../../../../pic32mx/lib/fpu64\libmfd.a(k_standard.o)
 .debug_info    0x00069448       0xbe c:/program files/microchip/xc32/v2.50/bin/bin/../../lib/gcc/pic32mx/4.8.3/../../../../pic32mx/lib/fpu64\libmfd.a(s_atan.o)
 .debug_info    0x00069506       0xbe c:/program files/microchip/xc32/v2.50/bin/bin/../../lib/gcc/pic32mx/4.8.3/../../../../pic32mx/lib/fpu64\libmfd.a(s_fabs.o)
 .debug_info    0x000695c4       0xbc c:/program files/microchip/xc32/v2.50/bin/bin/../../lib/gcc/pic32mx/4.8.3/../../../../pic32mx/lib/fpu64\libmfd.a(s_rint.o)
 .debug_info    0x00069680      0x131 c:/program files/microchip/xc32/v2.50/bin/bin/../../lib/gcc/pic32mx/4.8.3/../../../../pic32mx/lib/fpu64\libpic32.a(sbrk.o)

.debug_abbrev   0x00000000     0x8f90
 *.elf(.debug_abbrev)
 *(.debug_abbrev)
 .debug_abbrev  0x00000000       0x28 c:/program files/microchip/xc32/v2.50/bin/bin/../../lib/gcc/pic32mx/4.8.3/../../../../pic32mx/lib/fpu64\software-debug-break.o
 .debug_abbrev  0x00000028       0xa1 build/default/production/_ext/60165520/plib_clk.o
 .debug_abbrev  0x000000c9      0x141 build/default/production/_ext/1249264884/plib_coretimer.o
 .debug_abbrev  0x0000020a       0xed build/default/production/_ext/1865200349/plib_evic.o
 .debug_abbrev  0x000002f7      0x132 build/default/production/_ext/1865254177/plib_gpio.o
 .debug_abbrev  0x00000429      0x1fd build/default/production/_ext/60176403/plib_nvm.o
 .debug_abbrev  0x00000626      0x120 build/default/production/_ext/298189674/plib_spi2_master.o
 .debug_abbrev  0x00000746      0x120 build/default/production/_ext/298189674/plib_spi1_master.o
 .debug_abbrev  0x00000866      0x183 build/default/production/_ext/60181895/plib_tmr2.o
 .debug_abbrev  0x000009e9      0x183 build/default/production/_ext/60181895/plib_tmr3.o
 .debug_abbrev  0x00000b6c       0x66 build/default/production/_ext/163028504/xc32_monitor.o
 .debug_abbrev  0x00000bd2      0x11f build/default/production/_ext/1171490990/initialization.o
 .debug_abbrev  0x00000cf1       0x57 build/default/production/_ext/1171490990/interrupts.o
 .debug_abbrev  0x00000d48       0x6b build/default/production/_ext/1171490990/exceptions.o
 .debug_abbrev  0x00000db3      0x295 build/default/production/_ext/1592496102/ff.o
 .debug_abbrev  0x00001048      0x261 build/default/production/_ext/1592496102/sdmm.o
 .debug_abbrev  0x000012a9       0xe2 build/default/production/_ext/1592496102/spi_driver.o
 .debug_abbrev  0x0000138b       0x52 build/default/production/_ext/1275709973/backspace_key.o
 .debug_abbrev  0x000013dd       0x52 build/default/production/_ext/1275709973/close_icon.o
 .debug_abbrev  0x0000142f       0x52 build/default/production/_ext/1275709973/close_icon_large.o
 .debug_abbrev  0x00001481       0x52 build/default/production/_ext/1275709973/file_icon_large.o
 .debug_abbrev  0x000014d3       0x52 build/default/production/_ext/1275709973/file_icon_small.o
 .debug_abbrev  0x00001525       0x52 build/default/production/_ext/1275709973/folder_close_icon_large.o
 .debug_abbrev  0x00001577       0x52 build/default/production/_ext/1275709973/folder_close_icon_small.o
 .debug_abbrev  0x000015c9       0x52 build/default/production/_ext/1275709973/folder_icon_large.o
 .debug_abbrev  0x0000161b       0x52 build/default/production/_ext/1275709973/folder_icon_small.o
 .debug_abbrev  0x0000166d       0x52 build/default/production/_ext/1275709973/folder_open_icon_large.o
 .debug_abbrev  0x000016bf       0x52 build/default/production/_ext/1275709973/folder_open_icon_small.o
 .debug_abbrev  0x00001711       0x52 build/default/production/_ext/1275709973/let_key.o
 .debug_abbrev  0x00001763       0x52 build/default/production/_ext/1275709973/maximise_icon.o
 .debug_abbrev  0x000017b5       0x52 build/default/production/_ext/1275709973/maximise_icon_large.o
 .debug_abbrev  0x00001807       0x52 build/default/production/_ext/1275709973/minimise_icon.o
 .debug_abbrev  0x00001859       0x52 build/default/production/_ext/1275709973/minimise_icon_large.o
 .debug_abbrev  0x000018ab       0x52 build/default/production/_ext/1275709973/num_key.o
 .debug_abbrev  0x000018fd       0x52 build/default/production/_ext/1275709973/resize_icon.o
 .debug_abbrev  0x0000194f       0x52 build/default/production/_ext/1275709973/resize_icon_large.o
 .debug_abbrev  0x000019a1       0x52 build/default/production/_ext/1275709973/shift_key.o
 .debug_abbrev  0x000019f3       0x52 build/default/production/_ext/1275709973/sym_key.o
 .debug_abbrev  0x00001a45       0x52 build/default/production/_ext/1275709973/tick.o
 .debug_abbrev  0x00001a97       0x52 build/default/production/_ext/1275709973/tick_large.o
 .debug_abbrev  0x00001ae9      0x240 build/default/production/_ext/481733874/dialog_colour_chooser.o
 .debug_abbrev  0x00001d29      0x294 build/default/production/_ext/481733874/dialog_date_chooser.o
 .debug_abbrev  0x00001fbd      0x2ea build/default/production/_ext/481733874/dialog_file_chooser.o
 .debug_abbrev  0x000022a7      0x2ad build/default/production/_ext/481733874/dialog_number_entry.o
 .debug_abbrev  0x00002554      0x235 build/default/production/_ext/481733874/dialog_one_button.o
 .debug_abbrev  0x00002789      0x2a0 build/default/production/_ext/481733874/dialog_text_entry.o
 .debug_abbrev  0x00002a29      0x253 build/default/production/_ext/481733874/dialog_time_chooser.o
 .debug_abbrev  0x00002c7c      0x22d build/default/production/_ext/481733874/dialog_two_button.o
 .debug_abbrev  0x00002ea9       0x8a build/default/production/_ext/194049764/font12.o
 .debug_abbrev  0x00002f33       0x8a build/default/production/_ext/194049764/font16.o
 .debug_abbrev  0x00002fbd       0x8a build/default/production/_ext/194049764/font20.o
 .debug_abbrev  0x00003047       0x8a build/default/production/_ext/194049764/font24.o
 .debug_abbrev  0x000030d1       0x8a build/default/production/_ext/194049764/font9.o
 .debug_abbrev  0x0000315b       0x5b build/default/production/_ext/194049764/gl_title_font.o
 .debug_abbrev  0x000031b6      0x1b5 build/default/production/_ext/1391772861/mf_bwfont.o
 .debug_abbrev  0x0000336b       0x90 build/default/production/_ext/1391772861/mf_encoding.o
 .debug_abbrev  0x000033fb      0x142 build/default/production/_ext/1391772861/mf_font.o
 .debug_abbrev  0x0000353d      0x2d7 build/default/production/_ext/1391772861/mf_justify.o
 .debug_abbrev  0x00003814      0x19d build/default/production/_ext/1391772861/mf_kerning.o
 .debug_abbrev  0x000039b1      0x262 build/default/production/_ext/1391772861/mf_rlefont.o
 .debug_abbrev  0x00003c13      0x16f build/default/production/_ext/1391772861/mf_scaledfont.o
 .debug_abbrev  0x00003d82      0x230 build/default/production/_ext/1391772861/mf_wordwrap.o
 .debug_abbrev  0x00003fb2       0xc2 build/default/production/_ext/2039457820/BLKCHCRY16.o
 .debug_abbrev  0x00004074       0xc2 build/default/production/_ext/2039457820/BLKCHCRY16bw.o
 .debug_abbrev  0x00004136       0xb3 build/default/production/_ext/2039457820/dejavu_sans_12.o
 .debug_abbrev  0x000041e9      0x440 build/default/production/_ext/1494914114/gl.o
 .debug_abbrev  0x00004629       0xbc build/default/production/_ext/776318040/hal_delay.o
 .debug_abbrev  0x000046e5      0x29f build/default/production/_ext/776318040/hal_lcd.o
 .debug_abbrev  0x00004984      0x13f build/default/production/_ext/776318040/hal_non_vol.o
 .debug_abbrev  0x00004ac3      0x111 build/default/production/_ext/776318040/hal_timer.o
 .debug_abbrev  0x00004bd4      0x173 build/default/production/_ext/776318040/hal_touch.o
 .debug_abbrev  0x00004d47       0x57 build/default/production/_ext/902303450/hal_init.o
 .debug_abbrev  0x00004d9e      0x1f4 build/default/production/_ext/1494913683/ui_arrow.o
 .debug_abbrev  0x00004f92      0x21c build/default/production/_ext/1494913683/ui_button.o
 .debug_abbrev  0x000051ae      0x1f2 build/default/production/_ext/1494913683/ui_check_box.o
 .debug_abbrev  0x000053a0       0x57 build/default/production/_ext/1494913683/ui_common.o
 .debug_abbrev  0x000053f7      0x24d build/default/production/_ext/1494913683/ui_keyboard.o
 .debug_abbrev  0x00005644      0x24d build/default/production/_ext/1494913683/ui_keypad.o
 .debug_abbrev  0x00005891      0x1e2 build/default/production/_ext/1494913683/ui_label.o
 .debug_abbrev  0x00005a73      0x268 build/default/production/_ext/1494913683/ui_list_box.o
 .debug_abbrev  0x00005cdb      0x1cd build/default/production/_ext/1494913683/ui_progress_bar.o
 .debug_abbrev  0x00005ea8      0x1eb build/default/production/_ext/1494913683/ui_radio_button.o
 .debug_abbrev  0x00006093      0x1f1 build/default/production/_ext/1494913683/ui_scroll_bar_horiz.o
 .debug_abbrev  0x00006284      0x1f1 build/default/production/_ext/1494913683/ui_scroll_bar_vert.o
 .debug_abbrev  0x00006475      0x209 build/default/production/_ext/1494913683/ui_tabs.o
 .debug_abbrev  0x0000667e      0x20e build/default/production/_ext/1494913683/ui_text_box.o
 .debug_abbrev  0x0000688c      0x2d7 build/default/production/_ext/1494913683/ui_tree.o
 .debug_abbrev  0x00006b63       0xb8 build/default/production/_ext/59636182/calibrate.o
 .debug_abbrev  0x00006c1b      0x423 build/default/production/_ext/59636182/miniwin.o
 .debug_abbrev  0x0000703e      0x151 build/default/production/_ext/59636182/miniwin_debug.o
 .debug_abbrev  0x0000718f      0x12a build/default/production/_ext/59636182/miniwin_message_queue.o
 .debug_abbrev  0x000072b9      0x132 build/default/production/_ext/59636182/miniwin_settings.o
 .debug_abbrev  0x000073eb      0x1c5 build/default/production/_ext/59636182/miniwin_touch.o
 .debug_abbrev  0x000075b0      0x313 build/default/production/_ext/59636182/miniwin_tree_container.o
 .debug_abbrev  0x000078c3      0x1bd build/default/production/_ext/59636182/miniwin_utilities.o
 .debug_abbrev  0x00007a80       0x7d build/default/production/_ext/165771656/main.o
 .debug_abbrev  0x00007afd      0x283 build/default/production/_ext/165771656/miniwin_user.o
 .debug_abbrev  0x00007d80      0x2f5 build/default/production/_ext/165771656/window_file.o
 .debug_abbrev  0x00008075      0x1de build/default/production/_ext/165771656/window_file_tree.o
 .debug_abbrev  0x00008253      0x244 build/default/production/_ext/165771656/window_image.o
 .debug_abbrev  0x00008497      0x22a build/default/production/_ext/165771656/window_selection.o
 .debug_abbrev  0x000086c1      0x224 build/default/production/_ext/165771656/window_text.o
 .debug_abbrev  0x000088e5      0x318 build/default/production/_ext/1445274692/app.o
 .debug_abbrev  0x00008bfd       0x28 c:/program files/microchip/xc32/v2.50/bin/bin/../../lib/gcc/pic32mx/4.8.3/../../../../pic32mx/lib/fpu64\libpic32.a(default-on-reset.o)
 .debug_abbrev  0x00008c25       0x28 c:/program files/microchip/xc32/v2.50/bin/bin/../../lib/gcc/pic32mx/4.8.3/../../../../pic32mx/lib/fpu64\libpic32.a(default-on-bootstrap.o)
 .debug_abbrev  0x00008c4d       0x28 c:/program files/microchip/xc32/v2.50/bin/bin/../../lib/gcc/pic32mx/4.8.3/../../../../pic32mx/lib/fpu64\libpic32.a(defaultinterrupt.o)
 .debug_abbrev  0x00008c75       0x28 c:/program files/microchip/xc32/v2.50/bin/bin/../../lib/gcc/pic32mx/4.8.3/../../../../pic32mx/lib/fpu64\libc.a(ctypef.o)
 .debug_abbrev  0x00008c9d       0x47 c:/program files/microchip/xc32/v2.50/bin/bin/../../lib/gcc/pic32mx/4.8.3/../../../../pic32mx/lib/fpu64\libc.a(malloc.o)
 .debug_abbrev  0x00008ce4       0x28 c:/program files/microchip/xc32/v2.50/bin/bin/../../lib/gcc/pic32mx/4.8.3/../../../../pic32mx/lib/fpu64\libc.a(memmove.o)
 .debug_abbrev  0x00008d0c       0x28 c:/program files/microchip/xc32/v2.50/bin/bin/../../lib/gcc/pic32mx/4.8.3/../../../../pic32mx/lib/fpu64\libc.a(strncat.o)
 .debug_abbrev  0x00008d34       0x28 c:/program files/microchip/xc32/v2.50/bin/bin/../../lib/gcc/pic32mx/4.8.3/../../../../pic32mx/lib/fpu64\libc.a(strrchr.o)
 .debug_abbrev  0x00008d5c       0x28 c:/program files/microchip/xc32/v2.50/bin/bin/../../lib/gcc/pic32mx/4.8.3/../../../../pic32mx/lib/fpu64\libmfd.a(s_cos.o)
 .debug_abbrev  0x00008d84       0x28 c:/program files/microchip/xc32/v2.50/bin/bin/../../lib/gcc/pic32mx/4.8.3/../../../../pic32mx/lib/fpu64\libmfd.a(s_floor.o)
 .debug_abbrev  0x00008dac       0x28 c:/program files/microchip/xc32/v2.50/bin/bin/../../lib/gcc/pic32mx/4.8.3/../../../../pic32mx/lib/fpu64\libmfd.a(s_sin.o)
 .debug_abbrev  0x00008dd4       0x28 c:/program files/microchip/xc32/v2.50/bin/bin/../../lib/gcc/pic32mx/4.8.3/../../../../pic32mx/lib/fpu64\libmfd.a(w_atan2.o)
 .debug_abbrev  0x00008dfc       0x28 c:/program files/microchip/xc32/v2.50/bin/bin/../../lib/gcc/pic32mx/4.8.3/../../../../pic32mx/lib/fpu64\libmfd.a(e_atan2.o)
 .debug_abbrev  0x00008e24       0x28 c:/program files/microchip/xc32/v2.50/bin/bin/../../lib/gcc/pic32mx/4.8.3/../../../../pic32mx/lib/fpu64\libmfd.a(e_rem_pio2.o)
 .debug_abbrev  0x00008e4c       0x28 c:/program files/microchip/xc32/v2.50/bin/bin/../../lib/gcc/pic32mx/4.8.3/../../../../pic32mx/lib/fpu64\libmfd.a(k_cos.o)
 .debug_abbrev  0x00008e74       0x28 c:/program files/microchip/xc32/v2.50/bin/bin/../../lib/gcc/pic32mx/4.8.3/../../../../pic32mx/lib/fpu64\libmfd.a(k_sin.o)
 .debug_abbrev  0x00008e9c       0x28 c:/program files/microchip/xc32/v2.50/bin/bin/../../lib/gcc/pic32mx/4.8.3/../../../../pic32mx/lib/fpu64\libmfd.a(k_standard.o)
 .debug_abbrev  0x00008ec4       0x28 c:/program files/microchip/xc32/v2.50/bin/bin/../../lib/gcc/pic32mx/4.8.3/../../../../pic32mx/lib/fpu64\libmfd.a(s_atan.o)
 .debug_abbrev  0x00008eec       0x28 c:/program files/microchip/xc32/v2.50/bin/bin/../../lib/gcc/pic32mx/4.8.3/../../../../pic32mx/lib/fpu64\libmfd.a(s_fabs.o)
 .debug_abbrev  0x00008f14       0x28 c:/program files/microchip/xc32/v2.50/bin/bin/../../lib/gcc/pic32mx/4.8.3/../../../../pic32mx/lib/fpu64\libmfd.a(s_rint.o)
 .debug_abbrev  0x00008f3c       0x54 c:/program files/microchip/xc32/v2.50/bin/bin/../../lib/gcc/pic32mx/4.8.3/../../../../pic32mx/lib/fpu64\libpic32.a(sbrk.o)

.debug_line     0x00000000     0xf8f3
 *.elf(.debug_line)
 *(.debug_line)
 .debug_line    0x00000000       0x99 c:/program files/microchip/xc32/v2.50/bin/bin/../../lib/gcc/pic32mx/4.8.3/../../../../pic32mx/lib/fpu64\software-debug-break.o
 .debug_line    0x00000099      0x181 build/default/production/_ext/60165520/plib_clk.o
 .debug_line    0x0000021a      0x223 build/default/production/_ext/1249264884/plib_coretimer.o
 .debug_line    0x0000043d      0x1fb build/default/production/_ext/1865200349/plib_evic.o
 .debug_line    0x00000638      0x225 build/default/production/_ext/1865254177/plib_gpio.o
 .debug_line    0x0000085d      0x2fb build/default/production/_ext/60176403/plib_nvm.o
 .debug_line    0x00000b58      0x2a5 build/default/production/_ext/298189674/plib_spi2_master.o
 .debug_line    0x00000dfd      0x2a5 build/default/production/_ext/298189674/plib_spi1_master.o
 .debug_line    0x000010a2      0x240 build/default/production/_ext/60181895/plib_tmr2.o
 .debug_line    0x000012e2      0x240 build/default/production/_ext/60181895/plib_tmr3.o
 .debug_line    0x00001522       0xc2 build/default/production/_ext/163028504/xc32_monitor.o
 .debug_line    0x000015e4      0x592 build/default/production/_ext/1171490990/initialization.o
 .debug_line    0x00001b76       0xc7 build/default/production/_ext/1171490990/interrupts.o
 .debug_line    0x00001c3d       0xe3 build/default/production/_ext/1171490990/exceptions.o
 .debug_line    0x00001d20      0x9ad build/default/production/_ext/1592496102/ff.o
 .debug_line    0x000026cd      0x36a build/default/production/_ext/1592496102/sdmm.o
 .debug_line    0x00002a37      0x300 build/default/production/_ext/1592496102/spi_driver.o
 .debug_line    0x00002d37       0xb7 build/default/production/_ext/1275709973/backspace_key.o
 .debug_line    0x00002dee       0xb4 build/default/production/_ext/1275709973/close_icon.o
 .debug_line    0x00002ea2       0xba build/default/production/_ext/1275709973/close_icon_large.o
 .debug_line    0x00002f5c       0xb9 build/default/production/_ext/1275709973/file_icon_large.o
 .debug_line    0x00003015       0xb9 build/default/production/_ext/1275709973/file_icon_small.o
 .debug_line    0x000030ce       0xc1 build/default/production/_ext/1275709973/folder_close_icon_large.o
 .debug_line    0x0000318f       0xc1 build/default/production/_ext/1275709973/folder_close_icon_small.o
 .debug_line    0x00003250       0xbb build/default/production/_ext/1275709973/folder_icon_large.o
 .debug_line    0x0000330b       0xbb build/default/production/_ext/1275709973/folder_icon_small.o
 .debug_line    0x000033c6       0xc0 build/default/production/_ext/1275709973/folder_open_icon_large.o
 .debug_line    0x00003486       0xc0 build/default/production/_ext/1275709973/folder_open_icon_small.o
 .debug_line    0x00003546       0xb1 build/default/production/_ext/1275709973/let_key.o
 .debug_line    0x000035f7       0xb7 build/default/production/_ext/1275709973/maximise_icon.o
 .debug_line    0x000036ae       0xbd build/default/production/_ext/1275709973/maximise_icon_large.o
 .debug_line    0x0000376b       0xb7 build/default/production/_ext/1275709973/minimise_icon.o
 .debug_line    0x00003822       0xbd build/default/production/_ext/1275709973/minimise_icon_large.o
 .debug_line    0x000038df       0xb1 build/default/production/_ext/1275709973/num_key.o
 .debug_line    0x00003990       0xb5 build/default/production/_ext/1275709973/resize_icon.o
 .debug_line    0x00003a45       0xbb build/default/production/_ext/1275709973/resize_icon_large.o
 .debug_line    0x00003b00       0xb3 build/default/production/_ext/1275709973/shift_key.o
 .debug_line    0x00003bb3       0xb1 build/default/production/_ext/1275709973/sym_key.o
 .debug_line    0x00003c64       0xae build/default/production/_ext/1275709973/tick.o
 .debug_line    0x00003d12       0xb4 build/default/production/_ext/1275709973/tick_large.o
 .debug_line    0x00003dc6      0x339 build/default/production/_ext/481733874/dialog_colour_chooser.o
 .debug_line    0x000040ff      0x39f build/default/production/_ext/481733874/dialog_date_chooser.o
 .debug_line    0x0000449e      0x507 build/default/production/_ext/481733874/dialog_file_chooser.o
 .debug_line    0x000049a5      0x383 build/default/production/_ext/481733874/dialog_number_entry.o
 .debug_line    0x00004d28      0x2b8 build/default/production/_ext/481733874/dialog_one_button.o
 .debug_line    0x00004fe0      0x372 build/default/production/_ext/481733874/dialog_text_entry.o
 .debug_line    0x00005352      0x344 build/default/production/_ext/481733874/dialog_time_chooser.o
 .debug_line    0x00005696      0x2cc build/default/production/_ext/481733874/dialog_two_button.o
 .debug_line    0x00005962       0xc6 build/default/production/_ext/194049764/font12.o
 .debug_line    0x00005a28       0xc6 build/default/production/_ext/194049764/font16.o
 .debug_line    0x00005aee       0xc6 build/default/production/_ext/194049764/font20.o
 .debug_line    0x00005bb4       0xc6 build/default/production/_ext/194049764/font24.o
 .debug_line    0x00005c7a       0xc5 build/default/production/_ext/194049764/font9.o
 .debug_line    0x00005d3f       0xc2 build/default/production/_ext/194049764/gl_title_font.o
 .debug_line    0x00005e01      0x18c build/default/production/_ext/1391772861/mf_bwfont.o
 .debug_line    0x00005f8d      0x11c build/default/production/_ext/1391772861/mf_encoding.o
 .debug_line    0x000060a9      0x145 build/default/production/_ext/1391772861/mf_font.o
 .debug_line    0x000061ee      0x241 build/default/production/_ext/1391772861/mf_justify.o
 .debug_line    0x0000642f      0x16b build/default/production/_ext/1391772861/mf_kerning.o
 .debug_line    0x0000659a      0x202 build/default/production/_ext/1391772861/mf_rlefont.o
 .debug_line    0x0000679c      0x160 build/default/production/_ext/1391772861/mf_scaledfont.o
 .debug_line    0x000068fc      0x1cf build/default/production/_ext/1391772861/mf_wordwrap.o
 .debug_line    0x00006acb      0x138 build/default/production/_ext/2039457820/BLKCHCRY16.o
 .debug_line    0x00006c03      0x13a build/default/production/_ext/2039457820/BLKCHCRY16bw.o
 .debug_line    0x00006d3d      0x13c build/default/production/_ext/2039457820/dejavu_sans_12.o
 .debug_line    0x00006e79      0xdae build/default/production/_ext/1494914114/gl.o
 .debug_line    0x00007c27        0x0 build/default/production/_ext/1063548019/hal_delay.o
 .debug_line    0x00007c27        0x0 build/default/production/_ext/1063548019/hal_lcd.o
 .debug_line    0x00007c27        0x0 build/default/production/_ext/1063548019/hal_non_vol.o
 .debug_line    0x00007c27        0x0 build/default/production/_ext/1063548019/hal_timer.o
 .debug_line    0x00007c27        0x0 build/default/production/_ext/1063548019/hal_touch.o
 .debug_line    0x00007c27        0x0 build/default/production/_ext/1184163457/hal_delay.o
 .debug_line    0x00007c27        0x0 build/default/production/_ext/1184163457/hal_lcd.o
 .debug_line    0x00007c27        0x0 build/default/production/_ext/1184163457/hal_non_vol.o
 .debug_line    0x00007c27        0x0 build/default/production/_ext/1184163457/hal_timer.o
 .debug_line    0x00007c27        0x0 build/default/production/_ext/1184163457/hal_touch.o
 .debug_line    0x00007c27        0x0 build/default/production/_ext/1305585261/hal_delay.o
 .debug_line    0x00007c27        0x0 build/default/production/_ext/1305585261/hal_lcd.o
 .debug_line    0x00007c27        0x0 build/default/production/_ext/1305585261/hal_non_vol.o
 .debug_line    0x00007c27        0x0 build/default/production/_ext/1305585261/hal_timer.o
 .debug_line    0x00007c27        0x0 build/default/production/_ext/1305585261/hal_touch.o
 .debug_line    0x00007c27        0x0 build/default/production/_ext/818872118/hal_delay.o
 .debug_line    0x00007c27        0x0 build/default/production/_ext/818872118/hal_lcd.o
 .debug_line    0x00007c27        0x0 build/default/production/_ext/818872118/hal_non_vol.o
 .debug_line    0x00007c27        0x0 build/default/production/_ext/818872118/hal_timer.o
 .debug_line    0x00007c27        0x0 build/default/production/_ext/818872118/hal_touch.o
 .debug_line    0x00007c27      0x18a build/default/production/_ext/776318040/hal_delay.o
 .debug_line    0x00007db1      0x556 build/default/production/_ext/776318040/hal_lcd.o
 .debug_line    0x00008307      0x1da build/default/production/_ext/776318040/hal_non_vol.o
 .debug_line    0x000084e1      0x209 build/default/production/_ext/776318040/hal_timer.o
 .debug_line    0x000086ea      0x304 build/default/production/_ext/776318040/hal_touch.o
 .debug_line    0x000089ee        0x0 build/default/production/_ext/1178231276/hal_delay.o
 .debug_line    0x000089ee        0x0 build/default/production/_ext/1178231276/hal_lcd.o
 .debug_line    0x000089ee        0x0 build/default/production/_ext/1178231276/hal_non_vol.o
 .debug_line    0x000089ee        0x0 build/default/production/_ext/1178231276/hal_timer.o
 .debug_line    0x000089ee        0x0 build/default/production/_ext/1178231276/hal_touch.o
 .debug_line    0x000089ee        0x0 build/default/production/_ext/51196508/hal_delay.o
 .debug_line    0x000089ee        0x0 build/default/production/_ext/51196508/hal_lcd.o
 .debug_line    0x000089ee        0x0 build/default/production/_ext/51196508/hal_non_vol.o
 .debug_line    0x000089ee        0x0 build/default/production/_ext/51196508/hal_timer.o
 .debug_line    0x000089ee        0x0 build/default/production/_ext/51196508/hal_touch.o
 .debug_line    0x000089ee        0x0 build/default/production/_ext/1317985835/hal_delay.o
 .debug_line    0x000089ee        0x0 build/default/production/_ext/1317985835/hal_lcd.o
 .debug_line    0x000089ee        0x0 build/default/production/_ext/1317985835/hal_non_vol.o
 .debug_line    0x000089ee        0x0 build/default/production/_ext/1317985835/hal_timer.o
 .debug_line    0x000089ee        0x0 build/default/production/_ext/1317985835/hal_touch.o
 .debug_line    0x000089ee        0x0 build/default/production/_ext/1317985899/hal_delay.o
 .debug_line    0x000089ee        0x0 build/default/production/_ext/1317985899/hal_lcd.o
 .debug_line    0x000089ee        0x0 build/default/production/_ext/1317985899/hal_non_vol.o
 .debug_line    0x000089ee        0x0 build/default/production/_ext/1317985899/hal_timer.o
 .debug_line    0x000089ee        0x0 build/default/production/_ext/1317985899/hal_touch.o
 .debug_line    0x000089ee        0x0 build/default/production/_ext/1357345870/hal_delay.o
 .debug_line    0x000089ee        0x0 build/default/production/_ext/1357345870/hal_lcd.o
 .debug_line    0x000089ee        0x0 build/default/production/_ext/1357345870/hal_non_vol.o
 .debug_line    0x000089ee        0x0 build/default/production/_ext/1357345870/hal_timer.o
 .debug_line    0x000089ee        0x0 build/default/production/_ext/1357345870/hal_touch.o
 .debug_line    0x000089ee       0xc2 build/default/production/_ext/902303450/hal_init.o
 .debug_line    0x00008ab0      0x250 build/default/production/_ext/1494913683/ui_arrow.o
 .debug_line    0x00008d00      0x298 build/default/production/_ext/1494913683/ui_button.o
 .debug_line    0x00008f98      0x278 build/default/production/_ext/1494913683/ui_check_box.o
 .debug_line    0x00009210       0xc4 build/default/production/_ext/1494913683/ui_common.o
 .debug_line    0x000092d4      0x379 build/default/production/_ext/1494913683/ui_keyboard.o
 .debug_line    0x0000964d      0x308 build/default/production/_ext/1494913683/ui_keypad.o
 .debug_line    0x00009955      0x248 build/default/production/_ext/1494913683/ui_label.o
 .debug_line    0x00009b9d      0x315 build/default/production/_ext/1494913683/ui_list_box.o
 .debug_line    0x00009eb2      0x222 build/default/production/_ext/1494913683/ui_progress_bar.o
 .debug_line    0x0000a0d4      0x26b build/default/production/_ext/1494913683/ui_radio_button.o
 .debug_line    0x0000a33f      0x256 build/default/production/_ext/1494913683/ui_scroll_bar_horiz.o
 .debug_line    0x0000a595      0x252 build/default/production/_ext/1494913683/ui_scroll_bar_vert.o
 .debug_line    0x0000a7e7      0x2b1 build/default/production/_ext/1494913683/ui_tabs.o
 .debug_line    0x0000aa98      0x249 build/default/production/_ext/1494913683/ui_text_box.o
 .debug_line    0x0000ace1      0x39f build/default/production/_ext/1494913683/ui_tree.o
 .debug_line    0x0000b080       0xce build/default/production/_ext/59636182/calibrate.o
 .debug_line    0x0000b14e     0x14b4 build/default/production/_ext/59636182/miniwin.o
 .debug_line    0x0000c602      0x1b3 build/default/production/_ext/59636182/miniwin_debug.o
 .debug_line    0x0000c7b5      0x123 build/default/production/_ext/59636182/miniwin_message_queue.o
 .debug_line    0x0000c8d8      0x1ad build/default/production/_ext/59636182/miniwin_settings.o
 .debug_line    0x0000ca85      0x210 build/default/production/_ext/59636182/miniwin_touch.o
 .debug_line    0x0000cc95      0x4c7 build/default/production/_ext/59636182/miniwin_tree_container.o
 .debug_line    0x0000d15c      0x2f1 build/default/production/_ext/59636182/miniwin_utilities.o
 .debug_line    0x0000d44d      0x115 build/default/production/_ext/165771656/main.o
 .debug_line    0x0000d562      0x3c0 build/default/production/_ext/165771656/miniwin_user.o
 .debug_line    0x0000d922      0x4b9 build/default/production/_ext/165771656/window_file.o
 .debug_line    0x0000dddb      0x2cd build/default/production/_ext/165771656/window_file_tree.o
 .debug_line    0x0000e0a8      0x2f4 build/default/production/_ext/165771656/window_image.o
 .debug_line    0x0000e39c      0x276 build/default/production/_ext/165771656/window_selection.o
 .debug_line    0x0000e612      0x2f6 build/default/production/_ext/165771656/window_text.o
 .debug_line    0x0000e908      0x569 build/default/production/_ext/1445274692/app.o
 .debug_line    0x0000ee71       0x93 c:/program files/microchip/xc32/v2.50/bin/bin/../../lib/gcc/pic32mx/4.8.3/../../../../pic32mx/lib/fpu64\libpic32.a(default-on-reset.o)
 .debug_line    0x0000ef04       0x97 c:/program files/microchip/xc32/v2.50/bin/bin/../../lib/gcc/pic32mx/4.8.3/../../../../pic32mx/lib/fpu64\libpic32.a(default-on-bootstrap.o)
 .debug_line    0x0000ef9b       0xa5 c:/program files/microchip/xc32/v2.50/bin/bin/../../lib/gcc/pic32mx/4.8.3/../../../../pic32mx/lib/fpu64\libpic32.a(defaultinterrupt.o)
 .debug_line    0x0000f040       0x7e c:/program files/microchip/xc32/v2.50/bin/bin/../../lib/gcc/pic32mx/4.8.3/../../../../pic32mx/lib/fpu64\libc.a(ctypef.o)
 .debug_line    0x0000f0be       0x7e c:/program files/microchip/xc32/v2.50/bin/bin/../../lib/gcc/pic32mx/4.8.3/../../../../pic32mx/lib/fpu64\libc.a(malloc.o)
 .debug_line    0x0000f13c       0x7f c:/program files/microchip/xc32/v2.50/bin/bin/../../lib/gcc/pic32mx/4.8.3/../../../../pic32mx/lib/fpu64\libc.a(memmove.o)
 .debug_line    0x0000f1bb       0x7f c:/program files/microchip/xc32/v2.50/bin/bin/../../lib/gcc/pic32mx/4.8.3/../../../../pic32mx/lib/fpu64\libc.a(strncat.o)
 .debug_line    0x0000f23a       0x7f c:/program files/microchip/xc32/v2.50/bin/bin/../../lib/gcc/pic32mx/4.8.3/../../../../pic32mx/lib/fpu64\libc.a(strrchr.o)
 .debug_line    0x0000f2b9        0x0 c:/program files/microchip/xc32/v2.50/bin/bin/../../lib/gcc/pic32mx/4.8.3/../../../../pic32mx/lib/fpu64\libc.a(ctype.o)
 .debug_line    0x0000f2b9       0x78 c:/program files/microchip/xc32/v2.50/bin/bin/../../lib/gcc/pic32mx/4.8.3/../../../../pic32mx/lib/fpu64\libmfd.a(s_cos.o)
 .debug_line    0x0000f331       0x7a c:/program files/microchip/xc32/v2.50/bin/bin/../../lib/gcc/pic32mx/4.8.3/../../../../pic32mx/lib/fpu64\libmfd.a(s_floor.o)
 .debug_line    0x0000f3ab       0x78 c:/program files/microchip/xc32/v2.50/bin/bin/../../lib/gcc/pic32mx/4.8.3/../../../../pic32mx/lib/fpu64\libmfd.a(s_sin.o)
 .debug_line    0x0000f423       0x7a c:/program files/microchip/xc32/v2.50/bin/bin/../../lib/gcc/pic32mx/4.8.3/../../../../pic32mx/lib/fpu64\libmfd.a(w_atan2.o)
 .debug_line    0x0000f49d       0x7a c:/program files/microchip/xc32/v2.50/bin/bin/../../lib/gcc/pic32mx/4.8.3/../../../../pic32mx/lib/fpu64\libmfd.a(e_atan2.o)
 .debug_line    0x0000f517       0x7d c:/program files/microchip/xc32/v2.50/bin/bin/../../lib/gcc/pic32mx/4.8.3/../../../../pic32mx/lib/fpu64\libmfd.a(e_rem_pio2.o)
 .debug_line    0x0000f594       0x78 c:/program files/microchip/xc32/v2.50/bin/bin/../../lib/gcc/pic32mx/4.8.3/../../../../pic32mx/lib/fpu64\libmfd.a(k_cos.o)
 .debug_line    0x0000f60c       0x78 c:/program files/microchip/xc32/v2.50/bin/bin/../../lib/gcc/pic32mx/4.8.3/../../../../pic32mx/lib/fpu64\libmfd.a(k_sin.o)
 .debug_line    0x0000f684       0x7d c:/program files/microchip/xc32/v2.50/bin/bin/../../lib/gcc/pic32mx/4.8.3/../../../../pic32mx/lib/fpu64\libmfd.a(k_standard.o)
 .debug_line    0x0000f701       0x79 c:/program files/microchip/xc32/v2.50/bin/bin/../../lib/gcc/pic32mx/4.8.3/../../../../pic32mx/lib/fpu64\libmfd.a(s_atan.o)
 .debug_line    0x0000f77a       0x79 c:/program files/microchip/xc32/v2.50/bin/bin/../../lib/gcc/pic32mx/4.8.3/../../../../pic32mx/lib/fpu64\libmfd.a(s_fabs.o)
 .debug_line    0x0000f7f3       0x79 c:/program files/microchip/xc32/v2.50/bin/bin/../../lib/gcc/pic32mx/4.8.3/../../../../pic32mx/lib/fpu64\libmfd.a(s_rint.o)
 .debug_line    0x0000f86c       0x87 c:/program files/microchip/xc32/v2.50/bin/bin/../../lib/gcc/pic32mx/4.8.3/../../../../pic32mx/lib/fpu64\libpic32.a(sbrk.o)
 .debug_line    0x0000f8f3        0x0 c:/program files/microchip/xc32/v2.50/bin/bin/../../lib/gcc/pic32mx/4.8.3/../../../../pic32mx/lib/fpu64\libpic32.a(errno.o)

.debug_frame    0x00000000     0x42e0
 *.elf(.debug_frame)
 *(.debug_frame)
 .debug_frame   0x00000000       0x20 c:/program files/microchip/xc32/v2.50/bin/bin/../../lib/gcc/pic32mx/4.8.3/../../../../pic32mx/lib/fpu64\software-debug-break.o
 .debug_frame   0x00000020       0x20 build/default/production/_ext/60165520/plib_clk.o
 .debug_frame   0x00000040       0xf4 build/default/production/_ext/1249264884/plib_coretimer.o
 .debug_frame   0x00000134       0x80 build/default/production/_ext/1865200349/plib_evic.o
 .debug_frame   0x000001b4       0xa0 build/default/production/_ext/1865254177/plib_gpio.o
 .debug_frame   0x00000254      0x1ac build/default/production/_ext/60176403/plib_nvm.o
 .debug_frame   0x00000400       0x78 build/default/production/_ext/298189674/plib_spi2_master.o
 .debug_frame   0x00000478       0x78 build/default/production/_ext/298189674/plib_spi1_master.o
 .debug_frame   0x000004f0       0xcc build/default/production/_ext/60181895/plib_tmr2.o
 .debug_frame   0x000005bc       0xcc build/default/production/_ext/60181895/plib_tmr3.o
 .debug_frame   0x00000688       0x30 build/default/production/_ext/163028504/xc32_monitor.o
 .debug_frame   0x000006b8       0x2c build/default/production/_ext/1171490990/initialization.o
 .debug_frame   0x000006e4       0xe8 build/default/production/_ext/1171490990/interrupts.o
 .debug_frame   0x000007cc       0x70 build/default/production/_ext/1171490990/exceptions.o
 .debug_frame   0x0000083c      0x554 build/default/production/_ext/1592496102/ff.o
 .debug_frame   0x00000d90      0x170 build/default/production/_ext/1592496102/sdmm.o
 .debug_frame   0x00000f00       0x74 build/default/production/_ext/1592496102/spi_driver.o
 .debug_frame   0x00000f74       0x80 build/default/production/_ext/481733874/dialog_colour_chooser.o
 .debug_frame   0x00000ff4       0xac build/default/production/_ext/481733874/dialog_date_chooser.o
 .debug_frame   0x000010a0       0xa0 build/default/production/_ext/481733874/dialog_file_chooser.o
 .debug_frame   0x00001140       0x98 build/default/production/_ext/481733874/dialog_number_entry.o
 .debug_frame   0x000011d8       0x78 build/default/production/_ext/481733874/dialog_one_button.o
 .debug_frame   0x00001250       0x90 build/default/production/_ext/481733874/dialog_text_entry.o
 .debug_frame   0x000012e0       0x94 build/default/production/_ext/481733874/dialog_time_chooser.o
 .debug_frame   0x00001374       0x7c build/default/production/_ext/481733874/dialog_two_button.o
 .debug_frame   0x000013f0       0x74 build/default/production/_ext/1391772861/mf_bwfont.o
 .debug_frame   0x00001464       0x30 build/default/production/_ext/1391772861/mf_encoding.o
 .debug_frame   0x00001494       0x88 build/default/production/_ext/1391772861/mf_font.o
 .debug_frame   0x0000151c      0x114 build/default/production/_ext/1391772861/mf_justify.o
 .debug_frame   0x00001630       0x64 build/default/production/_ext/1391772861/mf_kerning.o
 .debug_frame   0x00001694       0xc4 build/default/production/_ext/1391772861/mf_rlefont.o
 .debug_frame   0x00001758       0x80 build/default/production/_ext/1391772861/mf_scaledfont.o
 .debug_frame   0x000017d8       0x50 build/default/production/_ext/1391772861/mf_wordwrap.o
 .debug_frame   0x00001828      0x610 build/default/production/_ext/1494914114/gl.o
 .debug_frame   0x00001e38       0x58 build/default/production/_ext/776318040/hal_delay.o
 .debug_frame   0x00001e90      0x140 build/default/production/_ext/776318040/hal_lcd.o
 .debug_frame   0x00001fd0       0x60 build/default/production/_ext/776318040/hal_non_vol.o
 .debug_frame   0x00002030       0x58 build/default/production/_ext/776318040/hal_timer.o
 .debug_frame   0x00002088       0x6c build/default/production/_ext/776318040/hal_touch.o
 .debug_frame   0x000020f4       0x2c build/default/production/_ext/902303450/hal_init.o
 .debug_frame   0x00002120       0x78 build/default/production/_ext/1494913683/ui_arrow.o
 .debug_frame   0x00002198       0x74 build/default/production/_ext/1494913683/ui_button.o
 .debug_frame   0x0000220c       0x74 build/default/production/_ext/1494913683/ui_check_box.o
 .debug_frame   0x00002280       0x20 build/default/production/_ext/1494913683/ui_common.o
 .debug_frame   0x000022a0       0xa4 build/default/production/_ext/1494913683/ui_keyboard.o
 .debug_frame   0x00002344       0xa0 build/default/production/_ext/1494913683/ui_keypad.o
 .debug_frame   0x000023e4       0x74 build/default/production/_ext/1494913683/ui_label.o
 .debug_frame   0x00002458       0x8c build/default/production/_ext/1494913683/ui_list_box.o
 .debug_frame   0x000024e4       0x70 build/default/production/_ext/1494913683/ui_progress_bar.o
 .debug_frame   0x00002554       0x88 build/default/production/_ext/1494913683/ui_radio_button.o
 .debug_frame   0x000025dc       0x7c build/default/production/_ext/1494913683/ui_scroll_bar_horiz.o
 .debug_frame   0x00002658       0x7c build/default/production/_ext/1494913683/ui_scroll_bar_vert.o
 .debug_frame   0x000026d4       0xa0 build/default/production/_ext/1494913683/ui_tabs.o
 .debug_frame   0x00002774       0x74 build/default/production/_ext/1494913683/ui_text_box.o
 .debug_frame   0x000027e8       0xa8 build/default/production/_ext/1494913683/ui_tree.o
 .debug_frame   0x00002890       0x30 build/default/production/_ext/59636182/calibrate.o
 .debug_frame   0x000028c0      0xa48 build/default/production/_ext/59636182/miniwin.o
 .debug_frame   0x00003308       0x34 build/default/production/_ext/59636182/miniwin_debug.o
 .debug_frame   0x0000333c       0x68 build/default/production/_ext/59636182/miniwin_message_queue.o
 .debug_frame   0x000033a4       0xb4 build/default/production/_ext/59636182/miniwin_settings.o
 .debug_frame   0x00003458       0x7c build/default/production/_ext/59636182/miniwin_touch.o
 .debug_frame   0x000034d4      0x2c0 build/default/production/_ext/59636182/miniwin_tree_container.o
 .debug_frame   0x00003794      0x1ac build/default/production/_ext/59636182/miniwin_utilities.o
 .debug_frame   0x00003940       0x28 build/default/production/_ext/165771656/main.o
 .debug_frame   0x00003968       0xa0 build/default/production/_ext/165771656/miniwin_user.o
 .debug_frame   0x00003a08       0x7c build/default/production/_ext/165771656/window_file.o
 .debug_frame   0x00003a84       0x50 build/default/production/_ext/165771656/window_file_tree.o
 .debug_frame   0x00003ad4       0x60 build/default/production/_ext/165771656/window_image.o
 .debug_frame   0x00003b34       0x70 build/default/production/_ext/165771656/window_selection.o
 .debug_frame   0x00003ba4       0x88 build/default/production/_ext/165771656/window_text.o
 .debug_frame   0x00003c2c      0x1c4 build/default/production/_ext/1445274692/app.o
 .debug_frame   0x00003df0       0x20 c:/program files/microchip/xc32/v2.50/bin/bin/../../lib/gcc/pic32mx/4.8.3/../../../../pic32mx/lib/fpu64\libpic32.a(default-on-reset.o)
 .debug_frame   0x00003e10       0x20 c:/program files/microchip/xc32/v2.50/bin/bin/../../lib/gcc/pic32mx/4.8.3/../../../../pic32mx/lib/fpu64\libpic32.a(default-on-bootstrap.o)
 .debug_frame   0x00003e30       0x20 c:/program files/microchip/xc32/v2.50/bin/bin/../../lib/gcc/pic32mx/4.8.3/../../../../pic32mx/lib/fpu64\libpic32.a(defaultinterrupt.o)
 .debug_frame   0x00003e50      0x120 c:/program files/microchip/xc32/v2.50/bin/bin/../../lib/gcc/pic32mx/4.8.3/../../../../pic32mx/lib/fpu64\libc.a(ctypef.o)
 .debug_frame   0x00003f70       0x7c c:/program files/microchip/xc32/v2.50/bin/bin/../../lib/gcc/pic32mx/4.8.3/../../../../pic32mx/lib/fpu64\libc.a(malloc.o)
 .debug_frame   0x00003fec       0x20 c:/program files/microchip/xc32/v2.50/bin/bin/../../lib/gcc/pic32mx/4.8.3/../../../../pic32mx/lib/fpu64\libc.a(memmove.o)
 .debug_frame   0x0000400c       0x20 c:/program files/microchip/xc32/v2.50/bin/bin/../../lib/gcc/pic32mx/4.8.3/../../../../pic32mx/lib/fpu64\libc.a(strncat.o)
 .debug_frame   0x0000402c       0x34 c:/program files/microchip/xc32/v2.50/bin/bin/../../lib/gcc/pic32mx/4.8.3/../../../../pic32mx/lib/fpu64\libc.a(strrchr.o)
 .debug_frame   0x00004060       0x2c c:/program files/microchip/xc32/v2.50/bin/bin/../../lib/gcc/pic32mx/4.8.3/../../../../pic32mx/lib/fpu64\libmfd.a(s_cos.o)
 .debug_frame   0x0000408c       0x20 c:/program files/microchip/xc32/v2.50/bin/bin/../../lib/gcc/pic32mx/4.8.3/../../../../pic32mx/lib/fpu64\libmfd.a(s_floor.o)
 .debug_frame   0x000040ac       0x2c c:/program files/microchip/xc32/v2.50/bin/bin/../../lib/gcc/pic32mx/4.8.3/../../../../pic32mx/lib/fpu64\libmfd.a(s_sin.o)
 .debug_frame   0x000040d8       0x30 c:/program files/microchip/xc32/v2.50/bin/bin/../../lib/gcc/pic32mx/4.8.3/../../../../pic32mx/lib/fpu64\libmfd.a(w_atan2.o)
 .debug_frame   0x00004108       0x30 c:/program files/microchip/xc32/v2.50/bin/bin/../../lib/gcc/pic32mx/4.8.3/../../../../pic32mx/lib/fpu64\libmfd.a(e_atan2.o)
 .debug_frame   0x00004138       0x20 c:/program files/microchip/xc32/v2.50/bin/bin/../../lib/gcc/pic32mx/4.8.3/../../../../pic32mx/lib/fpu64\libmfd.a(e_rem_pio2.o)
 .debug_frame   0x00004158       0x28 c:/program files/microchip/xc32/v2.50/bin/bin/../../lib/gcc/pic32mx/4.8.3/../../../../pic32mx/lib/fpu64\libmfd.a(k_cos.o)
 .debug_frame   0x00004180       0x20 c:/program files/microchip/xc32/v2.50/bin/bin/../../lib/gcc/pic32mx/4.8.3/../../../../pic32mx/lib/fpu64\libmfd.a(k_sin.o)
 .debug_frame   0x000041a0       0x34 c:/program files/microchip/xc32/v2.50/bin/bin/../../lib/gcc/pic32mx/4.8.3/../../../../pic32mx/lib/fpu64\libmfd.a(k_standard.o)
 .debug_frame   0x000041d4       0x20 c:/program files/microchip/xc32/v2.50/bin/bin/../../lib/gcc/pic32mx/4.8.3/../../../../pic32mx/lib/fpu64\libmfd.a(s_atan.o)
 .debug_frame   0x000041f4       0x20 c:/program files/microchip/xc32/v2.50/bin/bin/../../lib/gcc/pic32mx/4.8.3/../../../../pic32mx/lib/fpu64\libmfd.a(s_fabs.o)
 .debug_frame   0x00004214       0x28 c:/program files/microchip/xc32/v2.50/bin/bin/../../lib/gcc/pic32mx/4.8.3/../../../../pic32mx/lib/fpu64\libmfd.a(s_rint.o)
 .debug_frame   0x0000423c       0xa4 c:/program files/microchip/xc32/v2.50/bin/bin/../../lib/gcc/pic32mx/4.8.3/../../../../pic32mx/lib/fpu64\libpic32.a(sbrk.o)

.debug_str      0x00000000      0xe53
 *.elf(.debug_str)
 *(.debug_str)
 .debug_str     0x00000000        0x0 c:/program files/microchip/xc32/v2.50/bin/bin/../../lib/gcc/pic32mx/4.8.3/../../../../pic32mx/lib/fpu64\software-debug-break.o
 .debug_str     0x00000000        0x0 build/default/production/_ext/60165520/plib_clk.o
 .debug_str     0x00000000       0x14 build/default/production/_ext/1249264884/plib_coretimer.o
 .debug_str     0x00000014        0x7 build/default/production/_ext/1865200349/plib_evic.o
 .debug_str     0x0000001b        0xa build/default/production/_ext/1865254177/plib_gpio.o
 .debug_str     0x00000025       0x29 build/default/production/_ext/60176403/plib_nvm.o
 .debug_str     0x0000004e       0x1b build/default/production/_ext/298189674/plib_spi2_master.o
 .debug_str     0x00000069       0x1b build/default/production/_ext/298189674/plib_spi1_master.o
 .debug_str     0x00000084        0xc build/default/production/_ext/60181895/plib_tmr2.o
 .debug_str     0x00000090        0xc build/default/production/_ext/60181895/plib_tmr3.o
 .debug_str     0x0000009c        0x0 build/default/production/_ext/163028504/xc32_monitor.o
 .debug_str     0x0000009c        0x0 build/default/production/_ext/1171490990/initialization.o
 .debug_str     0x0000009c        0x0 build/default/production/_ext/1171490990/interrupts.o
 .debug_str     0x0000009c        0x0 build/default/production/_ext/1171490990/exceptions.o
 .debug_str     0x0000009c        0xf build/default/production/_ext/1592496102/ff.o
 .debug_str     0x000000ab        0x5 build/default/production/_ext/1592496102/sdmm.o
 .debug_str     0x000000b0        0x0 build/default/production/_ext/1592496102/spi_driver.o
 .debug_str     0x000000b0        0x0 build/default/production/_ext/1275709973/backspace_key.o
 .debug_str     0x000000b0        0x0 build/default/production/_ext/1275709973/close_icon.o
 .debug_str     0x000000b0        0x0 build/default/production/_ext/1275709973/close_icon_large.o
 .debug_str     0x000000b0        0x0 build/default/production/_ext/1275709973/file_icon_large.o
 .debug_str     0x000000b0        0x0 build/default/production/_ext/1275709973/file_icon_small.o
 .debug_str     0x000000b0        0x0 build/default/production/_ext/1275709973/folder_close_icon_large.o
 .debug_str     0x000000b0        0x0 build/default/production/_ext/1275709973/folder_close_icon_small.o
 .debug_str     0x000000b0        0x0 build/default/production/_ext/1275709973/folder_icon_large.o
 .debug_str     0x000000b0        0x0 build/default/production/_ext/1275709973/folder_icon_small.o
 .debug_str     0x000000b0        0x0 build/default/production/_ext/1275709973/folder_open_icon_large.o
 .debug_str     0x000000b0        0x0 build/default/production/_ext/1275709973/folder_open_icon_small.o
 .debug_str     0x000000b0        0x0 build/default/production/_ext/1275709973/let_key.o
 .debug_str     0x000000b0        0x0 build/default/production/_ext/1275709973/maximise_icon.o
 .debug_str     0x000000b0        0x0 build/default/production/_ext/1275709973/maximise_icon_large.o
 .debug_str     0x000000b0        0x0 build/default/production/_ext/1275709973/minimise_icon.o
 .debug_str     0x000000b0        0x0 build/default/production/_ext/1275709973/minimise_icon_large.o
 .debug_str     0x000000b0        0x0 build/default/production/_ext/1275709973/num_key.o
 .debug_str     0x000000b0        0x0 build/default/production/_ext/1275709973/resize_icon.o
 .debug_str     0x000000b0        0x0 build/default/production/_ext/1275709973/resize_icon_large.o
 .debug_str     0x000000b0        0x0 build/default/production/_ext/1275709973/shift_key.o
 .debug_str     0x000000b0        0x0 build/default/production/_ext/1275709973/sym_key.o
 .debug_str     0x000000b0        0x0 build/default/production/_ext/1275709973/tick.o
 .debug_str     0x000000b0        0x0 build/default/production/_ext/1275709973/tick_large.o
 .debug_str     0x000000b0       0x28 build/default/production/_ext/481733874/dialog_colour_chooser.o
 .debug_str     0x000000d8       0x28 build/default/production/_ext/481733874/dialog_date_chooser.o
 .debug_str     0x00000100       0x45 build/default/production/_ext/481733874/dialog_file_chooser.o
 .debug_str     0x00000145       0x38 build/default/production/_ext/481733874/dialog_number_entry.o
 .debug_str     0x0000017d       0x3d build/default/production/_ext/481733874/dialog_one_button.o
 .debug_str     0x000001ba       0x28 build/default/production/_ext/481733874/dialog_text_entry.o
 .debug_str     0x000001e2       0x28 build/default/production/_ext/481733874/dialog_time_chooser.o
 .debug_str     0x0000020a       0x30 build/default/production/_ext/481733874/dialog_two_button.o
 .debug_str     0x0000023a        0x0 build/default/production/_ext/194049764/font12.o
 .debug_str     0x0000023a        0x0 build/default/production/_ext/194049764/font16.o
 .debug_str     0x0000023a        0x0 build/default/production/_ext/194049764/font20.o
 .debug_str     0x0000023a        0x0 build/default/production/_ext/194049764/font24.o
 .debug_str     0x0000023a        0x0 build/default/production/_ext/194049764/font9.o
 .debug_str     0x0000023a        0x0 build/default/production/_ext/194049764/gl_title_font.o
 .debug_str     0x0000023a       0x19 build/default/production/_ext/1391772861/mf_bwfont.o
 .debug_str     0x00000253        0x0 build/default/production/_ext/1391772861/mf_encoding.o
 .debug_str     0x00000253        0xa build/default/production/_ext/1391772861/mf_font.o
 .debug_str     0x0000025d       0x36 build/default/production/_ext/1391772861/mf_justify.o
 .debug_str     0x00000293        0x0 build/default/production/_ext/1391772861/mf_kerning.o
 .debug_str     0x00000293       0x2c build/default/production/_ext/1391772861/mf_rlefont.o
 .debug_str     0x000002bf       0x2d build/default/production/_ext/1391772861/mf_scaledfont.o
 .debug_str     0x000002ec       0x21 build/default/production/_ext/1391772861/mf_wordwrap.o
 .debug_str     0x0000030d        0x0 build/default/production/_ext/2039457820/BLKCHCRY16.o
 .debug_str     0x0000030d        0x0 build/default/production/_ext/2039457820/BLKCHCRY16bw.o
 .debug_str     0x0000030d        0x0 build/default/production/_ext/2039457820/dejavu_sans_12.o
 .debug_str     0x0000030d      0x1e1 build/default/production/_ext/1494914114/gl.o
 .debug_str     0x000004ee        0x0 build/default/production/_ext/1063548019/hal_delay.o
 .debug_str     0x000004ee        0x0 build/default/production/_ext/1063548019/hal_lcd.o
 .debug_str     0x000004ee        0x0 build/default/production/_ext/1063548019/hal_non_vol.o
 .debug_str     0x000004ee        0x0 build/default/production/_ext/1063548019/hal_timer.o
 .debug_str     0x000004ee        0x0 build/default/production/_ext/1063548019/hal_touch.o
 .debug_str     0x000004ee        0x0 build/default/production/_ext/1184163457/hal_delay.o
 .debug_str     0x000004ee        0x0 build/default/production/_ext/1184163457/hal_lcd.o
 .debug_str     0x000004ee        0x0 build/default/production/_ext/1184163457/hal_non_vol.o
 .debug_str     0x000004ee        0x0 build/default/production/_ext/1184163457/hal_timer.o
 .debug_str     0x000004ee        0x0 build/default/production/_ext/1184163457/hal_touch.o
 .debug_str     0x000004ee        0x0 build/default/production/_ext/1305585261/hal_delay.o
 .debug_str     0x000004ee        0x0 build/default/production/_ext/1305585261/hal_lcd.o
 .debug_str     0x000004ee        0x0 build/default/production/_ext/1305585261/hal_non_vol.o
 .debug_str     0x000004ee        0x0 build/default/production/_ext/1305585261/hal_timer.o
 .debug_str     0x000004ee        0x0 build/default/production/_ext/1305585261/hal_touch.o
 .debug_str     0x000004ee        0x0 build/default/production/_ext/818872118/hal_delay.o
 .debug_str     0x000004ee        0x0 build/default/production/_ext/818872118/hal_lcd.o
 .debug_str     0x000004ee        0x0 build/default/production/_ext/818872118/hal_non_vol.o
 .debug_str     0x000004ee        0x0 build/default/production/_ext/818872118/hal_timer.o
 .debug_str     0x000004ee        0x0 build/default/production/_ext/818872118/hal_touch.o
 .debug_str     0x000004ee        0x0 build/default/production/_ext/776318040/hal_delay.o
 .debug_str     0x000004ee       0x88 build/default/production/_ext/776318040/hal_lcd.o
 .debug_str     0x00000576        0x0 build/default/production/_ext/776318040/hal_non_vol.o
 .debug_str     0x00000576        0x0 build/default/production/_ext/776318040/hal_timer.o
 .debug_str     0x00000576        0x0 build/default/production/_ext/776318040/hal_touch.o
 .debug_str     0x00000576        0x0 build/default/production/_ext/1178231276/hal_delay.o
 .debug_str     0x00000576        0x0 build/default/production/_ext/1178231276/hal_lcd.o
 .debug_str     0x00000576        0x0 build/default/production/_ext/1178231276/hal_non_vol.o
 .debug_str     0x00000576        0x0 build/default/production/_ext/1178231276/hal_timer.o
 .debug_str     0x00000576        0x0 build/default/production/_ext/1178231276/hal_touch.o
 .debug_str     0x00000576        0x0 build/default/production/_ext/51196508/hal_delay.o
 .debug_str     0x00000576        0x0 build/default/production/_ext/51196508/hal_lcd.o
 .debug_str     0x00000576        0x0 build/default/production/_ext/51196508/hal_non_vol.o
 .debug_str     0x00000576        0x0 build/default/production/_ext/51196508/hal_timer.o
 .debug_str     0x00000576        0x0 build/default/production/_ext/51196508/hal_touch.o
 .debug_str     0x00000576        0x0 build/default/production/_ext/1317985835/hal_delay.o
 .debug_str     0x00000576        0x0 build/default/production/_ext/1317985835/hal_lcd.o
 .debug_str     0x00000576        0x0 build/default/production/_ext/1317985835/hal_non_vol.o
 .debug_str     0x00000576        0x0 build/default/production/_ext/1317985835/hal_timer.o
 .debug_str     0x00000576        0x0 build/default/production/_ext/1317985835/hal_touch.o
 .debug_str     0x00000576        0x0 build/default/production/_ext/1317985899/hal_delay.o
 .debug_str     0x00000576        0x0 build/default/production/_ext/1317985899/hal_lcd.o
 .debug_str     0x00000576        0x0 build/default/production/_ext/1317985899/hal_non_vol.o
 .debug_str     0x00000576        0x0 build/default/production/_ext/1317985899/hal_timer.o
 .debug_str     0x00000576        0x0 build/default/production/_ext/1317985899/hal_touch.o
 .debug_str     0x00000576        0x0 build/default/production/_ext/1357345870/hal_delay.o
 .debug_str     0x00000576        0x0 build/default/production/_ext/1357345870/hal_lcd.o
 .debug_str     0x00000576        0x0 build/default/production/_ext/1357345870/hal_non_vol.o
 .debug_str     0x00000576        0x0 build/default/production/_ext/1357345870/hal_timer.o
 .debug_str     0x00000576        0x0 build/default/production/_ext/1357345870/hal_touch.o
 .debug_str     0x00000576        0x0 build/default/production/_ext/902303450/hal_init.o
 .debug_str     0x00000576       0x14 build/default/production/_ext/1494913683/ui_arrow.o
 .debug_str     0x0000058a       0x15 build/default/production/_ext/1494913683/ui_button.o
 .debug_str     0x0000059f       0x18 build/default/production/_ext/1494913683/ui_check_box.o
 .debug_str     0x000005b7        0x0 build/default/production/_ext/1494913683/ui_common.o
 .debug_str     0x000005b7       0x17 build/default/production/_ext/1494913683/ui_keyboard.o
 .debug_str     0x000005ce       0x15 build/default/production/_ext/1494913683/ui_keypad.o
 .debug_str     0x000005e3       0x14 build/default/production/_ext/1494913683/ui_label.o
 .debug_str     0x000005f7       0x41 build/default/production/_ext/1494913683/ui_list_box.o
 .debug_str     0x00000638       0x1b build/default/production/_ext/1494913683/ui_progress_bar.o
 .debug_str     0x00000653       0x28 build/default/production/_ext/1494913683/ui_radio_button.o
 .debug_str     0x0000067b       0x1f build/default/production/_ext/1494913683/ui_scroll_bar_horiz.o
 .debug_str     0x0000069a       0x1e build/default/production/_ext/1494913683/ui_scroll_bar_vert.o
 .debug_str     0x000006b8       0x1d build/default/production/_ext/1494913683/ui_tabs.o
 .debug_str     0x000006d5       0x42 build/default/production/_ext/1494913683/ui_text_box.o
 .debug_str     0x00000717       0x67 build/default/production/_ext/1494913683/ui_tree.o
 .debug_str     0x0000077e       0x28 build/default/production/_ext/59636182/calibrate.o
 .debug_str     0x000007a6      0x46e build/default/production/_ext/59636182/miniwin.o
 .debug_str     0x00000c14        0x0 build/default/production/_ext/59636182/miniwin_debug.o
 .debug_str     0x00000c14        0x9 build/default/production/_ext/59636182/miniwin_message_queue.o
 .debug_str     0x00000c1d        0x0 build/default/production/_ext/59636182/miniwin_settings.o
 .debug_str     0x00000c1d        0x9 build/default/production/_ext/59636182/miniwin_touch.o
 .debug_str     0x00000c26       0xd5 build/default/production/_ext/59636182/miniwin_tree_container.o
 .debug_str     0x00000cfb        0x9 build/default/production/_ext/59636182/miniwin_utilities.o
 .debug_str     0x00000d04        0x0 build/default/production/_ext/165771656/main.o
 .debug_str     0x00000d04        0xc build/default/production/_ext/165771656/miniwin_user.o
 .debug_str     0x00000d10       0x7d build/default/production/_ext/165771656/window_file.o
 .debug_str     0x00000d8d        0x9 build/default/production/_ext/165771656/window_file_tree.o
 .debug_str     0x00000d96       0x35 build/default/production/_ext/165771656/window_image.o
 .debug_str     0x00000dcb       0x22 build/default/production/_ext/165771656/window_selection.o
 .debug_str     0x00000ded       0x24 build/default/production/_ext/165771656/window_text.o
 .debug_str     0x00000e11       0x42 build/default/production/_ext/1445274692/app.o
 .debug_str     0x00000e53        0x0 c:/program files/microchip/xc32/v2.50/bin/bin/../../lib/gcc/pic32mx/4.8.3/../../../../pic32mx/lib/fpu64\libpic32.a(default-on-reset.o)
 .debug_str     0x00000e53        0x0 c:/program files/microchip/xc32/v2.50/bin/bin/../../lib/gcc/pic32mx/4.8.3/../../../../pic32mx/lib/fpu64\libpic32.a(default-on-bootstrap.o)
 .debug_str     0x00000e53        0x0 c:/program files/microchip/xc32/v2.50/bin/bin/../../lib/gcc/pic32mx/4.8.3/../../../../pic32mx/lib/fpu64\libpic32.a(defaultinterrupt.o)
 .debug_str     0x00000e53        0x0 c:/program files/microchip/xc32/v2.50/bin/bin/../../lib/gcc/pic32mx/4.8.3/../../../../pic32mx/lib/fpu64\libc.a(ctypef.o)
 .debug_str     0x00000e53        0x0 c:/program files/microchip/xc32/v2.50/bin/bin/../../lib/gcc/pic32mx/4.8.3/../../../../pic32mx/lib/fpu64\libc.a(malloc.o)
 .debug_str     0x00000e53        0x0 c:/program files/microchip/xc32/v2.50/bin/bin/../../lib/gcc/pic32mx/4.8.3/../../../../pic32mx/lib/fpu64\libc.a(memmove.o)
 .debug_str     0x00000e53        0x0 c:/program files/microchip/xc32/v2.50/bin/bin/../../lib/gcc/pic32mx/4.8.3/../../../../pic32mx/lib/fpu64\libc.a(strncat.o)
 .debug_str     0x00000e53        0x0 c:/program files/microchip/xc32/v2.50/bin/bin/../../lib/gcc/pic32mx/4.8.3/../../../../pic32mx/lib/fpu64\libc.a(strrchr.o)
 .debug_str     0x00000e53        0x0 c:/program files/microchip/xc32/v2.50/bin/bin/../../lib/gcc/pic32mx/4.8.3/../../../../pic32mx/lib/fpu64\libc.a(ctype.o)
 .debug_str     0x00000e53        0x0 c:/program files/microchip/xc32/v2.50/bin/bin/../../lib/gcc/pic32mx/4.8.3/../../../../pic32mx/lib/fpu64\libmfd.a(s_cos.o)
 .debug_str     0x00000e53        0x0 c:/program files/microchip/xc32/v2.50/bin/bin/../../lib/gcc/pic32mx/4.8.3/../../../../pic32mx/lib/fpu64\libmfd.a(s_floor.o)
 .debug_str     0x00000e53        0x0 c:/program files/microchip/xc32/v2.50/bin/bin/../../lib/gcc/pic32mx/4.8.3/../../../../pic32mx/lib/fpu64\libmfd.a(s_sin.o)
 .debug_str     0x00000e53        0x0 c:/program files/microchip/xc32/v2.50/bin/bin/../../lib/gcc/pic32mx/4.8.3/../../../../pic32mx/lib/fpu64\libmfd.a(w_atan2.o)
 .debug_str     0x00000e53        0x0 c:/program files/microchip/xc32/v2.50/bin/bin/../../lib/gcc/pic32mx/4.8.3/../../../../pic32mx/lib/fpu64\libmfd.a(e_atan2.o)
 .debug_str     0x00000e53        0x0 c:/program files/microchip/xc32/v2.50/bin/bin/../../lib/gcc/pic32mx/4.8.3/../../../../pic32mx/lib/fpu64\libmfd.a(e_rem_pio2.o)
 .debug_str     0x00000e53        0x0 c:/program files/microchip/xc32/v2.50/bin/bin/../../lib/gcc/pic32mx/4.8.3/../../../../pic32mx/lib/fpu64\libmfd.a(k_cos.o)
 .debug_str     0x00000e53        0x0 c:/program files/microchip/xc32/v2.50/bin/bin/../../lib/gcc/pic32mx/4.8.3/../../../../pic32mx/lib/fpu64\libmfd.a(k_sin.o)
 .debug_str     0x00000e53        0x0 c:/program files/microchip/xc32/v2.50/bin/bin/../../lib/gcc/pic32mx/4.8.3/../../../../pic32mx/lib/fpu64\libmfd.a(k_standard.o)
 .debug_str     0x00000e53        0x0 c:/program files/microchip/xc32/v2.50/bin/bin/../../lib/gcc/pic32mx/4.8.3/../../../../pic32mx/lib/fpu64\libmfd.a(s_atan.o)
 .debug_str     0x00000e53        0x0 c:/program files/microchip/xc32/v2.50/bin/bin/../../lib/gcc/pic32mx/4.8.3/../../../../pic32mx/lib/fpu64\libmfd.a(s_fabs.o)
 .debug_str     0x00000e53        0x0 c:/program files/microchip/xc32/v2.50/bin/bin/../../lib/gcc/pic32mx/4.8.3/../../../../pic32mx/lib/fpu64\libmfd.a(s_rint.o)
 .debug_str     0x00000e53        0x0 c:/program files/microchip/xc32/v2.50/bin/bin/../../lib/gcc/pic32mx/4.8.3/../../../../pic32mx/lib/fpu64\libpic32.a(sbrk.o)
 .debug_str     0x00000e53        0x0 c:/program files/microchip/xc32/v2.50/bin/bin/../../lib/gcc/pic32mx/4.8.3/../../../../pic32mx/lib/fpu64\libpic32.a(errno.o)

.debug_loc      0x00000000    0x1a934
 *.elf(.debug_loc)
 *(.debug_loc)
 .debug_loc     0x00000000       0x42 build/default/production/_ext/1249264884/plib_coretimer.o
 .debug_loc     0x00000042       0x84 build/default/production/_ext/1865200349/plib_evic.o
 .debug_loc     0x000000c6      0x129 build/default/production/_ext/1865254177/plib_gpio.o
 .debug_loc     0x000001ef      0x274 build/default/production/_ext/60176403/plib_nvm.o
 .debug_loc     0x00000463      0x4da build/default/production/_ext/298189674/plib_spi2_master.o
 .debug_loc     0x0000093d      0x4da build/default/production/_ext/298189674/plib_spi1_master.o
 .debug_loc     0x00000e17       0x13 build/default/production/_ext/60181895/plib_tmr2.o
 .debug_loc     0x00000e2a       0x13 build/default/production/_ext/60181895/plib_tmr3.o
 .debug_loc     0x00000e3d       0x21 build/default/production/_ext/1171490990/initialization.o
 .debug_loc     0x00000e5e     0x371d build/default/production/_ext/1592496102/ff.o
 .debug_loc     0x0000457b      0xc11 build/default/production/_ext/1592496102/sdmm.o
 .debug_loc     0x0000518c       0xa5 build/default/production/_ext/1592496102/spi_driver.o
 .debug_loc     0x00005231      0x2c8 build/default/production/_ext/481733874/dialog_colour_chooser.o
 .debug_loc     0x000054f9      0x39c build/default/production/_ext/481733874/dialog_date_chooser.o
 .debug_loc     0x00005895      0x4ac build/default/production/_ext/481733874/dialog_file_chooser.o
 .debug_loc     0x00005d41      0x3a7 build/default/production/_ext/481733874/dialog_number_entry.o
 .debug_loc     0x000060e8      0x28a build/default/production/_ext/481733874/dialog_one_button.o
 .debug_loc     0x00006372      0x384 build/default/production/_ext/481733874/dialog_text_entry.o
 .debug_loc     0x000066f6      0x26c build/default/production/_ext/481733874/dialog_time_chooser.o
 .debug_loc     0x00006962      0x331 build/default/production/_ext/481733874/dialog_two_button.o
 .debug_loc     0x00006c93      0x723 build/default/production/_ext/1391772861/mf_bwfont.o
 .debug_loc     0x000073b6      0x13a build/default/production/_ext/1391772861/mf_encoding.o
 .debug_loc     0x000074f0      0x2ce build/default/production/_ext/1391772861/mf_font.o
 .debug_loc     0x000077be      0xd2b build/default/production/_ext/1391772861/mf_justify.o
 .debug_loc     0x000084e9      0x386 build/default/production/_ext/1391772861/mf_kerning.o
 .debug_loc     0x0000886f      0x92c build/default/production/_ext/1391772861/mf_rlefont.o
 .debug_loc     0x0000919b      0x31c build/default/production/_ext/1391772861/mf_scaledfont.o
 .debug_loc     0x000094b7      0xaf4 build/default/production/_ext/1391772861/mf_wordwrap.o
 .debug_loc     0x00009fab     0x4ab0 build/default/production/_ext/1494914114/gl.o
 .debug_loc     0x0000ea5b       0x42 build/default/production/_ext/776318040/hal_delay.o
 .debug_loc     0x0000ea9d      0xb6a build/default/production/_ext/776318040/hal_lcd.o
 .debug_loc     0x0000f607      0x105 build/default/production/_ext/776318040/hal_non_vol.o
 .debug_loc     0x0000f70c       0x42 build/default/production/_ext/776318040/hal_timer.o
 .debug_loc     0x0000f74e      0x20d build/default/production/_ext/776318040/hal_touch.o
 .debug_loc     0x0000f95b      0x235 build/default/production/_ext/1494913683/ui_arrow.o
 .debug_loc     0x0000fb90      0x21a build/default/production/_ext/1494913683/ui_button.o
 .debug_loc     0x0000fdaa      0x1f0 build/default/production/_ext/1494913683/ui_check_box.o
 .debug_loc     0x0000ff9a       0x4d build/default/production/_ext/1494913683/ui_common.o
 .debug_loc     0x0000ffe7      0x376 build/default/production/_ext/1494913683/ui_keyboard.o
 .debug_loc     0x0001035d      0x3c3 build/default/production/_ext/1494913683/ui_keypad.o
 .debug_loc     0x00010720      0x1d9 build/default/production/_ext/1494913683/ui_label.o
 .debug_loc     0x000108f9      0x57e build/default/production/_ext/1494913683/ui_list_box.o
 .debug_loc     0x00010e77      0x209 build/default/production/_ext/1494913683/ui_progress_bar.o
 .debug_loc     0x00011080      0x415 build/default/production/_ext/1494913683/ui_radio_button.o
 .debug_loc     0x00011495      0x283 build/default/production/_ext/1494913683/ui_scroll_bar_horiz.o
 .debug_loc     0x00011718      0x285 build/default/production/_ext/1494913683/ui_scroll_bar_vert.o
 .debug_loc     0x0001199d      0x57f build/default/production/_ext/1494913683/ui_tabs.o
 .debug_loc     0x00011f1c      0x27e build/default/production/_ext/1494913683/ui_text_box.o
 .debug_loc     0x0001219a      0x550 build/default/production/_ext/1494913683/ui_tree.o
 .debug_loc     0x000126ea       0xc2 build/default/production/_ext/59636182/calibrate.o
 .debug_loc     0x000127ac     0x4864 build/default/production/_ext/59636182/miniwin.o
 .debug_loc     0x00017010       0xa5 build/default/production/_ext/59636182/miniwin_debug.o
 .debug_loc     0x000170b5       0x79 build/default/production/_ext/59636182/miniwin_message_queue.o
 .debug_loc     0x0001712e       0x2c build/default/production/_ext/59636182/miniwin_settings.o
 .debug_loc     0x0001715a      0x10d build/default/production/_ext/59636182/miniwin_touch.o
 .debug_loc     0x00017267     0x156d build/default/production/_ext/59636182/miniwin_tree_container.o
 .debug_loc     0x000187d4      0xce6 build/default/production/_ext/59636182/miniwin_utilities.o
 .debug_loc     0x000194ba       0xf4 build/default/production/_ext/165771656/miniwin_user.o
 .debug_loc     0x000195ae      0x3c3 build/default/production/_ext/165771656/window_file.o
 .debug_loc     0x00019971       0xad build/default/production/_ext/165771656/window_file_tree.o
 .debug_loc     0x00019a1e      0x469 build/default/production/_ext/165771656/window_image.o
 .debug_loc     0x00019e87      0x15a build/default/production/_ext/165771656/window_selection.o
 .debug_loc     0x00019fe1      0x3ec build/default/production/_ext/165771656/window_text.o
 .debug_loc     0x0001a3cd      0x4ef build/default/production/_ext/1445274692/app.o
 .debug_loc     0x0001a8bc       0x78 c:/program files/microchip/xc32/v2.50/bin/bin/../../lib/gcc/pic32mx/4.8.3/../../../../pic32mx/lib/fpu64\libpic32.a(sbrk.o)

.debug_macinfo
 *.elf(.debug_macinfo)
 *(.debug_macinfo)

.debug_weaknames
 *.elf(.debug_weaknames)
 *(.debug_weaknames)

.debug_funcnames
 *.elf(.debug_funcnames)
 *(.debug_funcnames)

.debug_typenames
 *.elf(.debug_typenames)
 *(.debug_typenames)

.debug_varnames
 *.elf(.debug_varnames)
 *(.debug_varnames)

.debug_pubtypes
 *.elf(.debug_pubtypes)
 *(.debug_pubtypes)

.debug_ranges   0x00000000     0x1e70
 *.elf(.debug_ranges)
 *(.debug_ranges)
 .debug_ranges  0x00000000       0x10 c:/program files/microchip/xc32/v2.50/bin/bin/../../lib/gcc/pic32mx/4.8.3/../../../../pic32mx/lib/fpu64\software-debug-break.o
 .debug_ranges  0x00000010       0x10 build/default/production/_ext/60165520/plib_clk.o
 .debug_ranges  0x00000020       0x50 build/default/production/_ext/1249264884/plib_coretimer.o
 .debug_ranges  0x00000070       0x40 build/default/production/_ext/1865200349/plib_evic.o
 .debug_ranges  0x000000b0       0x50 build/default/production/_ext/1865254177/plib_gpio.o
 .debug_ranges  0x00000100       0x88 build/default/production/_ext/60176403/plib_nvm.o
 .debug_ranges  0x00000188       0x30 build/default/production/_ext/298189674/plib_spi2_master.o
 .debug_ranges  0x000001b8       0x30 build/default/production/_ext/298189674/plib_spi1_master.o
 .debug_ranges  0x000001e8       0x60 build/default/production/_ext/60181895/plib_tmr2.o
 .debug_ranges  0x00000248       0x60 build/default/production/_ext/60181895/plib_tmr3.o
 .debug_ranges  0x000002a8       0x18 build/default/production/_ext/163028504/xc32_monitor.o
 .debug_ranges  0x000002c0       0x10 build/default/production/_ext/1171490990/initialization.o
 .debug_ranges  0x000002d0       0x18 build/default/production/_ext/1171490990/interrupts.o
 .debug_ranges  0x000002e8       0x28 build/default/production/_ext/1171490990/exceptions.o
 .debug_ranges  0x00000310      0x1f8 build/default/production/_ext/1592496102/ff.o
 .debug_ranges  0x00000508       0x80 build/default/production/_ext/1592496102/sdmm.o
 .debug_ranges  0x00000588       0x28 build/default/production/_ext/1592496102/spi_driver.o
 .debug_ranges  0x000005b0       0x20 build/default/production/_ext/481733874/dialog_colour_chooser.o
 .debug_ranges  0x000005d0       0x30 build/default/production/_ext/481733874/dialog_date_chooser.o
 .debug_ranges  0x00000600       0x48 build/default/production/_ext/481733874/dialog_file_chooser.o
 .debug_ranges  0x00000648       0x48 build/default/production/_ext/481733874/dialog_number_entry.o
 .debug_ranges  0x00000690       0x20 build/default/production/_ext/481733874/dialog_one_button.o
 .debug_ranges  0x000006b0       0x40 build/default/production/_ext/481733874/dialog_text_entry.o
 .debug_ranges  0x000006f0       0x28 build/default/production/_ext/481733874/dialog_time_chooser.o
 .debug_ranges  0x00000718       0x20 build/default/production/_ext/481733874/dialog_two_button.o
 .debug_ranges  0x00000738       0xa8 build/default/production/_ext/1391772861/mf_bwfont.o
 .debug_ranges  0x000007e0       0x18 build/default/production/_ext/1391772861/mf_encoding.o
 .debug_ranges  0x000007f8       0x28 build/default/production/_ext/1391772861/mf_font.o
 .debug_ranges  0x00000820       0x98 build/default/production/_ext/1391772861/mf_justify.o
 .debug_ranges  0x000008b8       0x40 build/default/production/_ext/1391772861/mf_kerning.o
 .debug_ranges  0x000008f8       0x90 build/default/production/_ext/1391772861/mf_rlefont.o
 .debug_ranges  0x00000988       0x28 build/default/production/_ext/1391772861/mf_scaledfont.o
 .debug_ranges  0x000009b0       0xe8 build/default/production/_ext/1391772861/mf_wordwrap.o
 .debug_ranges  0x00000a98      0x250 build/default/production/_ext/1494914114/gl.o
 .debug_ranges  0x00000ce8       0x20 build/default/production/_ext/776318040/hal_delay.o
 .debug_ranges  0x00000d08       0xc0 build/default/production/_ext/776318040/hal_lcd.o
 .debug_ranges  0x00000dc8       0x20 build/default/production/_ext/776318040/hal_non_vol.o
 .debug_ranges  0x00000de8       0x20 build/default/production/_ext/776318040/hal_timer.o
 .debug_ranges  0x00000e08       0x28 build/default/production/_ext/776318040/hal_touch.o
 .debug_ranges  0x00000e30       0x10 build/default/production/_ext/902303450/hal_init.o
 .debug_ranges  0x00000e40       0x20 build/default/production/_ext/1494913683/ui_arrow.o
 .debug_ranges  0x00000e60       0x20 build/default/production/_ext/1494913683/ui_button.o
 .debug_ranges  0x00000e80       0x20 build/default/production/_ext/1494913683/ui_check_box.o
 .debug_ranges  0x00000ea0       0x10 build/default/production/_ext/1494913683/ui_common.o
 .debug_ranges  0x00000eb0       0x28 build/default/production/_ext/1494913683/ui_keyboard.o
 .debug_ranges  0x00000ed8       0x28 build/default/production/_ext/1494913683/ui_keypad.o
 .debug_ranges  0x00000f00       0x20 build/default/production/_ext/1494913683/ui_label.o
 .debug_ranges  0x00000f20       0x20 build/default/production/_ext/1494913683/ui_list_box.o
 .debug_ranges  0x00000f40       0x20 build/default/production/_ext/1494913683/ui_progress_bar.o
 .debug_ranges  0x00000f60       0x20 build/default/production/_ext/1494913683/ui_radio_button.o
 .debug_ranges  0x00000f80       0x20 build/default/production/_ext/1494913683/ui_scroll_bar_horiz.o
 .debug_ranges  0x00000fa0       0x20 build/default/production/_ext/1494913683/ui_scroll_bar_vert.o
 .debug_ranges  0x00000fc0       0x28 build/default/production/_ext/1494913683/ui_tabs.o
 .debug_ranges  0x00000fe8       0x20 build/default/production/_ext/1494913683/ui_text_box.o
 .debug_ranges  0x00001008       0x40 build/default/production/_ext/1494913683/ui_tree.o
 .debug_ranges  0x00001048       0x18 build/default/production/_ext/59636182/calibrate.o
 .debug_ranges  0x00001060      0x828 build/default/production/_ext/59636182/miniwin.o
 .debug_ranges  0x00001888       0x10 build/default/production/_ext/59636182/miniwin_debug.o
 .debug_ranges  0x00001898       0x20 build/default/production/_ext/59636182/miniwin_message_queue.o
 .debug_ranges  0x000018b8       0x48 build/default/production/_ext/59636182/miniwin_settings.o
 .debug_ranges  0x00001900       0x20 build/default/production/_ext/59636182/miniwin_touch.o
 .debug_ranges  0x00001920       0xb0 build/default/production/_ext/59636182/miniwin_tree_container.o
 .debug_ranges  0x000019d0       0x78 build/default/production/_ext/59636182/miniwin_utilities.o
 .debug_ranges  0x00001a48       0x10 build/default/production/_ext/165771656/main.o
 .debug_ranges  0x00001a58       0x30 build/default/production/_ext/165771656/miniwin_user.o
 .debug_ranges  0x00001a88       0xc8 build/default/production/_ext/165771656/window_file.o
 .debug_ranges  0x00001b50       0x18 build/default/production/_ext/165771656/window_file_tree.o
 .debug_ranges  0x00001b68       0x18 build/default/production/_ext/165771656/window_image.o
 .debug_ranges  0x00001b80       0x20 build/default/production/_ext/165771656/window_selection.o
 .debug_ranges  0x00001ba0       0x40 build/default/production/_ext/165771656/window_text.o
 .debug_ranges  0x00001be0       0x90 build/default/production/_ext/1445274692/app.o
 .debug_ranges  0x00001c70       0x10 c:/program files/microchip/xc32/v2.50/bin/bin/../../lib/gcc/pic32mx/4.8.3/../../../../pic32mx/lib/fpu64\libpic32.a(default-on-reset.o)
 .debug_ranges  0x00001c80       0x10 c:/program files/microchip/xc32/v2.50/bin/bin/../../lib/gcc/pic32mx/4.8.3/../../../../pic32mx/lib/fpu64\libpic32.a(default-on-bootstrap.o)
 .debug_ranges  0x00001c90       0x10 c:/program files/microchip/xc32/v2.50/bin/bin/../../lib/gcc/pic32mx/4.8.3/../../../../pic32mx/lib/fpu64\libpic32.a(defaultinterrupt.o)
 .debug_ranges  0x00001ca0       0x90 c:/program files/microchip/xc32/v2.50/bin/bin/../../lib/gcc/pic32mx/4.8.3/../../../../pic32mx/lib/fpu64\libc.a(ctypef.o)
 .debug_ranges  0x00001d30       0x20 c:/program files/microchip/xc32/v2.50/bin/bin/../../lib/gcc/pic32mx/4.8.3/../../../../pic32mx/lib/fpu64\libc.a(malloc.o)
 .debug_ranges  0x00001d50       0x10 c:/program files/microchip/xc32/v2.50/bin/bin/../../lib/gcc/pic32mx/4.8.3/../../../../pic32mx/lib/fpu64\libc.a(memmove.o)
 .debug_ranges  0x00001d60       0x10 c:/program files/microchip/xc32/v2.50/bin/bin/../../lib/gcc/pic32mx/4.8.3/../../../../pic32mx/lib/fpu64\libc.a(strncat.o)
 .debug_ranges  0x00001d70       0x10 c:/program files/microchip/xc32/v2.50/bin/bin/../../lib/gcc/pic32mx/4.8.3/../../../../pic32mx/lib/fpu64\libc.a(strrchr.o)
 .debug_ranges  0x00001d80       0x10 c:/program files/microchip/xc32/v2.50/bin/bin/../../lib/gcc/pic32mx/4.8.3/../../../../pic32mx/lib/fpu64\libmfd.a(s_cos.o)
 .debug_ranges  0x00001d90       0x10 c:/program files/microchip/xc32/v2.50/bin/bin/../../lib/gcc/pic32mx/4.8.3/../../../../pic32mx/lib/fpu64\libmfd.a(s_floor.o)
 .debug_ranges  0x00001da0       0x10 c:/program files/microchip/xc32/v2.50/bin/bin/../../lib/gcc/pic32mx/4.8.3/../../../../pic32mx/lib/fpu64\libmfd.a(s_sin.o)
 .debug_ranges  0x00001db0       0x10 c:/program files/microchip/xc32/v2.50/bin/bin/../../lib/gcc/pic32mx/4.8.3/../../../../pic32mx/lib/fpu64\libmfd.a(w_atan2.o)
 .debug_ranges  0x00001dc0       0x10 c:/program files/microchip/xc32/v2.50/bin/bin/../../lib/gcc/pic32mx/4.8.3/../../../../pic32mx/lib/fpu64\libmfd.a(e_atan2.o)
 .debug_ranges  0x00001dd0       0x10 c:/program files/microchip/xc32/v2.50/bin/bin/../../lib/gcc/pic32mx/4.8.3/../../../../pic32mx/lib/fpu64\libmfd.a(e_rem_pio2.o)
 .debug_ranges  0x00001de0       0x10 c:/program files/microchip/xc32/v2.50/bin/bin/../../lib/gcc/pic32mx/4.8.3/../../../../pic32mx/lib/fpu64\libmfd.a(k_cos.o)
 .debug_ranges  0x00001df0       0x10 c:/program files/microchip/xc32/v2.50/bin/bin/../../lib/gcc/pic32mx/4.8.3/../../../../pic32mx/lib/fpu64\libmfd.a(k_sin.o)
 .debug_ranges  0x00001e00       0x10 c:/program files/microchip/xc32/v2.50/bin/bin/../../lib/gcc/pic32mx/4.8.3/../../../../pic32mx/lib/fpu64\libmfd.a(k_standard.o)
 .debug_ranges  0x00001e10       0x10 c:/program files/microchip/xc32/v2.50/bin/bin/../../lib/gcc/pic32mx/4.8.3/../../../../pic32mx/lib/fpu64\libmfd.a(s_atan.o)
 .debug_ranges  0x00001e20       0x10 c:/program files/microchip/xc32/v2.50/bin/bin/../../lib/gcc/pic32mx/4.8.3/../../../../pic32mx/lib/fpu64\libmfd.a(s_fabs.o)
 .debug_ranges  0x00001e30       0x10 c:/program files/microchip/xc32/v2.50/bin/bin/../../lib/gcc/pic32mx/4.8.3/../../../../pic32mx/lib/fpu64\libmfd.a(s_rint.o)
 .debug_ranges  0x00001e40       0x30 c:/program files/microchip/xc32/v2.50/bin/bin/../../lib/gcc/pic32mx/4.8.3/../../../../pic32mx/lib/fpu64\libpic32.a(sbrk.o)

.gnu.attributes
                0x00000000       0x10
 *(.gnu.attributes)
 .gnu.attributes
                0x00000000       0x10 c:/program files/microchip/xc32/v2.50/bin/bin/../../lib/gcc/pic32mx/4.8.3/../../../../pic32mx/lib/fpu64\software-debug-break.o
 .gnu.attributes
                0x00000010       0x10 build/default/production/_ext/60165520/plib_clk.o
 .gnu.attributes
                0x00000020       0x10 build/default/production/_ext/1249264884/plib_coretimer.o
 .gnu.attributes
                0x00000030       0x10 build/default/production/_ext/1865200349/plib_evic.o
 .gnu.attributes
                0x00000040       0x10 build/default/production/_ext/1865254177/plib_gpio.o
 .gnu.attributes
                0x00000050       0x10 build/default/production/_ext/60176403/plib_nvm.o
 .gnu.attributes
                0x00000060       0x10 build/default/production/_ext/298189674/plib_spi2_master.o
 .gnu.attributes
                0x00000070       0x10 build/default/production/_ext/298189674/plib_spi1_master.o
 .gnu.attributes
                0x00000080       0x10 build/default/production/_ext/60181895/plib_tmr2.o
 .gnu.attributes
                0x00000090       0x10 build/default/production/_ext/60181895/plib_tmr3.o
 .gnu.attributes
                0x000000a0       0x10 build/default/production/_ext/163028504/xc32_monitor.o
 .gnu.attributes
                0x000000b0       0x10 build/default/production/_ext/1171490990/initialization.o
 .gnu.attributes
                0x000000c0       0x10 build/default/production/_ext/1171490990/interrupts.o
 .gnu.attributes
                0x000000d0       0x10 build/default/production/_ext/1171490990/exceptions.o
 .gnu.attributes
                0x000000e0       0x10 build/default/production/_ext/1592496102/ff.o
 .gnu.attributes
                0x000000f0       0x10 build/default/production/_ext/1592496102/sdmm.o
 .gnu.attributes
                0x00000100       0x10 build/default/production/_ext/1592496102/spi_driver.o
 .gnu.attributes
                0x00000110       0x10 build/default/production/_ext/1275709973/backspace_key.o
 .gnu.attributes
                0x00000120       0x10 build/default/production/_ext/1275709973/close_icon.o
 .gnu.attributes
                0x00000130       0x10 build/default/production/_ext/1275709973/close_icon_large.o
 .gnu.attributes
                0x00000140       0x10 build/default/production/_ext/1275709973/file_icon_large.o
 .gnu.attributes
                0x00000150       0x10 build/default/production/_ext/1275709973/file_icon_small.o
 .gnu.attributes
                0x00000160       0x10 build/default/production/_ext/1275709973/folder_close_icon_large.o
 .gnu.attributes
                0x00000170       0x10 build/default/production/_ext/1275709973/folder_close_icon_small.o
 .gnu.attributes
                0x00000180       0x10 build/default/production/_ext/1275709973/folder_icon_large.o
 .gnu.attributes
                0x00000190       0x10 build/default/production/_ext/1275709973/folder_icon_small.o
 .gnu.attributes
                0x000001a0       0x10 build/default/production/_ext/1275709973/folder_open_icon_large.o
 .gnu.attributes
                0x000001b0       0x10 build/default/production/_ext/1275709973/folder_open_icon_small.o
 .gnu.attributes
                0x000001c0       0x10 build/default/production/_ext/1275709973/let_key.o
 .gnu.attributes
                0x000001d0       0x10 build/default/production/_ext/1275709973/maximise_icon.o
 .gnu.attributes
                0x000001e0       0x10 build/default/production/_ext/1275709973/maximise_icon_large.o
 .gnu.attributes
                0x000001f0       0x10 build/default/production/_ext/1275709973/minimise_icon.o
 .gnu.attributes
                0x00000200       0x10 build/default/production/_ext/1275709973/minimise_icon_large.o
 .gnu.attributes
                0x00000210       0x10 build/default/production/_ext/1275709973/num_key.o
 .gnu.attributes
                0x00000220       0x10 build/default/production/_ext/1275709973/resize_icon.o
 .gnu.attributes
                0x00000230       0x10 build/default/production/_ext/1275709973/resize_icon_large.o
 .gnu.attributes
                0x00000240       0x10 build/default/production/_ext/1275709973/shift_key.o
 .gnu.attributes
                0x00000250       0x10 build/default/production/_ext/1275709973/sym_key.o
 .gnu.attributes
                0x00000260       0x10 build/default/production/_ext/1275709973/tick.o
 .gnu.attributes
                0x00000270       0x10 build/default/production/_ext/1275709973/tick_large.o
 .gnu.attributes
                0x00000280       0x10 build/default/production/_ext/481733874/dialog_colour_chooser.o
 .gnu.attributes
                0x00000290       0x10 build/default/production/_ext/481733874/dialog_date_chooser.o
 .gnu.attributes
                0x000002a0       0x10 build/default/production/_ext/481733874/dialog_file_chooser.o
 .gnu.attributes
                0x000002b0       0x10 build/default/production/_ext/481733874/dialog_number_entry.o
 .gnu.attributes
                0x000002c0       0x10 build/default/production/_ext/481733874/dialog_one_button.o
 .gnu.attributes
                0x000002d0       0x10 build/default/production/_ext/481733874/dialog_text_entry.o
 .gnu.attributes
                0x000002e0       0x10 build/default/production/_ext/481733874/dialog_time_chooser.o
 .gnu.attributes
                0x000002f0       0x10 build/default/production/_ext/481733874/dialog_two_button.o
 .gnu.attributes
                0x00000300       0x10 build/default/production/_ext/194049764/font12.o
 .gnu.attributes
                0x00000310       0x10 build/default/production/_ext/194049764/font16.o
 .gnu.attributes
                0x00000320       0x10 build/default/production/_ext/194049764/font20.o
 .gnu.attributes
                0x00000330       0x10 build/default/production/_ext/194049764/font24.o
 .gnu.attributes
                0x00000340       0x10 build/default/production/_ext/194049764/font9.o
 .gnu.attributes
                0x00000350       0x10 build/default/production/_ext/194049764/gl_title_font.o
 .gnu.attributes
                0x00000360       0x10 build/default/production/_ext/1391772861/mf_bwfont.o
 .gnu.attributes
                0x00000370       0x10 build/default/production/_ext/1391772861/mf_encoding.o
 .gnu.attributes
                0x00000380       0x10 build/default/production/_ext/1391772861/mf_font.o
 .gnu.attributes
                0x00000390       0x10 build/default/production/_ext/1391772861/mf_justify.o
 .gnu.attributes
                0x000003a0       0x10 build/default/production/_ext/1391772861/mf_kerning.o
 .gnu.attributes
                0x000003b0       0x10 build/default/production/_ext/1391772861/mf_rlefont.o
 .gnu.attributes
                0x000003c0       0x10 build/default/production/_ext/1391772861/mf_scaledfont.o
 .gnu.attributes
                0x000003d0       0x10 build/default/production/_ext/1391772861/mf_wordwrap.o
 .gnu.attributes
                0x000003e0       0x10 build/default/production/_ext/2039457820/BLKCHCRY16.o
 .gnu.attributes
                0x000003f0       0x10 build/default/production/_ext/2039457820/BLKCHCRY16bw.o
 .gnu.attributes
                0x00000400       0x10 build/default/production/_ext/2039457820/dejavu_sans_12.o
 .gnu.attributes
                0x00000410       0x10 build/default/production/_ext/1494914114/gl.o
 .gnu.attributes
                0x00000420       0x10 build/default/production/_ext/1063548019/hal_delay.o
 .gnu.attributes
                0x00000430       0x10 build/default/production/_ext/1063548019/hal_lcd.o
 .gnu.attributes
                0x00000440       0x10 build/default/production/_ext/1063548019/hal_non_vol.o
 .gnu.attributes
                0x00000450       0x10 build/default/production/_ext/1063548019/hal_timer.o
 .gnu.attributes
                0x00000460       0x10 build/default/production/_ext/1063548019/hal_touch.o
 .gnu.attributes
                0x00000470       0x10 build/default/production/_ext/1184163457/hal_delay.o
 .gnu.attributes
                0x00000480       0x10 build/default/production/_ext/1184163457/hal_lcd.o
 .gnu.attributes
                0x00000490       0x10 build/default/production/_ext/1184163457/hal_non_vol.o
 .gnu.attributes
                0x000004a0       0x10 build/default/production/_ext/1184163457/hal_timer.o
 .gnu.attributes
                0x000004b0       0x10 build/default/production/_ext/1184163457/hal_touch.o
 .gnu.attributes
                0x000004c0       0x10 build/default/production/_ext/1305585261/hal_delay.o
 .gnu.attributes
                0x000004d0       0x10 build/default/production/_ext/1305585261/hal_lcd.o
 .gnu.attributes
                0x000004e0       0x10 build/default/production/_ext/1305585261/hal_non_vol.o
 .gnu.attributes
                0x000004f0       0x10 build/default/production/_ext/1305585261/hal_timer.o
 .gnu.attributes
                0x00000500       0x10 build/default/production/_ext/1305585261/hal_touch.o
 .gnu.attributes
                0x00000510       0x10 build/default/production/_ext/818872118/hal_delay.o
 .gnu.attributes
                0x00000520       0x10 build/default/production/_ext/818872118/hal_lcd.o
 .gnu.attributes
                0x00000530       0x10 build/default/production/_ext/818872118/hal_non_vol.o
 .gnu.attributes
                0x00000540       0x10 build/default/production/_ext/818872118/hal_timer.o
 .gnu.attributes
                0x00000550       0x10 build/default/production/_ext/818872118/hal_touch.o
 .gnu.attributes
                0x00000560       0x10 build/default/production/_ext/776318040/hal_delay.o
 .gnu.attributes
                0x00000570       0x10 build/default/production/_ext/776318040/hal_lcd.o
 .gnu.attributes
                0x00000580       0x10 build/default/production/_ext/776318040/hal_non_vol.o
 .gnu.attributes
                0x00000590       0x10 build/default/production/_ext/776318040/hal_timer.o
 .gnu.attributes
                0x000005a0       0x10 build/default/production/_ext/776318040/hal_touch.o
 .gnu.attributes
                0x000005b0       0x10 build/default/production/_ext/1178231276/hal_delay.o
 .gnu.attributes
                0x000005c0       0x10 build/default/production/_ext/1178231276/hal_lcd.o
 .gnu.attributes
                0x000005d0       0x10 build/default/production/_ext/1178231276/hal_non_vol.o
 .gnu.attributes
                0x000005e0       0x10 build/default/production/_ext/1178231276/hal_timer.o
 .gnu.attributes
                0x000005f0       0x10 build/default/production/_ext/1178231276/hal_touch.o
 .gnu.attributes
                0x00000600       0x10 build/default/production/_ext/51196508/hal_delay.o
 .gnu.attributes
                0x00000610       0x10 build/default/production/_ext/51196508/hal_lcd.o
 .gnu.attributes
                0x00000620       0x10 build/default/production/_ext/51196508/hal_non_vol.o
 .gnu.attributes
                0x00000630       0x10 build/default/production/_ext/51196508/hal_timer.o
 .gnu.attributes
                0x00000640       0x10 build/default/production/_ext/51196508/hal_touch.o
 .gnu.attributes
                0x00000650       0x10 build/default/production/_ext/1317985835/hal_delay.o
 .gnu.attributes
                0x00000660       0x10 build/default/production/_ext/1317985835/hal_lcd.o
 .gnu.attributes
                0x00000670       0x10 build/default/production/_ext/1317985835/hal_non_vol.o
 .gnu.attributes
                0x00000680       0x10 build/default/production/_ext/1317985835/hal_timer.o
 .gnu.attributes
                0x00000690       0x10 build/default/production/_ext/1317985835/hal_touch.o
 .gnu.attributes
                0x000006a0       0x10 build/default/production/_ext/1317985899/hal_delay.o
 .gnu.attributes
                0x000006b0       0x10 build/default/production/_ext/1317985899/hal_lcd.o
 .gnu.attributes
                0x000006c0       0x10 build/default/production/_ext/1317985899/hal_non_vol.o
 .gnu.attributes
                0x000006d0       0x10 build/default/production/_ext/1317985899/hal_timer.o
 .gnu.attributes
                0x000006e0       0x10 build/default/production/_ext/1317985899/hal_touch.o
 .gnu.attributes
                0x000006f0       0x10 build/default/production/_ext/1357345870/hal_delay.o
 .gnu.attributes
                0x00000700       0x10 build/default/production/_ext/1357345870/hal_lcd.o
 .gnu.attributes
                0x00000710       0x10 build/default/production/_ext/1357345870/hal_non_vol.o
 .gnu.attributes
                0x00000720       0x10 build/default/production/_ext/1357345870/hal_timer.o
 .gnu.attributes
                0x00000730       0x10 build/default/production/_ext/1357345870/hal_touch.o
 .gnu.attributes
                0x00000740       0x10 build/default/production/_ext/902303450/hal_init.o
 .gnu.attributes
                0x00000750       0x10 build/default/production/_ext/1494913683/ui_arrow.o
 .gnu.attributes
                0x00000760       0x10 build/default/production/_ext/1494913683/ui_button.o
 .gnu.attributes
                0x00000770       0x10 build/default/production/_ext/1494913683/ui_check_box.o
 .gnu.attributes
                0x00000780       0x10 build/default/production/_ext/1494913683/ui_common.o
 .gnu.attributes
                0x00000790       0x10 build/default/production/_ext/1494913683/ui_keyboard.o
 .gnu.attributes
                0x000007a0       0x10 build/default/production/_ext/1494913683/ui_keypad.o
 .gnu.attributes
                0x000007b0       0x10 build/default/production/_ext/1494913683/ui_label.o
 .gnu.attributes
                0x000007c0       0x10 build/default/production/_ext/1494913683/ui_list_box.o
 .gnu.attributes
                0x000007d0       0x10 build/default/production/_ext/1494913683/ui_progress_bar.o
 .gnu.attributes
                0x000007e0       0x10 build/default/production/_ext/1494913683/ui_radio_button.o
 .gnu.attributes
                0x000007f0       0x10 build/default/production/_ext/1494913683/ui_scroll_bar_horiz.o
 .gnu.attributes
                0x00000800       0x10 build/default/production/_ext/1494913683/ui_scroll_bar_vert.o
 .gnu.attributes
                0x00000810       0x10 build/default/production/_ext/1494913683/ui_tabs.o
 .gnu.attributes
                0x00000820       0x10 build/default/production/_ext/1494913683/ui_text_box.o
 .gnu.attributes
                0x00000830       0x10 build/default/production/_ext/1494913683/ui_tree.o
 .gnu.attributes
                0x00000840       0x10 build/default/production/_ext/59636182/calibrate.o
 .gnu.attributes
                0x00000850       0x10 build/default/production/_ext/59636182/miniwin.o
 .gnu.attributes
                0x00000860       0x10 build/default/production/_ext/59636182/miniwin_debug.o
 .gnu.attributes
                0x00000870       0x10 build/default/production/_ext/59636182/miniwin_message_queue.o
 .gnu.attributes
                0x00000880       0x10 build/default/production/_ext/59636182/miniwin_settings.o
 .gnu.attributes
                0x00000890       0x10 build/default/production/_ext/59636182/miniwin_touch.o
 .gnu.attributes
                0x000008a0       0x10 build/default/production/_ext/59636182/miniwin_tree_container.o
 .gnu.attributes
                0x000008b0       0x10 build/default/production/_ext/59636182/miniwin_utilities.o
 .gnu.attributes
                0x000008c0       0x10 build/default/production/_ext/165771656/main.o
 .gnu.attributes
                0x000008d0       0x10 build/default/production/_ext/165771656/miniwin_user.o
 .gnu.attributes
                0x000008e0       0x10 build/default/production/_ext/165771656/window_file.o
 .gnu.attributes
                0x000008f0       0x10 build/default/production/_ext/165771656/window_file_tree.o
 .gnu.attributes
                0x00000900       0x10 build/default/production/_ext/165771656/window_image.o
 .gnu.attributes
                0x00000910       0x10 build/default/production/_ext/165771656/window_selection.o
 .gnu.attributes
                0x00000920       0x10 build/default/production/_ext/165771656/window_text.o
 .gnu.attributes
                0x00000930       0x10 build/default/production/_ext/1445274692/app.o
 .gnu.attributes
                0x00000940       0x10 c:/program files/microchip/xc32/v2.50/bin/bin/../../lib/gcc/pic32mx/4.8.3/../../../../pic32mx/lib/fpu64\libpic32.a(default-on-reset.o)
 .gnu.attributes
                0x00000950       0x10 c:/program files/microchip/xc32/v2.50/bin/bin/../../lib/gcc/pic32mx/4.8.3/../../../../pic32mx/lib/fpu64\libpic32.a(default-on-bootstrap.o)
 .gnu.attributes
                0x00000960       0x10 c:/program files/microchip/xc32/v2.50/bin/bin/../../lib/gcc/pic32mx/4.8.3/../../../../pic32mx/lib/fpu64\libpic32.a(defaultinterrupt.o)
 .gnu.attributes
                0x00000970       0x10 c:/program files/microchip/xc32/v2.50/bin/bin/../../lib/gcc/pic32mx/4.8.3/../../../../pic32mx/lib/fpu64\libc.a(ctypef.o)
 .gnu.attributes
                0x00000980       0x10 c:/program files/microchip/xc32/v2.50/bin/bin/../../lib/gcc/pic32mx/4.8.3/../../../../pic32mx/lib/fpu64\libc.a(malloc.o)
 .gnu.attributes
                0x00000990       0x10 c:/program files/microchip/xc32/v2.50/bin/bin/../../lib/gcc/pic32mx/4.8.3/../../../../pic32mx/lib/fpu64\libc.a(memmove.o)
 .gnu.attributes
                0x000009a0       0x10 c:/program files/microchip/xc32/v2.50/bin/bin/../../lib/gcc/pic32mx/4.8.3/../../../../pic32mx/lib/fpu64\libc.a(strncat.o)
 .gnu.attributes
                0x000009b0       0x10 c:/program files/microchip/xc32/v2.50/bin/bin/../../lib/gcc/pic32mx/4.8.3/../../../../pic32mx/lib/fpu64\libc.a(strrchr.o)
 .gnu.attributes
                0x000009c0       0x10 c:/program files/microchip/xc32/v2.50/bin/bin/../../lib/gcc/pic32mx/4.8.3/../../../../pic32mx/lib/fpu64\libc.a(ctype.o)
 .gnu.attributes
                0x000009d0       0x10 c:/program files/microchip/xc32/v2.50/bin/bin/../../lib/gcc/pic32mx/4.8.3/../../../../pic32mx/lib/fpu64\libmfd.a(s_cos.o)
 .gnu.attributes
                0x000009e0       0x10 c:/program files/microchip/xc32/v2.50/bin/bin/../../lib/gcc/pic32mx/4.8.3/../../../../pic32mx/lib/fpu64\libmfd.a(s_floor.o)
 .gnu.attributes
                0x000009f0       0x10 c:/program files/microchip/xc32/v2.50/bin/bin/../../lib/gcc/pic32mx/4.8.3/../../../../pic32mx/lib/fpu64\libmfd.a(s_sin.o)
 .gnu.attributes
                0x00000a00       0x10 c:/program files/microchip/xc32/v2.50/bin/bin/../../lib/gcc/pic32mx/4.8.3/../../../../pic32mx/lib/fpu64\libmfd.a(w_atan2.o)
 .gnu.attributes
                0x00000a10       0x10 c:/program files/microchip/xc32/v2.50/bin/bin/../../lib/gcc/pic32mx/4.8.3/../../../../pic32mx/lib/fpu64\libmfd.a(e_atan2.o)
 .gnu.attributes
                0x00000a20       0x10 c:/program files/microchip/xc32/v2.50/bin/bin/../../lib/gcc/pic32mx/4.8.3/../../../../pic32mx/lib/fpu64\libmfd.a(e_rem_pio2.o)
 .gnu.attributes
                0x00000a30       0x10 c:/program files/microchip/xc32/v2.50/bin/bin/../../lib/gcc/pic32mx/4.8.3/../../../../pic32mx/lib/fpu64\libmfd.a(k_cos.o)
 .gnu.attributes
                0x00000a40       0x10 c:/program files/microchip/xc32/v2.50/bin/bin/../../lib/gcc/pic32mx/4.8.3/../../../../pic32mx/lib/fpu64\libmfd.a(k_sin.o)
 .gnu.attributes
                0x00000a50       0x10 c:/program files/microchip/xc32/v2.50/bin/bin/../../lib/gcc/pic32mx/4.8.3/../../../../pic32mx/lib/fpu64\libmfd.a(k_standard.o)
 .gnu.attributes
                0x00000a60       0x10 c:/program files/microchip/xc32/v2.50/bin/bin/../../lib/gcc/pic32mx/4.8.3/../../../../pic32mx/lib/fpu64\libmfd.a(s_atan.o)
 .gnu.attributes
                0x00000a70       0x10 c:/program files/microchip/xc32/v2.50/bin/bin/../../lib/gcc/pic32mx/4.8.3/../../../../pic32mx/lib/fpu64\libmfd.a(s_fabs.o)
 .gnu.attributes
                0x00000a80       0x10 c:/program files/microchip/xc32/v2.50/bin/bin/../../lib/gcc/pic32mx/4.8.3/../../../../pic32mx/lib/fpu64\libmfd.a(s_rint.o)
 .gnu.attributes
                0x00000a90       0x10 c:/program files/microchip/xc32/v2.50/bin/bin/../../lib/gcc/pic32mx/4.8.3/../../../../pic32mx/lib/fpu64\libpic32.a(sbrk.o)
 .gnu.attributes
                0x00000aa0       0x10 c:/program files/microchip/xc32/v2.50/bin/bin/../../lib/gcc/pic32mx/4.8.3/../../../../pic32mx/lib/fpu64\libpic32.a(errno.o)
                0x9d000000                PROVIDE (__pic32_init_cache_program_base_addr, 0x9d000000)
                0x80000000                PROVIDE (__pic32_init_cache_data_base_addr, 0x80000000)
                0xd0000000                PROVIDE (__pic32_init_sqi_kseg2_virtual_base_addr, 0xd0000000)
                0x30000000                PROVIDE (__pic32_init_sqi_kseg2_physical_base_addr, 0x30000000)
                0x0000001f                PROVIDE (__pic32_init_sqi_kseg2_entrylo0_bitset, 0x1f)
                0xd0000000                __pic32_tlb_0_entryhi = __pic32_init_sqi_kseg2_virtual_base_addr
                0x00c0001f                __pic32_tlb_0_entrylo0 = ((__pic32_init_sqi_kseg2_physical_base_addr >> 0x6) | __pic32_init_sqi_kseg2_entrylo0_bitset)
                0x00c4001f                __pic32_tlb_0_entrylo1 = (__pic32_tlb_0_entrylo0 | ((__pic32_init_sqi_kseg2_physical_base_addr + 0x1000000) >> 0x6))
                0xd2000000                __pic32_tlb_1_entryhi = (__pic32_init_sqi_kseg2_virtual_base_addr + 0x2000000)
                0x00c8001f                __pic32_tlb_1_entrylo0 = (((__pic32_init_sqi_kseg2_physical_base_addr + 0x2000000) >> 0x6) | __pic32_init_sqi_kseg2_entrylo0_bitset)
                0x00cc001f                __pic32_tlb_1_entrylo1 = (__pic32_tlb_1_entrylo0 | 0x40000)
                0xf0000000                PROVIDE (__pic32_init_sqi_kseg3_virtual_base_addr, 0xf0000000)
                0x30000000                PROVIDE (__pic32_init_sqi_kseg3_physical_base_addr, 0x30000000)
                0x00000017                PROVIDE (__pic32_init_sqi_kseg3_entrylo0_bitset, 0x17)
                0xf0000000                __pic32_tlb_2_entryhi = __pic32_init_sqi_kseg3_virtual_base_addr
                0x00c00017                __pic32_tlb_2_entrylo0 = ((__pic32_init_sqi_kseg3_physical_base_addr >> 0x6) | __pic32_init_sqi_kseg3_entrylo0_bitset)
                0x00c40017                __pic32_tlb_2_entrylo1 = (__pic32_tlb_2_entrylo0 | ((__pic32_init_sqi_kseg3_physical_base_addr + 0x1000000) >> 0x6))
                0xf2000000                __pic32_tlb_3_entryhi = (__pic32_init_sqi_kseg3_virtual_base_addr + 0x2000000)
                0x00c80017                __pic32_tlb_3_entrylo0 = (((__pic32_init_sqi_kseg3_physical_base_addr + 0x2000000) >> 0x6) | __pic32_init_sqi_kseg3_entrylo0_bitset)
                0x00cc0017                __pic32_tlb_3_entrylo1 = (__pic32_tlb_3_entrylo0 | 0x40000)
                0xc0000000                PROVIDE (__pic32_init_ebi_kseg2_virtual_base_addr, 0xc0000000)
                0x20000000                PROVIDE (__pic32_init_ebi_kseg2_physical_base_addr, 0x20000000)
                0x0000001f                PROVIDE (__pic32_init_ebi_kseg2_entrylo0_bitset, 0x1f)
                0xc0000000                __pic32_tlb_4_entryhi = __pic32_init_ebi_kseg2_virtual_base_addr
                0x0080001f                __pic32_tlb_4_entrylo0 = ((__pic32_init_ebi_kseg2_physical_base_addr >> 0x6) | __pic32_init_ebi_kseg2_entrylo0_bitset)
                0x0084001f                __pic32_tlb_4_entrylo1 = (__pic32_tlb_4_entrylo0 | ((__pic32_init_ebi_kseg2_physical_base_addr + 0x1000000) >> 0x6))
                0xc2000000                __pic32_tlb_5_entryhi = (__pic32_init_ebi_kseg2_virtual_base_addr + 0x2000000)
                0x0088001f                __pic32_tlb_5_entrylo0 = (((__pic32_init_ebi_kseg2_physical_base_addr + 0x2000000) >> 0x6) | __pic32_init_ebi_kseg2_entrylo0_bitset)
                0x008c001f                __pic32_tlb_5_entrylo1 = (__pic32_tlb_5_entrylo0 | 0x40000)
                0xe0000000                PROVIDE (__pic32_init_ebi_kseg3_virtual_base_addr, 0xe0000000)
                0x20000000                PROVIDE (__pic32_init_ebi_kseg3_physical_base_addr, 0x20000000)
                0x00000017                PROVIDE (__pic32_init_ebi_kseg3_entrylo0_bitset, 0x17)
                0xe0000000                __pic32_tlb_6_entryhi = __pic32_init_ebi_kseg3_virtual_base_addr
                0x00800017                __pic32_tlb_6_entrylo0 = ((__pic32_init_ebi_kseg3_physical_base_addr >> 0x6) | __pic32_init_ebi_kseg3_entrylo0_bitset)
                0x00840017                __pic32_tlb_6_entrylo1 = (__pic32_tlb_6_entrylo0 | ((__pic32_init_ebi_kseg3_physical_base_addr + 0x1000000) >> 0x6))
                0xe2000000                __pic32_tlb_7_entryhi = (__pic32_init_ebi_kseg3_virtual_base_addr + 0x2000000)
                0x00880017                __pic32_tlb_7_entrylo0 = (((__pic32_init_ebi_kseg3_physical_base_addr + 0x2000000) >> 0x6) | __pic32_init_ebi_kseg3_entrylo0_bitset)
                0x008c0017                __pic32_tlb_7_entrylo1 = (__pic32_tlb_7_entrylo0 | 0x40000)

.tlb_init_values
                0xbfc00670       0x60
                0xbfc00670                . = ALIGN (0x4)
                0xbfc00670                __pic32_tlb_init_values_begin = ABSOLUTE (.)
                0xbfc00670        0x4 LONG 0xd0000000 __pic32_tlb_0_entryhi
                0xbfc00674        0x4 LONG 0xc0001f __pic32_tlb_0_entrylo0
                0xbfc00678        0x4 LONG 0xc4001f __pic32_tlb_0_entrylo1
                0xbfc0067c        0x4 LONG 0xd2000000 __pic32_tlb_1_entryhi
                0xbfc00680        0x4 LONG 0xc8001f __pic32_tlb_1_entrylo0
                0xbfc00684        0x4 LONG 0xcc001f __pic32_tlb_1_entrylo1
                0xbfc00688        0x4 LONG 0xf0000000 __pic32_tlb_2_entryhi
                0xbfc0068c        0x4 LONG 0xc00017 __pic32_tlb_2_entrylo0
                0xbfc00690        0x4 LONG 0xc40017 __pic32_tlb_2_entrylo1
                0xbfc00694        0x4 LONG 0xf2000000 __pic32_tlb_3_entryhi
                0xbfc00698        0x4 LONG 0xc80017 __pic32_tlb_3_entrylo0
                0xbfc0069c        0x4 LONG 0xcc0017 __pic32_tlb_3_entrylo1
                0xbfc006a0        0x4 LONG 0xc0000000 __pic32_tlb_4_entryhi
                0xbfc006a4        0x4 LONG 0x80001f __pic32_tlb_4_entrylo0
                0xbfc006a8        0x4 LONG 0x84001f __pic32_tlb_4_entrylo1
                0xbfc006ac        0x4 LONG 0xc2000000 __pic32_tlb_5_entryhi
                0xbfc006b0        0x4 LONG 0x88001f __pic32_tlb_5_entrylo0
                0xbfc006b4        0x4 LONG 0x8c001f __pic32_tlb_5_entrylo1
                0xbfc006b8        0x4 LONG 0xe0000000 __pic32_tlb_6_entryhi
                0xbfc006bc        0x4 LONG 0x800017 __pic32_tlb_6_entrylo0
                0xbfc006c0        0x4 LONG 0x840017 __pic32_tlb_6_entrylo1
                0xbfc006c4        0x4 LONG 0xe2000000 __pic32_tlb_7_entryhi
                0xbfc006c8        0x4 LONG 0x880017 __pic32_tlb_7_entrylo0
                0xbfc006cc        0x4 LONG 0x8c0017 __pic32_tlb_7_entrylo1
                0xbfc006d0                __pic32_tlb_init_values_end = ABSOLUTE (.)
                0x00000008                __pic32_tlb_init_values_count = 0x8
                0x00000200                _min_heap_size = 0x200
LOAD C:\Users\John\AppData\Local\Temp\ccWRxhWa.o
LOAD C:\Users\John\AppData\Local\Temp\ccZdoXud.o
LOAD C:\Users\John\AppData\Local\Temp\ccn6h3Pn.o
LOAD c:/program files/microchip/xc32/v2.50/bin/bin/../../lib/gcc/pic32mx/4.8.3/../../../../pic32mx/lib/./proc/32MZ2048EFM100\default_isr_vectors.o
LOAD c:/program files/microchip/xc32/v2.50/bin/bin/../../lib/gcc/pic32mx/4.8.3/../../../../pic32mx/lib/fpu64\pic32_software_reset.o
LOAD c:/program files/microchip/xc32/v2.50/bin/bin/../../lib/gcc/pic32mx/4.8.3/fpu64\libgcc.a
START GROUP
LOAD c:/program files/microchip/xc32/v2.50/bin/bin/../../lib/gcc/pic32mx/4.8.3/../../../../pic32mx/lib/fpu64\libpic32.a
LOAD c:/program files/microchip/xc32/v2.50/bin/bin/../../lib/gcc/pic32mx/4.8.3/../../../../pic32mx/lib/fpu64\libdebug.a
LOAD c:/program files/microchip/xc32/v2.50/bin/bin/../../lib/gcc/pic32mx/4.8.3/../../../../pic32mx/lib/fpu64\libpic32.a
LOAD c:/program files/microchip/xc32/v2.50/bin/bin/../../lib/gcc/pic32mx/4.8.3/../../../../pic32mx/lib/fpu64\libc.a
LOAD c:/program files/microchip/xc32/v2.50/bin/bin/../../lib/gcc/pic32mx/4.8.3/../../../../pic32mx/lib/fpu64\libc.a
LOAD c:/program files/microchip/xc32/v2.50/bin/bin/../../lib/gcc/pic32mx/4.8.3/../../../../pic32mx/lib/fpu64\libmfd.a
LOAD c:/program files/microchip/xc32/v2.50/bin/bin/../../lib/gcc/pic32mx/4.8.3/../../../../pic32mx/lib/fpu64\libm.a
LOAD c:/program files/microchip/xc32/v2.50/bin/bin/../../lib/gcc/pic32mx/4.8.3/../../../../pic32mx/lib/fpu64\libe.a
LOAD c:/program files/microchip/xc32/v2.50/bin/bin/../../lib/gcc/pic32mx/4.8.3/../../../../pic32mx/lib/fpu64\libdspr2.a
LOAD c:/program files/microchip/xc32/v2.50/bin/bin/../../lib/gcc/pic32mx/4.8.3/../../../../pic32mx/lib/fpu64\libdsp.a
LOAD c:/program files/microchip/xc32/v2.50/bin/bin/../../lib/gcc/pic32mx/4.8.3/fpu64\libgcc.a
LOAD c:/program files/microchip/xc32/v2.50/bin/bin/../../lib/gcc/pic32mx/4.8.3/../../../../pic32mx/lib/fpu64\libpic32.a
END GROUP
LOAD c:/program files/microchip/xc32/v2.50/bin/bin/../../lib/gcc/pic32mx/4.8.3/fpu64\libgcc.a
OUTPUT(dist/default/production/MiniWinFile.X.production.elf elf32-tradlittlemips)
LOAD stack
LOAD data_init

.reginfo        0x00000000       0x18
 .reginfo       0x00000000       0x18 c:/program files/microchip/xc32/v2.50/bin/bin/../../lib/gcc/pic32mx/4.8.3/../../../../pic32mx/lib/fpu64\software-debug-break.o

.stack          0x80006590      0x400
 .stack         0x80006590      0x400 stack

.__vector_offset_BF810540_data
                0xbf810540      0x178
 .__vector_offset_BF810540_data
                0xbf810540      0x178 c:/program files/microchip/xc32/v2.50/bin/bin/../../lib/gcc/pic32mx/4.8.3/../../../../pic32mx/lib/./proc/32MZ2048EFM100\vector_offset_init.o

.__vector_offset_BF810740_data
                0xbf810740       0xfc
 .__vector_offset_BF810740_data
                0xbf810740       0xfc c:/program files/microchip/xc32/v2.50/bin/bin/../../lib/gcc/pic32mx/4.8.3/../../../../pic32mx/lib/./proc/32MZ2048EFM100\vector_offset_init.o

.__vector_offset_BF8106F4_data
                0xbf8106f4       0x40
 .__vector_offset_BF8106F4_data
                0xbf8106f4       0x40 c:/program files/microchip/xc32/v2.50/bin/bin/../../lib/gcc/pic32mx/4.8.3/../../../../pic32mx/lib/./proc/32MZ2048EFM100\vector_offset_init.o

.__vector_offset_BF8106D8_data
                0xbf8106d8       0x18
 .__vector_offset_BF8106D8_data
                0xbf8106d8       0x18 c:/program files/microchip/xc32/v2.50/bin/bin/../../lib/gcc/pic32mx/4.8.3/../../../../pic32mx/lib/./proc/32MZ2048EFM100\vector_offset_init.o

.__vector_offset_BF810874_data
                0xbf810874       0x18
 .__vector_offset_BF810874_data
                0xbf810874       0x18 c:/program files/microchip/xc32/v2.50/bin/bin/../../lib/gcc/pic32mx/4.8.3/../../../../pic32mx/lib/./proc/32MZ2048EFM100\vector_offset_init.o

.__vector_offset_BF810858_data
                0xbf810858       0x14
 .__vector_offset_BF810858_data
                0xbf810858       0x14 c:/program files/microchip/xc32/v2.50/bin/bin/../../lib/gcc/pic32mx/4.8.3/../../../../pic32mx/lib/./proc/32MZ2048EFM100\vector_offset_init.o

.__vector_offset_BF810840_data
                0xbf810840        0xc
 .__vector_offset_BF810840_data
                0xbf810840        0xc c:/program files/microchip/xc32/v2.50/bin/bin/../../lib/gcc/pic32mx/4.8.3/../../../../pic32mx/lib/./proc/32MZ2048EFM100\vector_offset_init.o

.__vector_offset_BF810850_data
                0xbf810850        0x4
 .__vector_offset_BF810850_data
                0xbf810850        0x4 c:/program files/microchip/xc32/v2.50/bin/bin/../../lib/gcc/pic32mx/4.8.3/../../../../pic32mx/lib/./proc/32MZ2048EFM100\vector_offset_init.o

.__vector_offset_BF810894_data
                0xbf810894        0x4
 .__vector_offset_BF810894_data
                0xbf810894        0x4 c:/program files/microchip/xc32/v2.50/bin/bin/../../lib/gcc/pic32mx/4.8.3/../../../../pic32mx/lib/./proc/32MZ2048EFM100\vector_offset_init.o

.COHERENTBSS$   0xa0000130     0x4000
 .COHERENTBSS$  0xa0000130     0x4000 build/default/production/_ext/776318040/hal_non_vol.o

.bss            0x80004130     0x10f8
 .bss           0x80004130      0x960 build/default/production/_ext/59636182/miniwin_message_queue.o
 .bss           0x80004a90      0x798 build/default/production/_ext/59636182/miniwin.o

.bss            0x80005228      0x824
 .bss           0x80005228      0x45c build/default/production/_ext/1445274692/app.o
 .bss           0x80005684      0x3c8 build/default/production/_ext/165771656/window_file.o

.bss            0x80005a4c      0x468
 .bss           0x80005a4c      0x288 build/default/production/_ext/481733874/dialog_file_chooser.o
 .bss           0x80005cd4      0x1e0 build/default/production/_ext/776318040/hal_lcd.o

.bss            0x80005eb4      0x1a4
 .bss           0x80005eb4       0xfc build/default/production/_ext/165771656/miniwin_user.o
 .bss           0x80005fb0       0xa8 build/default/production/_ext/481733874/dialog_date_chooser.o

.bss            0x80006058       0xf4
 .bss           0x80006058       0x7c build/default/production/_ext/481733874/dialog_time_chooser.o
 .bss           0x800060d4       0x78 build/default/production/_ext/481733874/dialog_text_entry.o

.data           0x8000614c       0x70
 .data          0x8000614c       0x70 build/default/production/_ext/165771656/window_file.o

.bss            0x800061bc       0xac
 .bss           0x800061bc       0x64 build/default/production/_ext/165771656/window_file_tree.o
 .bss           0x80006220       0x48 build/default/production/_ext/1494914114/gl.o

.bss            0x80006268       0x60
 .bss           0x80006268       0x30 build/default/production/_ext/481733874/dialog_two_button.o
 .bss           0x80006298       0x30 build/default/production/_ext/165771656/window_image.o

.bss            0x800062c8       0x48
 .bss           0x800062c8       0x24 build/default/production/_ext/59636182/miniwin_settings.o
 .bss           0x800062ec       0x24 c:/program files/microchip/xc32/v2.50/bin/bin/../../lib/gcc/pic32mx/4.8.3/../../../../pic32mx/lib/fpu64\libpic32.a(sbrk.o)
                0x80006308                _maxbrk
                0x8000630c                _minbrk

.bss            0x80006310       0x20
 .bss           0x80006310       0x20 build/default/production/_ext/481733874/dialog_one_button.o

.data           0x80006330       0x20
 .data          0x80006330       0x20 build/default/production/_ext/776318040/hal_touch.o

.bss            0x80006350       0x20
 .bss           0x80006350       0x20 c:/program files/microchip/xc32/v2.50/bin/bin/../../lib/gcc/pic32mx/4.8.3/../../../../pic32mx/lib/fpu64\libc.a(malloc.o)
                0x80006350                __allocx
                0x80006358                __alloct
                0x8000635c                __allocp
                0x80006360                __allocs

.bss.errno      0x8000012c        0x4
 .bss.errno     0x8000012c        0x4 c:/program files/microchip/xc32/v2.50/bin/bin/../../lib/gcc/pic32mx/4.8.3/../../../../pic32mx/lib/fpu64\libpic32.a(errno.o)
                0x8000012c                errno

.rodata         0x9d000258     0x1ac0
 .rodata        0x9d000258     0x1ac0 build/default/production/_ext/194049764/font24.o
                0x9d000258                Font24
                0x9d000260                Font24_Table

.text.mw_process_message
                0x9d001d18     0x1720
 .text.mw_process_message
                0x9d001d18     0x1720 build/default/production/_ext/59636182/miniwin.o
                0x9d001d18                mw_process_message

.rodata         0x9d003438     0x1ac8
 .rodata        0x9d003438      0xee0 build/default/production/_ext/194049764/font20.o
                0x9d003438                Font20
                0x9d003440                Font20_Table
 .rodata        0x9d004318      0xbe8 build/default/production/_ext/194049764/font16.o
                0x9d004318                Font16
                0x9d004320                Font16_Table

.text.do_paint_window_frame2
                0x9d004f00      0xb48
 .text.do_paint_window_frame2
                0x9d004f00      0xb48 build/default/production/_ext/59636182/miniwin.o

.text.window_file_message_function
                0x9d005a48      0xaf0
 .text.window_file_message_function
                0x9d005a48      0xaf0 build/default/production/_ext/165771656/window_file.o
                0x9d005a48                window_file_message_function

.text.keyboard_paint_function
                0x9d006538      0xa10
 .text.keyboard_paint_function
                0x9d006538      0xa10 build/default/production/_ext/1494913683/ui_keyboard.o

.rodata         0x9d006f48      0x910
 .rodata        0x9d006f48      0x910 build/default/production/_ext/59636182/miniwin.o

.text.mw_gl_character
                0x9d007858      0x8dc
 .text.mw_gl_character
                0x9d007858      0x8dc build/default/production/_ext/1494914114/gl.o
                0x9d007858                mw_gl_character

.text.mw_hal_lcd_monochrome_bitmap_clip
                0x9d008134      0x76c
 .text.mw_hal_lcd_monochrome_bitmap_clip
                0x9d008134      0x76c build/default/production/_ext/776318040/hal_lcd.o
                0x9d008134                mw_hal_lcd_monochrome_bitmap_clip

.text.list_box_paint_function
                0x9d0088a0      0x6d4
 .text.list_box_paint_function
                0x9d0088a0      0x6d4 build/default/production/_ext/1494913683/ui_list_box.o

.text.mw_dialog_file_chooser_message_function
                0x9d008f74      0x6d0
 .text.mw_dialog_file_chooser_message_function
                0x9d008f74      0x6d0 build/default/production/_ext/481733874/dialog_file_chooser.o

.dinit          0x9d009644      0x6a0
 .dinit         0x9d009644      0x6a0 data_init

.text.tree_message_function
                0x9d009ce4      0x67c
 .text.tree_message_function
                0x9d009ce4      0x67c build/default/production/_ext/1494913683/ui_tree.o

.rodata         0x9d00a360      0x630
 .rodata        0x9d00a360      0x630 build/default/production/_ext/194049764/gl_title_font.o
                0x9d00a360                mw_title_font_bitmap
                0x9d00a8d0                mw_title_font_positions

.text.window_image_paint_function
                0x9d00a990      0x5f8
 .text.window_image_paint_function
                0x9d00a990      0x5f8 build/default/production/_ext/165771656/window_image.o
                0x9d00a990                window_image_paint_function

.text.do_paint_window_client
                0x9d00af88      0x5b4
 .text.do_paint_window_client
                0x9d00af88      0x5b4 build/default/production/_ext/59636182/miniwin.o

.text.title_font_string
                0x9d00b53c      0x588
 .text.title_font_string
                0x9d00b53c      0x588 build/default/production/_ext/1494914114/gl.o

.text.mw_create_window_dialog_file_chooser
                0x9d00bac4      0x540
 .text.mw_create_window_dialog_file_chooser
                0x9d00bac4      0x540 build/default/production/_ext/481733874/dialog_file_chooser.o
                0x9d00bac4                mw_create_window_dialog_file_chooser

.text.mw_hal_lcd_colour_bitmap_clip
                0x9d00c004      0x528
 .text.mw_hal_lcd_colour_bitmap_clip
                0x9d00c004      0x528 build/default/production/_ext/776318040/hal_lcd.o
                0x9d00c004                mw_hal_lcd_colour_bitmap_clip

.text.find_rect_window_intersections
                0x9d00c52c      0x500
 .text.find_rect_window_intersections
                0x9d00c52c      0x500 build/default/production/_ext/59636182/miniwin.o

.text.mw_create_window_dialog_date_chooser
                0x9d00ca2c      0x4f0
 .text.mw_create_window_dialog_date_chooser
                0x9d00ca2c      0x4f0 build/default/production/_ext/481733874/dialog_date_chooser.o
                0x9d00ca2c                mw_create_window_dialog_date_chooser

.text.filled_poly
                0x9d00cf1c      0x4f0
 .text.filled_poly
                0x9d00cf1c      0x4f0 build/default/production/_ext/1494914114/gl.o

.text.f_lseek   0x9d00d40c      0x4c8
 .text.f_lseek  0x9d00d40c      0x4c8 build/default/production/_ext/1592496102/ff.o
                0x9d00d40c                f_lseek

.text.find_volume
                0x9d00d8d4      0x484
 .text.find_volume
                0x9d00d8d4      0x484 build/default/production/_ext/1592496102/ff.o

.rodata         0x9d00dd58      0x47c
 .rodata        0x9d00dd58      0x47c build/default/production/_ext/194049764/font12.o
                0x9d00dd58                Font12
                0x9d00dd60                Font12_Table

.text.mw_dialog_text_entry_message_function
                0x9d00e1d4      0x428
 .text.mw_dialog_text_entry_message_function
                0x9d00e1d4      0x428 build/default/production/_ext/481733874/dialog_text_entry.o

.text.node_callback
                0x9d00e5fc      0x41c
 .text.node_callback
                0x9d00e5fc      0x41c build/default/production/_ext/1494913683/ui_tree.o

.text.mw_create_window_dialog_time_chooser
                0x9d00ea18      0x404
 .text.mw_create_window_dialog_time_chooser
                0x9d00ea18      0x404 build/default/production/_ext/481733874/dialog_time_chooser.o
                0x9d00ea18                mw_create_window_dialog_time_chooser

.text.mw_gl_line
                0x9d00ee1c      0x3fc
 .text.mw_gl_line
                0x9d00ee1c      0x3fc build/default/production/_ext/1494914114/gl.o
                0x9d00ee1c                mw_gl_line

.text.list_box_message_function
                0x9d00f218      0x3d4
 .text.list_box_message_function
                0x9d00f218      0x3d4 build/default/production/_ext/1494913683/ui_list_box.o

.rodata         0x9d00f5ec      0x3b4
 .rodata        0x9d00f5ec      0x3b4 build/default/production/_ext/59636182/miniwin_tree_container.o

.text.mw_add_control
                0x9d00f9a0      0x384
 .text.mw_add_control
                0x9d00f9a0      0x384 build/default/production/_ext/59636182/miniwin.o
                0x9d00f9a0                mw_add_control

.text.mw_user_init
                0x9d00fd24      0x36c
 .text.mw_user_init
                0x9d00fd24      0x36c build/default/production/_ext/165771656/miniwin_user.o
                0x9d00fd24                mw_user_init

.rodata         0x9d010090      0x360
 .rodata        0x9d010090      0x360 build/default/production/_ext/194049764/font9.o
                0x9d010090                Font9
                0x9d010098                Font9_Table

.text.f_open    0x9d0103f0      0x354
 .text.f_open   0x9d0103f0      0x354 build/default/production/_ext/1592496102/ff.o
                0x9d0103f0                f_open

.text.mw_hal_lcd_init
                0x9d010744      0x348
 .text.mw_hal_lcd_init
                0x9d010744      0x348 build/default/production/_ext/776318040/hal_lcd.o
                0x9d010744                mw_hal_lcd_init

.text.__ieee754_rem_pio2
                0x9d010a8c      0x344
 .text.__ieee754_rem_pio2
                0x9d010a8c      0x344 c:/program files/microchip/xc32/v2.50/bin/bin/../../lib/gcc/pic32mx/4.8.3/../../../../pic32mx/lib/fpu64\libmfd.a(e_rem_pio2.o)
                0x9d010a8c                __ieee754_rem_pio2

.text.button_paint_function
                0x9d010dd0      0x340
 .text.button_paint_function
                0x9d010dd0      0x340 build/default/production/_ext/1494913683/ui_button.o

.text.f_write   0x9d011110      0x338
 .text.f_write  0x9d011110      0x338 build/default/production/_ext/1592496102/ff.o
                0x9d011110                f_write

.text.do_paint_control_rect
                0x9d011448      0x31c
 .text.do_paint_control_rect
                0x9d011448      0x31c build/default/production/_ext/59636182/miniwin.o

.text.window_text_message_function
                0x9d011764      0x31c
 .text.window_text_message_function
                0x9d011764      0x31c build/default/production/_ext/165771656/window_text.o
                0x9d011764                window_text_message_function

.text.follow_path
                0x9d011a80      0x318
 .text.follow_path
                0x9d011a80      0x318 build/default/production/_ext/1592496102/ff.o

.text.mw_create_window_dialog_two_button
                0x9d011d98      0x310
 .text.mw_create_window_dialog_two_button
                0x9d011d98      0x310 build/default/production/_ext/481733874/dialog_two_button.o
                0x9d011d98                mw_create_window_dialog_two_button

.text.mw_create_window_dialog_text_entry
                0x9d0120a8      0x30c
 .text.mw_create_window_dialog_text_entry
                0x9d0120a8      0x30c build/default/production/_ext/481733874/dialog_text_entry.o
                0x9d0120a8                mw_create_window_dialog_text_entry

.text.arrow_paint_function
                0x9d0123b4      0x300
 .text.arrow_paint_function
                0x9d0123b4      0x300 build/default/production/_ext/1494913683/ui_arrow.o

.rodata         0x9d0126b8      0x2f8
 .rodata        0x9d0126b8      0x2f8 build/default/production/_ext/1494914114/gl.o

.text.mw_gl_rectangle
                0x9d0129b0      0x2e4
 .text.mw_gl_rectangle
                0x9d0129b0      0x2e4 build/default/production/_ext/1494914114/gl.o
                0x9d0129b0                mw_gl_rectangle

.text.mw_dialog_text_entry_paint_function
                0x9d012c94      0x2dc
 .text.mw_dialog_text_entry_paint_function
                0x9d012c94      0x2dc build/default/production/_ext/481733874/dialog_text_entry.o

.text.f_read    0x9d012f70      0x2d4
 .text.f_read   0x9d012f70      0x2d4 build/default/production/_ext/1592496102/ff.o
                0x9d012f70                f_read

.text.draw_vertical_window_scroll_bar
                0x9d013244      0x2d0
 .text.draw_vertical_window_scroll_bar
                0x9d013244      0x2d0 build/default/production/_ext/59636182/miniwin.o

.text.draw_horizontal_window_scroll_bar
                0x9d013514      0x2c4
 .text.draw_horizontal_window_scroll_bar
                0x9d013514      0x2c4 build/default/production/_ext/59636182/miniwin.o

.text.mw_add_window
                0x9d0137d8      0x29c
 .text.mw_add_window
                0x9d0137d8      0x29c build/default/production/_ext/59636182/miniwin.o
                0x9d0137d8                mw_add_window

.text.mw_tree_container_add_node
                0x9d013a74      0x290
 .text.mw_tree_container_add_node
                0x9d013a74      0x290 build/default/production/_ext/59636182/miniwin_tree_container.o
                0x9d013a74                mw_tree_container_add_node

.text.mw_dialog_date_chooser_message_function
                0x9d013d04      0x28c
 .text.mw_dialog_date_chooser_message_function
                0x9d013d04      0x28c build/default/production/_ext/481733874/dialog_date_chooser.o

.text.mw_create_window_dialog_one_button
                0x9d013f90      0x28c
 .text.mw_create_window_dialog_one_button
                0x9d013f90      0x28c build/default/production/_ext/481733874/dialog_one_button.o
                0x9d013f90                mw_create_window_dialog_one_button

.text.mw_hal_touch_get_point
                0x9d01421c      0x28c
 .text.mw_hal_touch_get_point
                0x9d01421c      0x28c build/default/production/_ext/776318040/hal_touch.o
                0x9d01421c                mw_hal_touch_get_point

.text.malloc    0x9d0144a8      0x28c
 .text.malloc   0x9d0144a8      0x28c c:/program files/microchip/xc32/v2.50/bin/bin/../../lib/gcc/pic32mx/4.8.3/../../../../pic32mx/lib/fpu64\libc.a(malloc.o)
                0x9d0144a8                malloc

.text.calculate_new_window_size_details
                0x9d014734      0x278
 .text.calculate_new_window_size_details
                0x9d014734      0x278 build/default/production/_ext/59636182/miniwin.o

.text.SPI2_WriteRead
                0x9d0149ac      0x274
 .text.SPI2_WriteRead
                0x9d0149ac      0x274 build/default/production/_ext/298189674/plib_spi2_master.o
                0x9d0149ac                SPI2_WriteRead

.text.SPI1_WriteRead
                0x9d014c20      0x274
 .text.SPI1_WriteRead
                0x9d014c20      0x274 build/default/production/_ext/298189674/plib_spi1_master.o
                0x9d014c20                SPI1_WriteRead

.text.mw_gl_monochrome_bitmap
                0x9d014e94      0x274
 .text.mw_gl_monochrome_bitmap
                0x9d014e94      0x274 build/default/production/_ext/1494914114/gl.o
                0x9d014e94                mw_gl_monochrome_bitmap

.text.do_paint_window_frame
                0x9d015108      0x26c
 .text.do_paint_window_frame
                0x9d015108      0x26c build/default/production/_ext/59636182/miniwin.o

.text.scroll_bar_vert_paint_function
                0x9d015374      0x264
 .text.scroll_bar_vert_paint_function
                0x9d015374      0x264 build/default/production/_ext/1494913683/ui_scroll_bar_vert.o

.text.window_text_paint_function
                0x9d0155d8      0x254
 .text.window_text_paint_function
                0x9d0155d8      0x254 build/default/production/_ext/165771656/window_text.o
                0x9d0155d8                window_text_paint_function

.text.window_file_tree_message_function
                0x9d01582c      0x24c
 .text.window_file_tree_message_function
                0x9d01582c      0x24c build/default/production/_ext/165771656/window_file_tree.o
                0x9d01582c                window_file_tree_message_function

.text.mw_tree_container_get_node_path
                0x9d015a78      0x248
 .text.mw_tree_container_get_node_path
                0x9d015a78      0x248 build/default/production/_ext/59636182/miniwin_tree_container.o
                0x9d015a78                mw_tree_container_get_node_path

.text.mw_dialog_date_chooser_paint_function
                0x9d015cc0      0x240
 .text.mw_dialog_date_chooser_paint_function
                0x9d015cc0      0x240 build/default/production/_ext/481733874/dialog_date_chooser.o

.text.create_chain
                0x9d015f00      0x238
 .text.create_chain
                0x9d015f00      0x238 build/default/production/_ext/1592496102/ff.o

.text.do_paint_control
                0x9d016138      0x234
 .text.do_paint_control
                0x9d016138      0x234 build/default/production/_ext/59636182/miniwin.o

.text.keyboard_message_function
                0x9d01636c      0x22c
 .text.keyboard_message_function
                0x9d01636c      0x22c build/default/production/_ext/1494913683/ui_keyboard.o

.text.mw_util_safe_itoa
                0x9d016598      0x228
 .text.mw_util_safe_itoa
                0x9d016598      0x228 build/default/production/_ext/59636182/miniwin_utilities.o
                0x9d016598                mw_util_safe_itoa

.text.mw_dialog_time_chooser_message_function
                0x9d0167c0      0x214
 .text.mw_dialog_time_chooser_message_function
                0x9d0167c0      0x214 build/default/production/_ext/481733874/dialog_time_chooser.o

.text.mw_tree_container_get_all_children
                0x9d0169d4      0x200
 .text.mw_tree_container_get_all_children
                0x9d0169d4      0x200 build/default/production/_ext/59636182/miniwin_tree_container.o
                0x9d0169d4                mw_tree_container_get_all_children

.text.set_window_details
                0x9d016bd4      0x1f8
 .text.set_window_details
                0x9d016bd4      0x1f8 build/default/production/_ext/59636182/miniwin.o

.text.filled_rectangle
                0x9d016dcc      0x1f4
 .text.filled_rectangle
                0x9d016dcc      0x1f4 build/default/production/_ext/1494914114/gl.o

.text.scroll_bar_vert_message_function
                0x9d016fc0      0x1f4
 .text.scroll_bar_vert_message_function
                0x9d016fc0      0x1f4 build/default/production/_ext/1494913683/ui_scroll_bar_vert.o

.text.mw_gl_string
                0x9d0171b4      0x1ec
 .text.mw_gl_string
                0x9d0171b4      0x1ec build/default/production/_ext/1494914114/gl.o
                0x9d0171b4                mw_gl_string

.text.mw_hal_lcd_filled_rectangle
                0x9d0173a0      0x1ec
 .text.mw_hal_lcd_filled_rectangle
                0x9d0173a0      0x1ec build/default/production/_ext/776318040/hal_lcd.o
                0x9d0173a0                mw_hal_lcd_filled_rectangle

.text.setCalibrationMatrix
                0x9d01758c      0x1ec
 .text.setCalibrationMatrix
                0x9d01758c      0x1ec build/default/production/_ext/59636182/calibrate.o
                0x9d01758c                setCalibrationMatrix

.text.mw_remove_window
                0x9d017778      0x1e4
 .text.mw_remove_window
                0x9d017778      0x1e4 build/default/production/_ext/59636182/miniwin.o
                0x9d017778                mw_remove_window

.text.root_message_function
                0x9d01795c      0x1e0
 .text.root_message_function
                0x9d01795c      0x1e0 build/default/production/_ext/59636182/miniwin.o

.text.disk_initialize
                0x9d017b3c      0x1dc
 .text.disk_initialize
                0x9d017b3c      0x1dc build/default/production/_ext/1592496102/sdmm.o
                0x9d017b3c                disk_initialize

.text.put_fat   0x9d017d18      0x1cc
 .text.put_fat  0x9d017d18      0x1cc build/default/production/_ext/1592496102/ff.o

.text.mw_dialog_time_chooser_paint_function
                0x9d017ee4      0x1cc
 .text.mw_dialog_time_chooser_paint_function
                0x9d017ee4      0x1cc build/default/production/_ext/481733874/dialog_time_chooser.o

.text.mw_tree_container_init
                0x9d0180b0      0x1c8
 .text.mw_tree_container_init
                0x9d0180b0      0x1c8 build/default/production/_ext/59636182/miniwin_tree_container.o
                0x9d0180b0                mw_tree_container_init

.text.do_paint_control2
                0x9d018278      0x1c4
 .text.do_paint_control2
                0x9d018278      0x1c4 build/default/production/_ext/59636182/miniwin.o

.text.mw_touch_calibrate
                0x9d01843c      0x1c4
 .text.mw_touch_calibrate
                0x9d01843c      0x1c4 build/default/production/_ext/59636182/miniwin_touch.o
                0x9d01843c                mw_touch_calibrate

.text.set_focus
                0x9d018600      0x1bc
 .text.set_focus
                0x9d018600      0x1bc build/default/production/_ext/59636182/miniwin.o

.text.mw_gl_poly
                0x9d0187bc      0x1b8
 .text.mw_gl_poly
                0x9d0187bc      0x1b8 build/default/production/_ext/1494914114/gl.o
                0x9d0187bc                mw_gl_poly

.text.mw_reposition_window
                0x9d018974      0x1b4
 .text.mw_reposition_window
                0x9d018974      0x1b4 build/default/production/_ext/59636182/miniwin.o
                0x9d018974                mw_reposition_window

.text.mw_gl_hline
                0x9d018b28      0x1b0
 .text.mw_gl_hline
                0x9d018b28      0x1b0 build/default/production/_ext/1494914114/gl.o
                0x9d018b28                mw_gl_hline

.text.mw_gl_vline
                0x9d018cd8      0x1b0
 .text.mw_gl_vline
                0x9d018cd8      0x1b0 build/default/production/_ext/1494914114/gl.o
                0x9d018cd8                mw_gl_vline

.text.update_arrow_enable_states
                0x9d018e88      0x1a8
 .text.update_arrow_enable_states
                0x9d018e88      0x1a8 build/default/production/_ext/481733874/dialog_date_chooser.o

.text.arrow_message_function
                0x9d019030      0x1a8
 .text.arrow_message_function
                0x9d019030      0x1a8 build/default/production/_ext/1494913683/ui_arrow.o

.text.mw_tree_container_get_handle_from_position
                0x9d0191d8      0x1a8
 .text.mw_tree_container_get_handle_from_position
                0x9d0191d8      0x1a8 build/default/production/_ext/59636182/miniwin_tree_container.o
                0x9d0191d8                mw_tree_container_get_handle_from_position

.text.TIMER_2_Handler
                0x9d019380      0x1a0
 .text.TIMER_2_Handler
                0x9d019380      0x1a0 build/default/production/_ext/1171490990/interrupts.o
                0x9d019380                TIMER_2_Handler

.text.TIMER_3_Handler
                0x9d019520      0x1a0
 .text.TIMER_3_Handler
                0x9d019520      0x1a0 build/default/production/_ext/1171490990/interrupts.o
                0x9d019520                TIMER_3_Handler

.text.tree_paint_function
                0x9d0196c0      0x1a0
 .text.tree_paint_function
                0x9d0196c0      0x1a0 build/default/production/_ext/1494913683/ui_tree.o

.text.mw_tree_container_get_open_children_count
                0x9d019860      0x19c
 .text.mw_tree_container_get_open_children_count
                0x9d019860      0x19c build/default/production/_ext/59636182/miniwin_tree_container.o
                0x9d019860                mw_tree_container_get_open_children_count

.rodata         0x9d0199fc      0x198
 .rodata        0x9d0199fc      0x198 build/default/production/_ext/59636182/miniwin_utilities.o

.text.process_keypress
                0x9d019b94      0x194
 .text.process_keypress
                0x9d019b94      0x194 build/default/production/_ext/1494913683/ui_keyboard.o

.text._sbrk_init
                0x9d019d28      0x194
 .text._sbrk_init
                0x9d019d28      0x194 c:/program files/microchip/xc32/v2.50/bin/bin/../../lib/gcc/pic32mx/4.8.3/../../../../pic32mx/lib/fpu64\libpic32.a(sbrk.o)
                0x9d019d28                _sbrk_init

.text.dir_next  0x9d019ebc      0x188
 .text.dir_next
                0x9d019ebc      0x188 build/default/production/_ext/1592496102/ff.o

.text.mw_set_timer
                0x9d01a044      0x188
 .text.mw_set_timer
                0x9d01a044      0x188 build/default/production/_ext/59636182/miniwin.o
                0x9d01a044                mw_set_timer

.text.draw_min_restore_window_effect
                0x9d01a1cc      0x184
 .text.draw_min_restore_window_effect
                0x9d01a1cc      0x184 build/default/production/_ext/59636182/miniwin.o

.text._floorx   0x9d01a350      0x184
 .text._floorx  0x9d01a350      0x184 c:/program files/microchip/xc32/v2.50/bin/bin/../../lib/gcc/pic32mx/4.8.3/../../../../pic32mx/lib/fpu64\libmfd.a(s_floor.o)
                0x9d01a350                _floorx

.text.draw_titlebar_text
                0x9d01a4d4      0x180
 .text.draw_titlebar_text
                0x9d01a4d4      0x180 build/default/production/_ext/59636182/miniwin.o

.text.mw_remove_control
                0x9d01a654      0x180
 .text.mw_remove_control
                0x9d01a654      0x180 build/default/production/_ext/59636182/miniwin.o
                0x9d01a654                mw_remove_control

.text.check_and_process_touch_on_horiz_window_scroll_bar
                0x9d01a7d4      0x178
 .text.check_and_process_touch_on_horiz_window_scroll_bar
                0x9d01a7d4      0x178 build/default/production/_ext/59636182/miniwin.o

.text.check_and_process_touch_on_vert_window_scroll_bar
                0x9d01a94c      0x178
 .text.check_and_process_touch_on_vert_window_scroll_bar
                0x9d01a94c      0x178 build/default/production/_ext/59636182/miniwin.o

.text.mw_tree_container_change_node_selected_state
                0x9d01aac4      0x178
 .text.mw_tree_container_change_node_selected_state
                0x9d01aac4      0x178 build/default/production/_ext/59636182/miniwin_tree_container.o
                0x9d01aac4                mw_tree_container_change_node_selected_state

.text.send_cmd  0x9d01ac3c      0x174
 .text.send_cmd
                0x9d01ac3c      0x174 build/default/production/_ext/1592496102/sdmm.o

.text.mw_ui_list_box_add_new
                0x9d01adb0      0x174
 .text.mw_ui_list_box_add_new
                0x9d01adb0      0x174 build/default/production/_ext/1494913683/ui_list_box.o
                0x9d01adb0                mw_ui_list_box_add_new

.text.get_fat   0x9d01af24      0x170
 .text.get_fat  0x9d01af24      0x170 build/default/production/_ext/1592496102/ff.o

.text.mw_post_message
                0x9d01b094      0x170
 .text.mw_post_message
                0x9d01b094      0x170 build/default/production/_ext/59636182/miniwin.o
                0x9d01b094                mw_post_message

.text.mw_ui_tree_add_new
                0x9d01b204      0x16c
 .text.mw_ui_tree_add_new
                0x9d01b204      0x16c build/default/production/_ext/1494913683/ui_tree.o
                0x9d01b204                mw_ui_tree_add_new

.text.mw_resize_window
                0x9d01b370      0x16c
 .text.mw_resize_window
                0x9d01b370      0x16c build/default/production/_ext/59636182/miniwin.o
                0x9d01b370                mw_resize_window

.text.window_file_paint_function
                0x9d01b4dc      0x16c
 .text.window_file_paint_function
                0x9d01b4dc      0x16c build/default/production/_ext/165771656/window_file.o
                0x9d01b4dc                window_file_paint_function

.text.mw_init   0x9d01b648      0x168
 .text.mw_init  0x9d01b648      0x168 build/default/production/_ext/59636182/miniwin.o
                0x9d01b648                mw_init

.text           0x9d01b7b0      0x2d0
 .text          0x9d01b7b0      0x168 c:/program files/microchip/xc32/v2.50/bin/bin/../../lib/gcc/pic32mx/4.8.3/../../../../pic32mx/lib/fpu64\libpic32.a(memcpy.o)
                0x9d01b7b0                memcpy
 .text          0x9d01b918      0x168 c:/program files/microchip/xc32/v2.50/bin/bin/../../lib/gcc/pic32mx/4.8.3/../../../../pic32mx/lib/fpu64\libpic32.a(strlen.o)
                0x9d01b918                strlen

.text.mw_debug_print_assert
                0x9d01ba80      0x164
 .text.mw_debug_print_assert
                0x9d01ba80      0x164 build/default/production/_ext/59636182/miniwin_debug.o
                0x9d01ba80                mw_debug_print_assert

.rodata         0x9d01bbe4      0x164
 .rodata        0x9d01bbe4      0x164 build/default/production/_ext/165771656/window_file.o

.text.mw_gl_rotate_shape
                0x9d01bd48      0x160
 .text.mw_gl_rotate_shape
                0x9d01bd48      0x160 build/default/production/_ext/1494914114/gl.o
                0x9d01bd48                mw_gl_rotate_shape

.text.label_paint_function
                0x9d01bea8      0x15c
 .text.label_paint_function
                0x9d01bea8      0x15c build/default/production/_ext/1494913683/ui_label.o

.text.dir_sdi   0x9d01c004      0x154
 .text.dir_sdi  0x9d01c004      0x154 build/default/production/_ext/1592496102/ff.o

.text.mw_hal_lcd_pixel
                0x9d01c158      0x154
 .text.mw_hal_lcd_pixel
                0x9d01c158      0x154 build/default/production/_ext/776318040/hal_lcd.o
                0x9d01c158                mw_hal_lcd_pixel

.text.disk_ioctl
                0x9d01c2ac      0x150
 .text.disk_ioctl
                0x9d01c2ac      0x150 build/default/production/_ext/1592496102/sdmm.o
                0x9d01c2ac                disk_ioctl

.text.realloc   0x9d01c3fc      0x148
 .text.realloc  0x9d01c3fc      0x148 c:/program files/microchip/xc32/v2.50/bin/bin/../../lib/gcc/pic32mx/4.8.3/../../../../pic32mx/lib/fpu64\libc.a(malloc.o)
                0x9d01c3fc                realloc

.text.TMR3_InterruptSvcRoutine
                0x9d01c544      0x144
 .text.TMR3_InterruptSvcRoutine
                0x9d01c544      0x144 build/default/production/_ext/1445274692/app.o

.text.check_window_dimensions
                0x9d01c688      0x140
 .text.check_window_dimensions
                0x9d01c688      0x140 build/default/production/_ext/59636182/miniwin.o

.text.mw_cancel_timer
                0x9d01c7c8      0x140
 .text.mw_cancel_timer
                0x9d01c7c8      0x140 build/default/production/_ext/59636182/miniwin.o
                0x9d01c7c8                mw_cancel_timer

.text.find_folder_entries
                0x9d01c908      0x140
 .text.find_folder_entries
                0x9d01c908      0x140 build/default/production/_ext/1445274692/app.o
                0x9d01c908                find_folder_entries

.text.mw_set_window_visible
                0x9d01ca48      0x13c
 .text.mw_set_window_visible
                0x9d01ca48      0x13c build/default/production/_ext/59636182/miniwin.o
                0x9d01ca48                mw_set_window_visible

.text.window_selection_paint_function
                0x9d01cb84      0x13c
 .text.window_selection_paint_function
                0x9d01cb84      0x13c build/default/production/_ext/165771656/window_selection.o
                0x9d01cb84                window_selection_paint_function

.text.remove_all_children
                0x9d01ccc0      0x138
 .text.remove_all_children
                0x9d01ccc0      0x138 build/default/production/_ext/59636182/miniwin_tree_container.o

.text.draw_cross
                0x9d01cdf8      0x130
 .text.draw_cross
                0x9d01cdf8      0x130 build/default/production/_ext/59636182/miniwin_touch.o

.text.update_folder_entries
                0x9d01cf28      0x120
 .text.update_folder_entries
                0x9d01cf28      0x120 build/default/production/_ext/481733874/dialog_file_chooser.o

.text.__kernel_cos
                0x9d01d048      0x120
 .text.__kernel_cos
                0x9d01d048      0x120 c:/program files/microchip/xc32/v2.50/bin/bin/../../lib/gcc/pic32mx/4.8.3/../../../../pic32mx/lib/fpu64\libmfd.a(k_cos.o)
                0x9d01d048                __kernel_cos

.text.remove_chain
                0x9d01d168      0x11c
 .text.remove_chain
                0x9d01d168      0x11c build/default/production/_ext/1592496102/ff.o

.text.mw_dialog_one_button_paint_function
                0x9d01d284      0x11c
 .text.mw_dialog_one_button_paint_function
                0x9d01d284      0x11c build/default/production/_ext/481733874/dialog_one_button.o

.text.mw_dialog_two_button_paint_function
                0x9d01d3a0      0x11c
 .text.mw_dialog_two_button_paint_function
                0x9d01d3a0      0x11c build/default/production/_ext/481733874/dialog_two_button.o

.text.mw_touch_get_display_touch
                0x9d01d4bc      0x11c
 .text.mw_touch_get_display_touch
                0x9d01d4bc      0x11c build/default/production/_ext/59636182/miniwin_touch.o
                0x9d01d4bc                mw_touch_get_display_touch

.text.window_image_message_function
                0x9d01d5d8      0x118
 .text.window_image_message_function
                0x9d01d5d8      0x118 build/default/production/_ext/165771656/window_image.o
                0x9d01d5d8                window_image_message_function

.text._cosx     0x9d01d6f0      0x118
 .text._cosx    0x9d01d6f0      0x118 c:/program files/microchip/xc32/v2.50/bin/bin/../../lib/gcc/pic32mx/4.8.3/../../../../pic32mx/lib/fpu64\libmfd.a(s_cos.o)
                0x9d01d6f0                _cosx

.text._sinx     0x9d01d808      0x118
 .text._sinx    0x9d01d808      0x118 c:/program files/microchip/xc32/v2.50/bin/bin/../../lib/gcc/pic32mx/4.8.3/../../../../pic32mx/lib/fpu64\libmfd.a(s_sin.o)
                0x9d01d808                _sinx

.text.f_sync    0x9d01d920      0x110
 .text.f_sync   0x9d01d920      0x110 build/default/production/_ext/1592496102/ff.o
                0x9d01d920                f_sync

.text.get_ldnumber
                0x9d01da30      0x104
 .text.get_ldnumber
                0x9d01da30      0x104 build/default/production/_ext/1592496102/ff.o

.text.rationalize_z_orders
                0x9d01db34      0x104
 .text.rationalize_z_orders
                0x9d01db34      0x104 build/default/production/_ext/59636182/miniwin.o

.rodata         0x9d01dc38      0x104
 .rodata        0x9d01dc38      0x104 c:/program files/microchip/xc32/v2.50/bin/bin/../../lib/gcc/pic32mx/4.8.3/../../../../pic32mx/lib/fpu64\libc.a(ctype.o)
                0x9d01dc38                _ctype

.text.mw_message_queue_insert
                0x9d01dd3c      0x100
 .text.mw_message_queue_insert
                0x9d01dd3c      0x100 build/default/production/_ext/59636182/miniwin_message_queue.o
                0x9d01dd3c                mw_message_queue_insert

.text.disk_write
                0x9d01de3c       0xfc
 .text.disk_write
                0x9d01de3c       0xfc build/default/production/_ext/1592496102/sdmm.o
                0x9d01de3c                disk_write

.text.update_arrow_enable_states
                0x9d01df38       0xfc
 .text.update_arrow_enable_states
                0x9d01df38       0xfc build/default/production/_ext/481733874/dialog_time_chooser.o

.text.pixel     0x9d01e034       0xfc
 .text.pixel    0x9d01e034       0xfc build/default/production/_ext/1494914114/gl.o

.text.GPIO_Initialize
                0x9d01e130       0xf8
 .text.GPIO_Initialize
                0x9d01e130       0xf8 build/default/production/_ext/1865254177/plib_gpio.o
                0x9d01e130                GPIO_Initialize

.text.mw_bring_window_to_front
                0x9d01e228       0xf8
 .text.mw_bring_window_to_front
                0x9d01e228       0xf8 build/default/production/_ext/59636182/miniwin.o
                0x9d01e228                mw_bring_window_to_front

.text.mw_util_shell_sort
                0x9d01e320       0xf8
 .text.mw_util_shell_sort
                0x9d01e320       0xf8 build/default/production/_ext/59636182/miniwin_utilities.o
                0x9d01e320                mw_util_shell_sort

.text.app_populate_tree_from_file_system
                0x9d01e418       0xf8
 .text.app_populate_tree_from_file_system
                0x9d01e418       0xf8 build/default/production/_ext/1445274692/app.o
                0x9d01e418                app_populate_tree_from_file_system

.text.f_opendir
                0x9d000010       0xf0
 .text.f_opendir
                0x9d000010       0xf0 build/default/production/_ext/1592496102/ff.o
                0x9d000010                f_opendir

.text.button_message_function
                0x9d01e510       0xf0
 .text.button_message_function
                0x9d01e510       0xf0 build/default/production/_ext/1494913683/ui_button.o

.text.get_fileinfo
                0x9d01e600       0xec
 .text.get_fileinfo
                0x9d01e600       0xec build/default/production/_ext/1592496102/ff.o

.text.sync_fs   0x9d01e6ec       0xe8
 .text.sync_fs  0x9d01e6ec       0xe8 build/default/production/_ext/1592496102/ff.o

.text.dir_register
                0x9d01e7d4       0xe8
 .text.dir_register
                0x9d01e7d4       0xe8 build/default/production/_ext/1592496102/ff.o

.text.mw_gl_colour_bitmap
                0x9d01e8bc       0xe8
 .text.mw_gl_colour_bitmap
                0x9d01e8bc       0xe8 build/default/production/_ext/1494914114/gl.o
                0x9d01e8bc                mw_gl_colour_bitmap

.text.find_window_point_is_in
                0x9d01e9a4       0xe8
 .text.find_window_point_is_in
                0x9d01e9a4       0xe8 build/default/production/_ext/59636182/miniwin.o

.text.dir_read  0x9d01ea8c       0xe4
 .text.dir_read
                0x9d01ea8c       0xe4 build/default/production/_ext/1592496102/ff.o

.text.get_file_dimensions
                0x9d01eb70       0xe4
 .text.get_file_dimensions
                0x9d01eb70       0xe4 build/default/production/_ext/165771656/window_text.o

.text.mw_gl_get_string_width_pixels
                0x9d01ec54       0xe0
 .text.mw_gl_get_string_width_pixels
                0x9d01ec54       0xe0 build/default/production/_ext/1494914114/gl.o
                0x9d01ec54                mw_gl_get_string_width_pixels

.text.do_paint_window_client2
                0x9d01ed34       0xe0
 .text.do_paint_window_client2
                0x9d01ed34       0xe0 build/default/production/_ext/59636182/miniwin.o

.text.find_control_point_is_in
                0x9d01ee14       0xe0
 .text.find_control_point_is_in
                0x9d01ee14       0xe0 build/default/production/_ext/59636182/miniwin.o

.text.mw_tree_container_change_folder_node_open_state
                0x9d01eef4       0xe0
 .text.mw_tree_container_change_folder_node_open_state
                0x9d01eef4       0xe0 build/default/production/_ext/59636182/miniwin_tree_container.o
                0x9d01eef4                mw_tree_container_change_folder_node_open_state

.text.general_exception
                0x9d01efd4       0xdc
 .text.general_exception
                0x9d01efd4       0xdc c:/program files/microchip/xc32/v2.50/bin/bin/../../lib/gcc/pic32mx/4.8.3/../../../../pic32mx/lib/fpu64\libpic32.a(general-exception.o)
                0x9d01efd4                _general_exception_context

.text._cache_err_exception_context
                0x9d01f0b0       0xd8
 .text._cache_err_exception_context
                0x9d01f0b0       0xd8 c:/program files/microchip/xc32/v2.50/bin/bin/../../lib/gcc/pic32mx/4.8.3/../../../../pic32mx/lib/fpu64\libpic32.a(cache-err-exception.o)
                0x9d01f0b0                _cache_err_exception_context

.text.simple_tlb_refill_context
                0x9d01f188       0xd8
 .text.simple_tlb_refill_context
                0x9d01f188       0xd8 c:/program files/microchip/xc32/v2.50/bin/bin/../../lib/gcc/pic32mx/4.8.3/../../../../pic32mx/lib/fpu64\libpic32.a(simple-tlb-refill-exception.o)
                0x9d01f188                _simple_tlb_refill_exception_context

.rodata         0x9d01f260       0xd0
 .rodata        0x9d01f260       0xd0 build/default/production/_ext/1494913683/ui_keyboard.o

.text.mw_message_queue_remove
                0x9d01f330       0xd0
 .text.mw_message_queue_remove
                0x9d01f330       0xd0 build/default/production/_ext/59636182/miniwin_message_queue.o
                0x9d01f330                mw_message_queue_remove

.text.mw_tree_container_remove_node_children
                0x9d01f400       0xd0
 .text.mw_tree_container_remove_node_children
                0x9d01f400       0xd0 build/default/production/_ext/59636182/miniwin_tree_container.o
                0x9d01f400                mw_tree_container_remove_node_children

.text.dir_clear
                0x9d01f4d0       0xcc
 .text.dir_clear
                0x9d01f4d0       0xcc build/default/production/_ext/1592496102/ff.o

.rodata         0x9d01f59c       0xcc
 .rodata        0x9d01f59c       0xcc build/default/production/_ext/481733874/dialog_date_chooser.o

.text.disk_read
                0x9d01f668       0xc8
 .text.disk_read
                0x9d01f668       0xc8 build/default/production/_ext/1592496102/sdmm.o
                0x9d01f668                disk_read

.rodata         0x9d01f730       0xc8
 .rodata        0x9d01f730       0xc8 c:/program files/microchip/xc32/v2.50/bin/bin/../../lib/gcc/pic32mx/4.8.3/../../../../pic32mx/lib/fpu64\libmfd.a(e_rem_pio2.o)

.text._sbrk     0x9d01f7f8       0xc8
 .text._sbrk    0x9d01f7f8       0xc8 c:/program files/microchip/xc32/v2.50/bin/bin/../../lib/gcc/pic32mx/4.8.3/../../../../pic32mx/lib/fpu64\libpic32.a(sbrk.o)
                0x9d01f7f8                _sbrk

.text.add_minimised_window_to_list
                0x9d01f8c0       0xc4
 .text.add_minimised_window_to_list
                0x9d01f8c0       0xc4 build/default/production/_ext/59636182/miniwin.o
                0x9d01f8c0                add_minimised_window_to_list

.text.create_new_file
                0x9d01f984       0xc0
 .text.create_new_file
                0x9d01f984       0xc0 build/default/production/_ext/165771656/window_file.o

.text.find_minimsed_icon_location
                0x9d01fa44       0xbc
 .text.find_minimsed_icon_location
                0x9d01fa44       0xbc build/default/production/_ext/59636182/miniwin.o

.tlb.__pic32_tlb_init_ebi_sqi
                0x9d01fb00       0xbc
 .tlb.__pic32_tlb_init_ebi_sqi
                0x9d01fb00       0xbc c:/program files/microchip/xc32/v2.50/bin/bin/../../lib/gcc/pic32mx/4.8.3/../../../../pic32mx/lib/fpu64\libpic32.a(pic32_init_tlb_ebi_sqi.o)
                0x9d01fb00                __pic32_tlb_init_ebi_sqi

.text.SPI2_TransferSetup
                0x9d01fbbc       0xb8
 .text.SPI2_TransferSetup
                0x9d01fbbc       0xb8 build/default/production/_ext/298189674/plib_spi2_master.o
                0x9d01fbbc                SPI2_TransferSetup

.rodata         0x9d01fc74       0xb8
 .rodata        0x9d01fc74       0xb8 build/default/production/_ext/481733874/dialog_time_chooser.o

.text.mw_util_strrev
                0x9d01fd2c       0xb8
 .text.mw_util_strrev
                0x9d01fd2c       0xb8 build/default/production/_ext/59636182/miniwin_utilities.o
                0x9d01fd2c                mw_util_strrev

.text.__kernel_sin
                0x9d01fde4       0xb8
 .text.__kernel_sin
                0x9d01fde4       0xb8 c:/program files/microchip/xc32/v2.50/bin/bin/../../lib/gcc/pic32mx/4.8.3/../../../../pic32mx/lib/fpu64\libmfd.a(k_sin.o)
                0x9d01fde4                __kernel_sin

.text.check_fs  0x9d01fe9c       0xb4
 .text.check_fs
                0x9d01fe9c       0xb4 build/default/production/_ext/1592496102/ff.o

.rodata         0x9d01ff50       0xb4
 .rodata        0x9d01ff50       0xb4 build/default/production/_ext/59636182/miniwin_message_queue.o

.text.window_file_tree_paint_function
                0x9d020004       0xb4
 .text.window_file_tree_paint_function
                0x9d020004       0xb4 build/default/production/_ext/165771656/window_file_tree.o
                0x9d020004                window_file_tree_paint_function

.text.window_selection_message_function
                0x9d0200b8       0xb4
 .text.window_selection_message_function
                0x9d0200b8       0xb4 build/default/production/_ext/165771656/window_selection.o
                0x9d0200b8                window_selection_message_function

.text.mw_dialog_file_chooser_paint_function
                0x9d02016c       0xac
 .text.mw_dialog_file_chooser_paint_function
                0x9d02016c       0xac build/default/production/_ext/481733874/dialog_file_chooser.o

.text.mw_ui_label_add_new
                0x9d020218       0xac
 .text.mw_ui_label_add_new
                0x9d020218       0xac build/default/production/_ext/1494913683/ui_label.o
                0x9d020218                mw_ui_label_add_new

.text.mw_tree_container_get_node_label
                0x9d0202c4       0xac
 .text.mw_tree_container_get_node_label
                0x9d0202c4       0xac build/default/production/_ext/59636182/miniwin_tree_container.o
                0x9d0202c4                mw_tree_container_get_node_label

.rodata         0x9d020370       0xa8
 .rodata        0x9d020370       0xa8 build/default/production/_ext/481733874/dialog_file_chooser.o

.text.mw_gl_solid_fill_pixel
                0x9d020418       0xa8
 .text.mw_gl_solid_fill_pixel
                0x9d020418       0xa8 build/default/production/_ext/1494914114/gl.o
                0x9d020418                mw_gl_solid_fill_pixel

.text.mw_ui_arrow_add_new
                0x9d0204c0       0xa8
 .text.mw_ui_arrow_add_new
                0x9d0204c0       0xa8 build/default/production/_ext/1494913683/ui_arrow.o
                0x9d0204c0                mw_ui_arrow_add_new

.text.mw_ui_button_add_new
                0x9d020568       0xa8
 .text.mw_ui_button_add_new
                0x9d020568       0xa8 build/default/production/_ext/1494913683/ui_button.o
                0x9d020568                mw_ui_button_add_new

.text.mw_ui_keyboard_add_new
                0x9d020610       0xa8
 .text.mw_ui_keyboard_add_new
                0x9d020610       0xa8 build/default/production/_ext/1494913683/ui_keyboard.o
                0x9d020610                mw_ui_keyboard_add_new

.text.mw_set_control_enabled
                0x9d0206b8       0xa8
 .text.mw_set_control_enabled
                0x9d0206b8       0xa8 build/default/production/_ext/59636182/miniwin.o
                0x9d0206b8                mw_set_control_enabled

.text           0x9d020760       0xa8
 .text          0x9d020760       0xa8 c:/program files/microchip/xc32/v2.50/bin/bin/../../lib/gcc/pic32mx/4.8.3/../../../../pic32mx/lib/fpu64\libpic32.a(memset.o)
                0x9d020760                memset

.text.CLK_Initialize
                0x9d020808       0xa4
 .text.CLK_Initialize
                0x9d020808       0xa4 build/default/production/_ext/60165520/plib_clk.o
                0x9d020808                CLK_Initialize

.rodata         0x9d0208ac       0xa4
 .rodata        0x9d0208ac       0xa4 build/default/production/_ext/481733874/dialog_text_entry.o

.text.remove_minimised_window_from_list
                0x9d020950       0xa4
 .text.remove_minimised_window_from_list
                0x9d020950       0xa4 build/default/production/_ext/59636182/miniwin.o
                0x9d020950                remove_minimised_window_from_list

.text.mw_paint_window_client_rect
                0x9d0209f4       0xa4
 .text.mw_paint_window_client_rect
                0x9d0209f4       0xa4 build/default/production/_ext/59636182/miniwin.o
                0x9d0209f4                mw_paint_window_client_rect

.rodata         0x9d020a98       0xa0
 .rodata        0x9d020a98       0xa0 build/default/production/_ext/1592496102/ff.o

.text.sync_window
                0x9d020b38       0xa0
 .text.sync_window
                0x9d020b38       0xa0 build/default/production/_ext/1592496102/ff.o

.text.mw_ui_scroll_bar_vert_add_new
                0x9d020bd8       0xa0
 .text.mw_ui_scroll_bar_vert_add_new
                0x9d020bd8       0xa0 build/default/production/_ext/1494913683/ui_scroll_bar_vert.o
                0x9d020bd8                mw_ui_scroll_bar_vert_add_new

.text.rcvr_datablock
                0x9d020c78       0x9c
 .text.rcvr_datablock
                0x9d020c78       0x9c build/default/production/_ext/1592496102/sdmm.o

.text.get_max_date_for_month_and_year
                0x9d020d14       0x9c
 .text.get_max_date_for_month_and_year
                0x9d020d14       0x9c build/default/production/_ext/481733874/dialog_date_chooser.o

.text.mw_dialog_two_button_message_function
                0x9d020db0       0x9c
 .text.mw_dialog_two_button_message_function
                0x9d020db0       0x9c build/default/production/_ext/481733874/dialog_two_button.o

.text.mw_hal_non_vol_save
                0x9d020e4c       0x9c
 .text.mw_hal_non_vol_save
                0x9d020e4c       0x9c build/default/production/_ext/776318040/hal_non_vol.o
                0x9d020e4c                mw_hal_non_vol_save

.text.draw_redimensioning_window_outline
                0x9d020ee8       0x9c
 .text.draw_redimensioning_window_outline
                0x9d020ee8       0x9c build/default/production/_ext/59636182/miniwin.o

.text.mw_util_do_rects_coincide
                0x9d020f84       0x9c
 .text.mw_util_do_rects_coincide
                0x9d020f84       0x9c build/default/production/_ext/59636182/miniwin_utilities.o
                0x9d020f84                mw_util_do_rects_coincide

.text.SYS_Initialize
                0x9d021020       0x98
 .text.SYS_Initialize
                0x9d021020       0x98 build/default/production/_ext/1171490990/initialization.o
                0x9d021020                SYS_Initialize

.text.f_readdir
                0x9d0210b8       0x98
 .text.f_readdir
                0x9d0210b8       0x98 build/default/production/_ext/1592496102/ff.o
                0x9d0210b8                f_readdir

.text.mw_gl_get_font_height
                0x9d021150       0x98
 .text.mw_gl_get_font_height
                0x9d021150       0x98 build/default/production/_ext/1494914114/gl.o
                0x9d021150                mw_gl_get_font_height

.text.label_message_function
                0x9d0211e8       0x98
 .text.label_message_function
                0x9d0211e8       0x98 build/default/production/_ext/1494913683/ui_label.o

.text.mw_settings_set_calibration_matrix
                0x9d021280       0x98
 .text.mw_settings_set_calibration_matrix
                0x9d021280       0x98 build/default/production/_ext/59636182/miniwin_settings.o
                0x9d021280                mw_settings_set_calibration_matrix

.text.mw_util_safe_strcpy
                0x9d021318       0x98
 .text.mw_util_safe_strcpy
                0x9d021318       0x98 build/default/production/_ext/59636182/miniwin_utilities.o
                0x9d021318                mw_util_safe_strcpy

.text.mw_set_window_horiz_scroll_bar_enabled_state
                0x9d0213b0       0x94
 .text.mw_set_window_horiz_scroll_bar_enabled_state
                0x9d0213b0       0x94 build/default/production/_ext/59636182/miniwin.o
                0x9d0213b0                mw_set_window_horiz_scroll_bar_enabled_state

.text.mw_set_window_vert_scroll_bar_enabled_state
                0x9d021444       0x94
 .text.mw_set_window_vert_scroll_bar_enabled_state
                0x9d021444       0x94 build/default/production/_ext/59636182/miniwin.o
                0x9d021444                mw_set_window_vert_scroll_bar_enabled_state

.text.mw_tree_container_get_node_flags
                0x9d0214d8       0x94
 .text.mw_tree_container_get_node_flags
                0x9d0214d8       0x94 build/default/production/_ext/59636182/miniwin_tree_container.o
                0x9d0214d8                mw_tree_container_get_node_flags

.text.mw_tree_container_get_node_level
                0x9d02156c       0x94
 .text.mw_tree_container_get_node_level
                0x9d02156c       0x94 build/default/production/_ext/59636182/miniwin_tree_container.o
                0x9d02156c                mw_tree_container_get_node_level

.text.mw_util_limit_point_to_rect_size
                0x9d021600       0x94
 .text.mw_util_limit_point_to_rect_size
                0x9d021600       0x94 build/default/production/_ext/59636182/miniwin_utilities.o
                0x9d021600                mw_util_limit_point_to_rect_size

.text.validate  0x9d021694       0x90
 .text.validate
                0x9d021694       0x90 build/default/production/_ext/1592496102/ff.o

.rodata         0x9d021724      0x120
 .rodata        0x9d021724       0x90 build/default/production/_ext/1494913683/ui_list_box.o
 .rodata        0x9d0217b4       0x90 build/default/production/_ext/165771656/window_image.o

.rodata         0x9d021844       0x90
 .rodata        0x9d021844       0x90 build/default/production/_ext/165771656/window_text.o

.text.f_mount   0x9d0218d4       0x8c
 .text.f_mount  0x9d0218d4       0x8c build/default/production/_ext/1592496102/ff.o
                0x9d0218d4                f_mount

.text.get_font_data
                0x9d021960       0x8c
 .text.get_font_data
                0x9d021960       0x8c build/default/production/_ext/1494914114/gl.o

.text.mw_gl_get_font_width
                0x9d0219ec       0x8c
 .text.mw_gl_get_font_width
                0x9d0219ec       0x8c build/default/production/_ext/1494914114/gl.o
                0x9d0219ec                mw_gl_get_font_width

.text.mw_get_window_client_rect
                0x9d021a78       0x8c
 .text.mw_get_window_client_rect
                0x9d021a78       0x8c build/default/production/_ext/59636182/miniwin.o
                0x9d021a78                mw_get_window_client_rect

.text.mw_get_control_rect
                0x9d021b04       0x8c
 .text.mw_get_control_rect
                0x9d021b04       0x8c build/default/production/_ext/59636182/miniwin.o
                0x9d021b04                mw_get_control_rect

.text.mw_tree_container_deselect_all_nodes
                0x9d021b90       0x8c
 .text.mw_tree_container_deselect_all_nodes
                0x9d021b90       0x8c build/default/production/_ext/59636182/miniwin_tree_container.o
                0x9d021b90                mw_tree_container_deselect_all_nodes

.text.mw_util_strcicmp
                0x9d021c1c       0x8c
 .text.mw_util_strcicmp
                0x9d021c1c       0x8c build/default/production/_ext/59636182/miniwin_utilities.o
                0x9d021c1c                mw_util_strcicmp

.text.xmit_datablock
                0x9d021ca8       0x88
 .text.xmit_datablock
                0x9d021ca8       0x88 build/default/production/_ext/1592496102/sdmm.o

.rodata         0x9d021d30      0x110
 .rodata        0x9d021d30       0x88 build/default/production/_ext/481733874/dialog_one_button.o
 .rodata        0x9d021db8       0x88 build/default/production/_ext/481733874/dialog_two_button.o

.text.getDisplayPoint
                0x9d021e40       0x88
 .text.getDisplayPoint
                0x9d021e40       0x88 build/default/production/_ext/59636182/calibrate.o
                0x9d021e40                getDisplayPoint

.text.paint_all_controls_in_window
                0x9d021ec8       0x88
 .text.paint_all_controls_in_window
                0x9d021ec8       0x88 build/default/production/_ext/59636182/miniwin.o

.text.mw_tree_container_set_new_node_array
                0x9d021f50       0x84
 .text.mw_tree_container_set_new_node_array
                0x9d021f50       0x84 build/default/production/_ext/59636182/miniwin_tree_container.o
                0x9d021f50                mw_tree_container_set_new_node_array

.text           0x9d021fd4       0x84
 .text          0x9d021fd4       0x84 c:/program files/microchip/xc32/v2.50/bin/bin/../../lib/gcc/pic32mx/4.8.3/../../../../pic32mx/lib/fpu64\libpic32.a(pic32_data_init.o)
                0x9d021fd4                __pic32_data_init

.text.mw_dialog_one_button_message_function
                0x9d022058       0x80
 .text.mw_dialog_one_button_message_function
                0x9d022058       0x80 build/default/production/_ext/481733874/dialog_one_button.o

.text.mw_util_is_point_in_rect
                0x9d0220d8       0x80
 .text.mw_util_is_point_in_rect
                0x9d0220d8       0x80 build/default/production/_ext/59636182/miniwin_utilities.o
                0x9d0220d8                mw_util_is_point_in_rect

.text.move_window
                0x9d022158       0x7c
 .text.move_window
                0x9d022158       0x7c build/default/production/_ext/1592496102/ff.o

.text.mw_paint_window_frame
                0x9d0221d4       0x7c
 .text.mw_paint_window_frame
                0x9d0221d4       0x7c build/default/production/_ext/59636182/miniwin.o
                0x9d0221d4                mw_paint_window_frame

.text.mw_paint_control_rect
                0x9d022250       0x7c
 .text.mw_paint_control_rect
                0x9d022250       0x7c build/default/production/_ext/59636182/miniwin.o
                0x9d022250                mw_paint_control_rect

.text.mw_util_safe_strcat
                0x9d0222cc       0x7c
 .text.mw_util_safe_strcat
                0x9d0222cc       0x7c build/default/production/_ext/59636182/miniwin_utilities.o
                0x9d0222cc                mw_util_safe_strcat

.text.mw_util_get_filename_ext
                0x9d022348       0x7c
 .text.mw_util_get_filename_ext
                0x9d022348       0x7c build/default/production/_ext/59636182/miniwin_utilities.o
                0x9d022348                mw_util_get_filename_ext

.text.SPI1_Initialize
                0x9d0223c4       0x78
 .text.SPI1_Initialize
                0x9d0223c4       0x78 build/default/production/_ext/298189674/plib_spi1_master.o
                0x9d0223c4                SPI1_Initialize

.text.find_if_rect_is_completely_on_screen
                0x9d02243c       0x78
 .text.find_if_rect_is_completely_on_screen
                0x9d02243c       0x78 build/default/production/_ext/59636182/miniwin.o

.text.get_id_from_handle
                0x9d0224b4       0x78
 .text.get_id_from_handle
                0x9d0224b4       0x78 build/default/production/_ext/59636182/miniwin_tree_container.o

.text.NVM_StartOperationAtAddress
                0x9d02252c       0x74
 .text.NVM_StartOperationAtAddress
                0x9d02252c       0x74 build/default/production/_ext/60176403/plib_nvm.o

.text.SPI2_Initialize
                0x9d0225a0       0x74
 .text.SPI2_Initialize
                0x9d0225a0       0x74 build/default/production/_ext/298189674/plib_spi2_master.o
                0x9d0225a0                SPI2_Initialize

.text.clmt_clust
                0x9d022614       0x74
 .text.clmt_clust
                0x9d022614       0x74 build/default/production/_ext/1592496102/ff.o

.text.mw_user_root_paint_function
                0x9d022688       0x74
 .text.mw_user_root_paint_function
                0x9d022688       0x74 build/default/production/_ext/165771656/miniwin_user.o
                0x9d022688                mw_user_root_paint_function

.text.mw_paint_window_client
                0x9d000110       0x70
 .text.mw_paint_window_client
                0x9d000110       0x70 build/default/production/_ext/59636182/miniwin.o
                0x9d000110                mw_paint_window_client

.text.mw_paint_control
                0x9d000190       0x70
 .text.mw_paint_control
                0x9d000190       0x70 build/default/production/_ext/59636182/miniwin.o
                0x9d000190                mw_paint_control

.text.node_callback
                0x9d0226fc       0x70
 .text.node_callback
                0x9d0226fc       0x70 build/default/production/_ext/165771656/window_selection.o

.rodata         0x9d02276c       0x6c
 .rodata        0x9d02276c       0x6c build/default/production/_ext/1494913683/ui_tree.o

.text.strncat   0x9d0227d8       0x6c
 .text.strncat  0x9d0227d8       0x6c c:/program files/microchip/xc32/v2.50/bin/bin/../../lib/gcc/pic32mx/4.8.3/../../../../pic32mx/lib/fpu64\libc.a(strncat.o)
                0x9d0227d8                strncat

.rodata         0x9d022844       0x68
 .rodata        0x9d022844       0x68 build/default/production/_ext/1494913683/ui_arrow.o

.text.strrchr   0x9d0228ac       0x68
 .text.strrchr  0x9d0228ac       0x68 c:/program files/microchip/xc32/v2.50/bin/bin/../../lib/gcc/pic32mx/4.8.3/../../../../pic32mx/lib/fpu64\libc.a(strrchr.o)
                0x9d0228ac                strrchr

.text.expand_node_array
                0x9d022914       0x64
 .text.expand_node_array
                0x9d022914       0x64 build/default/production/_ext/165771656/miniwin_user.o

.text.get_fattime
                0x9d022978       0x64
 .text.get_fattime
                0x9d022978       0x64 build/default/production/_ext/1445274692/app.o
                0x9d022978                get_fattime

.text.memmove   0x9d0229dc       0x64
 .text.memmove  0x9d0229dc       0x64 c:/program files/microchip/xc32/v2.50/bin/bin/../../lib/gcc/pic32mx/4.8.3/../../../../pic32mx/lib/fpu64\libc.a(memmove.o)
                0x9d0229dc                memmove

.rodata         0x9d022a40       0x60
 .rodata        0x9d022a40       0x60 build/default/production/_ext/59636182/miniwin_touch.o

.text.wait_ready
                0x9d022aa0       0x5c
 .text.wait_ready
                0x9d022aa0       0x5c build/default/production/_ext/1592496102/sdmm.o

.text.select    0x9d022afc       0x5c
 .text.select   0x9d022afc       0x5c build/default/production/_ext/1592496102/sdmm.o

.text.mw_hal_non_vol_load
                0x9d022b58       0x5c
 .text.mw_hal_non_vol_load
                0x9d022b58       0x5c build/default/production/_ext/776318040/hal_non_vol.o
                0x9d022b58                mw_hal_non_vol_load

.rodata         0x9d022bb4       0x5c
 .rodata        0x9d022bb4       0x5c build/default/production/_ext/1494913683/ui_scroll_bar_vert.o

.text.find_highest_z_order_at_point
                0x9d022c10       0x5c
 .text.find_highest_z_order_at_point
                0x9d022c10       0x5c build/default/production/_ext/59636182/miniwin.o

.text.mw_is_window_handle_valid
                0x9d022c6c       0x5c
 .text.mw_is_window_handle_valid
                0x9d022c6c       0x5c build/default/production/_ext/59636182/miniwin.o
                0x9d022c6c                mw_is_window_handle_valid

.text.mw_is_any_window_modal
                0x9d022cc8       0x5c
 .text.mw_is_any_window_modal
                0x9d022cc8       0x5c build/default/production/_ext/59636182/miniwin.o
                0x9d022cc8                mw_is_any_window_modal

.text.mw_get_window_instance_data
                0x9d022d24       0x5c
 .text.mw_get_window_instance_data
                0x9d022d24       0x5c build/default/production/_ext/59636182/miniwin.o
                0x9d022d24                mw_get_window_instance_data

.text.mw_get_control_parent_window_handle
                0x9d022d80       0x5c
 .text.mw_get_control_parent_window_handle
                0x9d022d80       0x5c build/default/production/_ext/59636182/miniwin.o
                0x9d022d80                mw_get_control_parent_window_handle

.text.mw_get_control_instance_data
                0x9d022ddc       0x5c
 .text.mw_get_control_instance_data
                0x9d022ddc       0x5c build/default/production/_ext/59636182/miniwin.o
                0x9d022ddc                mw_get_control_instance_data

.text.mw_get_control_flags
                0x9d022e38       0x5c
 .text.mw_get_control_flags
                0x9d022e38       0x5c build/default/production/_ext/59636182/miniwin.o
                0x9d022e38                mw_get_control_flags

.rodata         0x9d022e94       0xb8
 .rodata        0x9d022e94       0x5c build/default/production/_ext/165771656/window_file_tree.o
 .rodata        0x9d022ef0       0x5c build/default/production/_ext/165771656/window_selection.o

.rodata         0x9d022f4c       0x5c
 .rodata        0x9d022f4c       0x5c build/default/production/_ext/1445274692/app.o

.text.mw_gl_bg_pixel
                0x9d022fa8       0x58
 .text.mw_gl_bg_pixel
                0x9d022fa8       0x58 build/default/production/_ext/1494914114/gl.o
                0x9d022fa8                mw_gl_bg_pixel

.text.mw_find_if_any_window_slots_free
                0x9d023000       0x58
 .text.mw_find_if_any_window_slots_free
                0x9d023000       0x58 build/default/production/_ext/59636182/miniwin.o
                0x9d023000                mw_find_if_any_window_slots_free

.text.get_control_id_for_handle
                0x9d023058       0x54
 .text.get_control_id_for_handle
                0x9d023058       0x54 build/default/production/_ext/59636182/miniwin.o

.text.mw_message_queue_get_ref_to_item_at_position
                0x9d0230ac       0x54
 .text.mw_message_queue_get_ref_to_item_at_position
                0x9d0230ac       0x54 build/default/production/_ext/59636182/miniwin_message_queue.o
                0x9d0230ac                mw_message_queue_get_ref_to_item_at_position

.rodata         0x9d023100       0x54
 .rodata        0x9d023100       0x54 build/default/production/_ext/165771656/miniwin_user.o

.text.app_init  0x9d023154       0x54
 .text.app_init
                0x9d023154       0x54 build/default/production/_ext/1445274692/app.o
                0x9d023154                app_init

.text.main_entry
                0x9d0231a8       0x54
 .text.main_entry
                0x9d0231a8       0x54 C:\Users\John\AppData\Local\Temp\ccWRxhWa.o
                0x9d0231dc                __crt0_exit

.text.get_window_id_for_handle
                0x9d0231fc       0x50
 .text.get_window_id_for_handle
                0x9d0231fc       0x50 build/default/production/_ext/59636182/miniwin.o

.text.root_paint_function
                0x9d02324c       0x50
 .text.root_paint_function
                0x9d02324c       0x50 build/default/production/_ext/59636182/miniwin.o

.text.sbrk      0x9d02329c       0x50
 .text.sbrk     0x9d02329c       0x50 c:/program files/microchip/xc32/v2.50/bin/bin/../../lib/gcc/pic32mx/4.8.3/../../../../pic32mx/lib/fpu64\libpic32.a(sbrk.o)
                0x9d02329c                sbrk

.text.find_number_of_displayed_windows
                0x9d0232ec       0x4c
 .text.find_number_of_displayed_windows
                0x9d0232ec       0x4c build/default/production/_ext/59636182/miniwin.o

.text.mw_util_set_rect
                0x9d023338       0x4c
 .text.mw_util_set_rect
                0x9d023338       0x4c build/default/production/_ext/59636182/miniwin_utilities.o
                0x9d023338                mw_util_set_rect

.text.mw_util_get_bit
                0x9d023384       0x4c
 .text.mw_util_get_bit
                0x9d023384       0x4c build/default/production/_ext/59636182/miniwin_utilities.o
                0x9d023384                mw_util_get_bit

.rodata         0x9d0233d0       0x90
 .rodata        0x9d0233d0       0x48 build/default/production/_ext/1494913683/ui_button.o
 .rodata        0x9d023418       0x48 build/default/production/_ext/1494913683/ui_label.o

.rodata         0x9d023460       0x48
 .rodata        0x9d023460       0x48 c:/program files/microchip/xc32/v2.50/bin/bin/../../lib/gcc/pic32mx/4.8.3/../../../../pic32mx/lib/fpu64\libmfd.a(k_cos.o)

.text.CORETIMER_DelayMs
                0x9d0234a8       0x44
 .text.CORETIMER_DelayMs
                0x9d0234a8       0x44 build/default/production/_ext/1249264884/plib_coretimer.o
                0x9d0234a8                CORETIMER_DelayMs

.text.mw_gl_init
                0x9d0234ec       0x44
 .text.mw_gl_init
                0x9d0234ec       0x44 build/default/production/_ext/1494914114/gl.o
                0x9d0234ec                mw_gl_init

.text.mw_gl_set_font
                0x9d023530       0x44
 .text.mw_gl_set_font
                0x9d023530       0x44 build/default/production/_ext/1494914114/gl.o
                0x9d023530                mw_gl_set_font

.text.mw_gl_fg_pixel
                0x9d023574       0x44
 .text.mw_gl_fg_pixel
                0x9d023574       0x44 build/default/production/_ext/1494914114/gl.o
                0x9d023574                mw_gl_fg_pixel

.text.mw_ui_common_scale_scroll_bar_touch_point
                0x9d0235b8       0x44
 .text.mw_ui_common_scale_scroll_bar_touch_point
                0x9d0235b8       0x44 build/default/production/_ext/1494913683/ui_common.o
                0x9d0235b8                mw_ui_common_scale_scroll_bar_touch_point

.text           0x9d0235fc       0x44
 .text          0x9d0235fc       0x44 c:/program files/microchip/xc32/v2.50/bin/bin/../../lib/gcc/pic32mx/4.8.3/../../../../pic32mx/lib/fpu64\pic32_software_reset.o
                0x9d0235fc                __pic32_software_reset

.text.TMR2_Initialize
                0x9d023640       0x40
 .text.TMR2_Initialize
                0x9d023640       0x40 build/default/production/_ext/60181895/plib_tmr2.o
                0x9d023640                TMR2_Initialize

.text.TIMER_2_InterruptHandler
                0x9d023680       0x40
 .text.TIMER_2_InterruptHandler
                0x9d023680       0x40 build/default/production/_ext/60181895/plib_tmr2.o
                0x9d023680                TIMER_2_InterruptHandler

.text.TMR3_Initialize
                0x9d0236c0       0x40
 .text.TMR3_Initialize
                0x9d0236c0       0x40 build/default/production/_ext/60181895/plib_tmr3.o
                0x9d0236c0                TMR3_Initialize

.text.TIMER_3_InterruptHandler
                0x9d023700       0x40
 .text.TIMER_3_InterruptHandler
                0x9d023700       0x40 build/default/production/_ext/60181895/plib_tmr3.o
                0x9d023700                TIMER_3_InterruptHandler

.text.ld_clust  0x9d023740       0x40
 .text.ld_clust
                0x9d023740       0x40 build/default/production/_ext/1592496102/ff.o

.text.f_close   0x9d023780       0x40
 .text.f_close  0x9d023780       0x40 build/default/production/_ext/1592496102/ff.o
                0x9d023780                f_close

.text.mw_tree_container_empty
                0x9d0237c0       0x40
 .text.mw_tree_container_empty
                0x9d0237c0       0x40 build/default/production/_ext/59636182/miniwin_tree_container.o
                0x9d0237c0                mw_tree_container_empty

.text.mw_tree_container_get_size_node_array
                0x9d023800       0x40
 .text.mw_tree_container_get_size_node_array
                0x9d023800       0x40 build/default/production/_ext/59636182/miniwin_tree_container.o
                0x9d023800                mw_tree_container_get_size_node_array

.text.mw_tree_container_get_node_array
                0x9d023840       0x40
 .text.mw_tree_container_get_node_array
                0x9d023840       0x40 build/default/production/_ext/59636182/miniwin_tree_container.o
                0x9d023840                mw_tree_container_get_node_array

.text.CORETIMER_Initialize
                0x9d023880       0x3c
 .text.CORETIMER_Initialize
                0x9d023880       0x3c build/default/production/_ext/1249264884/plib_coretimer.o
                0x9d023880                CORETIMER_Initialize

.text.EVIC_Initialize
                0x9d0238bc       0x3c
 .text.EVIC_Initialize
                0x9d0238bc       0x3c build/default/production/_ext/1865200349/plib_evic.o
                0x9d0238bc                EVIC_Initialize

.rodata         0x9d0238f8       0x78
 .rodata        0x9d0238f8       0x3c build/default/production/_ext/1275709973/close_icon_large.o
                0x9d0238f8                mw_bitmaps_close_icon_large
 .rodata        0x9d023934       0x3c build/default/production/_ext/1275709973/maximise_icon_large.o
                0x9d023934                mw_bitmaps_maximise_icon_large

.rodata         0x9d023970       0x78
 .rodata        0x9d023970       0x3c build/default/production/_ext/1275709973/minimise_icon_large.o
                0x9d023970                mw_bitmaps_minimise_icon_large
 .rodata        0x9d0239ac       0x3c build/default/production/_ext/1275709973/resize_icon_large.o
                0x9d0239ac                mw_bitmaps_resize_icon_large

.text.mw_hal_init
                0x9d0239e8       0x3c
 .text.mw_hal_init
                0x9d0239e8       0x3c build/default/production/_ext/902303450/hal_init.o
                0x9d0239e8                mw_hal_init

.rodata         0x9d023a24       0x74
 .rodata        0x9d023a24       0x3c build/default/production/_ext/59636182/miniwin_settings.o
 .rodata        0x9d023a60       0x38 c:/program files/microchip/xc32/v2.50/bin/bin/../../lib/gcc/pic32mx/4.8.3/../../../../pic32mx/lib/fpu64\libmfd.a(k_sin.o)

.text.CORETIMER_DelayUs
                0x9d023a98       0x34
 .text.CORETIMER_DelayUs
                0x9d023a98       0x34 build/default/production/_ext/1249264884/plib_coretimer.o
                0x9d023a98                CORETIMER_DelayUs

.text.mw_paint_all
                0x9d023acc       0x34
 .text.mw_paint_all
                0x9d023acc       0x34 build/default/production/_ext/59636182/miniwin.o
                0x9d023acc                mw_paint_all

.text.app_set_time_date
                0x9d023b00       0x34
 .text.app_set_time_date
                0x9d023b00       0x34 build/default/production/_ext/1445274692/app.o
                0x9d023b00                app_set_time_date

.text.NVM_RowWrite
                0x9d023b34       0x30
 .text.NVM_RowWrite
                0x9d023b34       0x30 build/default/production/_ext/60176403/plib_nvm.o
                0x9d023b34                NVM_RowWrite

.text.clst2sect
                0x9d023b64       0x30
 .text.clst2sect
                0x9d023b64       0x30 build/default/production/_ext/1592496102/ff.o

.text.st_clust  0x9d023b94       0x30
 .text.st_clust
                0x9d023b94       0x30 build/default/production/_ext/1592496102/ff.o

.text.f_closedir
                0x9d023bc4       0x30
 .text.f_closedir
                0x9d023bc4       0x30 build/default/production/_ext/1592496102/ff.o
                0x9d023bc4                f_closedir

.text.write_command
                0x9d023bf4       0x30
 .text.write_command
                0x9d023bf4       0x30 build/default/production/_ext/776318040/hal_lcd.o

.text.write_data
                0x9d023c24       0x30
 .text.write_data
                0x9d023c24       0x30 build/default/production/_ext/776318040/hal_lcd.o

.text.main      0x9d023c54       0x30
 .text.main     0x9d023c54       0x30 build/default/production/_ext/165771656/main.o
                0x9d023c54                main

.text.app_file_getc
                0x9d023c84       0x30
 .text.app_file_getc
                0x9d023c84       0x30 build/default/production/_ext/1445274692/app.o
                0x9d023c84                app_file_getc

.text.app_file_read
                0x9d023cb4       0x30
 .text.app_file_read
                0x9d023cb4       0x30 build/default/production/_ext/1445274692/app.o
                0x9d023cb4                app_file_read

.text.app_file_write
                0x9d023ce4       0x30
 .text.app_file_write
                0x9d023ce4       0x30 build/default/production/_ext/1445274692/app.o
                0x9d023ce4                app_file_write

.text.NVM_Read  0x9d023d14       0x2c
 .text.NVM_Read
                0x9d023d14       0x2c build/default/production/_ext/60176403/plib_nvm.o
                0x9d023d14                NVM_Read

.text.ld_dword  0x9d023d40       0x2c
 .text.ld_dword
                0x9d023d40       0x2c build/default/production/_ext/1592496102/ff.o

.text.mem_cmp   0x9d023d6c       0x2c
 .text.mem_cmp  0x9d023d6c       0x2c build/default/production/_ext/1592496102/ff.o

.text.deselect  0x9d023d98       0x2c
 .text.deselect
                0x9d023d98       0x2c build/default/production/_ext/1592496102/sdmm.o

.text.mw_hal_timer_init
                0x9d023dc4       0x2c
 .text.mw_hal_timer_init
                0x9d023dc4       0x2c build/default/production/_ext/776318040/hal_timer.o
                0x9d023dc4                mw_hal_timer_init

.text.app_file_open
                0x9d023df0       0x2c
 .text.app_file_open
                0x9d023df0       0x2c build/default/production/_ext/1445274692/app.o
                0x9d023df0                app_file_open

.text.app_file_create
                0x9d023e1c       0x2c
 .text.app_file_create
                0x9d023e1c       0x2c build/default/production/_ext/1445274692/app.o
                0x9d023e1c                app_file_create

.text._stub_sbd_memlayout
                0x9d023e48       0x2c
 .text._stub_sbd_memlayout
                0x9d023e48       0x2c c:/program files/microchip/xc32/v2.50/bin/bin/../../lib/gcc/pic32mx/4.8.3/../../../../pic32mx/lib/fpu64\libpic32.a(sbrk.o)
                0x9d023e48                _sbd_memlayout
                0x9d023e48                _stub_sbd_memlayout

.text.NVM_WriteUnlockSequence
                0x9d023e74       0x28
 .text.NVM_WriteUnlockSequence
                0x9d023e74       0x28 build/default/production/_ext/60176403/plib_nvm.o

.text.SPI1_Read
                0x9d023e9c       0x28
 .text.SPI1_Read
                0x9d023e9c       0x28 build/default/production/_ext/298189674/plib_spi1_master.o
                0x9d023e9c                SPI1_Read

.text.get_cursor_x_coordinate
                0x9d023ec4       0x28
 .text.get_cursor_x_coordinate
                0x9d023ec4       0x28 build/default/production/_ext/481733874/dialog_text_entry.o

.text.TMR2_InterruptSvcRoutine
                0x9d023eec       0x28
 .text.TMR2_InterruptSvcRoutine
                0x9d023eec       0x28 build/default/production/_ext/776318040/hal_timer.o

.text.NVM_Initialize
                0x9d023f14       0x24
 .text.NVM_Initialize
                0x9d023f14       0x24 build/default/production/_ext/60176403/plib_nvm.o
                0x9d023f14                NVM_Initialize

.text._general_exception_handler
                0x9d023f38       0x24
 .text._general_exception_handler
                0x9d023f38       0x24 build/default/production/_ext/1171490990/exceptions.o
                0x9d023f38                _general_exception_handler

.text._bootstrap_exception_handler
                0x9d023f5c       0x24
 .text._bootstrap_exception_handler
                0x9d023f5c       0x24 build/default/production/_ext/1171490990/exceptions.o
                0x9d023f5c                _bootstrap_exception_handler

.text._cache_err_exception_handler
                0x9d023f80       0x24
 .text._cache_err_exception_handler
                0x9d023f80       0x24 build/default/production/_ext/1171490990/exceptions.o
                0x9d023f80                _cache_err_exception_handler

.text._simple_tlb_refill_exception_handler
                0x9d023fa4       0x24
 .text._simple_tlb_refill_exception_handler
                0x9d023fa4       0x24 build/default/production/_ext/1171490990/exceptions.o
                0x9d023fa4                _simple_tlb_refill_exception_handler

.text.mem_cpy   0x9d023fc8       0x24
 .text.mem_cpy  0x9d023fc8       0x24 build/default/production/_ext/1592496102/ff.o

.text.mw_settings_load
                0x9d023fec       0x24
 .text.mw_settings_load
                0x9d023fec       0x24 build/default/production/_ext/59636182/miniwin_settings.o
                0x9d023fec                mw_settings_load

.text.mw_settings_save
                0x9d024010       0x24
 .text.mw_settings_save
                0x9d024010       0x24 build/default/production/_ext/59636182/miniwin_settings.o
                0x9d024010                mw_settings_save

.text.app_file_seek
                0x9d024034       0x24
 .text.app_file_seek
                0x9d024034       0x24 build/default/production/_ext/1445274692/app.o
                0x9d024034                app_file_seek

.text.tolower   0x9d024058       0x24
 .text.tolower  0x9d024058       0x24 c:/program files/microchip/xc32/v2.50/bin/bin/../../lib/gcc/pic32mx/4.8.3/../../../../pic32mx/lib/fpu64\libc.a(ctypef.o)
                0x9d024058                tolower

.text.NVM_PageErase
                0x9d02407c       0x20
 .text.NVM_PageErase
                0x9d02407c       0x20 build/default/production/_ext/60176403/plib_nvm.o
                0x9d02407c                NVM_PageErase

.text.SPI2_Write
                0x9d02409c       0x20
 .text.SPI2_Write
                0x9d02409c       0x20 build/default/production/_ext/298189674/plib_spi2_master.o
                0x9d02409c                SPI2_Write

.text.SPI1_Write
                0x9d0240bc       0x20
 .text.SPI1_Write
                0x9d0240bc       0x20 build/default/production/_ext/298189674/plib_spi1_master.o
                0x9d0240bc                SPI1_Write

.text.st_dword  0x9d0240dc       0x20
 .text.st_dword
                0x9d0240dc       0x20 build/default/production/_ext/1592496102/ff.o

.rodata         0x9d0240fc       0x40
 .rodata        0x9d0240fc       0x20 build/default/production/_ext/1275709973/backspace_key.o
                0x9d0240fc                mw_bitmaps_backspace_key
 .rodata        0x9d02411c       0x20 build/default/production/_ext/1275709973/file_icon_large.o
                0x9d02411c                mw_bitmaps_file_icon_large

.rodata         0x9d02413c       0x40
 .rodata        0x9d02413c       0x20 build/default/production/_ext/1275709973/folder_close_icon_large.o
                0x9d02413c                mw_bitmaps_folder_close_icon_large
 .rodata        0x9d02415c       0x20 build/default/production/_ext/1275709973/folder_icon_large.o
                0x9d02415c                mw_bitmaps_folder_icon_large

.rodata         0x9d02417c       0x40
 .rodata        0x9d02417c       0x20 build/default/production/_ext/1275709973/folder_open_icon_large.o
                0x9d02417c                mw_bitmaps_folder_open_icon_large
 .rodata        0x9d02419c       0x20 build/default/production/_ext/1275709973/let_key.o
                0x9d02419c                mw_bitmaps_let_key

.rodata         0x9d0241bc       0x40
 .rodata        0x9d0241bc       0x20 build/default/production/_ext/1275709973/num_key.o
                0x9d0241bc                mw_bitmaps_num_key
 .rodata        0x9d0241dc       0x20 build/default/production/_ext/1275709973/shift_key.o
                0x9d0241dc                mw_bitmaps_shift_key

.rodata         0x9d0241fc       0x20
 .rodata        0x9d0241fc       0x20 build/default/production/_ext/1275709973/sym_key.o
                0x9d0241fc                mw_bitmaps_sym_key

.text.app_file_close
                0x9d02421c       0x20
 .text.app_file_close
                0x9d02421c       0x20 build/default/production/_ext/1445274692/app.o
                0x9d02421c                app_file_close

.text.app_get_time_date
                0x9d02423c       0x20
 .text.app_get_time_date
                0x9d02423c       0x20 build/default/production/_ext/1445274692/app.o
                0x9d02423c                app_get_time_date

.text.SPI1_send
                0x9d02425c       0x1c
 .text.SPI1_send
                0x9d02425c       0x1c build/default/production/_ext/1592496102/spi_driver.o
                0x9d02425c                SPI1_send

.text.SPI1_receive
                0x9d024278       0x1c
 .text.SPI1_receive
                0x9d024278       0x1c build/default/production/_ext/1592496102/spi_driver.o
                0x9d024278                SPI1_receive

.text.delay_us  0x9d024294       0x1c
 .text.delay_us
                0x9d024294       0x1c build/default/production/_ext/1592496102/spi_driver.o
                0x9d024294                delay_us

.rodata         0x9d0242b0       0x38
 .rodata        0x9d0242b0       0x1c build/default/production/_ext/1275709973/close_icon.o
                0x9d0242b0                mw_bitmaps_close_icon
 .rodata        0x9d0242cc       0x1c build/default/production/_ext/1275709973/maximise_icon.o
                0x9d0242cc                mw_bitmaps_maximise_icon

.rodata         0x9d0242e8       0x38
 .rodata        0x9d0242e8       0x1c build/default/production/_ext/1275709973/minimise_icon.o
                0x9d0242e8                mw_bitmaps_minimise_icon
 .rodata        0x9d024304       0x1c build/default/production/_ext/1275709973/resize_icon.o
                0x9d024304                mw_bitmaps_resize_icon

.text.mw_hal_delay_ms
                0x9d024320       0x1c
 .text.mw_hal_delay_ms
                0x9d024320       0x1c build/default/production/_ext/776318040/hal_delay.o
                0x9d024320                mw_hal_delay_ms

.text.mw_settings_is_initialised
                0x9d02433c       0x1c
 .text.mw_settings_is_initialised
                0x9d02433c       0x1c build/default/production/_ext/59636182/miniwin_settings.o
                0x9d02433c                mw_settings_is_initialised

.text.mw_settings_set_to_defaults
                0x9d024358       0x1c
 .text.mw_settings_set_to_defaults
                0x9d024358       0x1c build/default/production/_ext/59636182/miniwin_settings.o
                0x9d024358                mw_settings_set_to_defaults

.text           0x9d024374       0x18
 .text          0x9d024374       0x18 c:/program files/microchip/xc32/v2.50/bin/bin/../../lib/gcc/pic32mx/4.8.3/../../../../pic32mx/lib/fpu64\libpic32.a(default-nmi-handler.o)
                0x9d024374                _nmi_handler

.text.TMR2_Start
                0x9d02438c       0x14
 .text.TMR2_Start
                0x9d02438c       0x14 build/default/production/_ext/60181895/plib_tmr2.o
                0x9d02438c                TMR2_Start

.text.TMR3_Start
                0x9d0243a0       0x14
 .text.TMR3_Start
                0x9d0243a0       0x14 build/default/production/_ext/60181895/plib_tmr3.o
                0x9d0243a0                TMR3_Start

.text.TMR3_Stop
                0x9d0243b4       0x14
 .text.TMR3_Stop
                0x9d0243b4       0x14 build/default/production/_ext/60181895/plib_tmr3.o
                0x9d0243b4                TMR3_Stop

.text.SPI1_init
                0x9d0243c8       0x14
 .text.SPI1_init
                0x9d0243c8       0x14 build/default/production/_ext/1592496102/spi_driver.o
                0x9d0243c8                SPI1_init

.text.mw_hal_timer_fired
                0x9d0243dc       0x14
 .text.mw_hal_timer_fired
                0x9d0243dc       0x14 build/default/production/_ext/776318040/hal_timer.o
                0x9d0243dc                mw_hal_timer_fired

.text.mw_hal_touch_is_recalibration_required
                0x9d0243f0       0x14
 .text.mw_hal_touch_is_recalibration_required
                0x9d0243f0       0x14 build/default/production/_ext/776318040/hal_touch.o
                0x9d0243f0                mw_hal_touch_is_recalibration_required

.text.NVM_IsBusy
                0x9d024404       0x10
 .text.NVM_IsBusy
                0x9d024404       0x10 build/default/production/_ext/60176403/plib_nvm.o
                0x9d024404                NVM_IsBusy

.text.disk_status
                0x9d024414       0x10
 .text.disk_status
                0x9d024414       0x10 build/default/production/_ext/1592496102/sdmm.o
                0x9d024414                disk_status

.text.mw_hal_touch_get_state
                0x9d024424       0x10
 .text.mw_hal_touch_get_state
                0x9d024424       0x10 build/default/production/_ext/776318040/hal_touch.o
                0x9d024424                mw_hal_touch_get_state

.text.get_next_handle
                0x9d024434       0x10
 .text.get_next_handle
                0x9d024434       0x10 build/default/production/_ext/59636182/miniwin.o
                0x9d024434                get_next_handle

.rodata         0x9d024444       0x10
 .rodata        0x9d024444       0x10 build/default/production/_ext/59636182/miniwin_debug.o

.text.__exception_handler_break
                0x9d024454        0xc
 .text.__exception_handler_break
                0x9d024454        0xc c:/program files/microchip/xc32/v2.50/bin/bin/../../lib/gcc/pic32mx/4.8.3/../../../../pic32mx/lib/fpu64\software-debug-break.o
                0x9d024454                __exception_handler_break

.text.TMR2_CallbackRegister
                0x9d024460        0xc
 .text.TMR2_CallbackRegister
                0x9d024460        0xc build/default/production/_ext/60181895/plib_tmr2.o
                0x9d024460                TMR2_CallbackRegister

.text.TMR3_CallbackRegister
                0x9d02446c        0xc
 .text.TMR3_CallbackRegister
                0x9d02446c        0xc build/default/production/_ext/60181895/plib_tmr3.o
                0x9d02446c                TMR3_CallbackRegister

.text.mw_gl_set_fg_colour
                0x9d024478        0xc
 .text.mw_gl_set_fg_colour
                0x9d024478        0xc build/default/production/_ext/1494914114/gl.o
                0x9d024478                mw_gl_set_fg_colour

.text.mw_gl_set_bg_colour
                0x9d024484        0xc
 .text.mw_gl_set_bg_colour
                0x9d024484        0xc build/default/production/_ext/1494914114/gl.o
                0x9d024484                mw_gl_set_bg_colour

.text.mw_gl_set_solid_fill_colour
                0x9d024490        0xc
 .text.mw_gl_set_solid_fill_colour
                0x9d024490        0xc build/default/production/_ext/1494914114/gl.o
                0x9d024490                mw_gl_set_solid_fill_colour

.text.mw_gl_set_line
                0x9d02449c        0xc
 .text.mw_gl_set_line
                0x9d02449c        0xc build/default/production/_ext/1494914114/gl.o
                0x9d02449c                mw_gl_set_line

.text.mw_gl_clear_pattern
                0x9d0244a8        0xc
 .text.mw_gl_clear_pattern
                0x9d0244a8        0xc build/default/production/_ext/1494914114/gl.o
                0x9d0244a8                mw_gl_clear_pattern

.text.mw_gl_set_border
                0x9d0244b4        0xc
 .text.mw_gl_set_border
                0x9d0244b4        0xc build/default/production/_ext/1494914114/gl.o
                0x9d0244b4                mw_gl_set_border

.text.mw_gl_set_fill
                0x9d0244c0        0xc
 .text.mw_gl_set_fill
                0x9d0244c0        0xc build/default/production/_ext/1494914114/gl.o
                0x9d0244c0                mw_gl_set_fill

.text.mw_gl_set_bg_transparency
                0x9d0244cc        0xc
 .text.mw_gl_set_bg_transparency
                0x9d0244cc        0xc build/default/production/_ext/1494914114/gl.o
                0x9d0244cc                mw_gl_set_bg_transparency

.text.mw_gl_set_text_rotation
                0x9d0244d8        0xc
 .text.mw_gl_set_text_rotation
                0x9d0244d8        0xc build/default/production/_ext/1494914114/gl.o
                0x9d0244d8                mw_gl_set_text_rotation

.text.mw_settings_is_calibrated
                0x9d0244e4        0xc
 .text.mw_settings_is_calibrated
                0x9d0244e4        0xc build/default/production/_ext/59636182/miniwin_settings.o
                0x9d0244e4                mw_settings_is_calibrated

.text.mw_settings_set_calibrated
                0x9d0244f0        0xc
 .text.mw_settings_set_calibrated
                0x9d0244f0        0xc build/default/production/_ext/59636182/miniwin_settings.o
                0x9d0244f0                mw_settings_set_calibrated

.text.mw_settings_get_calibration_matrix
                0x9d0244fc        0xc
 .text.mw_settings_get_calibration_matrix
                0x9d0244fc        0xc build/default/production/_ext/59636182/miniwin_settings.o
                0x9d0244fc                mw_settings_get_calibration_matrix

.text.app_file_size
                0x9d024508        0xc
 .text.app_file_size
                0x9d024508        0xc build/default/production/_ext/1445274692/app.o
                0x9d024508                app_file_size

.rodata         0x9d024514       0x10
 .rodata        0x9d024514        0x8 build/default/production/_ext/1275709973/file_icon_small.o
                0x9d024514                mw_bitmaps_file_icon_small
 .rodata        0x9d02451c        0x8 build/default/production/_ext/1275709973/folder_close_icon_small.o
                0x9d02451c                mw_bitmaps_folder_close_icon_small

.rodata         0x9d024524       0x10
 .rodata        0x9d024524        0x8 build/default/production/_ext/1275709973/folder_icon_small.o
                0x9d024524                mw_bitmaps_folder_icon_small
 .rodata        0x9d02452c        0x8 build/default/production/_ext/1275709973/folder_open_icon_small.o
                0x9d02452c                mw_bitmaps_folder_open_icon_small

.text.mw_hal_delay_init
                0x9d024534        0x8
 .text.mw_hal_delay_init
                0x9d024534        0x8 build/default/production/_ext/776318040/hal_delay.o
                0x9d024534                mw_hal_delay_init

.text.mw_hal_lcd_get_display_width
                0x9d02453c        0x8
 .text.mw_hal_lcd_get_display_width
                0x9d02453c        0x8 build/default/production/_ext/776318040/hal_lcd.o
                0x9d02453c                mw_hal_lcd_get_display_width

.text.mw_hal_lcd_get_display_height
                0x9d024544        0x8
 .text.mw_hal_lcd_get_display_height
                0x9d024544        0x8 build/default/production/_ext/776318040/hal_lcd.o
                0x9d024544                mw_hal_lcd_get_display_height

.text.mw_hal_non_vol_init
                0x9d02454c        0x8
 .text.mw_hal_non_vol_init
                0x9d02454c        0x8 build/default/production/_ext/776318040/hal_non_vol.o
                0x9d02454c                mw_hal_non_vol_init

.text.mw_hal_touch_init
                0x9d024554        0x8
 .text.mw_hal_touch_init
                0x9d024554        0x8 build/default/production/_ext/776318040/hal_touch.o
                0x9d024554                mw_hal_touch_init

.text.mw_user_root_message_function
                0x9d02455c        0x8
 .text.mw_user_root_message_function
                0x9d02455c        0x8 build/default/production/_ext/165771656/miniwin_user.o
                0x9d02455c                mw_user_root_message_function

.text.app_main_loop_process
                0x9d024564        0x8
 .text.app_main_loop_process
                0x9d024564        0x8 build/default/production/_ext/1445274692/app.o
                0x9d024564                app_main_loop_process

.text.app_get_root_folder_path
                0x9d02456c        0x8
 .text.app_get_root_folder_path
                0x9d02456c        0x8 build/default/production/_ext/1445274692/app.o
                0x9d02456c                app_get_root_folder_path

.text._on_reset
                0x9d024574        0x8
 .text._on_reset
                0x9d024574        0x8 c:/program files/microchip/xc32/v2.50/bin/bin/../../lib/gcc/pic32mx/4.8.3/../../../../pic32mx/lib/fpu64\libpic32.a(default-on-reset.o)
                0x9d024574                _on_reset

.text._on_bootstrap
                0x9d02457c        0x8
 .text._on_bootstrap
                0x9d02457c        0x8 c:/program files/microchip/xc32/v2.50/bin/bin/../../lib/gcc/pic32mx/4.8.3/../../../../pic32mx/lib/fpu64\libpic32.a(default-on-bootstrap.o)
                0x9d02457c                _on_bootstrap

.rodata         0x9d024588        0x8
 .rodata        0x9d024588        0x8 c:/program files/microchip/xc32/v2.50/bin/bin/../../lib/gcc/pic32mx/4.8.3/../../../../pic32mx/lib/fpu64\libmfd.a(s_floor.o)

.rodata         0x9d0126b4        0x3
 .rodata        0x9d0126b4        0x3 build/default/production/_ext/776318040/hal_lcd.o
