   1                             		.file	"gl.c"
   2                             		.section P,"ax"
   3                             	.Ltext0:
   4                             		.section	.bss.gc,"aw",@nobits
   5                             		.balign 4
   8                             	_gc:
   9 0000 00 00 00 00 00 00 00 00 		.zero	72
   9      00 00 00 00 00 00 00 00 
   9      00 00 00 00 00 00 00 00 
   9      00 00 00 00 00 00 00 00 
   9      00 00 00 00 00 00 00 00 
  10                             		.section C,"a",@progbits
  11                             		.p2align 2
  12                             	.LC0:
  13 0000 4E 75 6C 6C 20 70 6F 69 		.string	"Null pointer argument"
  13      6E 74 65 72 20 61 72 67 
  13      75 6D 65 6E 74 00 
  14                             		.section	.text.pixel,"ax",@progbits
  16                             	_pixel:
  17                             	.LFB0:
  18                             		.file 1 "C:/Users/John/Desktop/workspace/miniwinwm/MiniWin/gl/gl.c"
   1:C:/Users/John/Desktop/workspace/miniwinwm/MiniWin/gl\gl.c **** /*
   2:C:/Users/John/Desktop/workspace/miniwinwm/MiniWin/gl\gl.c **** 
   3:C:/Users/John/Desktop/workspace/miniwinwm/MiniWin/gl\gl.c **** MIT License
   4:C:/Users/John/Desktop/workspace/miniwinwm/MiniWin/gl\gl.c **** 
   5:C:/Users/John/Desktop/workspace/miniwinwm/MiniWin/gl\gl.c **** Copyright (c) John Blaiklock 2019 miniwin Embedded Window Manager
   6:C:/Users/John/Desktop/workspace/miniwinwm/MiniWin/gl\gl.c **** 
   7:C:/Users/John/Desktop/workspace/miniwinwm/MiniWin/gl\gl.c **** Permission is hereby granted, free of charge, to any person obtaining a copy
   8:C:/Users/John/Desktop/workspace/miniwinwm/MiniWin/gl\gl.c **** of this software and associated documentation files (the "Software"), to deal
   9:C:/Users/John/Desktop/workspace/miniwinwm/MiniWin/gl\gl.c **** in the Software without restriction, including without limitation the rights
  10:C:/Users/John/Desktop/workspace/miniwinwm/MiniWin/gl\gl.c **** to use, copy, modify, merge, publish, distribute, sublicense, and/or sell
  11:C:/Users/John/Desktop/workspace/miniwinwm/MiniWin/gl\gl.c **** copies of the Software, and to permit persons to whom the Software is
  12:C:/Users/John/Desktop/workspace/miniwinwm/MiniWin/gl\gl.c **** furnished to do so, subject to the following conditions:
  13:C:/Users/John/Desktop/workspace/miniwinwm/MiniWin/gl\gl.c **** 
  14:C:/Users/John/Desktop/workspace/miniwinwm/MiniWin/gl\gl.c **** The above copyright notice and this permission notice shall be included in all
  15:C:/Users/John/Desktop/workspace/miniwinwm/MiniWin/gl\gl.c **** copies or substantial portions of the Software.
  16:C:/Users/John/Desktop/workspace/miniwinwm/MiniWin/gl\gl.c **** 
  17:C:/Users/John/Desktop/workspace/miniwinwm/MiniWin/gl\gl.c **** THE SOFTWARE IS PROVIDED "AS IS", WITHOUT WARRANTY OF ANY KIND, EXPRESS OR
  18:C:/Users/John/Desktop/workspace/miniwinwm/MiniWin/gl\gl.c **** IMPLIED, INCLUDING BUT NOT LIMITED TO THE WARRANTIES OF MERCHANTABILITY,
  19:C:/Users/John/Desktop/workspace/miniwinwm/MiniWin/gl\gl.c **** FITNESS FOR A PARTICULAR PURPOSE AND NONINFRINGEMENT. IN NO EVENT SHALL THE
  20:C:/Users/John/Desktop/workspace/miniwinwm/MiniWin/gl\gl.c **** AUTHORS OR COPYRIGHT HOLDERS BE LIABLE FOR ANY CLAIM, DAMAGES OR OTHER
  21:C:/Users/John/Desktop/workspace/miniwinwm/MiniWin/gl\gl.c **** LIABILITY, WHETHER IN AN ACTION OF CONTRACT, TORT OR OTHERWISE, ARISING FROM,
  22:C:/Users/John/Desktop/workspace/miniwinwm/MiniWin/gl\gl.c **** OUT OF OR IN CONNECTION WITH THE SOFTWARE OR THE USE OR OTHER DEALINGS IN THE
  23:C:/Users/John/Desktop/workspace/miniwinwm/MiniWin/gl\gl.c **** SOFTWARE.
  24:C:/Users/John/Desktop/workspace/miniwinwm/MiniWin/gl\gl.c **** 
  25:C:/Users/John/Desktop/workspace/miniwinwm/MiniWin/gl\gl.c **** */
  26:C:/Users/John/Desktop/workspace/miniwinwm/MiniWin/gl\gl.c **** 
  27:C:/Users/John/Desktop/workspace/miniwinwm/MiniWin/gl\gl.c **** /***************
  28:C:/Users/John/Desktop/workspace/miniwinwm/MiniWin/gl\gl.c **** *** INCLUDES ***
  29:C:/Users/John/Desktop/workspace/miniwinwm/MiniWin/gl\gl.c **** ***************/
  30:C:/Users/John/Desktop/workspace/miniwinwm/MiniWin/gl\gl.c **** 
  31:C:/Users/John/Desktop/workspace/miniwinwm/MiniWin/gl\gl.c **** #include <string.h>
  32:C:/Users/John/Desktop/workspace/miniwinwm/MiniWin/gl\gl.c **** #include <math.h>
  33:C:/Users/John/Desktop/workspace/miniwinwm/MiniWin/gl\gl.c **** #include "miniwin_debug.h"
  34:C:/Users/John/Desktop/workspace/miniwinwm/MiniWin/gl\gl.c **** #include "miniwin_config.h"
  35:C:/Users/John/Desktop/workspace/miniwinwm/MiniWin/gl\gl.c **** #include "hal/hal_delay.h"
  36:C:/Users/John/Desktop/workspace/miniwinwm/MiniWin/gl\gl.c **** #include "gl/gl.h"
  37:C:/Users/John/Desktop/workspace/miniwinwm/MiniWin/gl\gl.c **** #include "gl/fonts/bitmapped/fonts.h"
  38:C:/Users/John/Desktop/workspace/miniwinwm/MiniWin/gl\gl.c **** #include "gl/fonts/bitmapped/gl_title_font.h"
  39:C:/Users/John/Desktop/workspace/miniwinwm/MiniWin/gl\gl.c **** #include "gl/fonts/truetype/mcufont/mcufont.h"
  40:C:/Users/John/Desktop/workspace/miniwinwm/MiniWin/gl\gl.c **** 
  41:C:/Users/John/Desktop/workspace/miniwinwm/MiniWin/gl\gl.c **** /****************
  42:C:/Users/John/Desktop/workspace/miniwinwm/MiniWin/gl\gl.c **** *** CONSTANTS ***
  43:C:/Users/John/Desktop/workspace/miniwinwm/MiniWin/gl\gl.c **** ****************/
  44:C:/Users/John/Desktop/workspace/miniwinwm/MiniWin/gl\gl.c **** 
  45:C:/Users/John/Desktop/workspace/miniwinwm/MiniWin/gl\gl.c **** #define	DEGREES_IN_RAD		(180.0f / M_PI)
  46:C:/Users/John/Desktop/workspace/miniwinwm/MiniWin/gl\gl.c **** 
  47:C:/Users/John/Desktop/workspace/miniwinwm/MiniWin/gl\gl.c **** /************
  48:C:/Users/John/Desktop/workspace/miniwinwm/MiniWin/gl\gl.c **** *** TYPES ***
  49:C:/Users/John/Desktop/workspace/miniwinwm/MiniWin/gl\gl.c **** ************/
  50:C:/Users/John/Desktop/workspace/miniwinwm/MiniWin/gl\gl.c **** 
  51:C:/Users/John/Desktop/workspace/miniwinwm/MiniWin/gl\gl.c **** /**
  52:C:/Users/John/Desktop/workspace/miniwinwm/MiniWin/gl\gl.c ****  * Struct to hold true type drawing info as the rendering procedure descends through its stack.
  53:C:/Users/John/Desktop/workspace/miniwinwm/MiniWin/gl\gl.c ****  */
  54:C:/Users/John/Desktop/workspace/miniwinwm/MiniWin/gl\gl.c **** typedef struct
  55:C:/Users/John/Desktop/workspace/miniwinwm/MiniWin/gl\gl.c **** {
  56:C:/Users/John/Desktop/workspace/miniwinwm/MiniWin/gl\gl.c **** 	const mw_gl_draw_info_t *draw_info;				/**< Draw info structure to be passed on to pixel plotting 
  57:C:/Users/John/Desktop/workspace/miniwinwm/MiniWin/gl\gl.c ****     const struct mf_font_s *font;					/**< Run-length encoded font structure to use for text render
  58:C:/Users/John/Desktop/workspace/miniwinwm/MiniWin/gl\gl.c ****     mw_util_rect_t bounding_box;					/**< The bounding box to render the text in to */
  59:C:/Users/John/Desktop/workspace/miniwinwm/MiniWin/gl\gl.c ****     int16_t bottom;									/**< Bottom line in pixels of bounding box, y + height */
  60:C:/Users/John/Desktop/workspace/miniwinwm/MiniWin/gl\gl.c ****     uint8_t fg_red;									/**< Foreground colour to plot text, red component */
  61:C:/Users/John/Desktop/workspace/miniwinwm/MiniWin/gl\gl.c ****     uint8_t fg_green;								/**< Foreground colour to plot text, green component */
  62:C:/Users/John/Desktop/workspace/miniwinwm/MiniWin/gl\gl.c ****     uint8_t fg_blue;								/**< Foreground colour to plot text, blue component */
  63:C:/Users/John/Desktop/workspace/miniwinwm/MiniWin/gl\gl.c ****     uint8_t bg_red;									/**< Background colour to plot text, red component */
  64:C:/Users/John/Desktop/workspace/miniwinwm/MiniWin/gl\gl.c ****     uint8_t bg_green;								/**< Background colour to plot text, green component */
  65:C:/Users/John/Desktop/workspace/miniwinwm/MiniWin/gl\gl.c ****     uint8_t bg_blue;								/**< Background colour to plot text, blue component */
  66:C:/Users/John/Desktop/workspace/miniwinwm/MiniWin/gl\gl.c ****     mw_gl_tt_font_justification_t justification;	/**< Rendering justification used */
  67:C:/Users/John/Desktop/workspace/miniwinwm/MiniWin/gl\gl.c ****     int16_t rendered_line_count;					/**< How many lines in pixels that have been rendered so far *
  68:C:/Users/John/Desktop/workspace/miniwinwm/MiniWin/gl\gl.c ****     int16_t vert_scroll_pixels;						/**< How many pixel lines to scroll the text up */
  69:C:/Users/John/Desktop/workspace/miniwinwm/MiniWin/gl\gl.c **** } tt_font_state_t;
  70:C:/Users/John/Desktop/workspace/miniwinwm/MiniWin/gl\gl.c **** 
  71:C:/Users/John/Desktop/workspace/miniwinwm/MiniWin/gl\gl.c **** /***********************
  72:C:/Users/John/Desktop/workspace/miniwinwm/MiniWin/gl\gl.c **** *** GLOBAL VARIABLES ***
  73:C:/Users/John/Desktop/workspace/miniwinwm/MiniWin/gl\gl.c **** ***********************/
  74:C:/Users/John/Desktop/workspace/miniwinwm/MiniWin/gl\gl.c **** 
  75:C:/Users/John/Desktop/workspace/miniwinwm/MiniWin/gl\gl.c **** /*************************
  76:C:/Users/John/Desktop/workspace/miniwinwm/MiniWin/gl\gl.c **** *** EXTERNAL VARIABLES ***
  77:C:/Users/John/Desktop/workspace/miniwinwm/MiniWin/gl\gl.c **** **************************/
  78:C:/Users/John/Desktop/workspace/miniwinwm/MiniWin/gl\gl.c **** 
  79:C:/Users/John/Desktop/workspace/miniwinwm/MiniWin/gl\gl.c **** extern const sFONT Font9;							/**< Information structure for font */
  80:C:/Users/John/Desktop/workspace/miniwinwm/MiniWin/gl\gl.c **** extern const sFONT Font12;							/**< Information structure for font */
  81:C:/Users/John/Desktop/workspace/miniwinwm/MiniWin/gl\gl.c **** extern const sFONT Font16;							/**< Information structure for font */
  82:C:/Users/John/Desktop/workspace/miniwinwm/MiniWin/gl\gl.c **** extern const sFONT Font20;							/**< Information structure for font */
  83:C:/Users/John/Desktop/workspace/miniwinwm/MiniWin/gl\gl.c **** extern const sFONT Font24;							/**< Information structure for font */
  84:C:/Users/John/Desktop/workspace/miniwinwm/MiniWin/gl\gl.c **** 
  85:C:/Users/John/Desktop/workspace/miniwinwm/MiniWin/gl\gl.c **** /**********************
  86:C:/Users/John/Desktop/workspace/miniwinwm/MiniWin/gl\gl.c **** *** LOCAL VARIABLES ***
  87:C:/Users/John/Desktop/workspace/miniwinwm/MiniWin/gl\gl.c **** **********************/
  88:C:/Users/John/Desktop/workspace/miniwinwm/MiniWin/gl\gl.c **** 
  89:C:/Users/John/Desktop/workspace/miniwinwm/MiniWin/gl\gl.c **** static mw_gl_gc_t gc;                       		/**< The graphics context used to hold all the settin
  90:C:/Users/John/Desktop/workspace/miniwinwm/MiniWin/gl\gl.c **** 
  91:C:/Users/John/Desktop/workspace/miniwinwm/MiniWin/gl\gl.c **** /********************************
  92:C:/Users/John/Desktop/workspace/miniwinwm/MiniWin/gl\gl.c **** *** LOCAL FUNCTION PROTOTYPES ***
  93:C:/Users/John/Desktop/workspace/miniwinwm/MiniWin/gl\gl.c **** ********************************/
  94:C:/Users/John/Desktop/workspace/miniwinwm/MiniWin/gl\gl.c **** 
  95:C:/Users/John/Desktop/workspace/miniwinwm/MiniWin/gl\gl.c **** static void pixel(const mw_gl_draw_info_t *draw_info, int16_t client_x, int16_t client_y, mw_hal_lc
  96:C:/Users/John/Desktop/workspace/miniwinwm/MiniWin/gl\gl.c **** static void filled_rectangle(const mw_gl_draw_info_t *draw_info, int16_t client_x, int16_t client_y
  97:C:/Users/John/Desktop/workspace/miniwinwm/MiniWin/gl\gl.c **** static void filled_poly(const mw_gl_draw_info_t *draw_info, uint16_t poly_corners, const int16_t *p
  98:C:/Users/John/Desktop/workspace/miniwinwm/MiniWin/gl\gl.c **** static void arc_bres(const mw_gl_draw_info_t *draw_info, int16_t centre_x, int16_t centre_y, int16_
  99:C:/Users/John/Desktop/workspace/miniwinwm/MiniWin/gl\gl.c **** static void arc_point(const mw_gl_draw_info_t *draw_info, int16_t centre_x, int16_t centre_y, int16
 100:C:/Users/John/Desktop/workspace/miniwinwm/MiniWin/gl\gl.c **** static void filled_circle(const mw_gl_draw_info_t *draw_info, int16_t centre_x, int16_t centre_y, i
 101:C:/Users/John/Desktop/workspace/miniwinwm/MiniWin/gl\gl.c **** static void circle_bres(const mw_gl_draw_info_t *draw_info, int16_t x, int16_t y, int16_t radius);
 102:C:/Users/John/Desktop/workspace/miniwinwm/MiniWin/gl\gl.c **** static void filled_segment(const mw_gl_draw_info_t *draw_info, int16_t x, int16_t y, int16_t radius
 103:C:/Users/John/Desktop/workspace/miniwinwm/MiniWin/gl\gl.c **** static void draw_character_0_degrees(const mw_gl_draw_info_t *draw_info, int16_t x, int16_t y, char
 104:C:/Users/John/Desktop/workspace/miniwinwm/MiniWin/gl\gl.c **** static void draw_character_90_degrees(const mw_gl_draw_info_t *draw_info, int16_t x, int16_t y, cha
 105:C:/Users/John/Desktop/workspace/miniwinwm/MiniWin/gl\gl.c **** static void draw_character_180_degrees(const mw_gl_draw_info_t *draw_info, int16_t x, int16_t y, ch
 106:C:/Users/John/Desktop/workspace/miniwinwm/MiniWin/gl\gl.c **** static void draw_character_270_degrees(const mw_gl_draw_info_t *draw_info, int16_t x, int16_t y, ch
 107:C:/Users/John/Desktop/workspace/miniwinwm/MiniWin/gl\gl.c **** static void title_font_string(const mw_gl_draw_info_t *draw_info, int16_t x, int16_t y, const char 
 108:C:/Users/John/Desktop/workspace/miniwinwm/MiniWin/gl\gl.c **** static const uint8_t *get_font_data(void);
 109:C:/Users/John/Desktop/workspace/miniwinwm/MiniWin/gl\gl.c **** static void tt_pixel_callback_anti_aliasing(int16_t x, int16_t y, uint8_t count, uint8_t alpha, voi
 110:C:/Users/John/Desktop/workspace/miniwinwm/MiniWin/gl\gl.c **** static uint8_t tt_character_callback(int16_t x, int16_t y, mf_char character, void *state);
 111:C:/Users/John/Desktop/workspace/miniwinwm/MiniWin/gl\gl.c **** static void tt_pixel_callback_no_anti_aliasing(int16_t x, int16_t y, uint8_t count, uint8_t alpha, 
 112:C:/Users/John/Desktop/workspace/miniwinwm/MiniWin/gl\gl.c **** static bool tt_line_callback(mf_str line, uint16_t count, void *state);
 113:C:/Users/John/Desktop/workspace/miniwinwm/MiniWin/gl\gl.c **** static bool tt_dummy_line_callback(mf_str line, uint16_t count, void *state);
 114:C:/Users/John/Desktop/workspace/miniwinwm/MiniWin/gl\gl.c **** 
 115:C:/Users/John/Desktop/workspace/miniwinwm/MiniWin/gl\gl.c **** /**********************
 116:C:/Users/John/Desktop/workspace/miniwinwm/MiniWin/gl\gl.c **** *** LOCAL FUNCTIONS ***
 117:C:/Users/John/Desktop/workspace/miniwinwm/MiniWin/gl\gl.c **** **********************/
 118:C:/Users/John/Desktop/workspace/miniwinwm/MiniWin/gl\gl.c **** 
 119:C:/Users/John/Desktop/workspace/miniwinwm/MiniWin/gl\gl.c **** /**
 120:C:/Users/John/Desktop/workspace/miniwinwm/MiniWin/gl\gl.c ****  * Draw a pixel using a specified colour rather than a value from the graphics context. 
 121:C:/Users/John/Desktop/workspace/miniwinwm/MiniWin/gl\gl.c ****  *
 122:C:/Users/John/Desktop/workspace/miniwinwm/MiniWin/gl\gl.c ****  * @param draw_info Reference frame origin coordinates and clip region rect
 123:C:/Users/John/Desktop/workspace/miniwinwm/MiniWin/gl\gl.c ****  * @param client_x X coordinate relative to the client rect
 124:C:/Users/John/Desktop/workspace/miniwinwm/MiniWin/gl\gl.c ****  * @param client_y Y coordinate relative to the client rect
 125:C:/Users/John/Desktop/workspace/miniwinwm/MiniWin/gl\gl.c ****  * @param colour Colour to draw the pixel
 126:C:/Users/John/Desktop/workspace/miniwinwm/MiniWin/gl\gl.c ****  */
 127:C:/Users/John/Desktop/workspace/miniwinwm/MiniWin/gl\gl.c **** static void pixel(const mw_gl_draw_info_t *draw_info, int16_t client_x, int16_t client_y, mw_hal_lc
 128:C:/Users/John/Desktop/workspace/miniwinwm/MiniWin/gl\gl.c **** {
  19                             		.loc 1 128 1
  20 0000 7E AA                   		push.l	r10
  21                             	.LCFI0:
  22 0002 71 0A EC                		add	#-20, r0, r10
  23                             	.LCFI1:
  24 0005 EF A0                   		mov.L	r10, r0
  25 0007 E7 A1 02                		mov.L	r1, 8[r10]
  26 000a D7 A2 06                		mov.W	r2, 12[r10]
  27 000d D7 A3 07                		mov.W	r3, 14[r10]
  28 0010 E7 A4 04                		mov.L	r4, 16[r10]
 129:C:/Users/John/Desktop/workspace/miniwinwm/MiniWin/gl\gl.c **** 	int16_t display_x;
 130:C:/Users/John/Desktop/workspace/miniwinwm/MiniWin/gl\gl.c **** 	int16_t display_y;
 131:C:/Users/John/Desktop/workspace/miniwinwm/MiniWin/gl\gl.c **** 	int16_t root_width = MW_ROOT_WIDTH;
  29                             		.loc 1 131 23
  30 0013 05 00 00 00             		bsr	_mw_hal_lcd_get_display_width
  31 0017 EF 15                   		mov.L	r1, r5
  32 0019 D3 A5                   		mov.W	r5, [r10]
 132:C:/Users/John/Desktop/workspace/miniwinwm/MiniWin/gl\gl.c **** 	int16_t root_height = MW_ROOT_HEIGHT;
  33                             		.loc 1 132 24
  34 001b 05 00 00 00             		bsr	_mw_hal_lcd_get_display_height
  35 001f EF 15                   		mov.L	r1, r5
  36 0021 D7 A5 01                		mov.W	r5, 2[r10]
 133:C:/Users/John/Desktop/workspace/miniwinwm/MiniWin/gl\gl.c **** 
 134:C:/Users/John/Desktop/workspace/miniwinwm/MiniWin/gl\gl.c **** 	MW_ASSERT(draw_info, "Null pointer argument");
  37                             		.loc 1 134 2
  38 0024 ED A5 02                		mov.L	8[r10], r5
  39 0027 61 05                   		cmp	#0, r5
  40 0029 FC DB 51                		scne.L	r5
  41 002c FB 42 00 00 00 00       		mov.L	#.LC0, r4
  42 0032 75 43 86                		mov.L	#0x86, r3
  43 0035 FB 22 00 00 00 00       		mov.L	#___func__.2965, r2
  44 003b CF 51                   		mov.B	r5, r1
  45 003d 05 00 00 00             		bsr	_mw_debug_print_assert
 135:C:/Users/John/Desktop/workspace/miniwinwm/MiniWin/gl\gl.c **** 
 136:C:/Users/John/Desktop/workspace/miniwinwm/MiniWin/gl\gl.c **** 	if (client_x >= draw_info->clip_rect.x + draw_info->clip_rect.width)
  46                             		.loc 1 136 15
  47 0041 DD A4 06                		mov.W	12[r10], r4
  48                             		.loc 1 136 38
  49 0044 ED A5 02                		mov.L	8[r10], r5
  50 0047 98 D5                   		mov.W	4[r5], r5
  51 0049 DF 53                   		mov.W	r5, r3
  52                             		.loc 1 136 63
  53 004b ED A5 02                		mov.L	8[r10], r5
  54 004e 99 55                   		mov.W	8[r5], r5
  55 0050 DF 55                   		mov.W	r5, r5
  56                             		.loc 1 136 41
  57 0052 4B 35                   		add	r3, r5
  58                             		.loc 1 136 5
  59 0054 47 54                   		cmp	r5, r4
  60 0056 29 05 38 83 00          		bge	.L7
 137:C:/Users/John/Desktop/workspace/miniwinwm/MiniWin/gl\gl.c **** 	{
 138:C:/Users/John/Desktop/workspace/miniwinwm/MiniWin/gl\gl.c **** 		return;
 139:C:/Users/John/Desktop/workspace/miniwinwm/MiniWin/gl\gl.c **** 	}
 140:C:/Users/John/Desktop/workspace/miniwinwm/MiniWin/gl\gl.c **** 
 141:C:/Users/John/Desktop/workspace/miniwinwm/MiniWin/gl\gl.c **** 	if (client_y >= draw_info->clip_rect.y + draw_info->clip_rect.height)
  61                             		.loc 1 141 15
  62 005b DD A4 07                		mov.W	14[r10], r4
  63                             		.loc 1 141 38
  64 005e ED A5 02                		mov.L	8[r10], r5
  65 0061 98 DD                   		mov.W	6[r5], r5
  66 0063 DF 53                   		mov.W	r5, r3
  67                             		.loc 1 141 63
  68 0065 ED A5 02                		mov.L	8[r10], r5
  69 0068 99 5D                   		mov.W	10[r5], r5
  70 006a DF 55                   		mov.W	r5, r5
  71                             		.loc 1 141 41
  72 006c 4B 35                   		add	r3, r5
  73                             		.loc 1 141 5
  74 006e 47 54                   		cmp	r5, r4
  75 0070 28 6D                   		bge	.L8
 142:C:/Users/John/Desktop/workspace/miniwinwm/MiniWin/gl\gl.c **** 	{
 143:C:/Users/John/Desktop/workspace/miniwinwm/MiniWin/gl\gl.c **** 		return;
 144:C:/Users/John/Desktop/workspace/miniwinwm/MiniWin/gl\gl.c **** 	}
 145:C:/Users/John/Desktop/workspace/miniwinwm/MiniWin/gl\gl.c **** 
 146:C:/Users/John/Desktop/workspace/miniwinwm/MiniWin/gl\gl.c **** 	if (client_x < draw_info->clip_rect.x)
  76                             		.loc 1 146 37
  77 0072 ED A5 02                		mov.L	8[r10], r5
  78 0075 98 D5                   		mov.W	4[r5], r5
  79                             		.loc 1 146 5
  80 0077 DD A4 06                		mov.W	12[r10], r4
  81 007a DF 55                   		mov.W	r5, r5
  82 007c 47 54                   		cmp	r5, r4
  83 007e 29 61                   		blt	.L9
 147:C:/Users/John/Desktop/workspace/miniwinwm/MiniWin/gl\gl.c **** 	{
 148:C:/Users/John/Desktop/workspace/miniwinwm/MiniWin/gl\gl.c **** 		return;
 149:C:/Users/John/Desktop/workspace/miniwinwm/MiniWin/gl\gl.c **** 	}
 150:C:/Users/John/Desktop/workspace/miniwinwm/MiniWin/gl\gl.c **** 
 151:C:/Users/John/Desktop/workspace/miniwinwm/MiniWin/gl\gl.c **** 	if (client_y < draw_info->clip_rect.y)
  84                             		.loc 1 151 37
  85 0080 ED A5 02                		mov.L	8[r10], r5
  86 0083 98 DD                   		mov.W	6[r5], r5
  87                             		.loc 1 151 5
  88 0085 DD A4 07                		mov.W	14[r10], r4
  89 0088 DF 55                   		mov.W	r5, r5
  90 008a 47 54                   		cmp	r5, r4
  91 008c 29 56                   		blt	.L10
 152:C:/Users/John/Desktop/workspace/miniwinwm/MiniWin/gl\gl.c **** 	{
 153:C:/Users/John/Desktop/workspace/miniwinwm/MiniWin/gl\gl.c **** 		return;
 154:C:/Users/John/Desktop/workspace/miniwinwm/MiniWin/gl\gl.c **** 	}
 155:C:/Users/John/Desktop/workspace/miniwinwm/MiniWin/gl\gl.c **** 
 156:C:/Users/John/Desktop/workspace/miniwinwm/MiniWin/gl\gl.c **** 	display_x = client_x + draw_info->origin_x;
  92                             		.loc 1 156 34
  93 008e ED A5 02                		mov.L	8[r10], r5
  94 0091 DC 55                   		mov.W	[r5], r5
  95 0093 DF 54                   		mov.W	r5, r4
  96                             		.loc 1 156 23
  97 0095 DD A5 06                		mov.W	12[r10], r5
  98 0098 4B 45                   		add	r4, r5
  99                             		.loc 1 156 12
 100 009a D7 A5 02                		mov.W	r5, 4[r10]
 157:C:/Users/John/Desktop/workspace/miniwinwm/MiniWin/gl\gl.c **** 	display_y = client_y + draw_info->origin_y;
 101                             		.loc 1 157 34
 102 009d ED A5 02                		mov.L	8[r10], r5
 103 00a0 98 5D                   		mov.W	2[r5], r5
 104 00a2 DF 54                   		mov.W	r5, r4
 105                             		.loc 1 157 23
 106 00a4 DD A5 07                		mov.W	14[r10], r5
 107 00a7 4B 45                   		add	r4, r5
 108                             		.loc 1 157 12
 109 00a9 D7 A5 03                		mov.W	r5, 6[r10]
 158:C:/Users/John/Desktop/workspace/miniwinwm/MiniWin/gl\gl.c **** 
 159:C:/Users/John/Desktop/workspace/miniwinwm/MiniWin/gl\gl.c **** 	if (display_x >= 0 && display_x < root_width && display_y >= 0 && display_y < root_height)
 110                             		.loc 1 159 5
 111 00ac DD A5 02                		mov.W	4[r10], r5
 112 00af 61 05                   		cmp	#0, r5
 113 00b1 29 32                   		blt	.L1
 114                             		.loc 1 159 21 discriminator 1
 115 00b3 DD A4 02                		mov.W	4[r10], r4
 116 00b6 DC A5                   		mov.W	[r10], r5
 117 00b8 47 54                   		cmp	r5, r4
 118 00ba 28 29                   		bge	.L1
 119                             		.loc 1 159 47 discriminator 2
 120 00bc DD A5 03                		mov.W	6[r10], r5
 121 00bf 61 05                   		cmp	#0, r5
 122 00c1 29 22                   		blt	.L1
 123                             		.loc 1 159 65 discriminator 3
 124 00c3 DD A4 03                		mov.W	6[r10], r4
 125 00c6 DD A5 01                		mov.W	2[r10], r5
 126 00c9 47 54                   		cmp	r5, r4
 127 00cb 28 18                   		bge	.L1
 160:C:/Users/John/Desktop/workspace/miniwinwm/MiniWin/gl\gl.c **** 	{
 161:C:/Users/John/Desktop/workspace/miniwinwm/MiniWin/gl\gl.c **** 		mw_hal_lcd_pixel(display_x, display_y, colour);
 128                             		.loc 1 161 3
 129 00cd ED A3 04                		mov.L	16[r10], r3
 130 00d0 DD A2 03                		mov.W	6[r10], r2
 131 00d3 DD A1 02                		mov.W	4[r10], r1
 132 00d6 05 00 00 00             		bsr	_mw_hal_lcd_pixel
 133 00da 09                      		bra	.L1
 134                             	.L7:
 138:C:/Users/John/Desktop/workspace/miniwinwm/MiniWin/gl\gl.c **** 	}
 135                             		.loc 1 138 3
 136 00db 03                      		nop
 137 00dc 0F                      		bra	.L1
 138                             	.L8:
 143:C:/Users/John/Desktop/workspace/miniwinwm/MiniWin/gl\gl.c **** 	}
 139                             		.loc 1 143 3
 140 00dd 03                      		nop
 141 00de 0D                      		bra	.L1
 142                             	.L9:
 148:C:/Users/John/Desktop/workspace/miniwinwm/MiniWin/gl\gl.c **** 	}
 143                             		.loc 1 148 3
 144 00df 03                      		nop
 145 00e0 2E 03                   		bra	.L1
 146                             	.L10:
 153:C:/Users/John/Desktop/workspace/miniwinwm/MiniWin/gl\gl.c **** 	}
 147                             		.loc 1 153 3
 148 00e2 03                      		nop
 149                             		.balign 8,3,2
 150                             	.L1:
 162:C:/Users/John/Desktop/workspace/miniwinwm/MiniWin/gl\gl.c **** 	}
 163:C:/Users/John/Desktop/workspace/miniwinwm/MiniWin/gl\gl.c **** }
 151                             		.loc 1 163 1
 152 00e3 3F AA 06                		rtsd	#24, r10-r10
 153                             	.LFE0:
 155 00e6 EF 00                   		.section	.text.filled_rectangle,"ax",@progbits
 157                             	_filled_rectangle:
 158                             	.LFB1:
 164:C:/Users/John/Desktop/workspace/miniwinwm/MiniWin/gl\gl.c **** 
 165:C:/Users/John/Desktop/workspace/miniwinwm/MiniWin/gl\gl.c **** /**
 166:C:/Users/John/Desktop/workspace/miniwinwm/MiniWin/gl\gl.c ****  * Draw a filled rectangle with no border using a specified solid fill colour. 
 167:C:/Users/John/Desktop/workspace/miniwinwm/MiniWin/gl\gl.c ****  *
 168:C:/Users/John/Desktop/workspace/miniwinwm/MiniWin/gl\gl.c ****  * @param draw_info Reference frame origin coordinates and clip region rect
 169:C:/Users/John/Desktop/workspace/miniwinwm/MiniWin/gl\gl.c ****  * @param client_x X coordinate of left edge
 170:C:/Users/John/Desktop/workspace/miniwinwm/MiniWin/gl\gl.c ****  * @param client_y Y coordinate of top edge
 171:C:/Users/John/Desktop/workspace/miniwinwm/MiniWin/gl\gl.c ****  * @param width Width of rectangle to draw
 172:C:/Users/John/Desktop/workspace/miniwinwm/MiniWin/gl\gl.c ****  * @param height Height of rectangle to draw
 173:C:/Users/John/Desktop/workspace/miniwinwm/MiniWin/gl\gl.c ****  * @param colour Solid fill colour
 174:C:/Users/John/Desktop/workspace/miniwinwm/MiniWin/gl\gl.c ****  */
 175:C:/Users/John/Desktop/workspace/miniwinwm/MiniWin/gl\gl.c **** static void filled_rectangle(const mw_gl_draw_info_t *draw_info, int16_t client_x, int16_t client_y
 176:C:/Users/John/Desktop/workspace/miniwinwm/MiniWin/gl\gl.c **** {
 159                             		.loc 1 176 1
 160 0000 7E AA                   		push.l	r10
 161                             	.LCFI2:
 162 0002 7E A6                   		push.l	r6
 163                             	.LCFI3:
 164 0004 71 0A E4                		add	#-28, r0, r10
 165                             	.LCFI4:
 166 0007 71 A0 FC                		add	#-4, r10, r0
 167                             	.LCFI5:
 168 000a 75 46 28                		mov.L	#40, r6
 169 000d 4B A6                   		add	r10, r6
 170 000f E7 A1 02                		mov.L	r1, 8[r10]
 171 0012 D7 A2 06                		mov.W	r2, 12[r10]
 172 0015 D7 A3 07                		mov.W	r3, 14[r10]
 173 0018 D7 A4 08                		mov.W	r4, 16[r10]
 177:C:/Users/John/Desktop/workspace/miniwinwm/MiniWin/gl\gl.c **** 	int16_t overlap;
 178:C:/Users/John/Desktop/workspace/miniwinwm/MiniWin/gl\gl.c **** 	int16_t gl_max_x = MW_GL_MAX_X;
 174                             		.loc 1 178 21
 175 001b 05 00 00 00             		bsr	_mw_hal_lcd_get_display_width
 176 001f EF 15                   		mov.L	r1, r5
 177 0021 60 15                   		sub	#1, r5
 178                             		.loc 1 178 10
 179 0023 D3 A5                   		mov.W	r5, [r10]
 179:C:/Users/John/Desktop/workspace/miniwinwm/MiniWin/gl\gl.c **** 	int16_t gl_max_y = MW_GL_MAX_Y;
 180                             		.loc 1 179 21
 181 0025 05 00 00 00             		bsr	_mw_hal_lcd_get_display_height
 182 0029 EF 15                   		mov.L	r1, r5
 183 002b 60 15                   		sub	#1, r5
 184                             		.loc 1 179 10
 185 002d D7 A5 01                		mov.W	r5, 2[r10]
 180:C:/Users/John/Desktop/workspace/miniwinwm/MiniWin/gl\gl.c **** 
 181:C:/Users/John/Desktop/workspace/miniwinwm/MiniWin/gl\gl.c **** 	MW_ASSERT(draw_info, "Null pointer argument");
 186                             		.loc 1 181 2
 187 0030 ED A5 02                		mov.L	8[r10], r5
 188 0033 61 05                   		cmp	#0, r5
 189 0035 FC DB 51                		scne.L	r5
 190 0038 FB 42 00 00 00 00       		mov.L	#.LC0, r4
 191 003e 75 43 B5                		mov.L	#0xb5, r3
 192 0041 FB 22 00 00 00 00       		mov.L	#___func__.2977, r2
 193 0047 CF 51                   		mov.B	r5, r1
 194 0049 05 00 00 00             		bsr	_mw_debug_print_assert
 182:C:/Users/John/Desktop/workspace/miniwinwm/MiniWin/gl\gl.c **** 
 183:C:/Users/John/Desktop/workspace/miniwinwm/MiniWin/gl\gl.c **** 	if (draw_info->clip_rect.width == 0 || draw_info->clip_rect.height == 0)
 195                             		.loc 1 183 26
 196 004d ED A5 02                		mov.L	8[r10], r5
 197 0050 99 55                   		mov.W	8[r5], r5
 198                             		.loc 1 183 5
 199 0052 DF 55                   		mov.W	r5, r5
 200 0054 61 05                   		cmp	#0, r5
 201 0056 3A 69 02                		beq	.L31
 202                             		.loc 1 183 61 discriminator 1
 203 0059 ED A5 02                		mov.L	8[r10], r5
 204 005c 99 5D                   		mov.W	10[r5], r5
 205                             		.loc 1 183 38 discriminator 1
 206 005e DF 55                   		mov.W	r5, r5
 207 0060 61 05                   		cmp	#0, r5
 208 0062 3A 5D 02                		beq	.L31
 184:C:/Users/John/Desktop/workspace/miniwinwm/MiniWin/gl\gl.c **** 	{
 185:C:/Users/John/Desktop/workspace/miniwinwm/MiniWin/gl\gl.c **** 		return;
 186:C:/Users/John/Desktop/workspace/miniwinwm/MiniWin/gl\gl.c **** 	}
 187:C:/Users/John/Desktop/workspace/miniwinwm/MiniWin/gl\gl.c **** 
 188:C:/Users/John/Desktop/workspace/miniwinwm/MiniWin/gl\gl.c **** 	if (client_x < draw_info->clip_rect.x)
 209                             		.loc 1 188 37
 210 0065 ED A5 02                		mov.L	8[r10], r5
 211 0068 98 D5                   		mov.W	4[r5], r5
 212                             		.loc 1 188 5
 213 006a DD A4 06                		mov.W	12[r10], r4
 214 006d DF 55                   		mov.W	r5, r5
 215 006f 47 54                   		cmp	r5, r4
 216 0071 28 26                   		bge	.L15
 189:C:/Users/John/Desktop/workspace/miniwinwm/MiniWin/gl\gl.c **** 	{
 190:C:/Users/John/Desktop/workspace/miniwinwm/MiniWin/gl\gl.c **** 		overlap = draw_info->clip_rect.x - client_x;
 217                             		.loc 1 190 33
 218 0073 ED A5 02                		mov.L	8[r10], r5
 219 0076 98 D5                   		mov.W	4[r5], r5
 220 0078 DF 54                   		mov.W	r5, r4
 221                             		.loc 1 190 36
 222 007a DD A5 06                		mov.W	12[r10], r5
 223 007d FF 05 54                		sub	r5, r4, r5
 224                             		.loc 1 190 11
 225 0080 D7 A5 02                		mov.W	r5, 4[r10]
 191:C:/Users/John/Desktop/workspace/miniwinwm/MiniWin/gl\gl.c **** 		width -= overlap;
 226                             		.loc 1 191 9
 227 0083 DD A4 08                		mov.W	16[r10], r4
 228 0086 DD A5 02                		mov.W	4[r10], r5
 229 0089 FF 05 54                		sub	r5, r4, r5
 230 008c D7 A5 08                		mov.W	r5, 16[r10]
 192:C:/Users/John/Desktop/workspace/miniwinwm/MiniWin/gl\gl.c **** 		client_x = draw_info->clip_rect.x;
 231                             		.loc 1 192 12
 232 008f ED A5 02                		mov.L	8[r10], r5
 233 0092 98 D5                   		mov.W	4[r5], r5
 234 0094 D7 A5 06                		mov.W	r5, 12[r10]
 235                             	.L15:
 193:C:/Users/John/Desktop/workspace/miniwinwm/MiniWin/gl\gl.c **** 	}
 194:C:/Users/John/Desktop/workspace/miniwinwm/MiniWin/gl\gl.c **** 
 195:C:/Users/John/Desktop/workspace/miniwinwm/MiniWin/gl\gl.c **** 	if (client_y < draw_info->clip_rect.y)
 236                             		.loc 1 195 37
 237 0097 ED A5 02                		mov.L	8[r10], r5
 238 009a 98 DD                   		mov.W	6[r5], r5
 239                             		.loc 1 195 5
 240 009c DD A4 07                		mov.W	14[r10], r4
 241 009f DF 55                   		mov.W	r5, r5
 242 00a1 47 54                   		cmp	r5, r4
 243 00a3 28 24                   		bge	.L16
 196:C:/Users/John/Desktop/workspace/miniwinwm/MiniWin/gl\gl.c **** 	{
 197:C:/Users/John/Desktop/workspace/miniwinwm/MiniWin/gl\gl.c **** 		overlap = draw_info->clip_rect.y - client_y;
 244                             		.loc 1 197 33
 245 00a5 ED A5 02                		mov.L	8[r10], r5
 246 00a8 98 DD                   		mov.W	6[r5], r5
 247 00aa DF 54                   		mov.W	r5, r4
 248                             		.loc 1 197 36
 249 00ac DD A5 07                		mov.W	14[r10], r5
 250 00af FF 05 54                		sub	r5, r4, r5
 251                             		.loc 1 197 11
 252 00b2 D7 A5 02                		mov.W	r5, 4[r10]
 198:C:/Users/John/Desktop/workspace/miniwinwm/MiniWin/gl\gl.c **** 		height -= overlap;
 253                             		.loc 1 198 10
 254 00b5 DC 64                   		mov.W	[r6], r4
 255 00b7 DD A5 02                		mov.W	4[r10], r5
 256 00ba FF 05 54                		sub	r5, r4, r5
 257 00bd D3 65                   		mov.W	r5, [r6]
 199:C:/Users/John/Desktop/workspace/miniwinwm/MiniWin/gl\gl.c **** 		client_y = draw_info->clip_rect.y;
 258                             		.loc 1 199 12
 259 00bf ED A5 02                		mov.L	8[r10], r5
 260 00c2 98 DD                   		mov.W	6[r5], r5
 261 00c4 D7 A5 07                		mov.W	r5, 14[r10]
 262                             	.L16:
 200:C:/Users/John/Desktop/workspace/miniwinwm/MiniWin/gl\gl.c **** 	}
 201:C:/Users/John/Desktop/workspace/miniwinwm/MiniWin/gl\gl.c **** 
 202:C:/Users/John/Desktop/workspace/miniwinwm/MiniWin/gl\gl.c **** 	if (client_x + width > draw_info->clip_rect.x + draw_info->clip_rect.width)
 263                             		.loc 1 202 15
 264 00c7 DD A4 06                		mov.W	12[r10], r4
 265 00ca DD A5 08                		mov.W	16[r10], r5
 266 00cd 4B 54                   		add	r5, r4
 267                             		.loc 1 202 45
 268 00cf ED A5 02                		mov.L	8[r10], r5
 269 00d2 98 D5                   		mov.W	4[r5], r5
 270 00d4 DF 53                   		mov.W	r5, r3
 271                             		.loc 1 202 70
 272 00d6 ED A5 02                		mov.L	8[r10], r5
 273 00d9 99 55                   		mov.W	8[r5], r5
 274 00db DF 55                   		mov.W	r5, r5
 275                             		.loc 1 202 48
 276 00dd 4B 35                   		add	r3, r5
 277                             		.loc 1 202 5
 278 00df 47 54                   		cmp	r5, r4
 279 00e1 2B 2C                   		ble	.L17
 203:C:/Users/John/Desktop/workspace/miniwinwm/MiniWin/gl\gl.c **** 	{
 204:C:/Users/John/Desktop/workspace/miniwinwm/MiniWin/gl\gl.c **** 		overlap = client_x + width - (draw_info->clip_rect.x + draw_info->clip_rect.width);
 280                             		.loc 1 204 22
 281 00e3 DD A4 06                		mov.W	12[r10], r4
 282 00e6 DD A5 08                		mov.W	16[r10], r5
 283 00e9 4B 45                   		add	r4, r5
 284 00eb DF 54                   		mov.W	r5, r4
 285                             		.loc 1 204 53
 286 00ed ED A5 02                		mov.L	8[r10], r5
 287 00f0 98 D5                   		mov.W	4[r5], r5
 288 00f2 DF 53                   		mov.W	r5, r3
 289                             		.loc 1 204 78
 290 00f4 ED A5 02                		mov.L	8[r10], r5
 291 00f7 99 55                   		mov.W	8[r5], r5
 292                             		.loc 1 204 56
 293 00f9 4B 35                   		add	r3, r5
 294                             		.loc 1 204 30
 295 00fb FF 05 54                		sub	r5, r4, r5
 296                             		.loc 1 204 11
 297 00fe D7 A5 02                		mov.W	r5, 4[r10]
 205:C:/Users/John/Desktop/workspace/miniwinwm/MiniWin/gl\gl.c **** 		width -= overlap;
 298                             		.loc 1 205 9
 299 0101 DD A4 08                		mov.W	16[r10], r4
 300 0104 DD A5 02                		mov.W	4[r10], r5
 301 0107 FF 05 54                		sub	r5, r4, r5
 302 010a D7 A5 08                		mov.W	r5, 16[r10]
 303                             	.L17:
 206:C:/Users/John/Desktop/workspace/miniwinwm/MiniWin/gl\gl.c **** 	}
 207:C:/Users/John/Desktop/workspace/miniwinwm/MiniWin/gl\gl.c **** 
 208:C:/Users/John/Desktop/workspace/miniwinwm/MiniWin/gl\gl.c **** 	if (client_y + height > draw_info->clip_rect.y + draw_info->clip_rect.height)
 304                             		.loc 1 208 15
 305 010d DD A4 07                		mov.W	14[r10], r4
 306 0110 DC 65                   		mov.W	[r6], r5
 307 0112 4B 54                   		add	r5, r4
 308                             		.loc 1 208 46
 309 0114 ED A5 02                		mov.L	8[r10], r5
 310 0117 98 DD                   		mov.W	6[r5], r5
 311 0119 DF 53                   		mov.W	r5, r3
 312                             		.loc 1 208 71
 313 011b ED A5 02                		mov.L	8[r10], r5
 314 011e 99 5D                   		mov.W	10[r5], r5
 315 0120 DF 55                   		mov.W	r5, r5
 316                             		.loc 1 208 49
 317 0122 4B 35                   		add	r3, r5
 318                             		.loc 1 208 5
 319 0124 47 54                   		cmp	r5, r4
 320 0126 2B 29                   		ble	.L18
 209:C:/Users/John/Desktop/workspace/miniwinwm/MiniWin/gl\gl.c **** 	{
 210:C:/Users/John/Desktop/workspace/miniwinwm/MiniWin/gl\gl.c **** 		overlap = client_y + height - (draw_info->clip_rect.y + draw_info->clip_rect.height);
 321                             		.loc 1 210 22
 322 0128 DD A4 07                		mov.W	14[r10], r4
 323 012b DC 65                   		mov.W	[r6], r5
 324 012d 4B 45                   		add	r4, r5
 325 012f DF 54                   		mov.W	r5, r4
 326                             		.loc 1 210 54
 327 0131 ED A5 02                		mov.L	8[r10], r5
 328 0134 98 DD                   		mov.W	6[r5], r5
 329 0136 DF 53                   		mov.W	r5, r3
 330                             		.loc 1 210 79
 331 0138 ED A5 02                		mov.L	8[r10], r5
 332 013b 99 5D                   		mov.W	10[r5], r5
 333                             		.loc 1 210 57
 334 013d 4B 35                   		add	r3, r5
 335                             		.loc 1 210 31
 336 013f FF 05 54                		sub	r5, r4, r5
 337                             		.loc 1 210 11
 338 0142 D7 A5 02                		mov.W	r5, 4[r10]
 211:C:/Users/John/Desktop/workspace/miniwinwm/MiniWin/gl\gl.c **** 		height -= overlap;
 339                             		.loc 1 211 10
 340 0145 DC 64                   		mov.W	[r6], r4
 341 0147 DD A5 02                		mov.W	4[r10], r5
 342 014a FF 05 54                		sub	r5, r4, r5
 343 014d D3 65                   		mov.W	r5, [r6]
 344                             	.L18:
 212:C:/Users/John/Desktop/workspace/miniwinwm/MiniWin/gl\gl.c **** 	}
 213:C:/Users/John/Desktop/workspace/miniwinwm/MiniWin/gl\gl.c **** 
 214:C:/Users/John/Desktop/workspace/miniwinwm/MiniWin/gl\gl.c **** 	if (width <= 0 || height <= 0)
 345                             		.loc 1 214 5
 346 014f DD A5 08                		mov.W	16[r10], r5
 347 0152 61 05                   		cmp	#0, r5
 348 0154 2A 05 38 6C 01          		ble	.L32
 349                             		.loc 1 214 17 discriminator 1
 350 0159 DC 65                   		mov.W	[r6], r5
 351 015b 61 05                   		cmp	#0, r5
 352 015d 2A 05 38 63 01          		ble	.L32
 215:C:/Users/John/Desktop/workspace/miniwinwm/MiniWin/gl\gl.c **** 	{
 216:C:/Users/John/Desktop/workspace/miniwinwm/MiniWin/gl\gl.c **** 		return;
 217:C:/Users/John/Desktop/workspace/miniwinwm/MiniWin/gl\gl.c **** 	}
 218:C:/Users/John/Desktop/workspace/miniwinwm/MiniWin/gl\gl.c **** 
 219:C:/Users/John/Desktop/workspace/miniwinwm/MiniWin/gl\gl.c **** 	if (draw_info->origin_x + draw_info->clip_rect.x + draw_info->clip_rect.width < 0 ||
 353                             		.loc 1 219 15
 354 0162 ED A5 02                		mov.L	8[r10], r5
 355 0165 DC 55                   		mov.W	[r5], r5
 356 0167 DF 54                   		mov.W	r5, r4
 357                             		.loc 1 219 48
 358 0169 ED A5 02                		mov.L	8[r10], r5
 359 016c 98 D5                   		mov.W	4[r5], r5
 360 016e DF 55                   		mov.W	r5, r5
 361                             		.loc 1 219 26
 362 0170 4B 54                   		add	r5, r4
 363                             		.loc 1 219 73
 364 0172 ED A5 02                		mov.L	8[r10], r5
 365 0175 99 55                   		mov.W	8[r5], r5
 366 0177 DF 55                   		mov.W	r5, r5
 367                             		.loc 1 219 51
 368 0179 4B 45                   		add	r4, r5
 369                             		.loc 1 219 5
 370 017b 61 05                   		cmp	#0, r5
 371 017d 28 05 38 46 01          		blt	.L33
 220:C:/Users/John/Desktop/workspace/miniwinwm/MiniWin/gl\gl.c **** 			draw_info->origin_y + draw_info->clip_rect.y + draw_info->clip_rect.height < 0)
 372                             		.loc 1 220 13 discriminator 1
 373 0182 ED A5 02                		mov.L	8[r10], r5
 374 0185 98 5D                   		mov.W	2[r5], r5
 375 0187 DF 54                   		mov.W	r5, r4
 376                             		.loc 1 220 46 discriminator 1
 377 0189 ED A5 02                		mov.L	8[r10], r5
 378 018c 98 DD                   		mov.W	6[r5], r5
 379 018e DF 55                   		mov.W	r5, r5
 380                             		.loc 1 220 24 discriminator 1
 381 0190 4B 54                   		add	r5, r4
 382                             		.loc 1 220 71 discriminator 1
 383 0192 ED A5 02                		mov.L	8[r10], r5
 384 0195 99 5D                   		mov.W	10[r5], r5
 385 0197 DF 55                   		mov.W	r5, r5
 386                             		.loc 1 220 49 discriminator 1
 387 0199 4B 45                   		add	r4, r5
 219:C:/Users/John/Desktop/workspace/miniwinwm/MiniWin/gl\gl.c **** 			draw_info->origin_y + draw_info->clip_rect.y + draw_info->clip_rect.height < 0)
 388                             		.loc 1 219 84 discriminator 1
 389 019b 61 05                   		cmp	#0, r5
 390 019d 28 05 38 26 01          		blt	.L33
 221:C:/Users/John/Desktop/workspace/miniwinwm/MiniWin/gl\gl.c **** 	{
 222:C:/Users/John/Desktop/workspace/miniwinwm/MiniWin/gl\gl.c **** 		return;
 223:C:/Users/John/Desktop/workspace/miniwinwm/MiniWin/gl\gl.c **** 	}
 224:C:/Users/John/Desktop/workspace/miniwinwm/MiniWin/gl\gl.c **** 
 225:C:/Users/John/Desktop/workspace/miniwinwm/MiniWin/gl\gl.c **** 	if (draw_info->origin_x + client_x + width < 0 || draw_info->origin_y + client_y + height < 0)
 391                             		.loc 1 225 15
 392 01a2 ED A5 02                		mov.L	8[r10], r5
 393 01a5 DC 55                   		mov.W	[r5], r5
 394 01a7 DF 54                   		mov.W	r5, r4
 395                             		.loc 1 225 26
 396 01a9 DD A5 06                		mov.W	12[r10], r5
 397 01ac 4B 54                   		add	r5, r4
 398                             		.loc 1 225 37
 399 01ae DD A5 08                		mov.W	16[r10], r5
 400 01b1 4B 45                   		add	r4, r5
 401                             		.loc 1 225 5
 402 01b3 61 05                   		cmp	#0, r5
 403 01b5 28 05 38 11 01          		blt	.L34
 404                             		.loc 1 225 61 discriminator 1
 405 01ba ED A5 02                		mov.L	8[r10], r5
 406 01bd 98 5D                   		mov.W	2[r5], r5
 407 01bf DF 54                   		mov.W	r5, r4
 408                             		.loc 1 225 72 discriminator 1
 409 01c1 DD A5 07                		mov.W	14[r10], r5
 410 01c4 4B 54                   		add	r5, r4
 411                             		.loc 1 225 83 discriminator 1
 412 01c6 DC 65                   		mov.W	[r6], r5
 413 01c8 4B 45                   		add	r4, r5
 414                             		.loc 1 225 49 discriminator 1
 415 01ca 61 05                   		cmp	#0, r5
 416 01cc 28 05 38 FA 00          		blt	.L34
 226:C:/Users/John/Desktop/workspace/miniwinwm/MiniWin/gl\gl.c **** 	{
 227:C:/Users/John/Desktop/workspace/miniwinwm/MiniWin/gl\gl.c **** 		return;
 228:C:/Users/John/Desktop/workspace/miniwinwm/MiniWin/gl\gl.c **** 	}
 229:C:/Users/John/Desktop/workspace/miniwinwm/MiniWin/gl\gl.c **** 
 230:C:/Users/John/Desktop/workspace/miniwinwm/MiniWin/gl\gl.c **** 	if (draw_info->origin_x + draw_info->clip_rect.x > gl_max_x ||
 417                             		.loc 1 230 15
 418 01d1 ED A5 02                		mov.L	8[r10], r5
 419 01d4 DC 55                   		mov.W	[r5], r5
 420 01d6 DF 54                   		mov.W	r5, r4
 421                             		.loc 1 230 48
 422 01d8 ED A5 02                		mov.L	8[r10], r5
 423 01db 98 D5                   		mov.W	4[r5], r5
 424 01dd DF 55                   		mov.W	r5, r5
 425                             		.loc 1 230 26
 426 01df 4B 54                   		add	r5, r4
 427                             		.loc 1 230 51
 428 01e1 DC A5                   		mov.W	[r10], r5
 429                             		.loc 1 230 5
 430 01e3 47 54                   		cmp	r5, r4
 431 01e5 2B 05 38 E3 00          		bgt	.L35
 231:C:/Users/John/Desktop/workspace/miniwinwm/MiniWin/gl\gl.c **** 			draw_info->origin_y + draw_info->clip_rect.y > gl_max_y)
 432                             		.loc 1 231 13 discriminator 1
 433 01ea ED A5 02                		mov.L	8[r10], r5
 434 01ed 98 5D                   		mov.W	2[r5], r5
 435 01ef DF 54                   		mov.W	r5, r4
 436                             		.loc 1 231 46 discriminator 1
 437 01f1 ED A5 02                		mov.L	8[r10], r5
 438 01f4 98 DD                   		mov.W	6[r5], r5
 439 01f6 DF 55                   		mov.W	r5, r5
 440                             		.loc 1 231 24 discriminator 1
 441 01f8 4B 54                   		add	r5, r4
 442                             		.loc 1 231 49 discriminator 1
 443 01fa DD A5 01                		mov.W	2[r10], r5
 230:C:/Users/John/Desktop/workspace/miniwinwm/MiniWin/gl\gl.c **** 			draw_info->origin_y + draw_info->clip_rect.y > gl_max_y)
 444                             		.loc 1 230 62 discriminator 1
 445 01fd 47 54                   		cmp	r5, r4
 446 01ff 2B 05 38 C9 00          		bgt	.L35
 232:C:/Users/John/Desktop/workspace/miniwinwm/MiniWin/gl\gl.c **** 	{
 233:C:/Users/John/Desktop/workspace/miniwinwm/MiniWin/gl\gl.c **** 		return;
 234:C:/Users/John/Desktop/workspace/miniwinwm/MiniWin/gl\gl.c **** 	}
 235:C:/Users/John/Desktop/workspace/miniwinwm/MiniWin/gl\gl.c **** 
 236:C:/Users/John/Desktop/workspace/miniwinwm/MiniWin/gl\gl.c **** 	if (draw_info->origin_x + client_x > gl_max_x || draw_info->origin_y + client_y > gl_max_y)
 447                             		.loc 1 236 15
 448 0204 ED A5 02                		mov.L	8[r10], r5
 449 0207 DC 55                   		mov.W	[r5], r5
 450 0209 DF 54                   		mov.W	r5, r4
 451                             		.loc 1 236 26
 452 020b DD A5 06                		mov.W	12[r10], r5
 453 020e 4B 54                   		add	r5, r4
 454                             		.loc 1 236 37
 455 0210 DC A5                   		mov.W	[r10], r5
 456                             		.loc 1 236 5
 457 0212 47 54                   		cmp	r5, r4
 458 0214 2B 05 38 B6 00          		bgt	.L36
 459                             		.loc 1 236 60 discriminator 1
 460 0219 ED A5 02                		mov.L	8[r10], r5
 461 021c 98 5D                   		mov.W	2[r5], r5
 462 021e DF 54                   		mov.W	r5, r4
 463                             		.loc 1 236 71 discriminator 1
 464 0220 DD A5 07                		mov.W	14[r10], r5
 465 0223 4B 54                   		add	r5, r4
 466                             		.loc 1 236 82 discriminator 1
 467 0225 DD A5 01                		mov.W	2[r10], r5
 468                             		.loc 1 236 48 discriminator 1
 469 0228 47 54                   		cmp	r5, r4
 470 022a 2B 05 38 A0 00          		bgt	.L36
 237:C:/Users/John/Desktop/workspace/miniwinwm/MiniWin/gl\gl.c **** 	{
 238:C:/Users/John/Desktop/workspace/miniwinwm/MiniWin/gl\gl.c **** 		return;
 239:C:/Users/John/Desktop/workspace/miniwinwm/MiniWin/gl\gl.c **** 	}
 240:C:/Users/John/Desktop/workspace/miniwinwm/MiniWin/gl\gl.c **** 
 241:C:/Users/John/Desktop/workspace/miniwinwm/MiniWin/gl\gl.c **** 	if (draw_info->origin_x + client_x < 0)
 471                             		.loc 1 241 15
 472 022f ED A5 02                		mov.L	8[r10], r5
 473 0232 DC 55                   		mov.W	[r5], r5
 474 0234 DF 54                   		mov.W	r5, r4
 475                             		.loc 1 241 26
 476 0236 DD A5 06                		mov.W	12[r10], r5
 477 0239 4B 45                   		add	r4, r5
 478                             		.loc 1 241 5
 479 023b 61 05                   		cmp	#0, r5
 480 023d 28 26                   		bge	.L29
 242:C:/Users/John/Desktop/workspace/miniwinwm/MiniWin/gl\gl.c **** 	{
 243:C:/Users/John/Desktop/workspace/miniwinwm/MiniWin/gl\gl.c **** 		width += draw_info->origin_x;
 481                             		.loc 1 243 21
 482 023f ED A5 02                		mov.L	8[r10], r5
 483 0242 DC 55                   		mov.W	[r5], r5
 484 0244 DF 54                   		mov.W	r5, r4
 485                             		.loc 1 243 9
 486 0246 DD A5 08                		mov.W	16[r10], r5
 487 0249 4B 45                   		add	r4, r5
 488 024b D7 A5 08                		mov.W	r5, 16[r10]
 244:C:/Users/John/Desktop/workspace/miniwinwm/MiniWin/gl\gl.c **** 		client_x -= draw_info->origin_x;
 489                             		.loc 1 244 12
 490 024e DD A4 06                		mov.W	12[r10], r4
 491                             		.loc 1 244 24
 492 0251 ED A5 02                		mov.L	8[r10], r5
 493 0254 DC 55                   		mov.W	[r5], r5
 494                             		.loc 1 244 12
 495 0256 FF 05 54                		sub	r5, r4, r5
 496 0259 D7 A5 06                		mov.W	r5, 12[r10]
 245:C:/Users/John/Desktop/workspace/miniwinwm/MiniWin/gl\gl.c **** 		if (width <= 0)
 497                             		.loc 1 245 6
 498 025c DD A5 08                		mov.W	16[r10], r5
 499 025f 61 05                   		cmp	#0, r5
 500 0261 2B 6D                   		ble	.L37
 501                             	.L29:
 246:C:/Users/John/Desktop/workspace/miniwinwm/MiniWin/gl\gl.c **** 		{
 247:C:/Users/John/Desktop/workspace/miniwinwm/MiniWin/gl\gl.c **** 			return;
 248:C:/Users/John/Desktop/workspace/miniwinwm/MiniWin/gl\gl.c **** 		}
 249:C:/Users/John/Desktop/workspace/miniwinwm/MiniWin/gl\gl.c **** 	}
 250:C:/Users/John/Desktop/workspace/miniwinwm/MiniWin/gl\gl.c **** 
 251:C:/Users/John/Desktop/workspace/miniwinwm/MiniWin/gl\gl.c **** 	if (draw_info->origin_y + client_y < 0)
 502                             		.loc 1 251 15
 503 0263 ED A5 02                		mov.L	8[r10], r5
 504 0266 98 5D                   		mov.W	2[r5], r5
 505 0268 DF 54                   		mov.W	r5, r4
 506                             		.loc 1 251 26
 507 026a DD A5 07                		mov.W	14[r10], r5
 508 026d 4B 45                   		add	r4, r5
 509                             		.loc 1 251 5
 510 026f 61 05                   		cmp	#0, r5
 511 0271 28 23                   		bge	.L30
 252:C:/Users/John/Desktop/workspace/miniwinwm/MiniWin/gl\gl.c **** 	{
 253:C:/Users/John/Desktop/workspace/miniwinwm/MiniWin/gl\gl.c **** 		height += draw_info->origin_y;
 512                             		.loc 1 253 22
 513 0273 ED A5 02                		mov.L	8[r10], r5
 514 0276 98 5D                   		mov.W	2[r5], r5
 515 0278 DF 54                   		mov.W	r5, r4
 516                             		.loc 1 253 10
 517 027a DC 65                   		mov.W	[r6], r5
 518 027c 4B 45                   		add	r4, r5
 519 027e D3 65                   		mov.W	r5, [r6]
 254:C:/Users/John/Desktop/workspace/miniwinwm/MiniWin/gl\gl.c **** 		client_y -= draw_info->origin_y;
 520                             		.loc 1 254 12
 521 0280 DD A4 07                		mov.W	14[r10], r4
 522                             		.loc 1 254 24
 523 0283 ED A5 02                		mov.L	8[r10], r5
 524 0286 98 5D                   		mov.W	2[r5], r5
 525                             		.loc 1 254 12
 526 0288 FF 05 54                		sub	r5, r4, r5
 527 028b D7 A5 07                		mov.W	r5, 14[r10]
 255:C:/Users/John/Desktop/workspace/miniwinwm/MiniWin/gl\gl.c **** 		if (height <= 0)
 528                             		.loc 1 255 6
 529 028e DC 65                   		mov.W	[r6], r5
 530 0290 61 05                   		cmp	#0, r5
 531 0292 2B 3F                   		ble	.L38
 532                             	.L30:
 256:C:/Users/John/Desktop/workspace/miniwinwm/MiniWin/gl\gl.c **** 		{
 257:C:/Users/John/Desktop/workspace/miniwinwm/MiniWin/gl\gl.c **** 			return;
 258:C:/Users/John/Desktop/workspace/miniwinwm/MiniWin/gl\gl.c **** 		}
 259:C:/Users/John/Desktop/workspace/miniwinwm/MiniWin/gl\gl.c **** 	}
 260:C:/Users/John/Desktop/workspace/miniwinwm/MiniWin/gl\gl.c **** 
 261:C:/Users/John/Desktop/workspace/miniwinwm/MiniWin/gl\gl.c **** 	mw_hal_lcd_filled_rectangle(client_x + draw_info->origin_x,
 533                             		.loc 1 261 50
 534 0294 ED A5 02                		mov.L	8[r10], r5
 535 0297 DC 55                   		mov.W	[r5], r5
 536 0299 DF 54                   		mov.W	r5, r4
 537                             		.loc 1 261 39
 538 029b DD A5 06                		mov.W	12[r10], r5
 539 029e 4B 45                   		add	r4, r5
 540                             		.loc 1 261 2
 541 02a0 DF 51                   		mov.W	r5, r1
 262:C:/Users/John/Desktop/workspace/miniwinwm/MiniWin/gl\gl.c **** 			client_y + draw_info->origin_y,
 542                             		.loc 1 262 24
 543 02a2 ED A5 02                		mov.L	8[r10], r5
 544 02a5 98 5D                   		mov.W	2[r5], r5
 545 02a7 DF 54                   		mov.W	r5, r4
 546                             		.loc 1 262 13
 547 02a9 DD A5 07                		mov.W	14[r10], r5
 548 02ac 4B 45                   		add	r4, r5
 261:C:/Users/John/Desktop/workspace/miniwinwm/MiniWin/gl\gl.c **** 			client_y + draw_info->origin_y,
 549                             		.loc 1 261 2
 550 02ae A8 6C                   		mov.L	4[r6], r4
 551 02b0 E3 04                   		mov.L	r4, [r0]
 552 02b2 DC 64                   		mov.W	[r6], r4
 553 02b4 DD A3 08                		mov.W	16[r10], r3
 554 02b7 DF 52                   		mov.W	r5, r2
 555 02b9 05 00 00 00             		bsr	_mw_hal_lcd_filled_rectangle
 556 02bd 2E 15                   		bra	.L11
 557                             	.L31:
 185:C:/Users/John/Desktop/workspace/miniwinwm/MiniWin/gl\gl.c **** 	}
 558                             		.loc 1 185 3
 559 02bf 03                      		nop
 560 02c0 2E 12                   		bra	.L11
 561                             	.L32:
 216:C:/Users/John/Desktop/workspace/miniwinwm/MiniWin/gl\gl.c **** 	}
 562                             		.loc 1 216 3
 563 02c2 03                      		nop
 564 02c3 2E 0F                   		bra	.L11
 565                             	.L33:
 222:C:/Users/John/Desktop/workspace/miniwinwm/MiniWin/gl\gl.c **** 	}
 566                             		.loc 1 222 3
 567 02c5 03                      		nop
 568 02c6 2E 0C                   		bra	.L11
 569                             	.L34:
 227:C:/Users/John/Desktop/workspace/miniwinwm/MiniWin/gl\gl.c **** 	}
 570                             		.loc 1 227 3
 571 02c8 03                      		nop
 572 02c9 09                      		bra	.L11
 573                             	.L35:
 233:C:/Users/John/Desktop/workspace/miniwinwm/MiniWin/gl\gl.c **** 	}
 574                             		.loc 1 233 3
 575 02ca 03                      		nop
 576 02cb 0F                      		bra	.L11
 577                             	.L36:
 238:C:/Users/John/Desktop/workspace/miniwinwm/MiniWin/gl\gl.c **** 	}
 578                             		.loc 1 238 3
 579 02cc 03                      		nop
 580 02cd 0D                      		bra	.L11
 581                             	.L37:
 247:C:/Users/John/Desktop/workspace/miniwinwm/MiniWin/gl\gl.c **** 		}
 582                             		.loc 1 247 4
 583 02ce 03                      		nop
 584 02cf 2E 03                   		bra	.L11
 585                             	.L38:
 257:C:/Users/John/Desktop/workspace/miniwinwm/MiniWin/gl\gl.c **** 		}
 586                             		.loc 1 257 4
 587 02d1 03                      		nop
 588                             		.balign 8,3,2
 589                             	.L11:
 263:C:/Users/John/Desktop/workspace/miniwinwm/MiniWin/gl\gl.c **** 			width,
 264:C:/Users/John/Desktop/workspace/miniwinwm/MiniWin/gl\gl.c **** 			height,
 265:C:/Users/John/Desktop/workspace/miniwinwm/MiniWin/gl\gl.c **** 			colour);
 266:C:/Users/John/Desktop/workspace/miniwinwm/MiniWin/gl\gl.c **** }
 590                             		.loc 1 266 1
 591 02d2 71 00 20                		add	#32, r0
 592 02d5 7E B6                   		pop	r6
 593 02d7 7E BA                   		pop	r10
 594 02d9 02                      		rts
 595                             	.LFE1:
 597 02da 74 10 01 00 00 00       		.section C,"a",@progbits
 598 0016 00 00                   		.p2align 2
 599                             	.LC1:
 600 0018 54 6F 6F 20 6D 61 6E 79 		.string	"Too many points in polygon shape"
 600      20 70 6F 69 6E 74 73 20 
 600      69 6E 20 70 6F 6C 79 67 
 600      6F 6E 20 73 68 61 70 65 
 600      00 
 601                             	.LC2:
 602 0039 54 6F 6F 20 66 65 77 20 		.string	"Too few points in polygon shape"
 602      70 6F 69 6E 74 73 20 69 
 602      6E 20 70 6F 6C 79 67 6F 
 602      6E 20 73 68 61 70 65 00 
 603                             		.section	.text.filled_poly,"ax",@progbits
 605                             	_filled_poly:
 606                             	.LFB2:
 267:C:/Users/John/Desktop/workspace/miniwinwm/MiniWin/gl\gl.c **** 
 268:C:/Users/John/Desktop/workspace/miniwinwm/MiniWin/gl\gl.c **** /**
 269:C:/Users/John/Desktop/workspace/miniwinwm/MiniWin/gl\gl.c ****  * Draw a filled polygon defined by its corners.
 270:C:/Users/John/Desktop/workspace/miniwinwm/MiniWin/gl\gl.c ****  *
 271:C:/Users/John/Desktop/workspace/miniwinwm/MiniWin/gl\gl.c ****  * @param draw_info Reference frame origin coordinates and clip region rect
 272:C:/Users/John/Desktop/workspace/miniwinwm/MiniWin/gl\gl.c ****  * @param poly_corners The number of corners to the polygon data
 273:C:/Users/John/Desktop/workspace/miniwinwm/MiniWin/gl\gl.c ****  * @param poly_x Array of x coordinates of the corners; size must be same as poly_corners
 274:C:/Users/John/Desktop/workspace/miniwinwm/MiniWin/gl\gl.c ****  * @param poly_y Array of y coordinates of the corners; size must be same as poly_corners 
 275:C:/Users/John/Desktop/workspace/miniwinwm/MiniWin/gl\gl.c ****  * @param x_offset Fixed value to add to every member of poly_x
 276:C:/Users/John/Desktop/workspace/miniwinwm/MiniWin/gl\gl.c ****  * @param y_offset Fixed value to add to every member of poly_y 
 277:C:/Users/John/Desktop/workspace/miniwinwm/MiniWin/gl\gl.c ****  * @param colour Colour to draw the pixel
 278:C:/Users/John/Desktop/workspace/miniwinwm/MiniWin/gl\gl.c ****  */
 279:C:/Users/John/Desktop/workspace/miniwinwm/MiniWin/gl\gl.c **** static void filled_poly(const mw_gl_draw_info_t *draw_info, uint16_t poly_corners, const int16_t *p
 280:C:/Users/John/Desktop/workspace/miniwinwm/MiniWin/gl\gl.c **** {
 607                             		.loc 1 280 1
 608 0000 6E 6A                   		pushm	r6-r10
 609                             	.LCFI6:
 610 0002 71 0A CC                		add	#-52, r0, r10
 611                             	.LCFI7:
 612 0005 71 A0 F8                		add	#-8, r10, r0
 613                             	.LCFI8:
 614 0008 75 46 4C                		mov.L	#0x4c, r6
 615 000b 4B A6                   		add	r10, r6
 616 000d E7 A1 08                		mov.L	r1, 32[r10]
 617 0010 D7 A2 12                		mov.W	r2, 36[r10]
 618 0013 E7 A3 0A                		mov.L	r3, 40[r10]
 619 0016 E7 A4 0B                		mov.L	r4, 44[r10]
 281:C:/Users/John/Desktop/workspace/miniwinwm/MiniWin/gl\gl.c **** 	uint16_t i;
 282:C:/Users/John/Desktop/workspace/miniwinwm/MiniWin/gl\gl.c **** 	uint16_t j;
 283:C:/Users/John/Desktop/workspace/miniwinwm/MiniWin/gl\gl.c **** 	int16_t swap;
 284:C:/Users/John/Desktop/workspace/miniwinwm/MiniWin/gl\gl.c **** 	uint16_t line_node_count;
 285:C:/Users/John/Desktop/workspace/miniwinwm/MiniWin/gl\gl.c **** 	int16_t y;
 286:C:/Users/John/Desktop/workspace/miniwinwm/MiniWin/gl\gl.c **** 	int16_t node_x[MW_GL_MAX_POLY_CORNERS - 1U];
 287:C:/Users/John/Desktop/workspace/miniwinwm/MiniWin/gl\gl.c **** 	int16_t y_min = INT16_MAX;
 620                             		.loc 1 287 10
 621 0019 F9 A9 04 FF 7F          		mov.W	#0x7fff, 8[r10]
 288:C:/Users/John/Desktop/workspace/miniwinwm/MiniWin/gl\gl.c **** 	int16_t y_max = INT16_MIN;
 622                             		.loc 1 288 10
 623 001e F9 A9 05 00 80          		mov.W	#-32768, 10[r10]
 289:C:/Users/John/Desktop/workspace/miniwinwm/MiniWin/gl\gl.c **** 	int16_t x;
 290:C:/Users/John/Desktop/workspace/miniwinwm/MiniWin/gl\gl.c **** 	float temp_float;
 291:C:/Users/John/Desktop/workspace/miniwinwm/MiniWin/gl\gl.c **** 
 292:C:/Users/John/Desktop/workspace/miniwinwm/MiniWin/gl\gl.c **** 	MW_ASSERT(draw_info, "Null pointer argument");
 624                             		.loc 1 292 2
 625 0023 ED A5 08                		mov.L	32[r10], r5
 626 0026 61 05                   		cmp	#0, r5
 627 0028 FC DB 51                		scne.L	r5
 628 002b FB 42 00 00 00 00       		mov.L	#.LC0, r4
 629 0031 FB 3A 24 01             		mov.L	#0x124, r3
 630 0035 FB 22 00 00 00 00       		mov.L	#___func__.2996, r2
 631 003b CF 51                   		mov.B	r5, r1
 632 003d 05 00 00 00             		bsr	_mw_debug_print_assert
 293:C:/Users/John/Desktop/workspace/miniwinwm/MiniWin/gl\gl.c **** 	MW_ASSERT(poly_x, "Null pointer argument");
 633                             		.loc 1 293 2
 634 0041 ED A5 0A                		mov.L	40[r10], r5
 635 0044 61 05                   		cmp	#0, r5
 636 0046 FC DB 51                		scne.L	r5
 637 0049 FB 42 00 00 00 00       		mov.L	#.LC0, r4
 638 004f FB 3A 25 01             		mov.L	#0x125, r3
 639 0053 FB 22 00 00 00 00       		mov.L	#___func__.2996, r2
 640 0059 CF 51                   		mov.B	r5, r1
 641 005b 05 00 00 00             		bsr	_mw_debug_print_assert
 294:C:/Users/John/Desktop/workspace/miniwinwm/MiniWin/gl\gl.c **** 	MW_ASSERT(poly_y, "Null pointer argument");
 642                             		.loc 1 294 2
 643 005f ED A5 0B                		mov.L	44[r10], r5
 644 0062 61 05                   		cmp	#0, r5
 645 0064 FC DB 51                		scne.L	r5
 646 0067 FB 42 00 00 00 00       		mov.L	#.LC0, r4
 647 006d FB 3A 26 01             		mov.L	#0x126, r3
 648 0071 FB 22 00 00 00 00       		mov.L	#___func__.2996, r2
 649 0077 CF 51                   		mov.B	r5, r1
 650 0079 05 00 00 00             		bsr	_mw_debug_print_assert
 295:C:/Users/John/Desktop/workspace/miniwinwm/MiniWin/gl\gl.c **** 	MW_ASSERT(poly_corners <= MW_GL_MAX_POLY_CORNERS, "Too many points in polygon shape");
 651                             		.loc 1 295 2
 652 007d 5D A5 12                		movu.W	36[r10], r5
 653 0080 61 55                   		cmp	#5, r5
 654 0082 FC DB 55                		scleu.L	r5
 655 0085 FB 42 18 00 00 00       		mov.L	#.LC1, r4
 656 008b FB 3A 27 01             		mov.L	#0x127, r3
 657 008f FB 22 00 00 00 00       		mov.L	#___func__.2996, r2
 658 0095 CF 51                   		mov.B	r5, r1
 659 0097 05 00 00 00             		bsr	_mw_debug_print_assert
 296:C:/Users/John/Desktop/workspace/miniwinwm/MiniWin/gl\gl.c **** 	MW_ASSERT(poly_corners >= 3U, "Too few points in polygon shape");
 660                             		.loc 1 296 2
 661 009b 5D A5 12                		movu.W	36[r10], r5
 662 009e 61 25                   		cmp	#2, r5
 663 00a0 FC DB 54                		scgtu.L	r5
 664 00a3 FB 42 39 00 00 00       		mov.L	#.LC2, r4
 665 00a9 FB 3A 28 01             		mov.L	#0x128, r3
 666 00ad FB 22 00 00 00 00       		mov.L	#___func__.2996, r2
 667 00b3 CF 51                   		mov.B	r5, r1
 668 00b5 05 00 00 00             		bsr	_mw_debug_print_assert
 297:C:/Users/John/Desktop/workspace/miniwinwm/MiniWin/gl\gl.c **** 
 298:C:/Users/John/Desktop/workspace/miniwinwm/MiniWin/gl\gl.c **** 	/* find y range of shape */
 299:C:/Users/John/Desktop/workspace/miniwinwm/MiniWin/gl\gl.c **** 	for (i = 0; i < poly_corners; i++)
 669                             		.loc 1 299 9
 670 00b9 F8 A5 00                		mov.W	#0, [r10]
 671                             		.loc 1 299 2
 672 00bc 2E 4C                   		bra	.L40
 673                             	.L43:
 300:C:/Users/John/Desktop/workspace/miniwinwm/MiniWin/gl\gl.c **** 	{
 301:C:/Users/John/Desktop/workspace/miniwinwm/MiniWin/gl\gl.c **** 		if (poly_y[i]<y_min)
 674                             		.loc 1 301 13
 675 00be 5C A5                   		movu.W	[r10], r5
 676 00c0 4B 55                   		add	r5, r5
 677 00c2 ED A4 0B                		mov.L	44[r10], r4
 678 00c5 4B 45                   		add	r4, r5
 679 00c7 DC 55                   		mov.W	[r5], r5
 680                             		.loc 1 301 6
 681 00c9 DD A4 04                		mov.W	8[r10], r4
 682 00cc DF 55                   		mov.W	r5, r5
 683 00ce 47 54                   		cmp	r5, r4
 684 00d0 2B 10                   		ble	.L41
 302:C:/Users/John/Desktop/workspace/miniwinwm/MiniWin/gl\gl.c **** 		{
 303:C:/Users/John/Desktop/workspace/miniwinwm/MiniWin/gl\gl.c **** 			y_min = poly_y[i];
 685                             		.loc 1 303 18
 686 00d2 5C A5                   		movu.W	[r10], r5
 687 00d4 4B 55                   		add	r5, r5
 688 00d6 ED A4 0B                		mov.L	44[r10], r4
 689 00d9 4B 45                   		add	r4, r5
 690                             		.loc 1 303 10
 691 00db DC 55                   		mov.W	[r5], r5
 692 00dd D7 A5 04                		mov.W	r5, 8[r10]
 693                             	.L41:
 304:C:/Users/John/Desktop/workspace/miniwinwm/MiniWin/gl\gl.c **** 		}
 305:C:/Users/John/Desktop/workspace/miniwinwm/MiniWin/gl\gl.c **** 		if (poly_y[i] > y_max)
 694                             		.loc 1 305 13
 695 00e0 5C A5                   		movu.W	[r10], r5
 696 00e2 4B 55                   		add	r5, r5
 697 00e4 ED A4 0B                		mov.L	44[r10], r4
 698 00e7 4B 45                   		add	r4, r5
 699 00e9 DC 55                   		mov.W	[r5], r5
 700                             		.loc 1 305 6
 701 00eb DD A4 05                		mov.W	10[r10], r4
 702 00ee DF 55                   		mov.W	r5, r5
 703 00f0 47 54                   		cmp	r5, r4
 704 00f2 28 10                   		bge	.L42
 306:C:/Users/John/Desktop/workspace/miniwinwm/MiniWin/gl\gl.c **** 		{
 307:C:/Users/John/Desktop/workspace/miniwinwm/MiniWin/gl\gl.c **** 			y_max = poly_y[i];
 705                             		.loc 1 307 18
 706 00f4 5C A5                   		movu.W	[r10], r5
 707 00f6 4B 55                   		add	r5, r5
 708 00f8 ED A4 0B                		mov.L	44[r10], r4
 709 00fb 4B 45                   		add	r4, r5
 710                             		.loc 1 307 10
 711 00fd DC 55                   		mov.W	[r5], r5
 712 00ff D7 A5 05                		mov.W	r5, 10[r10]
 713                             	.L42:
 299:C:/Users/John/Desktop/workspace/miniwinwm/MiniWin/gl\gl.c **** 	{
 714                             		.loc 1 299 33 discriminator 2
 715 0102 DC A5                   		mov.W	[r10], r5
 716 0104 62 15                   		add	#1, r5
 717 0106 D3 A5                   		mov.W	r5, [r10]
 718                             	.L40:
 299:C:/Users/John/Desktop/workspace/miniwinwm/MiniWin/gl\gl.c **** 	{
 719                             		.loc 1 299 2 discriminator 1
 720 0108 5C A4                   		movu.W	[r10], r4
 721 010a 5D A5 12                		movu.W	36[r10], r5
 722 010d 47 54                   		cmp	r5, r4
 723 010f 23 AF                   		bltu	.L43
 308:C:/Users/John/Desktop/workspace/miniwinwm/MiniWin/gl\gl.c **** 		}
 309:C:/Users/John/Desktop/workspace/miniwinwm/MiniWin/gl\gl.c **** 	}
 310:C:/Users/John/Desktop/workspace/miniwinwm/MiniWin/gl\gl.c **** 
 311:C:/Users/John/Desktop/workspace/miniwinwm/MiniWin/gl\gl.c **** 	/*  Loop through the rows of the image */
 312:C:/Users/John/Desktop/workspace/miniwinwm/MiniWin/gl\gl.c **** 	for (y = y_min; y <= y_max; y++)
 724                             		.loc 1 312 9
 725 0111 DD A5 04                		mov.W	8[r10], r5
 726 0114 D7 A5 03                		mov.W	r5, 6[r10]
 727                             		.loc 1 312 2
 728 0117 38 1D 03                		bra	.L44
 729                             	.L67:
 313:C:/Users/John/Desktop/workspace/miniwinwm/MiniWin/gl\gl.c **** 	{
 314:C:/Users/John/Desktop/workspace/miniwinwm/MiniWin/gl\gl.c **** 		if (y + y_offset > MW_GL_MAX_Y)
 730                             		.loc 1 314 22
 731 011a 05 00 00 00             		bsr	_mw_hal_lcd_get_display_height
 732 011e EF 15                   		mov.L	r1, r5
 733 0120 DF 54                   		mov.W	r5, r4
 734                             		.loc 1 314 9
 735 0122 DD A3 03                		mov.W	6[r10], r3
 736 0125 98 6D                   		mov.W	2[r6], r5
 737 0127 4B 35                   		add	r3, r5
 738                             		.loc 1 314 6
 739 0129 47 54                   		cmp	r5, r4
 740 012b 2A 05 38 16 03          		ble	.L68
 315:C:/Users/John/Desktop/workspace/miniwinwm/MiniWin/gl\gl.c **** 		{
 316:C:/Users/John/Desktop/workspace/miniwinwm/MiniWin/gl\gl.c **** 			return;
 317:C:/Users/John/Desktop/workspace/miniwinwm/MiniWin/gl\gl.c **** 		}
 318:C:/Users/John/Desktop/workspace/miniwinwm/MiniWin/gl\gl.c **** 
 319:C:/Users/John/Desktop/workspace/miniwinwm/MiniWin/gl\gl.c **** 		/* build a list of nodes on this line */
 320:C:/Users/John/Desktop/workspace/miniwinwm/MiniWin/gl\gl.c **** 		line_node_count = 0;
 741                             		.loc 1 320 19
 742 0130 F9 A5 02 00             		mov.W	#0, 4[r10]
 321:C:/Users/John/Desktop/workspace/miniwinwm/MiniWin/gl\gl.c **** 		j = poly_corners - 1U;
 743                             		.loc 1 321 5
 744 0134 DD A5 12                		mov.W	36[r10], r5
 745 0137 60 15                   		sub	#1, r5
 746 0139 D7 A5 01                		mov.W	r5, 2[r10]
 322:C:/Users/John/Desktop/workspace/miniwinwm/MiniWin/gl\gl.c **** 		for (i = 0U; i  <poly_corners; i++)
 747                             		.loc 1 322 10
 748 013c F8 A5 00                		mov.W	#0, [r10]
 749                             		.loc 1 322 3
 750 013f 38 02 01                		bra	.L47
 751                             	.L51:
 323:C:/Users/John/Desktop/workspace/miniwinwm/MiniWin/gl\gl.c **** 		{
 324:C:/Users/John/Desktop/workspace/miniwinwm/MiniWin/gl\gl.c **** 			if ((poly_y[i] < y && poly_y[j] >= y) || (poly_y[j] < y && poly_y[i] >= y))
 752                             		.loc 1 324 15
 753 0142 5C A5                   		movu.W	[r10], r5
 754 0144 4B 55                   		add	r5, r5
 755 0146 ED A4 0B                		mov.L	44[r10], r4
 756 0149 4B 45                   		add	r4, r5
 757 014b DC 55                   		mov.W	[r5], r5
 758                             		.loc 1 324 7
 759 014d DD A4 03                		mov.W	6[r10], r4
 760 0150 DF 55                   		mov.W	r5, r5
 761 0152 47 54                   		cmp	r5, r4
 762 0154 2B 17                   		ble	.L48
 763                             		.loc 1 324 32 discriminator 1
 764 0156 5D A5 01                		movu.W	2[r10], r5
 765 0159 4B 55                   		add	r5, r5
 766 015b ED A4 0B                		mov.L	44[r10], r4
 767 015e 4B 45                   		add	r4, r5
 768 0160 DC 55                   		mov.W	[r5], r5
 769                             		.loc 1 324 23 discriminator 1
 770 0162 DD A4 03                		mov.W	6[r10], r4
 771 0165 DF 55                   		mov.W	r5, r5
 772 0167 47 54                   		cmp	r5, r4
 773 0169 2B 31                   		ble	.L49
 774                             	.L48:
 775                             		.loc 1 324 52 discriminator 3
 776 016b 5D A5 01                		movu.W	2[r10], r5
 777 016e 4B 55                   		add	r5, r5
 778 0170 ED A4 0B                		mov.L	44[r10], r4
 779 0173 4B 45                   		add	r4, r5
 780 0175 DC 55                   		mov.W	[r5], r5
 781                             		.loc 1 324 42 discriminator 3
 782 0177 DD A4 03                		mov.W	6[r10], r4
 783 017a DF 55                   		mov.W	r5, r5
 784 017c 47 54                   		cmp	r5, r4
 785 017e 2A 05 38 B6 00          		ble	.L50
 786                             		.loc 1 324 69 discriminator 4
 787 0183 5C A5                   		movu.W	[r10], r5
 788 0185 4B 55                   		add	r5, r5
 789 0187 ED A4 0B                		mov.L	44[r10], r4
 790 018a 4B 45                   		add	r4, r5
 791 018c DC 55                   		mov.W	[r5], r5
 792                             		.loc 1 324 60 discriminator 4
 793 018e DD A4 03                		mov.W	6[r10], r4
 794 0191 DF 55                   		mov.W	r5, r5
 795 0193 47 54                   		cmp	r5, r4
 796 0195 2B 05 38 9F 00          		bgt	.L50
 797                             	.L49:
 325:C:/Users/John/Desktop/workspace/miniwinwm/MiniWin/gl\gl.c **** 			{
 326:C:/Users/John/Desktop/workspace/miniwinwm/MiniWin/gl\gl.c **** 				temp_float = ((float)y - (float)poly_y[i]) / ((float)poly_y[j] - (float)poly_y[i]);
 798                             		.loc 1 326 19
 799 019a DD A5 03                		mov.W	6[r10], r5
 800 019d FC 47 54                		itof	r5, r4
 801                             		.loc 1 326 43
 802 01a0 5C A5                   		movu.W	[r10], r5
 803 01a2 4B 55                   		add	r5, r5
 804 01a4 ED A3 0B                		mov.L	44[r10], r3
 805 01a7 4B 35                   		add	r3, r5
 806 01a9 DC 55                   		mov.W	[r5], r5
 807                             		.loc 1 326 30
 808 01ab DF 55                   		mov.W	r5, r5
 809 01ad FC 47 55                		itof	r5, r5
 810                             		.loc 1 326 28
 811 01b0 FC 83 54                		fsub	r5, r4
 812                             		.loc 1 326 64
 813 01b3 5D A5 01                		movu.W	2[r10], r5
 814 01b6 4B 55                   		add	r5, r5
 815 01b8 ED A3 0B                		mov.L	44[r10], r3
 816 01bb 4B 35                   		add	r3, r5
 817 01bd DC 55                   		mov.W	[r5], r5
 818                             		.loc 1 326 51
 819 01bf DF 55                   		mov.W	r5, r5
 820 01c1 FC 47 53                		itof	r5, r3
 821                             		.loc 1 326 83
 822 01c4 5C A5                   		movu.W	[r10], r5
 823 01c6 4B 55                   		add	r5, r5
 824 01c8 ED A2 0B                		mov.L	44[r10], r2
 825 01cb 4B 25                   		add	r2, r5
 826 01cd DC 55                   		mov.W	[r5], r5
 827                             		.loc 1 326 70
 828 01cf DF 55                   		mov.W	r5, r5
 829 01d1 FC 47 55                		itof	r5, r5
 830                             		.loc 1 326 68
 831 01d4 FF 85 53                		fsub	r5, r3, r5
 832                             		.loc 1 326 16
 833 01d7 EF 47                   		mov.L	r4, r7
 834 01d9 FC 93 57                		fdiv	r5, r7
 835 01dc EF 75                   		mov.L	r7, r5
 836 01de E7 A5 04                		mov.L	r5, 16[r10]
 327:C:/Users/John/Desktop/workspace/miniwinwm/MiniWin/gl\gl.c **** 				temp_float *= ((float)poly_x[j] - (float)poly_x[i]);
 837                             		.loc 1 327 33
 838 01e1 5D A5 01                		movu.W	2[r10], r5
 839 01e4 4B 55                   		add	r5, r5
 840 01e6 ED A4 0A                		mov.L	40[r10], r4
 841 01e9 4B 45                   		add	r4, r5
 842 01eb DC 55                   		mov.W	[r5], r5
 843                             		.loc 1 327 20
 844 01ed DF 55                   		mov.W	r5, r5
 845 01ef FC 47 54                		itof	r5, r4
 846                             		.loc 1 327 52
 847 01f2 5C A5                   		movu.W	[r10], r5
 848 01f4 4B 55                   		add	r5, r5
 849 01f6 ED A3 0A                		mov.L	40[r10], r3
 850 01f9 4B 35                   		add	r3, r5
 851 01fb DC 55                   		mov.W	[r5], r5
 852                             		.loc 1 327 39
 853 01fd DF 55                   		mov.W	r5, r5
 854 01ff FC 47 55                		itof	r5, r5
 855                             		.loc 1 327 37
 856 0202 FF 85 54                		fsub	r5, r4, r5
 857                             		.loc 1 327 16
 858 0205 ED A4 04                		mov.L	16[r10], r4
 859 0208 FC 8F 45                		fmul	r4, r5
 860 020b E7 A5 04                		mov.L	r5, 16[r10]
 328:C:/Users/John/Desktop/workspace/miniwinwm/MiniWin/gl\gl.c **** 				node_x[line_node_count++] = poly_x[i] + (int16_t)temp_float;
 861                             		.loc 1 328 39
 862 020e 5C A5                   		movu.W	[r10], r5
 863 0210 4B 55                   		add	r5, r5
 864 0212 ED A4 0A                		mov.L	40[r10], r4
 865 0215 4B 45                   		add	r4, r5
 866 0217 DC 55                   		mov.W	[r5], r5
 867 0219 DF 54                   		mov.W	r5, r4
 868                             		.loc 1 328 45
 869 021b ED A5 04                		mov.L	16[r10], r5
 870 021e FC 97 55                		ftoi	r5, r5
 871                             		.loc 1 328 43
 872 0221 4B 45                   		add	r4, r5
 873 0223 DF 53                   		mov.W	r5, r3
 874                             		.loc 1 328 27
 875 0225 DD A5 02                		mov.W	4[r10], r5
 876 0228 71 54 01                		add	#1, r5, r4
 877 022b D7 A4 02                		mov.W	r4, 4[r10]
 878 022e 5F 54                   		movu.W	r5, r4
 879                             		.loc 1 328 31
 880 0230 71 A5 16                		add	#22, r10, r5
 881 0233 FE 14 53                		mov.W	r3, [r4,r5]
 882                             	.L50:
 329:C:/Users/John/Desktop/workspace/miniwinwm/MiniWin/gl\gl.c **** 			}
 330:C:/Users/John/Desktop/workspace/miniwinwm/MiniWin/gl\gl.c **** 			j = i;
 883                             		.loc 1 330 6 discriminator 2
 884 0236 DC A5                   		mov.W	[r10], r5
 885 0238 D7 A5 01                		mov.W	r5, 2[r10]
 322:C:/Users/John/Desktop/workspace/miniwinwm/MiniWin/gl\gl.c **** 		{
 886                             		.loc 1 322 35 discriminator 2
 887 023b DC A5                   		mov.W	[r10], r5
 888 023d 62 15                   		add	#1, r5
 889 023f D3 A5                   		mov.W	r5, [r10]
 890                             	.L47:
 322:C:/Users/John/Desktop/workspace/miniwinwm/MiniWin/gl\gl.c **** 		{
 891                             		.loc 1 322 3 discriminator 1
 892 0241 5C A4                   		movu.W	[r10], r4
 893 0243 5D A5 12                		movu.W	36[r10], r5
 894 0246 47 54                   		cmp	r5, r4
 895 0248 22 05 38 F8 FE          		bltu	.L51
 331:C:/Users/John/Desktop/workspace/miniwinwm/MiniWin/gl\gl.c **** 		}
 332:C:/Users/John/Desktop/workspace/miniwinwm/MiniWin/gl\gl.c **** 
 333:C:/Users/John/Desktop/workspace/miniwinwm/MiniWin/gl\gl.c **** 		/* sort the nodes, via a simple bubble sort */
 334:C:/Users/John/Desktop/workspace/miniwinwm/MiniWin/gl\gl.c **** 		if (line_node_count > 1U)
 896                             		.loc 1 334 6
 897 024d 5D A5 02                		movu.W	4[r10], r5
 898 0250 61 15                   		cmp	#1, r5
 899 0252 25 6C                   		bleu	.L52
 335:C:/Users/John/Desktop/workspace/miniwinwm/MiniWin/gl\gl.c **** 		{
 336:C:/Users/John/Desktop/workspace/miniwinwm/MiniWin/gl\gl.c **** 			i = 0U;
 900                             		.loc 1 336 6
 901 0254 F8 A5 00                		mov.W	#0, [r10]
 337:C:/Users/John/Desktop/workspace/miniwinwm/MiniWin/gl\gl.c **** 			while (i < line_node_count - 1U)
 902                             		.loc 1 337 10
 903 0257 2E 5C                   		bra	.L53
 904                             	.L56:
 338:C:/Users/John/Desktop/workspace/miniwinwm/MiniWin/gl\gl.c **** 			{
 339:C:/Users/John/Desktop/workspace/miniwinwm/MiniWin/gl\gl.c **** 				if (node_x[i] > node_x[i + 1U])
 905                             		.loc 1 339 15
 906 0259 5C A4                   		movu.W	[r10], r4
 907 025b 71 A5 16                		add	#22, r10, r5
 908 025e FE 54 53                		mov.W	[r4,r5], r3
 909                             		.loc 1 339 30
 910 0261 5C A5                   		movu.W	[r10], r5
 911 0263 71 54 01                		add	#1, r5, r4
 912                             		.loc 1 339 27
 913 0266 71 A5 16                		add	#22, r10, r5
 914 0269 FE 54 55                		mov.W	[r4,r5], r5
 915                             		.loc 1 339 8
 916 026c DF 34                   		mov.W	r3, r4
 917 026e DF 55                   		mov.W	r5, r5
 918 0270 47 54                   		cmp	r5, r4
 919 0272 2B 3B                   		ble	.L54
 340:C:/Users/John/Desktop/workspace/miniwinwm/MiniWin/gl\gl.c **** 				{
 341:C:/Users/John/Desktop/workspace/miniwinwm/MiniWin/gl\gl.c **** 					swap = node_x[i];
 920                             		.loc 1 341 19
 921 0274 5C A4                   		movu.W	[r10], r4
 922                             		.loc 1 341 11
 923 0276 71 A5 16                		add	#22, r10, r5
 924 0279 FE 54 55                		mov.W	[r4,r5], r5
 925 027c D7 A5 0A                		mov.W	r5, 20[r10]
 342:C:/Users/John/Desktop/workspace/miniwinwm/MiniWin/gl\gl.c **** 					node_x[i] = node_x[i + 1U];
 926                             		.loc 1 342 27
 927 027f 5C A5                   		movu.W	[r10], r5
 928 0281 71 53 01                		add	#1, r5, r3
 929                             		.loc 1 342 12
 930 0284 5C A4                   		movu.W	[r10], r4
 931                             		.loc 1 342 24
 932 0286 71 A5 16                		add	#22, r10, r5
 933 0289 FE 53 53                		mov.W	[r3,r5], r3
 934                             		.loc 1 342 16
 935 028c 71 A5 16                		add	#22, r10, r5
 936 028f FE 14 53                		mov.W	r3, [r4,r5]
 343:C:/Users/John/Desktop/workspace/miniwinwm/MiniWin/gl\gl.c **** 					node_x[i + 1U] = swap;
 937                             		.loc 1 343 15
 938 0292 5C A5                   		movu.W	[r10], r5
 939 0294 71 54 01                		add	#1, r5, r4
 940                             		.loc 1 343 21
 941 0297 71 A5 16                		add	#22, r10, r5
 942 029a DD A3 0A                		mov.W	20[r10], r3
 943 029d FE 14 53                		mov.W	r3, [r4,r5]
 344:C:/Users/John/Desktop/workspace/miniwinwm/MiniWin/gl\gl.c **** 					if (i > 0U)
 944                             		.loc 1 344 9
 945 02a0 5C A5                   		movu.W	[r10], r5
 946 02a2 61 05                   		cmp	#0, r5
 947 02a4 20 0F                   		beq	.L53
 345:C:/Users/John/Desktop/workspace/miniwinwm/MiniWin/gl\gl.c **** 					{
 346:C:/Users/John/Desktop/workspace/miniwinwm/MiniWin/gl\gl.c **** 						i--;
 948                             		.loc 1 346 8
 949 02a6 DC A5                   		mov.W	[r10], r5
 950 02a8 60 15                   		sub	#1, r5
 951 02aa D3 A5                   		mov.W	r5, [r10]
 952 02ac 0F                      		bra	.L53
 953                             	.L54:
 347:C:/Users/John/Desktop/workspace/miniwinwm/MiniWin/gl\gl.c **** 					}
 348:C:/Users/John/Desktop/workspace/miniwinwm/MiniWin/gl\gl.c **** 				}
 349:C:/Users/John/Desktop/workspace/miniwinwm/MiniWin/gl\gl.c **** 				else
 350:C:/Users/John/Desktop/workspace/miniwinwm/MiniWin/gl\gl.c **** 				{
 351:C:/Users/John/Desktop/workspace/miniwinwm/MiniWin/gl\gl.c **** 					i++;
 954                             		.loc 1 351 7
 955 02ad DC A5                   		mov.W	[r10], r5
 956 02af 62 15                   		add	#1, r5
 957 02b1 D3 A5                   		mov.W	r5, [r10]
 958                             		.balign 8,3,3
 959                             	.L53:
 337:C:/Users/John/Desktop/workspace/miniwinwm/MiniWin/gl\gl.c **** 			{
 960                             		.loc 1 337 13
 961 02b3 5C A4                   		movu.W	[r10], r4
 337:C:/Users/John/Desktop/workspace/miniwinwm/MiniWin/gl\gl.c **** 			{
 962                             		.loc 1 337 31
 963 02b5 5D A5 02                		movu.W	4[r10], r5
 964 02b8 60 15                   		sub	#1, r5
 337:C:/Users/John/Desktop/workspace/miniwinwm/MiniWin/gl\gl.c **** 			{
 965                             		.loc 1 337 10
 966 02ba 47 54                   		cmp	r5, r4
 967 02bc 23 9D                   		bltu	.L56
 968                             	.L52:
 352:C:/Users/John/Desktop/workspace/miniwinwm/MiniWin/gl\gl.c **** 				}
 353:C:/Users/John/Desktop/workspace/miniwinwm/MiniWin/gl\gl.c **** 			}
 354:C:/Users/John/Desktop/workspace/miniwinwm/MiniWin/gl\gl.c **** 		}
 355:C:/Users/John/Desktop/workspace/miniwinwm/MiniWin/gl\gl.c **** 
 356:C:/Users/John/Desktop/workspace/miniwinwm/MiniWin/gl\gl.c **** 		/* fill the pixels between node pairs */
 357:C:/Users/John/Desktop/workspace/miniwinwm/MiniWin/gl\gl.c **** 		for (i = 0; i < line_node_count; i += 2U)
 969                             		.loc 1 357 10
 970 02be F8 A5 00                		mov.W	#0, [r10]
 971                             		.loc 1 357 3
 972 02c1 38 5C 01                		bra	.L57
 973                             	.L66:
 358:C:/Users/John/Desktop/workspace/miniwinwm/MiniWin/gl\gl.c **** 		{
 359:C:/Users/John/Desktop/workspace/miniwinwm/MiniWin/gl\gl.c **** 			node_x[i] += x_offset;
 974                             		.loc 1 359 14
 975 02c4 5C A4                   		movu.W	[r10], r4
 976 02c6 71 A5 16                		add	#22, r10, r5
 977 02c9 FE 54 55                		mov.W	[r4,r5], r5
 978 02cc DF 54                   		mov.W	r5, r4
 979 02ce DC 65                   		mov.W	[r6], r5
 980 02d0 4B 45                   		add	r4, r5
 981 02d2 5C A4                   		movu.W	[r10], r4
 982 02d4 DF 53                   		mov.W	r5, r3
 983 02d6 71 A5 16                		add	#22, r10, r5
 984 02d9 FE 14 53                		mov.W	r3, [r4,r5]
 360:C:/Users/John/Desktop/workspace/miniwinwm/MiniWin/gl\gl.c **** 			node_x[i + 1U] += x_offset;
 985                             		.loc 1 360 19
 986 02dc 5C A5                   		movu.W	[r10], r5
 987 02de 71 54 01                		add	#1, r5, r4
 988 02e1 71 A5 16                		add	#22, r10, r5
 989 02e4 FE 54 55                		mov.W	[r4,r5], r5
 990 02e7 DF 54                   		mov.W	r5, r4
 991 02e9 DC 65                   		mov.W	[r6], r5
 992 02eb 4B 45                   		add	r4, r5
 993 02ed DF 53                   		mov.W	r5, r3
 994 02ef 5C A5                   		movu.W	[r10], r5
 995 02f1 71 54 01                		add	#1, r5, r4
 996 02f4 71 A5 16                		add	#22, r10, r5
 997 02f7 FE 14 53                		mov.W	r3, [r4,r5]
 361:C:/Users/John/Desktop/workspace/miniwinwm/MiniWin/gl\gl.c **** 
 362:C:/Users/John/Desktop/workspace/miniwinwm/MiniWin/gl\gl.c **** 			if (node_x[i] > MW_GL_MAX_X)
 998                             		.loc 1 362 20
 999 02fa 05 00 00 00             		bsr	_mw_hal_lcd_get_display_width
 1000 02fe EF 15                   		mov.L	r1, r5
 1001 0300 DF 53                   		mov.W	r5, r3
 1002                             		.loc 1 362 14
 1003 0302 5C A4                   		movu.W	[r10], r4
 1004 0304 71 A5 16                		add	#22, r10, r5
 1005 0307 FE 54 55                		mov.W	[r4,r5], r5
 1006                             		.loc 1 362 7
 1007 030a DF 34                   		mov.W	r3, r4
 1008 030c DF 55                   		mov.W	r5, r5
 1009 030e 47 54                   		cmp	r5, r4
 1010 0310 2A 05 38 19 01          		ble	.L69
 363:C:/Users/John/Desktop/workspace/miniwinwm/MiniWin/gl\gl.c **** 			{
 364:C:/Users/John/Desktop/workspace/miniwinwm/MiniWin/gl\gl.c **** 				break;
 365:C:/Users/John/Desktop/workspace/miniwinwm/MiniWin/gl\gl.c **** 			}
 366:C:/Users/John/Desktop/workspace/miniwinwm/MiniWin/gl\gl.c **** 			if (node_x[i + 1U] > 0)
 1011                             		.loc 1 366 17
 1012 0315 5C A5                   		movu.W	[r10], r5
 1013 0317 71 54 01                		add	#1, r5, r4
 1014                             		.loc 1 366 14
 1015 031a 71 A5 16                		add	#22, r10, r5
 1016 031d FE 54 55                		mov.W	[r4,r5], r5
 1017                             		.loc 1 366 7
 1018 0320 DF 55                   		mov.W	r5, r5
 1019 0322 61 05                   		cmp	#0, r5
 1020 0324 2A 05 38 F1 00          		ble	.L60
 367:C:/Users/John/Desktop/workspace/miniwinwm/MiniWin/gl\gl.c **** 			{
 368:C:/Users/John/Desktop/workspace/miniwinwm/MiniWin/gl\gl.c **** 				if (node_x[i] < 0)
 1021                             		.loc 1 368 15
 1022 0329 5C A4                   		movu.W	[r10], r4
 1023 032b 71 A5 16                		add	#22, r10, r5
 1024 032e FE 54 55                		mov.W	[r4,r5], r5
 1025                             		.loc 1 368 8
 1026 0331 DF 55                   		mov.W	r5, r5
 1027 0333 61 05                   		cmp	#0, r5
 1028 0335 28 0C                   		bge	.L61
 369:C:/Users/John/Desktop/workspace/miniwinwm/MiniWin/gl\gl.c **** 				{
 370:C:/Users/John/Desktop/workspace/miniwinwm/MiniWin/gl\gl.c **** 					node_x[i] = 0;
 1029                             		.loc 1 370 12
 1030 0337 5C A4                   		movu.W	[r10], r4
 1031                             		.loc 1 370 16
 1032 0339 71 A5 16                		add	#22, r10, r5
 1033 033c 66 07                   		mov	#0, r7
 1034 033e FE 14 57                		mov.W	r7, [r4,r5]
 1035                             	.L61:
 371:C:/Users/John/Desktop/workspace/miniwinwm/MiniWin/gl\gl.c **** 				}
 372:C:/Users/John/Desktop/workspace/miniwinwm/MiniWin/gl\gl.c **** 				if (node_x[i + 1U] > MW_GL_MAX_X)
 1036                             		.loc 1 372 26
 1037 0341 05 00 00 00             		bsr	_mw_hal_lcd_get_display_width
 1038 0345 EF 15                   		mov.L	r1, r5
 1039 0347 DF 53                   		mov.W	r5, r3
 1040                             		.loc 1 372 18
 1041 0349 5C A5                   		movu.W	[r10], r5
 1042 034b 71 54 01                		add	#1, r5, r4
 1043                             		.loc 1 372 15
 1044 034e 71 A5 16                		add	#22, r10, r5
 1045 0351 FE 54 55                		mov.W	[r4,r5], r5
 1046                             		.loc 1 372 8
 1047 0354 DF 34                   		mov.W	r3, r4
 1048 0356 DF 55                   		mov.W	r5, r5
 1049 0358 47 54                   		cmp	r5, r4
 1050 035a 2A 17                   		bgt	.L62
 373:C:/Users/John/Desktop/workspace/miniwinwm/MiniWin/gl\gl.c **** 				{
 374:C:/Users/John/Desktop/workspace/miniwinwm/MiniWin/gl\gl.c **** 					node_x[i + 1U] = MW_GL_MAX_Y;
 1051                             		.loc 1 374 23
 1052 035c 05 00 00 00             		bsr	_mw_hal_lcd_get_display_height
 1053 0360 EF 15                   		mov.L	r1, r5
 1054 0362 60 15                   		sub	#1, r5
 1055 0364 DF 53                   		mov.W	r5, r3
 1056                             		.loc 1 374 15
 1057 0366 5C A5                   		movu.W	[r10], r5
 1058 0368 71 54 01                		add	#1, r5, r4
 1059                             		.loc 1 374 21
 1060 036b 71 A5 16                		add	#22, r10, r5
 1061 036e FE 14 53                		mov.W	r3, [r4,r5]
 1062                             	.L62:
 375:C:/Users/John/Desktop/workspace/miniwinwm/MiniWin/gl\gl.c **** 				}
 376:C:/Users/John/Desktop/workspace/miniwinwm/MiniWin/gl\gl.c **** 				if (gc.pattern_set)
 1063                             		.loc 1 376 11
 1064 0371 FB 52 00 00 00 00       		mov.L	#_gc, r5
 1065 0377 CD 55 38                		mov.B	56[r5], r5
 1066                             		.loc 1 376 8
 1067 037a 5B 55                   		movu.B	r5, r5
 1068 037c 61 05                   		cmp	#0, r5
 1069 037e 20 56                   		beq	.L63
 377:C:/Users/John/Desktop/workspace/miniwinwm/MiniWin/gl\gl.c **** 				{
 378:C:/Users/John/Desktop/workspace/miniwinwm/MiniWin/gl\gl.c **** 					for (x = 0; x <= node_x[i + 1U] - node_x[i] + 1; x++)
 1070                             		.loc 1 378 13
 1071 0380 F9 A5 06 00             		mov.W	#0, 12[r10]
 1072                             		.loc 1 378 6
 1073 0384 2E 2B                   		bra	.L64
 1074                             	.L65:
 379:C:/Users/John/Desktop/workspace/miniwinwm/MiniWin/gl\gl.c **** 					{
 380:C:/Users/John/Desktop/workspace/miniwinwm/MiniWin/gl\gl.c **** 						mw_gl_solid_fill_pixel(draw_info, x + node_x[i], y + y_offset);
 1075                             		.loc 1 380 51 discriminator 3
 1076 0386 5C A4                   		movu.W	[r10], r4
 1077 0388 71 A5 16                		add	#22, r10, r5
 1078 038b FE 54 55                		mov.W	[r4,r5], r5
 1079 038e DF 54                   		mov.W	r5, r4
 1080                             		.loc 1 380 43 discriminator 3
 1081 0390 DD A5 06                		mov.W	12[r10], r5
 1082 0393 4B 45                   		add	r4, r5
 1083                             		.loc 1 380 7 discriminator 3
 1084 0395 DF 52                   		mov.W	r5, r2
 1085                             		.loc 1 380 58 discriminator 3
 1086 0397 DD A4 03                		mov.W	6[r10], r4
 1087 039a 98 6D                   		mov.W	2[r6], r5
 1088 039c 4B 45                   		add	r4, r5
 1089                             		.loc 1 380 7 discriminator 3
 1090 039e DF 53                   		mov.W	r5, r3
 1091 03a0 ED A1 08                		mov.L	32[r10], r1
 1092 03a3 05 00 00 00             		bsr	_mw_gl_solid_fill_pixel
 378:C:/Users/John/Desktop/workspace/miniwinwm/MiniWin/gl\gl.c **** 					{
 1093                             		.loc 1 378 56 discriminator 3
 1094 03a7 DD A5 06                		mov.W	12[r10], r5
 1095 03aa 62 15                   		add	#1, r5
 1096 03ac D7 A5 06                		mov.W	r5, 12[r10]
 1097                             	.L64:
 378:C:/Users/John/Desktop/workspace/miniwinwm/MiniWin/gl\gl.c **** 					{
 1098                             		.loc 1 378 20 discriminator 1
 1099 03af DD A4 06                		mov.W	12[r10], r4
 378:C:/Users/John/Desktop/workspace/miniwinwm/MiniWin/gl\gl.c **** 					{
 1100                             		.loc 1 378 32 discriminator 1
 1101 03b2 5C A5                   		movu.W	[r10], r5
 1102 03b4 71 53 01                		add	#1, r5, r3
 378:C:/Users/John/Desktop/workspace/miniwinwm/MiniWin/gl\gl.c **** 					{
 1103                             		.loc 1 378 29 discriminator 1
 1104 03b7 71 A5 16                		add	#22, r10, r5
 1105 03ba FE 53 55                		mov.W	[r3,r5], r5
 1106 03bd DF 53                   		mov.W	r5, r3
 378:C:/Users/John/Desktop/workspace/miniwinwm/MiniWin/gl\gl.c **** 					{
 1107                             		.loc 1 378 46 discriminator 1
 1108 03bf 5C A2                   		movu.W	[r10], r2
 1109 03c1 71 A5 16                		add	#22, r10, r5
 1110 03c4 FE 52 55                		mov.W	[r2,r5], r5
 1111 03c7 DF 55                   		mov.W	r5, r5
 378:C:/Users/John/Desktop/workspace/miniwinwm/MiniWin/gl\gl.c **** 					{
 1112                             		.loc 1 378 38 discriminator 1
 1113 03c9 FF 05 53                		sub	r5, r3, r5
 378:C:/Users/John/Desktop/workspace/miniwinwm/MiniWin/gl\gl.c **** 					{
 1114                             		.loc 1 378 50 discriminator 1
 1115 03cc 62 15                   		add	#1, r5
 378:C:/Users/John/Desktop/workspace/miniwinwm/MiniWin/gl\gl.c **** 					{
 1116                             		.loc 1 378 6 discriminator 1
 1117 03ce 47 54                   		cmp	r5, r4
 1118 03d0 2B B6                   		ble	.L65
 1119 03d2 2E 45                   		bra	.L60
 1120                             	.L63:
 381:C:/Users/John/Desktop/workspace/miniwinwm/MiniWin/gl\gl.c **** 					}
 382:C:/Users/John/Desktop/workspace/miniwinwm/MiniWin/gl\gl.c **** 				}
 383:C:/Users/John/Desktop/workspace/miniwinwm/MiniWin/gl\gl.c **** 				else
 384:C:/Users/John/Desktop/workspace/miniwinwm/MiniWin/gl\gl.c **** 				{
 385:C:/Users/John/Desktop/workspace/miniwinwm/MiniWin/gl\gl.c **** 					filled_rectangle(draw_info, node_x[i], y + y_offset, node_x[i + 1U] - node_x[i] + 1, 1 , gc.so
 1121                             		.loc 1 385 6
 1122 03d4 5C A4                   		movu.W	[r10], r4
 1123 03d6 71 A5 16                		add	#22, r10, r5
 1124 03d9 FE 54 52                		mov.W	[r4,r5], r2
 1125                             		.loc 1 385 47
 1126 03dc DD A4 03                		mov.W	6[r10], r4
 1127 03df 98 6D                   		mov.W	2[r6], r5
 1128 03e1 4B 45                   		add	r4, r5
 1129                             		.loc 1 385 6
 1130 03e3 DF 51                   		mov.W	r5, r1
 1131                             		.loc 1 385 68
 1132 03e5 5C A5                   		movu.W	[r10], r5
 1133 03e7 71 54 01                		add	#1, r5, r4
 1134                             		.loc 1 385 65
 1135 03ea 71 A5 16                		add	#22, r10, r5
 1136 03ed FE 54 55                		mov.W	[r4,r5], r5
 1137 03f0 DF 53                   		mov.W	r5, r3
 1138                             		.loc 1 385 82
 1139 03f2 5C A4                   		movu.W	[r10], r4
 1140 03f4 71 A5 16                		add	#22, r10, r5
 1141 03f7 FE 54 55                		mov.W	[r4,r5], r5
 1142                             		.loc 1 385 74
 1143 03fa FF 05 53                		sub	r5, r3, r5
 1144                             		.loc 1 385 86
 1145 03fd 62 15                   		add	#1, r5
 1146                             		.loc 1 385 6
 1147 03ff DF 54                   		mov.W	r5, r4
 1148 0401 FB 52 00 00 00 00       		mov.L	#_gc, r5
 1149 0407 A8 D5                   		mov.L	8[r5], r5
 1150 0409 A0 0D                   		mov.L	r5, 4[r0]
 1151 040b F8 05 01                		mov.W	#1, [r0]
 1152 040e DF 13                   		mov.W	r1, r3
 1153 0410 ED A1 08                		mov.L	32[r10], r1
 1154 0413 05 00 00 00             		bsr	_filled_rectangle
 1155                             	.L60:
 357:C:/Users/John/Desktop/workspace/miniwinwm/MiniWin/gl\gl.c **** 		{
 1156                             		.loc 1 357 38 discriminator 2
 1157 0417 DC A5                   		mov.W	[r10], r5
 1158 0419 62 25                   		add	#2, r5
 1159 041b D3 A5                   		mov.W	r5, [r10]
 1160                             	.L57:
 357:C:/Users/John/Desktop/workspace/miniwinwm/MiniWin/gl\gl.c **** 		{
 1161                             		.loc 1 357 3 discriminator 1
 1162 041d 5C A4                   		movu.W	[r10], r4
 1163 041f 5D A5 02                		movu.W	4[r10], r5
 1164 0422 47 54                   		cmp	r5, r4
 1165 0424 22 05 38 9E FE          		bltu	.L66
 1166 0429 2E 03                   		bra	.L59
 1167                             	.L69:
 364:C:/Users/John/Desktop/workspace/miniwinwm/MiniWin/gl\gl.c **** 			}
 1168                             		.loc 1 364 5
 1169 042b 03                      		nop
 1170                             	.L59:
 312:C:/Users/John/Desktop/workspace/miniwinwm/MiniWin/gl\gl.c **** 	{
 1171                             		.loc 1 312 31 discriminator 2
 1172 042c DD A5 03                		mov.W	6[r10], r5
 1173 042f 62 15                   		add	#1, r5
 1174 0431 D7 A5 03                		mov.W	r5, 6[r10]
 1175                             	.L44:
 312:C:/Users/John/Desktop/workspace/miniwinwm/MiniWin/gl\gl.c **** 	{
 1176                             		.loc 1 312 2 discriminator 1
 1177 0434 DD A4 03                		mov.W	6[r10], r4
 1178 0437 DD A5 05                		mov.W	10[r10], r5
 1179 043a 47 54                   		cmp	r5, r4
 1180 043c 2A 05 38 DC FC          		ble	.L67
 1181 0441 2E 03                   		bra	.L39
 1182                             	.L68:
 316:C:/Users/John/Desktop/workspace/miniwinwm/MiniWin/gl\gl.c **** 		}
 1183                             		.loc 1 316 4
 1184 0443 03                      		nop
 1185                             	.L39:
 386:C:/Users/John/Desktop/workspace/miniwinwm/MiniWin/gl\gl.c **** 				}
 387:C:/Users/John/Desktop/workspace/miniwinwm/MiniWin/gl\gl.c **** 			}
 388:C:/Users/John/Desktop/workspace/miniwinwm/MiniWin/gl\gl.c **** 		}
 389:C:/Users/John/Desktop/workspace/miniwinwm/MiniWin/gl\gl.c **** 	}
 390:C:/Users/John/Desktop/workspace/miniwinwm/MiniWin/gl\gl.c **** }
 1186                             		.loc 1 390 1
 1187 0444 3F 6A 14                		rtsd	#80, r6-r10
 1188                             	.LFE2:
 1190 0447 03                      		.section	.text.arc_bres,"ax",@progbits
 1192                             	_arc_bres:
 1193                             	.LFB3:
 391:C:/Users/John/Desktop/workspace/miniwinwm/MiniWin/gl\gl.c **** 
 392:C:/Users/John/Desktop/workspace/miniwinwm/MiniWin/gl\gl.c **** /**
 393:C:/Users/John/Desktop/workspace/miniwinwm/MiniWin/gl\gl.c ****  * Draw an arc section of a circle calculated using the Bresenham algorithm.
 394:C:/Users/John/Desktop/workspace/miniwinwm/MiniWin/gl\gl.c ****  *
 395:C:/Users/John/Desktop/workspace/miniwinwm/MiniWin/gl\gl.c ****  * @param draw_info Reference frame origin coordinates and clip region rect
 396:C:/Users/John/Desktop/workspace/miniwinwm/MiniWin/gl\gl.c ****  * @param centre_x X coordinate the centre of the describing circle
 397:C:/Users/John/Desktop/workspace/miniwinwm/MiniWin/gl\gl.c ****  * @param centre_y Y coordinate the centre of the describing circle
 398:C:/Users/John/Desktop/workspace/miniwinwm/MiniWin/gl\gl.c ****  * @param radius Radius of the describing circle
 399:C:/Users/John/Desktop/workspace/miniwinwm/MiniWin/gl\gl.c ****  * @param start_angle Start angle of arc
 400:C:/Users/John/Desktop/workspace/miniwinwm/MiniWin/gl\gl.c ****  * @param end_angle End angle of arc 
 401:C:/Users/John/Desktop/workspace/miniwinwm/MiniWin/gl\gl.c ****  */
 402:C:/Users/John/Desktop/workspace/miniwinwm/MiniWin/gl\gl.c **** static void arc_bres(const mw_gl_draw_info_t *draw_info, int16_t centre_x, int16_t centre_y, int16_
 403:C:/Users/John/Desktop/workspace/miniwinwm/MiniWin/gl\gl.c **** {
 1194                             		.loc 1 403 1
 1195 0000 7E AA                   		push.l	r10
 1196                             	.LCFI9:
 1197 0002 7E A6                   		push.l	r6
 1198                             	.LCFI10:
 1199 0004 71 0A E8                		add	#-24, r0, r10
 1200                             	.LCFI11:
 1201 0007 71 A0 F8                		add	#-8, r10, r0
 1202                             	.LCFI12:
 1203 000a 75 46 24                		mov.L	#36, r6
 1204 000d 4B A6                   		add	r10, r6
 1205 000f E7 A1 02                		mov.L	r1, 8[r10]
 1206 0012 D7 A2 06                		mov.W	r2, 12[r10]
 1207 0015 D7 A3 07                		mov.W	r3, 14[r10]
 1208 0018 D7 A4 08                		mov.W	r4, 16[r10]
 404:C:/Users/John/Desktop/workspace/miniwinwm/MiniWin/gl\gl.c **** 	int16_t x_point = 0;
 1209                             		.loc 1 404 10
 1210 001b F8 A5 00                		mov.W	#0, [r10]
 405:C:/Users/John/Desktop/workspace/miniwinwm/MiniWin/gl\gl.c **** 	int16_t y_point = radius;
 1211                             		.loc 1 405 10
 1212 001e DD A5 08                		mov.W	16[r10], r5
 1213 0021 D7 A5 01                		mov.W	r5, 2[r10]
 406:C:/Users/John/Desktop/workspace/miniwinwm/MiniWin/gl\gl.c **** 	int16_t decision = 1 - radius;
 1214                             		.loc 1 406 23
 1215 0024 DD A5 08                		mov.W	16[r10], r5
 1216 0027 66 14                   		mov.L	#1, r4
 1217 0029 FF 05 54                		sub	r5, r4, r5
 1218                             		.loc 1 406 10
 1219 002c D7 A5 02                		mov.W	r5, 4[r10]
 407:C:/Users/John/Desktop/workspace/miniwinwm/MiniWin/gl\gl.c **** 
 408:C:/Users/John/Desktop/workspace/miniwinwm/MiniWin/gl\gl.c **** 	MW_ASSERT(draw_info, "Null pointer argument");
 1220                             		.loc 1 408 2
 1221 002f ED A5 02                		mov.L	8[r10], r5
 1222 0032 61 05                   		cmp	#0, r5
 1223 0034 FC DB 51                		scne.L	r5
 1224 0037 FB 42 00 00 00 00       		mov.L	#.LC0, r4
 1225 003d FB 3A 98 01             		mov.L	#0x198, r3
 1226 0041 FB 22 00 00 00 00       		mov.L	#___func__.3026, r2
 1227 0047 CF 51                   		mov.B	r5, r1
 1228 0049 05 00 00 00             		bsr	_mw_debug_print_assert
 409:C:/Users/John/Desktop/workspace/miniwinwm/MiniWin/gl\gl.c **** 
 410:C:/Users/John/Desktop/workspace/miniwinwm/MiniWin/gl\gl.c **** 	if (start_angle < 0)
 1229                             		.loc 1 410 5
 1230 004d DC 65                   		mov.W	[r6], r5
 1231 004f 61 05                   		cmp	#0, r5
 1232 0051 28 0A                   		bge	.L71
 411:C:/Users/John/Desktop/workspace/miniwinwm/MiniWin/gl\gl.c **** 	{
 412:C:/Users/John/Desktop/workspace/miniwinwm/MiniWin/gl\gl.c **** 		start_angle += 360;
 1233                             		.loc 1 412 15
 1234 0053 DC 65                   		mov.W	[r6], r5
 1235 0055 72 55 68 01             		add	#0x168, r5
 1236 0059 D3 65                   		mov.W	r5, [r6]
 1237                             	.L71:
 413:C:/Users/John/Desktop/workspace/miniwinwm/MiniWin/gl\gl.c **** 	}
 414:C:/Users/John/Desktop/workspace/miniwinwm/MiniWin/gl\gl.c **** 
 415:C:/Users/John/Desktop/workspace/miniwinwm/MiniWin/gl\gl.c **** 	if (end_angle < 0)
 1238                             		.loc 1 415 5
 1239 005b 98 6D                   		mov.W	2[r6], r5
 1240 005d 61 05                   		cmp	#0, r5
 1241 005f 28 0A                   		bge	.L72
 416:C:/Users/John/Desktop/workspace/miniwinwm/MiniWin/gl\gl.c **** 	{
 417:C:/Users/John/Desktop/workspace/miniwinwm/MiniWin/gl\gl.c **** 		end_angle += 360;
 1242                             		.loc 1 417 13
 1243 0061 98 6D                   		mov.W	2[r6], r5
 1244 0063 72 55 68 01             		add	#0x168, r5
 1245 0067 90 6D                   		mov.W	r5, 2[r6]
 1246                             	.L72:
 418:C:/Users/John/Desktop/workspace/miniwinwm/MiniWin/gl\gl.c **** 	}
 419:C:/Users/John/Desktop/workspace/miniwinwm/MiniWin/gl\gl.c **** 
 420:C:/Users/John/Desktop/workspace/miniwinwm/MiniWin/gl\gl.c **** 	/* plot top, bottom, left and right */
 421:C:/Users/John/Desktop/workspace/miniwinwm/MiniWin/gl\gl.c **** 	arc_point(draw_info, centre_x, centre_y, centre_x, centre_y + radius, start_angle, end_angle);
 1247                             		.loc 1 421 62
 1248 0069 DD A4 07                		mov.W	14[r10], r4
 1249 006c DD A5 08                		mov.W	16[r10], r5
 1250 006f 4B 45                   		add	r4, r5
 1251                             		.loc 1 421 2
 1252 0071 98 6C                   		mov.W	2[r6], r4
 1253 0073 90 84                   		mov.W	r4, 4[r0]
 1254 0075 DC 64                   		mov.W	[r6], r4
 1255 0077 90 0C                   		mov.W	r4, 2[r0]
 1256 0079 D3 05                   		mov.W	r5, [r0]
 1257 007b DD A4 06                		mov.W	12[r10], r4
 1258 007e DD A3 07                		mov.W	14[r10], r3
 1259 0081 DD A2 06                		mov.W	12[r10], r2
 1260 0084 ED A1 02                		mov.L	8[r10], r1
 1261 0087 05 00 00 00             		bsr	_arc_point
 422:C:/Users/John/Desktop/workspace/miniwinwm/MiniWin/gl\gl.c **** 	arc_point(draw_info, centre_x, centre_y, centre_x, centre_y - radius, start_angle, end_angle);
 1262                             		.loc 1 422 62
 1263 008b DD A4 07                		mov.W	14[r10], r4
 1264 008e DD A5 08                		mov.W	16[r10], r5
 1265 0091 FF 05 54                		sub	r5, r4, r5
 1266                             		.loc 1 422 2
 1267 0094 98 6C                   		mov.W	2[r6], r4
 1268 0096 90 84                   		mov.W	r4, 4[r0]
 1269 0098 DC 64                   		mov.W	[r6], r4
 1270 009a 90 0C                   		mov.W	r4, 2[r0]
 1271 009c D3 05                   		mov.W	r5, [r0]
 1272 009e DD A4 06                		mov.W	12[r10], r4
 1273 00a1 DD A3 07                		mov.W	14[r10], r3
 1274 00a4 DD A2 06                		mov.W	12[r10], r2
 1275 00a7 ED A1 02                		mov.L	8[r10], r1
 1276 00aa 05 00 00 00             		bsr	_arc_point
 423:C:/Users/John/Desktop/workspace/miniwinwm/MiniWin/gl\gl.c **** 	arc_point(draw_info, centre_x, centre_y, centre_x + radius, centre_y, start_angle, end_angle);
 1277                             		.loc 1 423 52
 1278 00ae DD A4 06                		mov.W	12[r10], r4
 1279 00b1 DD A5 08                		mov.W	16[r10], r5
 1280 00b4 4B 45                   		add	r4, r5
 1281                             		.loc 1 423 2
 1282 00b6 98 6C                   		mov.W	2[r6], r4
 1283 00b8 90 84                   		mov.W	r4, 4[r0]
 1284 00ba DC 64                   		mov.W	[r6], r4
 1285 00bc 90 0C                   		mov.W	r4, 2[r0]
 1286 00be DD A4 07                		mov.W	14[r10], r4
 1287 00c1 D3 04                   		mov.W	r4, [r0]
 1288 00c3 DF 54                   		mov.W	r5, r4
 1289 00c5 DD A3 07                		mov.W	14[r10], r3
 1290 00c8 DD A2 06                		mov.W	12[r10], r2
 1291 00cb ED A1 02                		mov.L	8[r10], r1
 1292 00ce 05 00 00 00             		bsr	_arc_point
 424:C:/Users/John/Desktop/workspace/miniwinwm/MiniWin/gl\gl.c **** 	arc_point(draw_info, centre_x, centre_y, centre_x - radius, centre_y, start_angle, end_angle);
 1293                             		.loc 1 424 52
 1294 00d2 DD A4 06                		mov.W	12[r10], r4
 1295 00d5 DD A5 08                		mov.W	16[r10], r5
 1296 00d8 FF 05 54                		sub	r5, r4, r5
 1297                             		.loc 1 424 2
 1298 00db 98 6C                   		mov.W	2[r6], r4
 1299 00dd 90 84                   		mov.W	r4, 4[r0]
 1300 00df DC 64                   		mov.W	[r6], r4
 1301 00e1 90 0C                   		mov.W	r4, 2[r0]
 1302 00e3 DD A4 07                		mov.W	14[r10], r4
 1303 00e6 D3 04                   		mov.W	r4, [r0]
 1304 00e8 DF 54                   		mov.W	r5, r4
 1305 00ea DD A3 07                		mov.W	14[r10], r3
 1306 00ed DD A2 06                		mov.W	12[r10], r2
 1307 00f0 ED A1 02                		mov.L	8[r10], r1
 1308 00f3 05 00 00 00             		bsr	_arc_point
 425:C:/Users/John/Desktop/workspace/miniwinwm/MiniWin/gl\gl.c **** 
 426:C:/Users/John/Desktop/workspace/miniwinwm/MiniWin/gl\gl.c **** 	while (y_point > x_point)
 1309                             		.loc 1 426 8
 1310 00f7 38 9E 01                		bra	.L73
 1311                             	.L76:
 427:C:/Users/John/Desktop/workspace/miniwinwm/MiniWin/gl\gl.c **** 	{
 428:C:/Users/John/Desktop/workspace/miniwinwm/MiniWin/gl\gl.c **** 		if (decision < 0)
 1312                             		.loc 1 428 6
 1313 00fa DD A5 02                		mov.W	4[r10], r5
 1314 00fd 61 05                   		cmp	#0, r5
 1315 00ff 28 1A                   		bge	.L74
 429:C:/Users/John/Desktop/workspace/miniwinwm/MiniWin/gl\gl.c **** 		{
 430:C:/Users/John/Desktop/workspace/miniwinwm/MiniWin/gl\gl.c **** 			decision += (x_point * 2) + 3;
 1316                             		.loc 1 430 25
 1317 0101 DC A5                   		mov.W	[r10], r5
 1318 0103 4B 55                   		add	r5, r5
 1319 0105 DF 54                   		mov.W	r5, r4
 1320                             		.loc 1 430 13
 1321 0107 DD A5 02                		mov.W	4[r10], r5
 1322 010a 4B 45                   		add	r4, r5
 1323 010c 62 35                   		add	#3, r5
 1324 010e D7 A5 02                		mov.W	r5, 4[r10]
 431:C:/Users/John/Desktop/workspace/miniwinwm/MiniWin/gl\gl.c **** 			x_point++;
 1325                             		.loc 1 431 11
 1326 0111 DC A5                   		mov.W	[r10], r5
 1327 0113 62 15                   		add	#1, r5
 1328 0115 D3 A5                   		mov.W	r5, [r10]
 1329 0117 2E 26                   		bra	.L75
 1330                             	.L74:
 432:C:/Users/John/Desktop/workspace/miniwinwm/MiniWin/gl\gl.c **** 		}
 433:C:/Users/John/Desktop/workspace/miniwinwm/MiniWin/gl\gl.c **** 		else
 434:C:/Users/John/Desktop/workspace/miniwinwm/MiniWin/gl\gl.c **** 		{
 435:C:/Users/John/Desktop/workspace/miniwinwm/MiniWin/gl\gl.c **** 			decision += ((x_point - y_point) * 2) + 5;
 1331                             		.loc 1 435 26
 1332 0119 DC A4                   		mov.W	[r10], r4
 1333 011b DD A5 01                		mov.W	2[r10], r5
 1334 011e FF 05 54                		sub	r5, r4, r5
 1335                             		.loc 1 435 13
 1336 0121 4B 55                   		add	r5, r5
 1337 0123 DF 54                   		mov.W	r5, r4
 1338 0125 DD A5 02                		mov.W	4[r10], r5
 1339 0128 4B 45                   		add	r4, r5
 1340 012a 62 55                   		add	#5, r5
 1341 012c D7 A5 02                		mov.W	r5, 4[r10]
 436:C:/Users/John/Desktop/workspace/miniwinwm/MiniWin/gl\gl.c **** 			x_point++;
 1342                             		.loc 1 436 11
 1343 012f DC A5                   		mov.W	[r10], r5
 1344 0131 62 15                   		add	#1, r5
 1345 0133 D3 A5                   		mov.W	r5, [r10]
 437:C:/Users/John/Desktop/workspace/miniwinwm/MiniWin/gl\gl.c **** 			y_point--;
 1346                             		.loc 1 437 11
 1347 0135 DD A5 01                		mov.W	2[r10], r5
 1348 0138 60 15                   		sub	#1, r5
 1349 013a D7 A5 01                		mov.W	r5, 2[r10]
 1350                             	.L75:
 438:C:/Users/John/Desktop/workspace/miniwinwm/MiniWin/gl\gl.c **** 		}
 439:C:/Users/John/Desktop/workspace/miniwinwm/MiniWin/gl\gl.c **** 
 440:C:/Users/John/Desktop/workspace/miniwinwm/MiniWin/gl\gl.c **** 		/* plot all quadrants */
 441:C:/Users/John/Desktop/workspace/miniwinwm/MiniWin/gl\gl.c **** 		arc_point(draw_info, centre_x, centre_y, centre_x + x_point, centre_y + y_point, start_angle, end
 1351                             		.loc 1 441 53
 1352 013d DD A4 06                		mov.W	12[r10], r4
 1353 0140 DC A5                   		mov.W	[r10], r5
 1354 0142 4B 45                   		add	r4, r5
 1355                             		.loc 1 441 3
 1356 0144 DF 53                   		mov.W	r5, r3
 1357                             		.loc 1 441 73
 1358 0146 DD A4 07                		mov.W	14[r10], r4
 1359 0149 DD A5 01                		mov.W	2[r10], r5
 1360 014c 4B 45                   		add	r4, r5
 1361                             		.loc 1 441 3
 1362 014e 98 6C                   		mov.W	2[r6], r4
 1363 0150 90 84                   		mov.W	r4, 4[r0]
 1364 0152 DC 64                   		mov.W	[r6], r4
 1365 0154 90 0C                   		mov.W	r4, 2[r0]
 1366 0156 D3 05                   		mov.W	r5, [r0]
 1367 0158 DF 34                   		mov.W	r3, r4
 1368 015a DD A3 07                		mov.W	14[r10], r3
 1369 015d DD A2 06                		mov.W	12[r10], r2
 1370 0160 ED A1 02                		mov.L	8[r10], r1
 1371 0163 05 00 00 00             		bsr	_arc_point
 442:C:/Users/John/Desktop/workspace/miniwinwm/MiniWin/gl\gl.c **** 		arc_point(draw_info, centre_x, centre_y, centre_x - x_point, centre_y + y_point, start_angle, end
 1372                             		.loc 1 442 53
 1373 0167 DD A4 06                		mov.W	12[r10], r4
 1374 016a DC A5                   		mov.W	[r10], r5
 1375 016c FF 05 54                		sub	r5, r4, r5
 1376                             		.loc 1 442 3
 1377 016f DF 53                   		mov.W	r5, r3
 1378                             		.loc 1 442 73
 1379 0171 DD A4 07                		mov.W	14[r10], r4
 1380 0174 DD A5 01                		mov.W	2[r10], r5
 1381 0177 4B 45                   		add	r4, r5
 1382                             		.loc 1 442 3
 1383 0179 98 6C                   		mov.W	2[r6], r4
 1384 017b 90 84                   		mov.W	r4, 4[r0]
 1385 017d DC 64                   		mov.W	[r6], r4
 1386 017f 90 0C                   		mov.W	r4, 2[r0]
 1387 0181 D3 05                   		mov.W	r5, [r0]
 1388 0183 DF 34                   		mov.W	r3, r4
 1389 0185 DD A3 07                		mov.W	14[r10], r3
 1390 0188 DD A2 06                		mov.W	12[r10], r2
 1391 018b ED A1 02                		mov.L	8[r10], r1
 1392 018e 05 00 00 00             		bsr	_arc_point
 443:C:/Users/John/Desktop/workspace/miniwinwm/MiniWin/gl\gl.c **** 		arc_point(draw_info, centre_x, centre_y, centre_x + x_point, centre_y - y_point, start_angle, end
 1393                             		.loc 1 443 53
 1394 0192 DD A4 06                		mov.W	12[r10], r4
 1395 0195 DC A5                   		mov.W	[r10], r5
 1396 0197 4B 45                   		add	r4, r5
 1397                             		.loc 1 443 3
 1398 0199 DF 53                   		mov.W	r5, r3
 1399                             		.loc 1 443 73
 1400 019b DD A4 07                		mov.W	14[r10], r4
 1401 019e DD A5 01                		mov.W	2[r10], r5
 1402 01a1 FF 05 54                		sub	r5, r4, r5
 1403                             		.loc 1 443 3
 1404 01a4 98 6C                   		mov.W	2[r6], r4
 1405 01a6 90 84                   		mov.W	r4, 4[r0]
 1406 01a8 DC 64                   		mov.W	[r6], r4
 1407 01aa 90 0C                   		mov.W	r4, 2[r0]
 1408 01ac D3 05                   		mov.W	r5, [r0]
 1409 01ae DF 34                   		mov.W	r3, r4
 1410 01b0 DD A3 07                		mov.W	14[r10], r3
 1411 01b3 DD A2 06                		mov.W	12[r10], r2
 1412 01b6 ED A1 02                		mov.L	8[r10], r1
 1413 01b9 05 00 00 00             		bsr	_arc_point
 444:C:/Users/John/Desktop/workspace/miniwinwm/MiniWin/gl\gl.c **** 		arc_point(draw_info, centre_x, centre_y, centre_x - x_point, centre_y - y_point, start_angle, end
 1414                             		.loc 1 444 53
 1415 01bd DD A4 06                		mov.W	12[r10], r4
 1416 01c0 DC A5                   		mov.W	[r10], r5
 1417 01c2 FF 05 54                		sub	r5, r4, r5
 1418                             		.loc 1 444 3
 1419 01c5 DF 53                   		mov.W	r5, r3
 1420                             		.loc 1 444 73
 1421 01c7 DD A4 07                		mov.W	14[r10], r4
 1422 01ca DD A5 01                		mov.W	2[r10], r5
 1423 01cd FF 05 54                		sub	r5, r4, r5
 1424                             		.loc 1 444 3
 1425 01d0 98 6C                   		mov.W	2[r6], r4
 1426 01d2 90 84                   		mov.W	r4, 4[r0]
 1427 01d4 DC 64                   		mov.W	[r6], r4
 1428 01d6 90 0C                   		mov.W	r4, 2[r0]
 1429 01d8 D3 05                   		mov.W	r5, [r0]
 1430 01da DF 34                   		mov.W	r3, r4
 1431 01dc DD A3 07                		mov.W	14[r10], r3
 1432 01df DD A2 06                		mov.W	12[r10], r2
 1433 01e2 ED A1 02                		mov.L	8[r10], r1
 1434 01e5 05 00 00 00             		bsr	_arc_point
 445:C:/Users/John/Desktop/workspace/miniwinwm/MiniWin/gl\gl.c **** 		arc_point(draw_info, centre_x, centre_y, centre_x + y_point, centre_y + x_point, start_angle, end
 1435                             		.loc 1 445 53
 1436 01e9 DD A4 06                		mov.W	12[r10], r4
 1437 01ec DD A5 01                		mov.W	2[r10], r5
 1438 01ef 4B 45                   		add	r4, r5
 1439                             		.loc 1 445 3
 1440 01f1 DF 53                   		mov.W	r5, r3
 1441                             		.loc 1 445 73
 1442 01f3 DD A4 07                		mov.W	14[r10], r4
 1443 01f6 DC A5                   		mov.W	[r10], r5
 1444 01f8 4B 45                   		add	r4, r5
 1445                             		.loc 1 445 3
 1446 01fa 98 6C                   		mov.W	2[r6], r4
 1447 01fc 90 84                   		mov.W	r4, 4[r0]
 1448 01fe DC 64                   		mov.W	[r6], r4
 1449 0200 90 0C                   		mov.W	r4, 2[r0]
 1450 0202 D3 05                   		mov.W	r5, [r0]
 1451 0204 DF 34                   		mov.W	r3, r4
 1452 0206 DD A3 07                		mov.W	14[r10], r3
 1453 0209 DD A2 06                		mov.W	12[r10], r2
 1454 020c ED A1 02                		mov.L	8[r10], r1
 1455 020f 05 00 00 00             		bsr	_arc_point
 446:C:/Users/John/Desktop/workspace/miniwinwm/MiniWin/gl\gl.c **** 		arc_point(draw_info, centre_x, centre_y, centre_x - y_point, centre_y + x_point, start_angle, end
 1456                             		.loc 1 446 53
 1457 0213 DD A4 06                		mov.W	12[r10], r4
 1458 0216 DD A5 01                		mov.W	2[r10], r5
 1459 0219 FF 05 54                		sub	r5, r4, r5
 1460                             		.loc 1 446 3
 1461 021c DF 53                   		mov.W	r5, r3
 1462                             		.loc 1 446 73
 1463 021e DD A4 07                		mov.W	14[r10], r4
 1464 0221 DC A5                   		mov.W	[r10], r5
 1465 0223 4B 45                   		add	r4, r5
 1466                             		.loc 1 446 3
 1467 0225 98 6C                   		mov.W	2[r6], r4
 1468 0227 90 84                   		mov.W	r4, 4[r0]
 1469 0229 DC 64                   		mov.W	[r6], r4
 1470 022b 90 0C                   		mov.W	r4, 2[r0]
 1471 022d D3 05                   		mov.W	r5, [r0]
 1472 022f DF 34                   		mov.W	r3, r4
 1473 0231 DD A3 07                		mov.W	14[r10], r3
 1474 0234 DD A2 06                		mov.W	12[r10], r2
 1475 0237 ED A1 02                		mov.L	8[r10], r1
 1476 023a 05 00 00 00             		bsr	_arc_point
 447:C:/Users/John/Desktop/workspace/miniwinwm/MiniWin/gl\gl.c **** 		arc_point(draw_info, centre_x, centre_y, centre_x + y_point, centre_y - x_point, start_angle, end
 1477                             		.loc 1 447 53
 1478 023e DD A4 06                		mov.W	12[r10], r4
 1479 0241 DD A5 01                		mov.W	2[r10], r5
 1480 0244 4B 45                   		add	r4, r5
 1481                             		.loc 1 447 3
 1482 0246 DF 53                   		mov.W	r5, r3
 1483                             		.loc 1 447 73
 1484 0248 DD A4 07                		mov.W	14[r10], r4
 1485 024b DC A5                   		mov.W	[r10], r5
 1486 024d FF 05 54                		sub	r5, r4, r5
 1487                             		.loc 1 447 3
 1488 0250 98 6C                   		mov.W	2[r6], r4
 1489 0252 90 84                   		mov.W	r4, 4[r0]
 1490 0254 DC 64                   		mov.W	[r6], r4
 1491 0256 90 0C                   		mov.W	r4, 2[r0]
 1492 0258 D3 05                   		mov.W	r5, [r0]
 1493 025a DF 34                   		mov.W	r3, r4
 1494 025c DD A3 07                		mov.W	14[r10], r3
 1495 025f DD A2 06                		mov.W	12[r10], r2
 1496 0262 ED A1 02                		mov.L	8[r10], r1
 1497 0265 05 00 00 00             		bsr	_arc_point
 448:C:/Users/John/Desktop/workspace/miniwinwm/MiniWin/gl\gl.c **** 		arc_point(draw_info, centre_x, centre_y, centre_x - y_point, centre_y - x_point, start_angle, end
 1498                             		.loc 1 448 53
 1499 0269 DD A4 06                		mov.W	12[r10], r4
 1500 026c DD A5 01                		mov.W	2[r10], r5
 1501 026f FF 05 54                		sub	r5, r4, r5
 1502                             		.loc 1 448 3
 1503 0272 DF 53                   		mov.W	r5, r3
 1504                             		.loc 1 448 73
 1505 0274 DD A4 07                		mov.W	14[r10], r4
 1506 0277 DC A5                   		mov.W	[r10], r5
 1507 0279 FF 05 54                		sub	r5, r4, r5
 1508                             		.loc 1 448 3
 1509 027c 98 6C                   		mov.W	2[r6], r4
 1510 027e 90 84                   		mov.W	r4, 4[r0]
 1511 0280 DC 64                   		mov.W	[r6], r4
 1512 0282 90 0C                   		mov.W	r4, 2[r0]
 1513 0284 D3 05                   		mov.W	r5, [r0]
 1514 0286 DF 34                   		mov.W	r3, r4
 1515 0288 DD A3 07                		mov.W	14[r10], r3
 1516 028b DD A2 06                		mov.W	12[r10], r2
 1517 028e ED A1 02                		mov.L	8[r10], r1
 1518 0291 05 00 00 00             		bsr	_arc_point
 1519                             	.L73:
 426:C:/Users/John/Desktop/workspace/miniwinwm/MiniWin/gl\gl.c **** 	{
 1520                             		.loc 1 426 8
 1521 0295 DD A4 01                		mov.W	2[r10], r4
 1522 0298 DC A5                   		mov.W	[r10], r5
 1523 029a 47 54                   		cmp	r5, r4
 1524 029c 2B 05 38 5C FE          		bgt	.L76
 449:C:/Users/John/Desktop/workspace/miniwinwm/MiniWin/gl\gl.c **** 	}
 450:C:/Users/John/Desktop/workspace/miniwinwm/MiniWin/gl\gl.c **** }
 1525                             		.loc 1 450 1
 1526 02a1 03                      		nop
 1527 02a2 71 00 20                		add	#32, r0
 1528 02a5 7E B6                   		pop	r6
 1529 02a7 7E BA                   		pop	r10
 1530 02a9 02                      		rts
 1531                             	.LFE3:
 1533                             		.section	.text.arc_point,"ax",@progbits
 1535                             	_arc_point:
 1536                             	.LFB4:
 451:C:/Users/John/Desktop/workspace/miniwinwm/MiniWin/gl\gl.c **** 
 452:C:/Users/John/Desktop/workspace/miniwinwm/MiniWin/gl\gl.c **** /**
 453:C:/Users/John/Desktop/workspace/miniwinwm/MiniWin/gl\gl.c ****  * Plot a single point in an arc clipped to start and end angles of the arc
 454:C:/Users/John/Desktop/workspace/miniwinwm/MiniWin/gl\gl.c ****  *
 455:C:/Users/John/Desktop/workspace/miniwinwm/MiniWin/gl\gl.c ****  * @param draw_info Reference frame origin coordinates and clip region rect
 456:C:/Users/John/Desktop/workspace/miniwinwm/MiniWin/gl\gl.c ****  * @param centre_x X coordinate the centre of the describing circle
 457:C:/Users/John/Desktop/workspace/miniwinwm/MiniWin/gl\gl.c ****  * @param centre_y Y coordinate the centre of the describing circle
 458:C:/Users/John/Desktop/workspace/miniwinwm/MiniWin/gl\gl.c ****  * @param x X coordinate of the point to plot
 459:C:/Users/John/Desktop/workspace/miniwinwm/MiniWin/gl\gl.c ****  * @param y Y coordinate of the point to plot 
 460:C:/Users/John/Desktop/workspace/miniwinwm/MiniWin/gl\gl.c ****  * @param start_angle Start angle of arc
 461:C:/Users/John/Desktop/workspace/miniwinwm/MiniWin/gl\gl.c ****  * @param end_angle End angle of arc 
 462:C:/Users/John/Desktop/workspace/miniwinwm/MiniWin/gl\gl.c ****  */
 463:C:/Users/John/Desktop/workspace/miniwinwm/MiniWin/gl\gl.c **** static void arc_point(const mw_gl_draw_info_t *draw_info, int16_t centre_x, int16_t centre_y, int16
 464:C:/Users/John/Desktop/workspace/miniwinwm/MiniWin/gl\gl.c **** {
 1537                             		.loc 1 464 1
 1538 0000 7E AA                   		push.l	r10
 1539                             	.LCFI13:
 1540 0002 7E A6                   		push.l	r6
 1541                             	.LCFI14:
 1542 0004 71 0A E0                		add	#-32, r0, r10
 1543                             	.LCFI15:
 1544 0007 EF A0                   		mov.L	r10, r0
 1545 0009 75 46 2C                		mov.L	#44, r6
 1546 000c 4B A6                   		add	r10, r6
 1547 000e E7 A1 03                		mov.L	r1, 12[r10]
 1548 0011 D7 A2 08                		mov.W	r2, 16[r10]
 1549 0014 D7 A3 09                		mov.W	r3, 18[r10]
 1550 0017 D7 A4 0A                		mov.W	r4, 20[r10]
 465:C:/Users/John/Desktop/workspace/miniwinwm/MiniWin/gl\gl.c **** 	float temp_float;
 466:C:/Users/John/Desktop/workspace/miniwinwm/MiniWin/gl\gl.c **** 	int16_t temp_1_int16;
 467:C:/Users/John/Desktop/workspace/miniwinwm/MiniWin/gl\gl.c **** 	int16_t temp_2_int16;
 468:C:/Users/John/Desktop/workspace/miniwinwm/MiniWin/gl\gl.c **** 
 469:C:/Users/John/Desktop/workspace/miniwinwm/MiniWin/gl\gl.c **** 	MW_ASSERT(draw_info, "Null pointer argument");
 1551                             		.loc 1 469 2
 1552 001a ED A5 03                		mov.L	12[r10], r5
 1553 001d 61 05                   		cmp	#0, r5
 1554 001f FC DB 51                		scne.L	r5
 1555 0022 FB 42 00 00 00 00       		mov.L	#.LC0, r4
 1556 0028 FB 3A D5 01             		mov.L	#0x1d5, r3
 1557 002c FB 22 00 00 00 00       		mov.L	#___func__.3042, r2
 1558 0032 CF 51                   		mov.B	r5, r1
 1559 0034 05 00 00 00             		bsr	_mw_debug_print_assert
 470:C:/Users/John/Desktop/workspace/miniwinwm/MiniWin/gl\gl.c **** 
 471:C:/Users/John/Desktop/workspace/miniwinwm/MiniWin/gl\gl.c **** 	/* calculate the angle the current point makes with the circle centre */
 472:C:/Users/John/Desktop/workspace/miniwinwm/MiniWin/gl\gl.c **** 	temp_1_int16 = centre_y - y;
 1560                             		.loc 1 472 26
 1561 0038 DD A4 09                		mov.W	18[r10], r4
 1562 003b DC 65                   		mov.W	[r6], r5
 1563 003d FF 05 54                		sub	r5, r4, r5
 1564                             		.loc 1 472 15
 1565 0040 D7 A5 01                		mov.W	r5, 2[r10]
 473:C:/Users/John/Desktop/workspace/miniwinwm/MiniWin/gl\gl.c **** 	temp_2_int16 = centre_x - x;
 1566                             		.loc 1 473 26
 1567 0043 DD A4 08                		mov.W	16[r10], r4
 1568 0046 DD A5 0A                		mov.W	20[r10], r5
 1569 0049 FF 05 54                		sub	r5, r4, r5
 1570                             		.loc 1 473 15
 1571 004c D7 A5 02                		mov.W	r5, 4[r10]
 474:C:/Users/John/Desktop/workspace/miniwinwm/MiniWin/gl\gl.c **** 
 475:C:/Users/John/Desktop/workspace/miniwinwm/MiniWin/gl\gl.c **** 	temp_float = DEGREES_IN_RAD * atan2f((float)temp_1_int16, (float)temp_2_int16);
 1572                             		.loc 1 475 32
 1573 004f DD A5 01                		mov.W	2[r10], r5
 1574 0052 FC 47 54                		itof	r5, r4
 1575 0055 DD A5 02                		mov.W	4[r10], r5
 1576 0058 FC 47 55                		itof	r5, r5
 1577 005b EF 52                   		mov.L	r5, r2
 1578 005d EF 41                   		mov.L	r4, r1
 1579 005f 05 00 00 00             		bsr	_atan2f
 1580 0063 EF 15                   		mov.L	r1, r5
 1581                             		.loc 1 475 13
 1582 0065 FD 72 35 E0 2E 65 42    		fmul	#0x42652ee0, r5
 1583 006c E7 A5 02                		mov.L	r5, 8[r10]
 476:C:/Users/John/Desktop/workspace/miniwinwm/MiniWin/gl\gl.c **** 	int16_t angle = (int16_t)temp_float - 90;
 1584                             		.loc 1 476 18
 1585 006f ED A5 02                		mov.L	8[r10], r5
 1586 0072 FC 97 55                		ftoi	r5, r5
 1587                             		.loc 1 476 38
 1588 0075 71 55 A6                		add	#-90, r5
 1589                             		.loc 1 476 10
 1590 0078 D3 A5                   		mov.W	r5, [r10]
 477:C:/Users/John/Desktop/workspace/miniwinwm/MiniWin/gl\gl.c **** 	if (angle < 0)
 1591                             		.loc 1 477 5
 1592 007a DC A5                   		mov.W	[r10], r5
 1593 007c 61 05                   		cmp	#0, r5
 1594 007e 28 0A                   		bge	.L78
 478:C:/Users/John/Desktop/workspace/miniwinwm/MiniWin/gl\gl.c **** 	{
 479:C:/Users/John/Desktop/workspace/miniwinwm/MiniWin/gl\gl.c **** 		angle += 360;
 1595                             		.loc 1 479 9
 1596 0080 DC A5                   		mov.W	[r10], r5
 1597 0082 72 55 68 01             		add	#0x168, r5
 1598 0086 D3 A5                   		mov.W	r5, [r10]
 1599                             	.L78:
 480:C:/Users/John/Desktop/workspace/miniwinwm/MiniWin/gl\gl.c **** 	}
 481:C:/Users/John/Desktop/workspace/miniwinwm/MiniWin/gl\gl.c **** 
 482:C:/Users/John/Desktop/workspace/miniwinwm/MiniWin/gl\gl.c **** 	if (end_angle > start_angle)
 1600                             		.loc 1 482 5
 1601 0088 98 E4                   		mov.W	4[r6], r4
 1602 008a 98 6D                   		mov.W	2[r6], r5
 1603 008c 47 54                   		cmp	r5, r4
 1604 008e 2B 20                   		ble	.L79
 483:C:/Users/John/Desktop/workspace/miniwinwm/MiniWin/gl\gl.c **** 	{
 484:C:/Users/John/Desktop/workspace/miniwinwm/MiniWin/gl\gl.c **** 		if (angle >= start_angle && angle < end_angle)
 1605                             		.loc 1 484 6
 1606 0090 DC A4                   		mov.W	[r10], r4
 1607 0092 98 6D                   		mov.W	2[r6], r5
 1608 0094 47 54                   		cmp	r5, r4
 1609 0096 29 34                   		blt	.L83
 1610                             		.loc 1 484 28 discriminator 1
 1611 0098 DC A4                   		mov.W	[r10], r4
 1612 009a 98 E5                   		mov.W	4[r6], r5
 1613 009c 47 54                   		cmp	r5, r4
 1614 009e 28 2C                   		bge	.L83
 485:C:/Users/John/Desktop/workspace/miniwinwm/MiniWin/gl\gl.c **** 		{
 486:C:/Users/John/Desktop/workspace/miniwinwm/MiniWin/gl\gl.c **** 			mw_gl_fg_pixel(draw_info, x, y);
 1615                             		.loc 1 486 4
 1616 00a0 DC 63                   		mov.W	[r6], r3
 1617 00a2 DD A2 0A                		mov.W	20[r10], r2
 1618 00a5 ED A1 03                		mov.L	12[r10], r1
 1619 00a8 05 00 00 00             		bsr	_mw_gl_fg_pixel
 487:C:/Users/John/Desktop/workspace/miniwinwm/MiniWin/gl\gl.c **** 		}
 488:C:/Users/John/Desktop/workspace/miniwinwm/MiniWin/gl\gl.c **** 	}
 489:C:/Users/John/Desktop/workspace/miniwinwm/MiniWin/gl\gl.c **** 	else
 490:C:/Users/John/Desktop/workspace/miniwinwm/MiniWin/gl\gl.c **** 	{
 491:C:/Users/John/Desktop/workspace/miniwinwm/MiniWin/gl\gl.c **** 		if (!(angle >= end_angle && angle < start_angle))
 492:C:/Users/John/Desktop/workspace/miniwinwm/MiniWin/gl\gl.c **** 		{
 493:C:/Users/John/Desktop/workspace/miniwinwm/MiniWin/gl\gl.c **** 			mw_gl_fg_pixel(draw_info, x, y);
 494:C:/Users/John/Desktop/workspace/miniwinwm/MiniWin/gl\gl.c **** 		}
 495:C:/Users/John/Desktop/workspace/miniwinwm/MiniWin/gl\gl.c **** 	}
 496:C:/Users/John/Desktop/workspace/miniwinwm/MiniWin/gl\gl.c **** }
 1620                             		.loc 1 496 1
 1621 00ac 2E 1E                   		bra	.L83
 1622                             	.L79:
 491:C:/Users/John/Desktop/workspace/miniwinwm/MiniWin/gl\gl.c **** 		{
 1623                             		.loc 1 491 6
 1624 00ae DC A4                   		mov.W	[r10], r4
 1625 00b0 98 E5                   		mov.W	4[r6], r5
 1626 00b2 47 54                   		cmp	r5, r4
 1627 00b4 29 0A                   		blt	.L82
 491:C:/Users/John/Desktop/workspace/miniwinwm/MiniWin/gl\gl.c **** 		{
 1628                             		.loc 1 491 7 discriminator 1
 1629 00b6 DC A4                   		mov.W	[r10], r4
 1630 00b8 98 6D                   		mov.W	2[r6], r5
 1631 00ba 47 54                   		cmp	r5, r4
 1632 00bc 29 0E                   		blt	.L83
 1633                             	.L82:
 493:C:/Users/John/Desktop/workspace/miniwinwm/MiniWin/gl\gl.c **** 		}
 1634                             		.loc 1 493 4
 1635 00be DC 63                   		mov.W	[r6], r3
 1636 00c0 DD A2 0A                		mov.W	20[r10], r2
 1637 00c3 ED A1 03                		mov.L	12[r10], r1
 1638 00c6 05 00 00 00             		bsr	_mw_gl_fg_pixel
 1639                             	.L83:
 1640                             		.loc 1 496 1
 1641 00ca 03                      		nop
 1642 00cb 71 00 20                		add	#32, r0
 1643 00ce 7E B6                   		pop	r6
 1644 00d0 7E BA                   		pop	r10
 1645 00d2 02                      		rts
 1646                             	.LFE4:
 1648                             		.section	.text.filled_circle,"ax",@progbits
 1650                             	_filled_circle:
 1651                             	.LFB5:
 497:C:/Users/John/Desktop/workspace/miniwinwm/MiniWin/gl\gl.c **** 
 498:C:/Users/John/Desktop/workspace/miniwinwm/MiniWin/gl\gl.c **** /**
 499:C:/Users/John/Desktop/workspace/miniwinwm/MiniWin/gl\gl.c ****  * Draw a filled circle with the fill style and colour according to the graphics context
 500:C:/Users/John/Desktop/workspace/miniwinwm/MiniWin/gl\gl.c ****  *
 501:C:/Users/John/Desktop/workspace/miniwinwm/MiniWin/gl\gl.c ****  * @param draw_info Reference frame origin coordinates and clip region rect
 502:C:/Users/John/Desktop/workspace/miniwinwm/MiniWin/gl\gl.c ****  * @param centre_x X coordinate centre of circle
 503:C:/Users/John/Desktop/workspace/miniwinwm/MiniWin/gl\gl.c ****  * @param centre_y Y coordinate centre of circle
 504:C:/Users/John/Desktop/workspace/miniwinwm/MiniWin/gl\gl.c ****  * @param radius Radius of circle
 505:C:/Users/John/Desktop/workspace/miniwinwm/MiniWin/gl\gl.c ****  */
 506:C:/Users/John/Desktop/workspace/miniwinwm/MiniWin/gl\gl.c **** static void filled_circle(const mw_gl_draw_info_t *draw_info, int16_t centre_x, int16_t centre_y, i
 507:C:/Users/John/Desktop/workspace/miniwinwm/MiniWin/gl\gl.c **** {
 1652                             		.loc 1 507 1
 1653 0000 7E AA                   		push.l	r10
 1654                             	.LCFI16:
 1655 0002 71 0A EC                		add	#-20, r0, r10
 1656                             	.LCFI17:
 1657 0005 71 A0 F8                		add	#-8, r10, r0
 1658                             	.LCFI18:
 1659 0008 E7 A1 02                		mov.L	r1, 8[r10]
 1660 000b D7 A2 06                		mov.W	r2, 12[r10]
 1661 000e D7 A3 07                		mov.W	r3, 14[r10]
 1662 0011 D7 A4 08                		mov.W	r4, 16[r10]
 508:C:/Users/John/Desktop/workspace/miniwinwm/MiniWin/gl\gl.c **** 	int16_t x_point = 0;
 1663                             		.loc 1 508 10
 1664 0014 F8 A5 00                		mov.W	#0, [r10]
 509:C:/Users/John/Desktop/workspace/miniwinwm/MiniWin/gl\gl.c **** 	int16_t y_point = radius;
 1665                             		.loc 1 509 10
 1666 0017 DD A5 08                		mov.W	16[r10], r5
 1667 001a D7 A5 01                		mov.W	r5, 2[r10]
 510:C:/Users/John/Desktop/workspace/miniwinwm/MiniWin/gl\gl.c **** 	int16_t decision = 1 - radius;
 1668                             		.loc 1 510 23
 1669 001d DD A5 08                		mov.W	16[r10], r5
 1670 0020 66 14                   		mov.L	#1, r4
 1671 0022 FF 05 54                		sub	r5, r4, r5
 1672                             		.loc 1 510 10
 1673 0025 D7 A5 02                		mov.W	r5, 4[r10]
 511:C:/Users/John/Desktop/workspace/miniwinwm/MiniWin/gl\gl.c **** 	int16_t y;
 512:C:/Users/John/Desktop/workspace/miniwinwm/MiniWin/gl\gl.c **** 
 513:C:/Users/John/Desktop/workspace/miniwinwm/MiniWin/gl\gl.c **** 	MW_ASSERT(draw_info, "Null pointer argument");
 1674                             		.loc 1 513 2
 1675 0028 ED A5 02                		mov.L	8[r10], r5
 1676 002b 61 05                   		cmp	#0, r5
 1677 002d FC DB 51                		scne.L	r5
 1678 0030 FB 42 00 00 00 00       		mov.L	#.LC0, r4
 1679 0036 FB 3A 01 02             		mov.L	#0x201, r3
 1680 003a FB 22 00 00 00 00       		mov.L	#___func__.3054, r2
 1681 0040 CF 51                   		mov.B	r5, r1
 1682 0042 05 00 00 00             		bsr	_mw_debug_print_assert
 514:C:/Users/John/Desktop/workspace/miniwinwm/MiniWin/gl\gl.c **** 
 515:C:/Users/John/Desktop/workspace/miniwinwm/MiniWin/gl\gl.c **** 	/* plot centre line */
 516:C:/Users/John/Desktop/workspace/miniwinwm/MiniWin/gl\gl.c **** 	if (gc.pattern_set)
 1683                             		.loc 1 516 8
 1684 0046 FB 52 00 00 00 00       		mov.L	#_gc, r5
 1685 004c CD 55 38                		mov.B	56[r5], r5
 1686                             		.loc 1 516 5
 1687 004f 5B 55                   		movu.B	r5, r5
 1688 0051 61 05                   		cmp	#0, r5
 1689 0053 20 37                   		beq	.L85
 517:C:/Users/John/Desktop/workspace/miniwinwm/MiniWin/gl\gl.c **** 	{
 518:C:/Users/John/Desktop/workspace/miniwinwm/MiniWin/gl\gl.c **** 		for (y =- radius; y <= radius + 1; y++)
 1690                             		.loc 1 518 10
 1691 0055 DD A5 08                		mov.W	16[r10], r5
 1692 0058 7E 15                   		neg	r5
 1693 005a D7 A5 03                		mov.W	r5, 6[r10]
 1694                             		.loc 1 518 3
 1695 005d 2E 1E                   		bra	.L86
 1696                             	.L87:
 519:C:/Users/John/Desktop/workspace/miniwinwm/MiniWin/gl\gl.c **** 		{
 520:C:/Users/John/Desktop/workspace/miniwinwm/MiniWin/gl\gl.c **** 			mw_gl_solid_fill_pixel(draw_info, centre_x, centre_y + y);
 1697                             		.loc 1 520 57 discriminator 3
 1698 005f DD A4 07                		mov.W	14[r10], r4
 1699 0062 DD A5 03                		mov.W	6[r10], r5
 1700 0065 4B 45                   		add	r4, r5
 1701                             		.loc 1 520 4 discriminator 3
 1702 0067 DF 53                   		mov.W	r5, r3
 1703 0069 DD A2 06                		mov.W	12[r10], r2
 1704 006c ED A1 02                		mov.L	8[r10], r1
 1705 006f 05 00 00 00             		bsr	_mw_gl_solid_fill_pixel
 518:C:/Users/John/Desktop/workspace/miniwinwm/MiniWin/gl\gl.c **** 		{
 1706                             		.loc 1 518 39 discriminator 3
 1707 0073 DD A5 03                		mov.W	6[r10], r5
 1708 0076 62 15                   		add	#1, r5
 1709 0078 D7 A5 03                		mov.W	r5, 6[r10]
 1710                             	.L86:
 518:C:/Users/John/Desktop/workspace/miniwinwm/MiniWin/gl\gl.c **** 		{
 1711                             		.loc 1 518 23 discriminator 1
 1712 007b DD A4 03                		mov.W	6[r10], r4
 518:C:/Users/John/Desktop/workspace/miniwinwm/MiniWin/gl\gl.c **** 		{
 1713                             		.loc 1 518 33 discriminator 1
 1714 007e DD A5 08                		mov.W	16[r10], r5
 1715 0081 62 15                   		add	#1, r5
 518:C:/Users/John/Desktop/workspace/miniwinwm/MiniWin/gl\gl.c **** 		{
 1716                             		.loc 1 518 3 discriminator 1
 1717 0083 47 54                   		cmp	r5, r4
 1718 0085 2B DA                   		ble	.L87
 1719 0087 38 49 02                		bra	.L89
 1720                             	.L85:
 521:C:/Users/John/Desktop/workspace/miniwinwm/MiniWin/gl\gl.c **** 		}
 522:C:/Users/John/Desktop/workspace/miniwinwm/MiniWin/gl\gl.c **** 	}
 523:C:/Users/John/Desktop/workspace/miniwinwm/MiniWin/gl\gl.c **** 	else
 524:C:/Users/John/Desktop/workspace/miniwinwm/MiniWin/gl\gl.c **** 	{
 525:C:/Users/John/Desktop/workspace/miniwinwm/MiniWin/gl\gl.c **** 		filled_rectangle(draw_info, centre_x, centre_y - radius, 1, radius * 2 + 1, gc.solid_fill_colour)
 1721                             		.loc 1 525 50
 1722 008a DD A4 07                		mov.W	14[r10], r4
 1723 008d DD A5 08                		mov.W	16[r10], r5
 1724 0090 FF 05 54                		sub	r5, r4, r5
 1725                             		.loc 1 525 3
 1726 0093 DF 53                   		mov.W	r5, r3
 1727                             		.loc 1 525 70
 1728 0095 DD A5 08                		mov.W	16[r10], r5
 1729 0098 4B 55                   		add	r5, r5
 1730                             		.loc 1 525 74
 1731 009a 62 15                   		add	#1, r5
 1732                             		.loc 1 525 3
 1733 009c DF 54                   		mov.W	r5, r4
 1734 009e FB 52 00 00 00 00       		mov.L	#_gc, r5
 1735 00a4 A8 D5                   		mov.L	8[r5], r5
 1736 00a6 A0 0D                   		mov.L	r5, 4[r0]
 1737 00a8 D3 04                   		mov.W	r4, [r0]
 1738 00aa 66 14                   		mov	#1, r4
 1739 00ac DD A2 06                		mov.W	12[r10], r2
 1740 00af ED A1 02                		mov.L	8[r10], r1
 1741 00b2 05 00 00 00             		bsr	_filled_rectangle
 526:C:/Users/John/Desktop/workspace/miniwinwm/MiniWin/gl\gl.c **** 	}
 527:C:/Users/John/Desktop/workspace/miniwinwm/MiniWin/gl\gl.c **** 
 528:C:/Users/John/Desktop/workspace/miniwinwm/MiniWin/gl\gl.c **** 	while (y_point > x_point)
 1742                             		.loc 1 528 8
 1743 00b6 38 1A 02                		bra	.L89
 1744                             	.L101:
 529:C:/Users/John/Desktop/workspace/miniwinwm/MiniWin/gl\gl.c **** 	{
 530:C:/Users/John/Desktop/workspace/miniwinwm/MiniWin/gl\gl.c **** 		if (decision < 0)
 1745                             		.loc 1 530 6
 1746 00b9 DD A5 02                		mov.W	4[r10], r5
 1747 00bc 61 05                   		cmp	#0, r5
 1748 00be 28 1A                   		bge	.L90
 531:C:/Users/John/Desktop/workspace/miniwinwm/MiniWin/gl\gl.c **** 		{
 532:C:/Users/John/Desktop/workspace/miniwinwm/MiniWin/gl\gl.c **** 			decision += (x_point * 2) + 3;
 1749                             		.loc 1 532 25
 1750 00c0 DC A5                   		mov.W	[r10], r5
 1751 00c2 4B 55                   		add	r5, r5
 1752 00c4 DF 54                   		mov.W	r5, r4
 1753                             		.loc 1 532 13
 1754 00c6 DD A5 02                		mov.W	4[r10], r5
 1755 00c9 4B 45                   		add	r4, r5
 1756 00cb 62 35                   		add	#3, r5
 1757 00cd D7 A5 02                		mov.W	r5, 4[r10]
 533:C:/Users/John/Desktop/workspace/miniwinwm/MiniWin/gl\gl.c **** 			x_point++;
 1758                             		.loc 1 533 11
 1759 00d0 DC A5                   		mov.W	[r10], r5
 1760 00d2 62 15                   		add	#1, r5
 1761 00d4 D3 A5                   		mov.W	r5, [r10]
 1762 00d6 2E 26                   		bra	.L91
 1763                             	.L90:
 534:C:/Users/John/Desktop/workspace/miniwinwm/MiniWin/gl\gl.c **** 		}
 535:C:/Users/John/Desktop/workspace/miniwinwm/MiniWin/gl\gl.c **** 		else
 536:C:/Users/John/Desktop/workspace/miniwinwm/MiniWin/gl\gl.c **** 		{
 537:C:/Users/John/Desktop/workspace/miniwinwm/MiniWin/gl\gl.c **** 			decision += ((x_point - y_point) * 2) + 5;
 1764                             		.loc 1 537 26
 1765 00d8 DC A4                   		mov.W	[r10], r4
 1766 00da DD A5 01                		mov.W	2[r10], r5
 1767 00dd FF 05 54                		sub	r5, r4, r5
 1768                             		.loc 1 537 13
 1769 00e0 4B 55                   		add	r5, r5
 1770 00e2 DF 54                   		mov.W	r5, r4
 1771 00e4 DD A5 02                		mov.W	4[r10], r5
 1772 00e7 4B 45                   		add	r4, r5
 1773 00e9 62 55                   		add	#5, r5
 1774 00eb D7 A5 02                		mov.W	r5, 4[r10]
 538:C:/Users/John/Desktop/workspace/miniwinwm/MiniWin/gl\gl.c **** 			x_point++;
 1775                             		.loc 1 538 11
 1776 00ee DC A5                   		mov.W	[r10], r5
 1777 00f0 62 15                   		add	#1, r5
 1778 00f2 D3 A5                   		mov.W	r5, [r10]
 539:C:/Users/John/Desktop/workspace/miniwinwm/MiniWin/gl\gl.c **** 			y_point--;
 1779                             		.loc 1 539 11
 1780 00f4 DD A5 01                		mov.W	2[r10], r5
 1781 00f7 60 15                   		sub	#1, r5
 1782 00f9 D7 A5 01                		mov.W	r5, 2[r10]
 1783                             	.L91:
 540:C:/Users/John/Desktop/workspace/miniwinwm/MiniWin/gl\gl.c **** 		}
 541:C:/Users/John/Desktop/workspace/miniwinwm/MiniWin/gl\gl.c **** 
 542:C:/Users/John/Desktop/workspace/miniwinwm/MiniWin/gl\gl.c **** 		/* plot all quadrants */
 543:C:/Users/John/Desktop/workspace/miniwinwm/MiniWin/gl\gl.c **** 		if (gc.pattern_set)
 1784                             		.loc 1 543 9
 1785 00fc FB 52 00 00 00 00       		mov.L	#_gc, r5
 1786 0102 CD 55 38                		mov.B	56[r5], r5
 1787                             		.loc 1 543 6
 1788 0105 5B 55                   		movu.B	r5, r5
 1789 0107 61 05                   		cmp	#0, r5
 1790 0109 3A FE 00                		beq	.L92
 544:C:/Users/John/Desktop/workspace/miniwinwm/MiniWin/gl\gl.c **** 		{
 545:C:/Users/John/Desktop/workspace/miniwinwm/MiniWin/gl\gl.c **** 			for (y = 0; y <= y_point * 2 + 1; y++)
 1791                             		.loc 1 545 11
 1792 010c F9 A5 03 00             		mov.W	#0, 6[r10]
 1793                             		.loc 1 545 4
 1794 0110 2E 2C                   		bra	.L93
 1795                             	.L94:
 546:C:/Users/John/Desktop/workspace/miniwinwm/MiniWin/gl\gl.c **** 			{
 547:C:/Users/John/Desktop/workspace/miniwinwm/MiniWin/gl\gl.c **** 				mw_gl_solid_fill_pixel(draw_info, centre_x + x_point, centre_y - y_point + y);
 1796                             		.loc 1 547 48 discriminator 3
 1797 0112 DD A4 06                		mov.W	12[r10], r4
 1798 0115 DC A5                   		mov.W	[r10], r5
 1799 0117 4B 45                   		add	r4, r5
 1800                             		.loc 1 547 5 discriminator 3
 1801 0119 DF 52                   		mov.W	r5, r2
 1802                             		.loc 1 547 68 discriminator 3
 1803 011b DD A4 07                		mov.W	14[r10], r4
 1804 011e DD A5 01                		mov.W	2[r10], r5
 1805 0121 FF 05 54                		sub	r5, r4, r5
 1806 0124 DF 54                   		mov.W	r5, r4
 1807                             		.loc 1 547 78 discriminator 3
 1808 0126 DD A5 03                		mov.W	6[r10], r5
 1809 0129 4B 45                   		add	r4, r5
 1810                             		.loc 1 547 5 discriminator 3
 1811 012b DF 53                   		mov.W	r5, r3
 1812 012d ED A1 02                		mov.L	8[r10], r1
 1813 0130 05 00 00 00             		bsr	_mw_gl_solid_fill_pixel
 545:C:/Users/John/Desktop/workspace/miniwinwm/MiniWin/gl\gl.c **** 			{
 1814                             		.loc 1 545 39 discriminator 3
 1815 0134 DD A5 03                		mov.W	6[r10], r5
 1816 0137 62 15                   		add	#1, r5
 1817 0139 D7 A5 03                		mov.W	r5, 6[r10]
 1818                             	.L93:
 545:C:/Users/John/Desktop/workspace/miniwinwm/MiniWin/gl\gl.c **** 			{
 1819                             		.loc 1 545 18 discriminator 1
 1820 013c DD A4 03                		mov.W	6[r10], r4
 545:C:/Users/John/Desktop/workspace/miniwinwm/MiniWin/gl\gl.c **** 			{
 1821                             		.loc 1 545 29 discriminator 1
 1822 013f DD A5 01                		mov.W	2[r10], r5
 1823 0142 4B 55                   		add	r5, r5
 545:C:/Users/John/Desktop/workspace/miniwinwm/MiniWin/gl\gl.c **** 			{
 1824                             		.loc 1 545 33 discriminator 1
 1825 0144 62 15                   		add	#1, r5
 545:C:/Users/John/Desktop/workspace/miniwinwm/MiniWin/gl\gl.c **** 			{
 1826                             		.loc 1 545 4 discriminator 1
 1827 0146 47 54                   		cmp	r5, r4
 1828 0148 2B CA                   		ble	.L94
 548:C:/Users/John/Desktop/workspace/miniwinwm/MiniWin/gl\gl.c **** 			}
 549:C:/Users/John/Desktop/workspace/miniwinwm/MiniWin/gl\gl.c **** 			for (y = 0; y <= y_point * 2 + 1; y++)
 1829                             		.loc 1 549 11
 1830 014a F9 A5 03 00             		mov.W	#0, 6[r10]
 1831                             		.loc 1 549 4
 1832 014e 2E 2D                   		bra	.L95
 1833                             	.L96:
 550:C:/Users/John/Desktop/workspace/miniwinwm/MiniWin/gl\gl.c **** 			{
 551:C:/Users/John/Desktop/workspace/miniwinwm/MiniWin/gl\gl.c **** 				mw_gl_solid_fill_pixel(draw_info, centre_x - x_point, centre_y - y_point + y);
 1834                             		.loc 1 551 48 discriminator 3
 1835 0150 DD A4 06                		mov.W	12[r10], r4
 1836 0153 DC A5                   		mov.W	[r10], r5
 1837 0155 FF 05 54                		sub	r5, r4, r5
 1838                             		.loc 1 551 5 discriminator 3
 1839 0158 DF 52                   		mov.W	r5, r2
 1840                             		.loc 1 551 68 discriminator 3
 1841 015a DD A4 07                		mov.W	14[r10], r4
 1842 015d DD A5 01                		mov.W	2[r10], r5
 1843 0160 FF 05 54                		sub	r5, r4, r5
 1844 0163 DF 54                   		mov.W	r5, r4
 1845                             		.loc 1 551 78 discriminator 3
 1846 0165 DD A5 03                		mov.W	6[r10], r5
 1847 0168 4B 45                   		add	r4, r5
 1848                             		.loc 1 551 5 discriminator 3
 1849 016a DF 53                   		mov.W	r5, r3
 1850 016c ED A1 02                		mov.L	8[r10], r1
 1851 016f 05 00 00 00             		bsr	_mw_gl_solid_fill_pixel
 549:C:/Users/John/Desktop/workspace/miniwinwm/MiniWin/gl\gl.c **** 			{
 1852                             		.loc 1 549 39 discriminator 3
 1853 0173 DD A5 03                		mov.W	6[r10], r5
 1854 0176 62 15                   		add	#1, r5
 1855 0178 D7 A5 03                		mov.W	r5, 6[r10]
 1856                             	.L95:
 549:C:/Users/John/Desktop/workspace/miniwinwm/MiniWin/gl\gl.c **** 			{
 1857                             		.loc 1 549 18 discriminator 1
 1858 017b DD A4 03                		mov.W	6[r10], r4
 549:C:/Users/John/Desktop/workspace/miniwinwm/MiniWin/gl\gl.c **** 			{
 1859                             		.loc 1 549 29 discriminator 1
 1860 017e DD A5 01                		mov.W	2[r10], r5
 1861 0181 4B 55                   		add	r5, r5
 549:C:/Users/John/Desktop/workspace/miniwinwm/MiniWin/gl\gl.c **** 			{
 1862                             		.loc 1 549 33 discriminator 1
 1863 0183 62 15                   		add	#1, r5
 549:C:/Users/John/Desktop/workspace/miniwinwm/MiniWin/gl\gl.c **** 			{
 1864                             		.loc 1 549 4 discriminator 1
 1865 0185 47 54                   		cmp	r5, r4
 1866 0187 2B C9                   		ble	.L96
 552:C:/Users/John/Desktop/workspace/miniwinwm/MiniWin/gl\gl.c **** 			}
 553:C:/Users/John/Desktop/workspace/miniwinwm/MiniWin/gl\gl.c **** 			for (y = 0; y <= x_point * 2 + 1; y++)
 1867                             		.loc 1 553 11
 1868 0189 F9 A5 03 00             		mov.W	#0, 6[r10]
 1869                             		.loc 1 553 4
 1870 018d 2E 2C                   		bra	.L97
 1871                             	.L98:
 554:C:/Users/John/Desktop/workspace/miniwinwm/MiniWin/gl\gl.c **** 			{
 555:C:/Users/John/Desktop/workspace/miniwinwm/MiniWin/gl\gl.c **** 				mw_gl_solid_fill_pixel(draw_info, centre_x + y_point, centre_y - x_point + y);
 1872                             		.loc 1 555 48 discriminator 3
 1873 018f DD A4 06                		mov.W	12[r10], r4
 1874 0192 DD A5 01                		mov.W	2[r10], r5
 1875 0195 4B 45                   		add	r4, r5
 1876                             		.loc 1 555 5 discriminator 3
 1877 0197 DF 52                   		mov.W	r5, r2
 1878                             		.loc 1 555 68 discriminator 3
 1879 0199 DD A4 07                		mov.W	14[r10], r4
 1880 019c DC A5                   		mov.W	[r10], r5
 1881 019e FF 05 54                		sub	r5, r4, r5
 1882 01a1 DF 54                   		mov.W	r5, r4
 1883                             		.loc 1 555 78 discriminator 3
 1884 01a3 DD A5 03                		mov.W	6[r10], r5
 1885 01a6 4B 45                   		add	r4, r5
 1886                             		.loc 1 555 5 discriminator 3
 1887 01a8 DF 53                   		mov.W	r5, r3
 1888 01aa ED A1 02                		mov.L	8[r10], r1
 1889 01ad 05 00 00 00             		bsr	_mw_gl_solid_fill_pixel
 553:C:/Users/John/Desktop/workspace/miniwinwm/MiniWin/gl\gl.c **** 			{
 1890                             		.loc 1 553 39 discriminator 3
 1891 01b1 DD A5 03                		mov.W	6[r10], r5
 1892 01b4 62 15                   		add	#1, r5
 1893 01b6 D7 A5 03                		mov.W	r5, 6[r10]
 1894                             	.L97:
 553:C:/Users/John/Desktop/workspace/miniwinwm/MiniWin/gl\gl.c **** 			{
 1895                             		.loc 1 553 18 discriminator 1
 1896 01b9 DD A4 03                		mov.W	6[r10], r4
 553:C:/Users/John/Desktop/workspace/miniwinwm/MiniWin/gl\gl.c **** 			{
 1897                             		.loc 1 553 29 discriminator 1
 1898 01bc DC A5                   		mov.W	[r10], r5
 1899 01be 4B 55                   		add	r5, r5
 553:C:/Users/John/Desktop/workspace/miniwinwm/MiniWin/gl\gl.c **** 			{
 1900                             		.loc 1 553 33 discriminator 1
 1901 01c0 62 15                   		add	#1, r5
 553:C:/Users/John/Desktop/workspace/miniwinwm/MiniWin/gl\gl.c **** 			{
 1902                             		.loc 1 553 4 discriminator 1
 1903 01c2 47 54                   		cmp	r5, r4
 1904 01c4 2B CB                   		ble	.L98
 556:C:/Users/John/Desktop/workspace/miniwinwm/MiniWin/gl\gl.c **** 			}
 557:C:/Users/John/Desktop/workspace/miniwinwm/MiniWin/gl\gl.c **** 			for (y = 0; y <= x_point * 2 + 1; y++)
 1905                             		.loc 1 557 11
 1906 01c6 F9 A5 03 00             		mov.W	#0, 6[r10]
 1907                             		.loc 1 557 4
 1908 01ca 2E 2D                   		bra	.L99
 1909                             	.L100:
 558:C:/Users/John/Desktop/workspace/miniwinwm/MiniWin/gl\gl.c **** 			{
 559:C:/Users/John/Desktop/workspace/miniwinwm/MiniWin/gl\gl.c **** 				mw_gl_solid_fill_pixel(draw_info, centre_x - y_point, centre_y - x_point + y);
 1910                             		.loc 1 559 48 discriminator 3
 1911 01cc DD A4 06                		mov.W	12[r10], r4
 1912 01cf DD A5 01                		mov.W	2[r10], r5
 1913 01d2 FF 05 54                		sub	r5, r4, r5
 1914                             		.loc 1 559 5 discriminator 3
 1915 01d5 DF 52                   		mov.W	r5, r2
 1916                             		.loc 1 559 68 discriminator 3
 1917 01d7 DD A4 07                		mov.W	14[r10], r4
 1918 01da DC A5                   		mov.W	[r10], r5
 1919 01dc FF 05 54                		sub	r5, r4, r5
 1920 01df DF 54                   		mov.W	r5, r4
 1921                             		.loc 1 559 78 discriminator 3
 1922 01e1 DD A5 03                		mov.W	6[r10], r5
 1923 01e4 4B 45                   		add	r4, r5
 1924                             		.loc 1 559 5 discriminator 3
 1925 01e6 DF 53                   		mov.W	r5, r3
 1926 01e8 ED A1 02                		mov.L	8[r10], r1
 1927 01eb 05 00 00 00             		bsr	_mw_gl_solid_fill_pixel
 557:C:/Users/John/Desktop/workspace/miniwinwm/MiniWin/gl\gl.c **** 			{
 1928                             		.loc 1 557 39 discriminator 3
 1929 01ef DD A5 03                		mov.W	6[r10], r5
 1930 01f2 62 15                   		add	#1, r5
 1931 01f4 D7 A5 03                		mov.W	r5, 6[r10]
 1932                             	.L99:
 557:C:/Users/John/Desktop/workspace/miniwinwm/MiniWin/gl\gl.c **** 			{
 1933                             		.loc 1 557 18 discriminator 1
 1934 01f7 DD A4 03                		mov.W	6[r10], r4
 557:C:/Users/John/Desktop/workspace/miniwinwm/MiniWin/gl\gl.c **** 			{
 1935                             		.loc 1 557 29 discriminator 1
 1936 01fa DC A5                   		mov.W	[r10], r5
 1937 01fc 4B 55                   		add	r5, r5
 557:C:/Users/John/Desktop/workspace/miniwinwm/MiniWin/gl\gl.c **** 			{
 1938                             		.loc 1 557 33 discriminator 1
 1939 01fe 62 15                   		add	#1, r5
 557:C:/Users/John/Desktop/workspace/miniwinwm/MiniWin/gl\gl.c **** 			{
 1940                             		.loc 1 557 4 discriminator 1
 1941 0200 47 54                   		cmp	r5, r4
 1942 0202 2B CA                   		ble	.L100
 1943 0204 38 CC 00                		bra	.L89
 1944                             	.L92:
 560:C:/Users/John/Desktop/workspace/miniwinwm/MiniWin/gl\gl.c **** 			}
 561:C:/Users/John/Desktop/workspace/miniwinwm/MiniWin/gl\gl.c **** 		}
 562:C:/Users/John/Desktop/workspace/miniwinwm/MiniWin/gl\gl.c **** 		else
 563:C:/Users/John/Desktop/workspace/miniwinwm/MiniWin/gl\gl.c **** 		{
 564:C:/Users/John/Desktop/workspace/miniwinwm/MiniWin/gl\gl.c **** 			filled_rectangle(draw_info, centre_x + x_point, centre_y - y_point, 1, y_point * 2 + 1, gc.solid
 1945                             		.loc 1 564 41
 1946 0207 DD A4 06                		mov.W	12[r10], r4
 1947 020a DC A5                   		mov.W	[r10], r5
 1948 020c 4B 45                   		add	r4, r5
 1949                             		.loc 1 564 4
 1950 020e DF 52                   		mov.W	r5, r2
 1951                             		.loc 1 564 61
 1952 0210 DD A4 07                		mov.W	14[r10], r4
 1953 0213 DD A5 01                		mov.W	2[r10], r5
 1954 0216 FF 05 54                		sub	r5, r4, r5
 1955                             		.loc 1 564 4
 1956 0219 DF 53                   		mov.W	r5, r3
 1957                             		.loc 1 564 83
 1958 021b DD A5 01                		mov.W	2[r10], r5
 1959 021e 4B 55                   		add	r5, r5
 1960                             		.loc 1 564 87
 1961 0220 62 15                   		add	#1, r5
 1962                             		.loc 1 564 4
 1963 0222 DF 54                   		mov.W	r5, r4
 1964 0224 FB 52 00 00 00 00       		mov.L	#_gc, r5
 1965 022a A8 D5                   		mov.L	8[r5], r5
 1966 022c A0 0D                   		mov.L	r5, 4[r0]
 1967 022e D3 04                   		mov.W	r4, [r0]
 1968 0230 66 14                   		mov	#1, r4
 1969 0232 ED A1 02                		mov.L	8[r10], r1
 1970 0235 05 00 00 00             		bsr	_filled_rectangle
 565:C:/Users/John/Desktop/workspace/miniwinwm/MiniWin/gl\gl.c **** 			filled_rectangle(draw_info, centre_x - x_point, centre_y - y_point, 1, y_point * 2 + 1, gc.solid
 1971                             		.loc 1 565 41
 1972 0239 DD A4 06                		mov.W	12[r10], r4
 1973 023c DC A5                   		mov.W	[r10], r5
 1974 023e FF 05 54                		sub	r5, r4, r5
 1975                             		.loc 1 565 4
 1976 0241 DF 52                   		mov.W	r5, r2
 1977                             		.loc 1 565 61
 1978 0243 DD A4 07                		mov.W	14[r10], r4
 1979 0246 DD A5 01                		mov.W	2[r10], r5
 1980 0249 FF 05 54                		sub	r5, r4, r5
 1981                             		.loc 1 565 4
 1982 024c DF 53                   		mov.W	r5, r3
 1983                             		.loc 1 565 83
 1984 024e DD A5 01                		mov.W	2[r10], r5
 1985 0251 4B 55                   		add	r5, r5
 1986                             		.loc 1 565 87
 1987 0253 62 15                   		add	#1, r5
 1988                             		.loc 1 565 4
 1989 0255 DF 54                   		mov.W	r5, r4
 1990 0257 FB 52 00 00 00 00       		mov.L	#_gc, r5
 1991 025d A8 D5                   		mov.L	8[r5], r5
 1992 025f A0 0D                   		mov.L	r5, 4[r0]
 1993 0261 D3 04                   		mov.W	r4, [r0]
 1994 0263 66 14                   		mov	#1, r4
 1995 0265 ED A1 02                		mov.L	8[r10], r1
 1996 0268 05 00 00 00             		bsr	_filled_rectangle
 566:C:/Users/John/Desktop/workspace/miniwinwm/MiniWin/gl\gl.c **** 			filled_rectangle(draw_info, centre_x + y_point, centre_y - x_point, 1, x_point * 2 + 1, gc.solid
 1997                             		.loc 1 566 41
 1998 026c DD A4 06                		mov.W	12[r10], r4
 1999 026f DD A5 01                		mov.W	2[r10], r5
 2000 0272 4B 45                   		add	r4, r5
 2001                             		.loc 1 566 4
 2002 0274 DF 52                   		mov.W	r5, r2
 2003                             		.loc 1 566 61
 2004 0276 DD A4 07                		mov.W	14[r10], r4
 2005 0279 DC A5                   		mov.W	[r10], r5
 2006 027b FF 05 54                		sub	r5, r4, r5
 2007                             		.loc 1 566 4
 2008 027e DF 53                   		mov.W	r5, r3
 2009                             		.loc 1 566 83
 2010 0280 DC A5                   		mov.W	[r10], r5
 2011 0282 4B 55                   		add	r5, r5
 2012                             		.loc 1 566 87
 2013 0284 62 15                   		add	#1, r5
 2014                             		.loc 1 566 4
 2015 0286 DF 54                   		mov.W	r5, r4
 2016 0288 FB 52 00 00 00 00       		mov.L	#_gc, r5
 2017 028e A8 D5                   		mov.L	8[r5], r5
 2018 0290 A0 0D                   		mov.L	r5, 4[r0]
 2019 0292 D3 04                   		mov.W	r4, [r0]
 2020 0294 66 14                   		mov	#1, r4
 2021 0296 ED A1 02                		mov.L	8[r10], r1
 2022 0299 05 00 00 00             		bsr	_filled_rectangle
 567:C:/Users/John/Desktop/workspace/miniwinwm/MiniWin/gl\gl.c **** 			filled_rectangle(draw_info, centre_x - y_point, centre_y - x_point, 1, x_point * 2 + 1, gc.solid
 2023                             		.loc 1 567 41
 2024 029d DD A4 06                		mov.W	12[r10], r4
 2025 02a0 DD A5 01                		mov.W	2[r10], r5
 2026 02a3 FF 05 54                		sub	r5, r4, r5
 2027                             		.loc 1 567 4
 2028 02a6 DF 52                   		mov.W	r5, r2
 2029                             		.loc 1 567 61
 2030 02a8 DD A4 07                		mov.W	14[r10], r4
 2031 02ab DC A5                   		mov.W	[r10], r5
 2032 02ad FF 05 54                		sub	r5, r4, r5
 2033                             		.loc 1 567 4
 2034 02b0 DF 53                   		mov.W	r5, r3
 2035                             		.loc 1 567 83
 2036 02b2 DC A5                   		mov.W	[r10], r5
 2037 02b4 4B 55                   		add	r5, r5
 2038                             		.loc 1 567 87
 2039 02b6 62 15                   		add	#1, r5
 2040                             		.loc 1 567 4
 2041 02b8 DF 54                   		mov.W	r5, r4
 2042 02ba FB 52 00 00 00 00       		mov.L	#_gc, r5
 2043 02c0 A8 D5                   		mov.L	8[r5], r5
 2044 02c2 A0 0D                   		mov.L	r5, 4[r0]
 2045 02c4 D3 04                   		mov.W	r4, [r0]
 2046 02c6 66 14                   		mov	#1, r4
 2047 02c8 ED A1 02                		mov.L	8[r10], r1
 2048 02cb 05 00 00 00             		bsr	_filled_rectangle
 2049 02cf 03                      		.balign 8,3,5
 2050                             	.L89:
 528:C:/Users/John/Desktop/workspace/miniwinwm/MiniWin/gl\gl.c **** 	{
 2051                             		.loc 1 528 8
 2052 02d0 DD A4 01                		mov.W	2[r10], r4
 2053 02d3 DC A5                   		mov.W	[r10], r5
 2054 02d5 47 54                   		cmp	r5, r4
 2055 02d7 2B 05 38 E0 FD          		bgt	.L101
 568:C:/Users/John/Desktop/workspace/miniwinwm/MiniWin/gl\gl.c **** 		}
 569:C:/Users/John/Desktop/workspace/miniwinwm/MiniWin/gl\gl.c **** 	}
 570:C:/Users/John/Desktop/workspace/miniwinwm/MiniWin/gl\gl.c **** }
 2056                             		.loc 1 570 1
 2057 02dc 03                      		nop
 2058 02dd 3F AA 08                		rtsd	#32, r10-r10
 2059                             	.LFE5:
 2061                             		.section	.text.circle_bres,"ax",@progbits
 2063                             	_circle_bres:
 2064                             	.LFB6:
 571:C:/Users/John/Desktop/workspace/miniwinwm/MiniWin/gl\gl.c **** 
 572:C:/Users/John/Desktop/workspace/miniwinwm/MiniWin/gl\gl.c **** /**
 573:C:/Users/John/Desktop/workspace/miniwinwm/MiniWin/gl\gl.c ****  * Draw an empty circle with using the bresenham algorithm
 574:C:/Users/John/Desktop/workspace/miniwinwm/MiniWin/gl\gl.c ****  *
 575:C:/Users/John/Desktop/workspace/miniwinwm/MiniWin/gl\gl.c ****  * @param draw_info Reference frame origin coordinates and clip region rect
 576:C:/Users/John/Desktop/workspace/miniwinwm/MiniWin/gl\gl.c ****  * @param x X coordinate centre of circle
 577:C:/Users/John/Desktop/workspace/miniwinwm/MiniWin/gl\gl.c ****  * @param y Y coordinate centre of circle
 578:C:/Users/John/Desktop/workspace/miniwinwm/MiniWin/gl\gl.c ****  * @param Radius radius of circle
 579:C:/Users/John/Desktop/workspace/miniwinwm/MiniWin/gl\gl.c ****  */
 580:C:/Users/John/Desktop/workspace/miniwinwm/MiniWin/gl\gl.c **** static void circle_bres(const mw_gl_draw_info_t *draw_info, int16_t x, int16_t y, int16_t radius)
 581:C:/Users/John/Desktop/workspace/miniwinwm/MiniWin/gl\gl.c **** {
 2065                             		.loc 1 581 1
 2066 0000 7E AA                   		push.l	r10
 2067                             	.LCFI19:
 2068 0002 71 0A EC                		add	#-20, r0, r10
 2069                             	.LCFI20:
 2070 0005 EF A0                   		mov.L	r10, r0
 2071 0007 E7 A1 02                		mov.L	r1, 8[r10]
 2072 000a D7 A2 06                		mov.W	r2, 12[r10]
 2073 000d D7 A3 07                		mov.W	r3, 14[r10]
 2074 0010 D7 A4 08                		mov.W	r4, 16[r10]
 582:C:/Users/John/Desktop/workspace/miniwinwm/MiniWin/gl\gl.c **** 	int16_t x_point = 0;
 2075                             		.loc 1 582 10
 2076 0013 F8 A5 00                		mov.W	#0, [r10]
 583:C:/Users/John/Desktop/workspace/miniwinwm/MiniWin/gl\gl.c **** 	int16_t y_point = radius;
 2077                             		.loc 1 583 10
 2078 0016 DD A5 08                		mov.W	16[r10], r5
 2079 0019 D7 A5 01                		mov.W	r5, 2[r10]
 584:C:/Users/John/Desktop/workspace/miniwinwm/MiniWin/gl\gl.c **** 	int16_t decision = 1 - radius;
 2080                             		.loc 1 584 23
 2081 001c DD A5 08                		mov.W	16[r10], r5
 2082 001f 66 14                   		mov.L	#1, r4
 2083 0021 FF 05 54                		sub	r5, r4, r5
 2084                             		.loc 1 584 10
 2085 0024 D7 A5 02                		mov.W	r5, 4[r10]
 585:C:/Users/John/Desktop/workspace/miniwinwm/MiniWin/gl\gl.c **** 
 586:C:/Users/John/Desktop/workspace/miniwinwm/MiniWin/gl\gl.c **** 	MW_ASSERT(draw_info, "Null pointer argument");
 2086                             		.loc 1 586 2
 2087 0027 ED A5 02                		mov.L	8[r10], r5
 2088 002a 61 05                   		cmp	#0, r5
 2089 002c FC DB 51                		scne.L	r5
 2090 002f FB 42 00 00 00 00       		mov.L	#.LC0, r4
 2091 0035 FB 3A 4A 02             		mov.L	#0x24a, r3
 2092 0039 FB 22 00 00 00 00       		mov.L	#___func__.3082, r2
 2093 003f CF 51                   		mov.B	r5, r1
 2094 0041 05 00 00 00             		bsr	_mw_debug_print_assert
 587:C:/Users/John/Desktop/workspace/miniwinwm/MiniWin/gl\gl.c **** 
 588:C:/Users/John/Desktop/workspace/miniwinwm/MiniWin/gl\gl.c **** 	/* plot top, bottom, left and right */
 589:C:/Users/John/Desktop/workspace/miniwinwm/MiniWin/gl\gl.c **** 	mw_gl_fg_pixel(draw_info, x, y + radius);
 2095                             		.loc 1 589 33
 2096 0045 DD A4 07                		mov.W	14[r10], r4
 2097 0048 DD A5 08                		mov.W	16[r10], r5
 2098 004b 4B 45                   		add	r4, r5
 2099                             		.loc 1 589 2
 2100 004d DF 53                   		mov.W	r5, r3
 2101 004f DD A2 06                		mov.W	12[r10], r2
 2102 0052 ED A1 02                		mov.L	8[r10], r1
 2103 0055 05 00 00 00             		bsr	_mw_gl_fg_pixel
 590:C:/Users/John/Desktop/workspace/miniwinwm/MiniWin/gl\gl.c **** 	mw_gl_fg_pixel(draw_info, x, y - radius);
 2104                             		.loc 1 590 33
 2105 0059 DD A4 07                		mov.W	14[r10], r4
 2106 005c DD A5 08                		mov.W	16[r10], r5
 2107 005f FF 05 54                		sub	r5, r4, r5
 2108                             		.loc 1 590 2
 2109 0062 DF 53                   		mov.W	r5, r3
 2110 0064 DD A2 06                		mov.W	12[r10], r2
 2111 0067 ED A1 02                		mov.L	8[r10], r1
 2112 006a 05 00 00 00             		bsr	_mw_gl_fg_pixel
 591:C:/Users/John/Desktop/workspace/miniwinwm/MiniWin/gl\gl.c **** 	mw_gl_fg_pixel(draw_info, x + radius, y);
 2113                             		.loc 1 591 30
 2114 006e DD A4 06                		mov.W	12[r10], r4
 2115 0071 DD A5 08                		mov.W	16[r10], r5
 2116 0074 4B 45                   		add	r4, r5
 2117                             		.loc 1 591 2
 2118 0076 DD A3 07                		mov.W	14[r10], r3
 2119 0079 DF 52                   		mov.W	r5, r2
 2120 007b ED A1 02                		mov.L	8[r10], r1
 2121 007e 05 00 00 00             		bsr	_mw_gl_fg_pixel
 592:C:/Users/John/Desktop/workspace/miniwinwm/MiniWin/gl\gl.c **** 	mw_gl_fg_pixel(draw_info, x - radius, y);
 2122                             		.loc 1 592 30
 2123 0082 DD A4 06                		mov.W	12[r10], r4
 2124 0085 DD A5 08                		mov.W	16[r10], r5
 2125 0088 FF 05 54                		sub	r5, r4, r5
 2126                             		.loc 1 592 2
 2127 008b DD A3 07                		mov.W	14[r10], r3
 2128 008e DF 52                   		mov.W	r5, r2
 2129 0090 ED A1 02                		mov.L	8[r10], r1
 2130 0093 05 00 00 00             		bsr	_mw_gl_fg_pixel
 593:C:/Users/John/Desktop/workspace/miniwinwm/MiniWin/gl\gl.c **** 
 594:C:/Users/John/Desktop/workspace/miniwinwm/MiniWin/gl\gl.c **** 	while (y_point > x_point)
 2131                             		.loc 1 594 8
 2132 0097 38 1E 01                		bra	.L103
 2133                             	.L106:
 595:C:/Users/John/Desktop/workspace/miniwinwm/MiniWin/gl\gl.c **** 	{
 596:C:/Users/John/Desktop/workspace/miniwinwm/MiniWin/gl\gl.c **** 		if (decision < 0)
 2134                             		.loc 1 596 6
 2135 009a DD A5 02                		mov.W	4[r10], r5
 2136 009d 61 05                   		cmp	#0, r5
 2137 009f 28 1A                   		bge	.L104
 597:C:/Users/John/Desktop/workspace/miniwinwm/MiniWin/gl\gl.c **** 		{
 598:C:/Users/John/Desktop/workspace/miniwinwm/MiniWin/gl\gl.c **** 			decision += (x_point * 2) + 3;
 2138                             		.loc 1 598 25
 2139 00a1 DC A5                   		mov.W	[r10], r5
 2140 00a3 4B 55                   		add	r5, r5
 2141 00a5 DF 54                   		mov.W	r5, r4
 2142                             		.loc 1 598 13
 2143 00a7 DD A5 02                		mov.W	4[r10], r5
 2144 00aa 4B 45                   		add	r4, r5
 2145 00ac 62 35                   		add	#3, r5
 2146 00ae D7 A5 02                		mov.W	r5, 4[r10]
 599:C:/Users/John/Desktop/workspace/miniwinwm/MiniWin/gl\gl.c **** 			x_point++;
 2147                             		.loc 1 599 11
 2148 00b1 DC A5                   		mov.W	[r10], r5
 2149 00b3 62 15                   		add	#1, r5
 2150 00b5 D3 A5                   		mov.W	r5, [r10]
 2151 00b7 2E 26                   		bra	.L105
 2152                             	.L104:
 600:C:/Users/John/Desktop/workspace/miniwinwm/MiniWin/gl\gl.c **** 		}
 601:C:/Users/John/Desktop/workspace/miniwinwm/MiniWin/gl\gl.c **** 		else
 602:C:/Users/John/Desktop/workspace/miniwinwm/MiniWin/gl\gl.c **** 		{
 603:C:/Users/John/Desktop/workspace/miniwinwm/MiniWin/gl\gl.c **** 			decision += ((x_point - y_point) * 2) + 5;
 2153                             		.loc 1 603 26
 2154 00b9 DC A4                   		mov.W	[r10], r4
 2155 00bb DD A5 01                		mov.W	2[r10], r5
 2156 00be FF 05 54                		sub	r5, r4, r5
 2157                             		.loc 1 603 13
 2158 00c1 4B 55                   		add	r5, r5
 2159 00c3 DF 54                   		mov.W	r5, r4
 2160 00c5 DD A5 02                		mov.W	4[r10], r5
 2161 00c8 4B 45                   		add	r4, r5
 2162 00ca 62 55                   		add	#5, r5
 2163 00cc D7 A5 02                		mov.W	r5, 4[r10]
 604:C:/Users/John/Desktop/workspace/miniwinwm/MiniWin/gl\gl.c **** 			x_point++;
 2164                             		.loc 1 604 11
 2165 00cf DC A5                   		mov.W	[r10], r5
 2166 00d1 62 15                   		add	#1, r5
 2167 00d3 D3 A5                   		mov.W	r5, [r10]
 605:C:/Users/John/Desktop/workspace/miniwinwm/MiniWin/gl\gl.c **** 			y_point--;
 2168                             		.loc 1 605 11
 2169 00d5 DD A5 01                		mov.W	2[r10], r5
 2170 00d8 60 15                   		sub	#1, r5
 2171 00da D7 A5 01                		mov.W	r5, 2[r10]
 2172                             	.L105:
 606:C:/Users/John/Desktop/workspace/miniwinwm/MiniWin/gl\gl.c **** 		}
 607:C:/Users/John/Desktop/workspace/miniwinwm/MiniWin/gl\gl.c **** 
 608:C:/Users/John/Desktop/workspace/miniwinwm/MiniWin/gl\gl.c **** 		/* plot all quadrants */
 609:C:/Users/John/Desktop/workspace/miniwinwm/MiniWin/gl\gl.c **** 		mw_gl_fg_pixel(draw_info, x + x_point, y + y_point);
 2173                             		.loc 1 609 31
 2174 00dd DD A4 06                		mov.W	12[r10], r4
 2175 00e0 DC A5                   		mov.W	[r10], r5
 2176 00e2 4B 45                   		add	r4, r5
 2177                             		.loc 1 609 3
 2178 00e4 DF 52                   		mov.W	r5, r2
 2179                             		.loc 1 609 44
 2180 00e6 DD A4 07                		mov.W	14[r10], r4
 2181 00e9 DD A5 01                		mov.W	2[r10], r5
 2182 00ec 4B 45                   		add	r4, r5
 2183                             		.loc 1 609 3
 2184 00ee DF 53                   		mov.W	r5, r3
 2185 00f0 ED A1 02                		mov.L	8[r10], r1
 2186 00f3 05 00 00 00             		bsr	_mw_gl_fg_pixel
 610:C:/Users/John/Desktop/workspace/miniwinwm/MiniWin/gl\gl.c **** 		mw_gl_fg_pixel(draw_info, x - x_point, y + y_point);
 2187                             		.loc 1 610 31
 2188 00f7 DD A4 06                		mov.W	12[r10], r4
 2189 00fa DC A5                   		mov.W	[r10], r5
 2190 00fc FF 05 54                		sub	r5, r4, r5
 2191                             		.loc 1 610 3
 2192 00ff DF 52                   		mov.W	r5, r2
 2193                             		.loc 1 610 44
 2194 0101 DD A4 07                		mov.W	14[r10], r4
 2195 0104 DD A5 01                		mov.W	2[r10], r5
 2196 0107 4B 45                   		add	r4, r5
 2197                             		.loc 1 610 3
 2198 0109 DF 53                   		mov.W	r5, r3
 2199 010b ED A1 02                		mov.L	8[r10], r1
 2200 010e 05 00 00 00             		bsr	_mw_gl_fg_pixel
 611:C:/Users/John/Desktop/workspace/miniwinwm/MiniWin/gl\gl.c **** 		mw_gl_fg_pixel(draw_info, x + x_point, y - y_point);
 2201                             		.loc 1 611 31
 2202 0112 DD A4 06                		mov.W	12[r10], r4
 2203 0115 DC A5                   		mov.W	[r10], r5
 2204 0117 4B 45                   		add	r4, r5
 2205                             		.loc 1 611 3
 2206 0119 DF 52                   		mov.W	r5, r2
 2207                             		.loc 1 611 44
 2208 011b DD A4 07                		mov.W	14[r10], r4
 2209 011e DD A5 01                		mov.W	2[r10], r5
 2210 0121 FF 05 54                		sub	r5, r4, r5
 2211                             		.loc 1 611 3
 2212 0124 DF 53                   		mov.W	r5, r3
 2213 0126 ED A1 02                		mov.L	8[r10], r1
 2214 0129 05 00 00 00             		bsr	_mw_gl_fg_pixel
 612:C:/Users/John/Desktop/workspace/miniwinwm/MiniWin/gl\gl.c **** 		mw_gl_fg_pixel(draw_info, x - x_point, y - y_point);
 2215                             		.loc 1 612 31
 2216 012d DD A4 06                		mov.W	12[r10], r4
 2217 0130 DC A5                   		mov.W	[r10], r5
 2218 0132 FF 05 54                		sub	r5, r4, r5
 2219                             		.loc 1 612 3
 2220 0135 DF 52                   		mov.W	r5, r2
 2221                             		.loc 1 612 44
 2222 0137 DD A4 07                		mov.W	14[r10], r4
 2223 013a DD A5 01                		mov.W	2[r10], r5
 2224 013d FF 05 54                		sub	r5, r4, r5
 2225                             		.loc 1 612 3
 2226 0140 DF 53                   		mov.W	r5, r3
 2227 0142 ED A1 02                		mov.L	8[r10], r1
 2228 0145 05 00 00 00             		bsr	_mw_gl_fg_pixel
 613:C:/Users/John/Desktop/workspace/miniwinwm/MiniWin/gl\gl.c **** 		mw_gl_fg_pixel(draw_info, x + y_point, y + x_point);
 2229                             		.loc 1 613 31
 2230 0149 DD A4 06                		mov.W	12[r10], r4
 2231 014c DD A5 01                		mov.W	2[r10], r5
 2232 014f 4B 45                   		add	r4, r5
 2233                             		.loc 1 613 3
 2234 0151 DF 52                   		mov.W	r5, r2
 2235                             		.loc 1 613 44
 2236 0153 DD A4 07                		mov.W	14[r10], r4
 2237 0156 DC A5                   		mov.W	[r10], r5
 2238 0158 4B 45                   		add	r4, r5
 2239                             		.loc 1 613 3
 2240 015a DF 53                   		mov.W	r5, r3
 2241 015c ED A1 02                		mov.L	8[r10], r1
 2242 015f 05 00 00 00             		bsr	_mw_gl_fg_pixel
 614:C:/Users/John/Desktop/workspace/miniwinwm/MiniWin/gl\gl.c **** 		mw_gl_fg_pixel(draw_info, x - y_point, y + x_point);
 2243                             		.loc 1 614 31
 2244 0163 DD A4 06                		mov.W	12[r10], r4
 2245 0166 DD A5 01                		mov.W	2[r10], r5
 2246 0169 FF 05 54                		sub	r5, r4, r5
 2247                             		.loc 1 614 3
 2248 016c DF 52                   		mov.W	r5, r2
 2249                             		.loc 1 614 44
 2250 016e DD A4 07                		mov.W	14[r10], r4
 2251 0171 DC A5                   		mov.W	[r10], r5
 2252 0173 4B 45                   		add	r4, r5
 2253                             		.loc 1 614 3
 2254 0175 DF 53                   		mov.W	r5, r3
 2255 0177 ED A1 02                		mov.L	8[r10], r1
 2256 017a 05 00 00 00             		bsr	_mw_gl_fg_pixel
 615:C:/Users/John/Desktop/workspace/miniwinwm/MiniWin/gl\gl.c **** 		mw_gl_fg_pixel(draw_info, x + y_point, y - x_point);
 2257                             		.loc 1 615 31
 2258 017e DD A4 06                		mov.W	12[r10], r4
 2259 0181 DD A5 01                		mov.W	2[r10], r5
 2260 0184 4B 45                   		add	r4, r5
 2261                             		.loc 1 615 3
 2262 0186 DF 52                   		mov.W	r5, r2
 2263                             		.loc 1 615 44
 2264 0188 DD A4 07                		mov.W	14[r10], r4
 2265 018b DC A5                   		mov.W	[r10], r5
 2266 018d FF 05 54                		sub	r5, r4, r5
 2267                             		.loc 1 615 3
 2268 0190 DF 53                   		mov.W	r5, r3
 2269 0192 ED A1 02                		mov.L	8[r10], r1
 2270 0195 05 00 00 00             		bsr	_mw_gl_fg_pixel
 616:C:/Users/John/Desktop/workspace/miniwinwm/MiniWin/gl\gl.c **** 		mw_gl_fg_pixel(draw_info, x - y_point, y - x_point);
 2271                             		.loc 1 616 31
 2272 0199 DD A4 06                		mov.W	12[r10], r4
 2273 019c DD A5 01                		mov.W	2[r10], r5
 2274 019f FF 05 54                		sub	r5, r4, r5
 2275                             		.loc 1 616 3
 2276 01a2 DF 52                   		mov.W	r5, r2
 2277                             		.loc 1 616 44
 2278 01a4 DD A4 07                		mov.W	14[r10], r4
 2279 01a7 DC A5                   		mov.W	[r10], r5
 2280 01a9 FF 05 54                		sub	r5, r4, r5
 2281                             		.loc 1 616 3
 2282 01ac DF 53                   		mov.W	r5, r3
 2283 01ae ED A1 02                		mov.L	8[r10], r1
 2284 01b1 05 00 00 00             		bsr	_mw_gl_fg_pixel
 2285                             	.L103:
 594:C:/Users/John/Desktop/workspace/miniwinwm/MiniWin/gl\gl.c **** 	{
 2286                             		.loc 1 594 8
 2287 01b5 DD A4 01                		mov.W	2[r10], r4
 2288 01b8 DC A5                   		mov.W	[r10], r5
 2289 01ba 47 54                   		cmp	r5, r4
 2290 01bc 2B 05 38 DC FE          		bgt	.L106
 617:C:/Users/John/Desktop/workspace/miniwinwm/MiniWin/gl\gl.c **** 	}
 618:C:/Users/John/Desktop/workspace/miniwinwm/MiniWin/gl\gl.c **** }
 2291                             		.loc 1 618 1
 2292 01c1 03                      		nop
 2293 01c2 3F AA 06                		rtsd	#24, r10-r10
 2294                             	.LFE6:
 2296                             		.section	.text.filled_segment,"ax",@progbits
 2298                             	_filled_segment:
 2299                             	.LFB7:
 619:C:/Users/John/Desktop/workspace/miniwinwm/MiniWin/gl\gl.c **** 
 620:C:/Users/John/Desktop/workspace/miniwinwm/MiniWin/gl\gl.c **** /**
 621:C:/Users/John/Desktop/workspace/miniwinwm/MiniWin/gl\gl.c ****  * Draw a filled segment of a circle using the fill colour and style from the graphics context
 622:C:/Users/John/Desktop/workspace/miniwinwm/MiniWin/gl\gl.c ****  * 
 623:C:/Users/John/Desktop/workspace/miniwinwm/MiniWin/gl\gl.c ****  * @param draw_info Reference frame origin coordinates and clip region rect
 624:C:/Users/John/Desktop/workspace/miniwinwm/MiniWin/gl\gl.c ****  * @param x X coordinate centre of the describing circle
 625:C:/Users/John/Desktop/workspace/miniwinwm/MiniWin/gl\gl.c ****  * @param y Y coordinate centre of the describing circle
 626:C:/Users/John/Desktop/workspace/miniwinwm/MiniWin/gl\gl.c ****  * @param start_angle Start angle of the segment, clockwise from 0 which is vertically up, in degre
 627:C:/Users/John/Desktop/workspace/miniwinwm/MiniWin/gl\gl.c ****  * @param end_angle End angle of the segment, clockwise from 0 which is vertically up, in degrees 
 628:C:/Users/John/Desktop/workspace/miniwinwm/MiniWin/gl\gl.c ****  * @param step_size Step size in degrees of the describing circle edge; straight lines will be draw
 629:C:/Users/John/Desktop/workspace/miniwinwm/MiniWin/gl\gl.c ****  * @param radius Radius of the describing circle
 630:C:/Users/John/Desktop/workspace/miniwinwm/MiniWin/gl\gl.c ****  */
 631:C:/Users/John/Desktop/workspace/miniwinwm/MiniWin/gl\gl.c **** static void filled_segment(const mw_gl_draw_info_t *draw_info, int16_t x, int16_t y, int16_t radius
 632:C:/Users/John/Desktop/workspace/miniwinwm/MiniWin/gl\gl.c **** {
 2300                             		.loc 1 632 1
 2301 0000 7E AA                   		push.l	r10
 2302                             	.LCFI21:
 2303 0002 7E A6                   		push.l	r6
 2304                             	.LCFI22:
 2305 0004 71 0A D0                		add	#-48, r0, r10
 2306                             	.LCFI23:
 2307 0007 71 A0 FC                		add	#-4, r10, r0
 2308                             	.LCFI24:
 2309 000a 75 46 3C                		mov.L	#60, r6
 2310 000d 4B A6                   		add	r10, r6
 2311 000f E7 A1 07                		mov.L	r1, 28[r10]
 2312 0012 D7 A2 10                		mov.W	r2, 32[r10]
 2313 0015 D7 A3 11                		mov.W	r3, 34[r10]
 2314 0018 D7 A4 12                		mov.W	r4, 36[r10]
 633:C:/Users/John/Desktop/workspace/miniwinwm/MiniWin/gl\gl.c **** 	int16_t old_x;
 634:C:/Users/John/Desktop/workspace/miniwinwm/MiniWin/gl\gl.c **** 	int16_t old_y;
 635:C:/Users/John/Desktop/workspace/miniwinwm/MiniWin/gl\gl.c **** 	int16_t i;
 636:C:/Users/John/Desktop/workspace/miniwinwm/MiniWin/gl\gl.c **** 	float angle;
 637:C:/Users/John/Desktop/workspace/miniwinwm/MiniWin/gl\gl.c **** 	int16_t triangle_corners_x[3];
 638:C:/Users/John/Desktop/workspace/miniwinwm/MiniWin/gl\gl.c **** 	int16_t triangle_corners_y[3];
 639:C:/Users/John/Desktop/workspace/miniwinwm/MiniWin/gl\gl.c **** 	float temp_float;
 640:C:/Users/John/Desktop/workspace/miniwinwm/MiniWin/gl\gl.c **** 
 641:C:/Users/John/Desktop/workspace/miniwinwm/MiniWin/gl\gl.c **** 	MW_ASSERT(draw_info, "Null pointer argument");
 2315                             		.loc 1 641 2
 2316 001b ED A5 07                		mov.L	28[r10], r5
 2317 001e 61 05                   		cmp	#0, r5
 2318 0020 FC DB 51                		scne.L	r5
 2319 0023 FB 42 00 00 00 00       		mov.L	#.LC0, r4
 2320 0029 FB 3A 81 02             		mov.L	#0x281, r3
 2321 002d FB 22 00 00 00 00       		mov.L	#___func__.3102, r2
 2322 0033 CF 51                   		mov.B	r5, r1
 2323 0035 05 00 00 00             		bsr	_mw_debug_print_assert
 642:C:/Users/John/Desktop/workspace/miniwinwm/MiniWin/gl\gl.c **** 
 643:C:/Users/John/Desktop/workspace/miniwinwm/MiniWin/gl\gl.c **** 	temp_float = sinf((float)start_angle / DEGREES_IN_RAD) * (float)radius;
 2324                             		.loc 1 643 20
 2325 0039 DC 65                   		mov.W	[r6], r5
 2326 003b FC 47 55                		itof	r5, r5
 2327                             		.loc 1 643 15
 2328 003e FD 72 45 E0 2E 65 42    		fdiv	#0x42652ee0, r5
 2329 0045 EF 51                   		mov.L	r5, r1
 2330 0047 05 00 00 00             		bsr	_sinf
 2331 004b EF 14                   		mov.L	r1, r4
 2332                             		.loc 1 643 59
 2333 004d DD A5 12                		mov.W	36[r10], r5
 2334 0050 FC 47 55                		itof	r5, r5
 2335                             		.loc 1 643 13
 2336 0053 FC 8F 45                		fmul	r4, r5
 2337 0056 E7 A5 02                		mov.L	r5, 8[r10]
 644:C:/Users/John/Desktop/workspace/miniwinwm/MiniWin/gl\gl.c **** 	old_x = x + (int16_t)temp_float;
 2338                             		.loc 1 644 14
 2339 0059 ED A5 02                		mov.L	8[r10], r5
 2340 005c FC 97 55                		ftoi	r5, r5
 2341 005f DF 54                   		mov.W	r5, r4
 2342                             		.loc 1 644 12
 2343 0061 DD A5 10                		mov.W	32[r10], r5
 2344 0064 4B 45                   		add	r4, r5
 2345                             		.loc 1 644 8
 2346 0066 D3 A5                   		mov.W	r5, [r10]
 645:C:/Users/John/Desktop/workspace/miniwinwm/MiniWin/gl\gl.c **** 	temp_float = cosf((float)start_angle / DEGREES_IN_RAD) * (float)radius;
 2347                             		.loc 1 645 20
 2348 0068 DC 65                   		mov.W	[r6], r5
 2349 006a FC 47 55                		itof	r5, r5
 2350                             		.loc 1 645 15
 2351 006d FD 72 45 E0 2E 65 42    		fdiv	#0x42652ee0, r5
 2352 0074 EF 51                   		mov.L	r5, r1
 2353 0076 05 00 00 00             		bsr	_cosf
 2354 007a EF 14                   		mov.L	r1, r4
 2355                             		.loc 1 645 59
 2356 007c DD A5 12                		mov.W	36[r10], r5
 2357 007f FC 47 55                		itof	r5, r5
 2358                             		.loc 1 645 13
 2359 0082 FC 8F 45                		fmul	r4, r5
 2360 0085 E7 A5 02                		mov.L	r5, 8[r10]
 646:C:/Users/John/Desktop/workspace/miniwinwm/MiniWin/gl\gl.c **** 	old_y = y - (int16_t)temp_float;
 2361                             		.loc 1 646 12
 2362 0088 DD A4 11                		mov.W	34[r10], r4
 2363                             		.loc 1 646 14
 2364 008b ED A5 02                		mov.L	8[r10], r5
 2365 008e FC 97 55                		ftoi	r5, r5
 2366                             		.loc 1 646 12
 2367 0091 FF 05 54                		sub	r5, r4, r5
 2368                             		.loc 1 646 8
 2369 0094 D7 A5 01                		mov.W	r5, 2[r10]
 647:C:/Users/John/Desktop/workspace/miniwinwm/MiniWin/gl\gl.c **** 
 648:C:/Users/John/Desktop/workspace/miniwinwm/MiniWin/gl\gl.c **** 	triangle_corners_x[0] = x;
 2370                             		.loc 1 648 24
 2371 0097 DD A5 10                		mov.W	32[r10], r5
 2372 009a D7 A5 08                		mov.W	r5, 16[r10]
 649:C:/Users/John/Desktop/workspace/miniwinwm/MiniWin/gl\gl.c **** 	triangle_corners_y[0] = y;
 2373                             		.loc 1 649 24
 2374 009d 71 A5 16                		add	#22, r10, r5
 2375 00a0 DD A4 11                		mov.W	34[r10], r4
 2376 00a3 D3 54                   		mov.W	r4, [r5]
 650:C:/Users/John/Desktop/workspace/miniwinwm/MiniWin/gl\gl.c **** 
 651:C:/Users/John/Desktop/workspace/miniwinwm/MiniWin/gl\gl.c **** 	if (start_angle > end_angle)
 2377                             		.loc 1 651 5
 2378 00a5 DC 64                   		mov.W	[r6], r4
 2379 00a7 98 6D                   		mov.W	2[r6], r5
 2380 00a9 47 54                   		cmp	r5, r4
 2381 00ab 2B 0A                   		ble	.L108
 652:C:/Users/John/Desktop/workspace/miniwinwm/MiniWin/gl\gl.c **** 	{
 653:C:/Users/John/Desktop/workspace/miniwinwm/MiniWin/gl\gl.c **** 		end_angle += 360;
 2382                             		.loc 1 653 13
 2383 00ad 98 6D                   		mov.W	2[r6], r5
 2384 00af 72 55 68 01             		add	#0x168, r5
 2385 00b3 90 6D                   		mov.W	r5, 2[r6]
 2386                             	.L108:
 654:C:/Users/John/Desktop/workspace/miniwinwm/MiniWin/gl\gl.c **** 	}
 655:C:/Users/John/Desktop/workspace/miniwinwm/MiniWin/gl\gl.c **** 
 656:C:/Users/John/Desktop/workspace/miniwinwm/MiniWin/gl\gl.c **** 	for (i = start_angle + angle_step_size; i <= end_angle; i += angle_step_size)
 2387                             		.loc 1 656 23
 2388 00b5 DC 64                   		mov.W	[r6], r4
 2389 00b7 98 E5                   		mov.W	4[r6], r5
 2390 00b9 4B 45                   		add	r4, r5
 2391                             		.loc 1 656 9
 2392 00bb D7 A5 02                		mov.W	r5, 4[r10]
 2393                             		.loc 1 656 2
 2394 00be 38 9B 00                		bra	.L109
 2395                             	.L110:
 657:C:/Users/John/Desktop/workspace/miniwinwm/MiniWin/gl\gl.c **** 	{
 658:C:/Users/John/Desktop/workspace/miniwinwm/MiniWin/gl\gl.c **** 		angle = (float)i / DEGREES_IN_RAD;
 2396                             		.loc 1 658 11 discriminator 3
 2397 00c1 DD A5 02                		mov.W	4[r10], r5
 2398 00c4 FC 47 55                		itof	r5, r5
 2399                             		.loc 1 658 9 discriminator 3
 2400 00c7 FD 72 45 E0 2E 65 42    		fdiv	#0x42652ee0, r5
 2401 00ce E7 A5 03                		mov.L	r5, 12[r10]
 659:C:/Users/John/Desktop/workspace/miniwinwm/MiniWin/gl\gl.c **** 		temp_float = sinf(angle) * (float)radius;
 2402                             		.loc 1 659 16 discriminator 3
 2403 00d1 ED A1 03                		mov.L	12[r10], r1
 2404 00d4 05 00 00 00             		bsr	_sinf
 2405 00d8 EF 14                   		mov.L	r1, r4
 2406                             		.loc 1 659 30 discriminator 3
 2407 00da DD A5 12                		mov.W	36[r10], r5
 2408 00dd FC 47 55                		itof	r5, r5
 2409                             		.loc 1 659 14 discriminator 3
 2410 00e0 FC 8F 45                		fmul	r4, r5
 2411 00e3 E7 A5 02                		mov.L	r5, 8[r10]
 660:C:/Users/John/Desktop/workspace/miniwinwm/MiniWin/gl\gl.c **** 		triangle_corners_x[1] = x + (int16_t)temp_float;
 2412                             		.loc 1 660 31 discriminator 3
 2413 00e6 ED A5 02                		mov.L	8[r10], r5
 2414 00e9 FC 97 55                		ftoi	r5, r5
 2415 00ec DF 54                   		mov.W	r5, r4
 2416                             		.loc 1 660 29 discriminator 3
 2417 00ee DD A5 10                		mov.W	32[r10], r5
 2418 00f1 4B 45                   		add	r4, r5
 2419                             		.loc 1 660 25 discriminator 3
 2420 00f3 D7 A5 09                		mov.W	r5, 18[r10]
 661:C:/Users/John/Desktop/workspace/miniwinwm/MiniWin/gl\gl.c **** 		temp_float = cosf(angle) * (float)radius;
 2421                             		.loc 1 661 16 discriminator 3
 2422 00f6 ED A1 03                		mov.L	12[r10], r1
 2423 00f9 05 00 00 00             		bsr	_cosf
 2424 00fd EF 14                   		mov.L	r1, r4
 2425                             		.loc 1 661 30 discriminator 3
 2426 00ff DD A5 12                		mov.W	36[r10], r5
 2427 0102 FC 47 55                		itof	r5, r5
 2428                             		.loc 1 661 14 discriminator 3
 2429 0105 FC 8F 45                		fmul	r4, r5
 2430 0108 E7 A5 02                		mov.L	r5, 8[r10]
 662:C:/Users/John/Desktop/workspace/miniwinwm/MiniWin/gl\gl.c **** 		triangle_corners_y[1] = y - (int16_t)temp_float;
 2431                             		.loc 1 662 29 discriminator 3
 2432 010b DD A4 11                		mov.W	34[r10], r4
 2433                             		.loc 1 662 31 discriminator 3
 2434 010e ED A5 02                		mov.L	8[r10], r5
 2435 0111 FC 97 55                		ftoi	r5, r5
 2436                             		.loc 1 662 29 discriminator 3
 2437 0114 FF 05 54                		sub	r5, r4, r5
 2438 0117 DF 54                   		mov.W	r5, r4
 2439                             		.loc 1 662 25 discriminator 3
 2440 0119 71 A5 16                		add	#22, r10, r5
 2441 011c 90 5C                   		mov.W	r4, 2[r5]
 663:C:/Users/John/Desktop/workspace/miniwinwm/MiniWin/gl\gl.c **** 		triangle_corners_x[2] = old_x;
 2442                             		.loc 1 663 25 discriminator 3
 2443 011e DC A5                   		mov.W	[r10], r5
 2444 0120 D7 A5 0A                		mov.W	r5, 20[r10]
 664:C:/Users/John/Desktop/workspace/miniwinwm/MiniWin/gl\gl.c **** 		triangle_corners_y[2] = old_y;
 2445                             		.loc 1 664 25 discriminator 3
 2446 0123 71 A5 16                		add	#22, r10, r5
 2447 0126 DD A4 01                		mov.W	2[r10], r4
 2448 0129 90 D4                   		mov.W	r4, 4[r5]
 665:C:/Users/John/Desktop/workspace/miniwinwm/MiniWin/gl\gl.c **** 
 666:C:/Users/John/Desktop/workspace/miniwinwm/MiniWin/gl\gl.c **** 		filled_poly(draw_info, 3, triangle_corners_x, triangle_corners_y, 0, 0);
 2449                             		.loc 1 666 3 discriminator 3
 2450 012b 71 A4 16                		add	#22, r10, r4
 2451 012e 71 A5 10                		add	#16, r10, r5
 2452 0131 3D 01 00                		mov.W	#0, 2[r0]
 2453 0134 F8 05 00                		mov.W	#0, [r0]
 2454 0137 EF 53                   		mov.L	r5, r3
 2455 0139 66 32                   		mov	#3, r2
 2456 013b ED A1 07                		mov.L	28[r10], r1
 2457 013e 05 00 00 00             		bsr	_filled_poly
 667:C:/Users/John/Desktop/workspace/miniwinwm/MiniWin/gl\gl.c **** 
 668:C:/Users/John/Desktop/workspace/miniwinwm/MiniWin/gl\gl.c **** 		old_x = triangle_corners_x[1];
 2458                             		.loc 1 668 9 discriminator 3
 2459 0142 DD A5 09                		mov.W	18[r10], r5
 2460 0145 D3 A5                   		mov.W	r5, [r10]
 669:C:/Users/John/Desktop/workspace/miniwinwm/MiniWin/gl\gl.c **** 		old_y = triangle_corners_y[1];
 2461                             		.loc 1 669 9 discriminator 3
 2462 0147 71 A5 16                		add	#22, r10, r5
 2463 014a 98 5D                   		mov.W	2[r5], r5
 2464 014c D7 A5 01                		mov.W	r5, 2[r10]
 656:C:/Users/John/Desktop/workspace/miniwinwm/MiniWin/gl\gl.c **** 	{
 2465                             		.loc 1 656 60 discriminator 3
 2466 014f DD A4 02                		mov.W	4[r10], r4
 2467 0152 98 E5                   		mov.W	4[r6], r5
 2468 0154 4B 45                   		add	r4, r5
 2469 0156 D7 A5 02                		mov.W	r5, 4[r10]
 2470                             	.L109:
 656:C:/Users/John/Desktop/workspace/miniwinwm/MiniWin/gl\gl.c **** 	{
 2471                             		.loc 1 656 2 discriminator 1
 2472 0159 DD A4 02                		mov.W	4[r10], r4
 2473 015c 98 6D                   		mov.W	2[r6], r5
 2474 015e 47 54                   		cmp	r5, r4
 2475 0160 2A 05 38 5F FF          		ble	.L110
 670:C:/Users/John/Desktop/workspace/miniwinwm/MiniWin/gl\gl.c **** 	}
 671:C:/Users/John/Desktop/workspace/miniwinwm/MiniWin/gl\gl.c **** 
 672:C:/Users/John/Desktop/workspace/miniwinwm/MiniWin/gl\gl.c **** 	i -= angle_step_size;
 2476                             		.loc 1 672 4
 2477 0165 DD A4 02                		mov.W	4[r10], r4
 2478 0168 98 E5                   		mov.W	4[r6], r5
 2479 016a FF 05 54                		sub	r5, r4, r5
 2480 016d D7 A5 02                		mov.W	r5, 4[r10]
 673:C:/Users/John/Desktop/workspace/miniwinwm/MiniWin/gl\gl.c **** 	if ( i <end_angle)
 2481                             		.loc 1 673 5
 2482 0170 DD A4 02                		mov.W	4[r10], r4
 2483 0173 98 6D                   		mov.W	2[r6], r5
 2484 0175 47 54                   		cmp	r5, r4
 2485 0177 29 05 38 E2 00          		bge	.L112
 674:C:/Users/John/Desktop/workspace/miniwinwm/MiniWin/gl\gl.c **** 	{
 675:C:/Users/John/Desktop/workspace/miniwinwm/MiniWin/gl\gl.c **** 		temp_float = sinf((float)end_angle / DEGREES_IN_RAD) * (float)radius;
 2486                             		.loc 1 675 21
 2487 017c 98 6D                   		mov.W	2[r6], r5
 2488 017e FC 47 55                		itof	r5, r5
 2489                             		.loc 1 675 16
 2490 0181 FD 72 45 E0 2E 65 42    		fdiv	#0x42652ee0, r5
 2491 0188 EF 51                   		mov.L	r5, r1
 2492 018a 05 00 00 00             		bsr	_sinf
 2493 018e EF 14                   		mov.L	r1, r4
 2494                             		.loc 1 675 58
 2495 0190 DD A5 12                		mov.W	36[r10], r5
 2496 0193 FC 47 55                		itof	r5, r5
 2497                             		.loc 1 675 14
 2498 0196 FC 8F 45                		fmul	r4, r5
 2499 0199 E7 A5 02                		mov.L	r5, 8[r10]
 676:C:/Users/John/Desktop/workspace/miniwinwm/MiniWin/gl\gl.c **** 		triangle_corners_x[1] = x + (int16_t)temp_float;
 2500                             		.loc 1 676 31
 2501 019c ED A5 02                		mov.L	8[r10], r5
 2502 019f FC 97 55                		ftoi	r5, r5
 2503 01a2 DF 54                   		mov.W	r5, r4
 2504                             		.loc 1 676 29
 2505 01a4 DD A5 10                		mov.W	32[r10], r5
 2506 01a7 4B 45                   		add	r4, r5
 2507                             		.loc 1 676 25
 2508 01a9 D7 A5 09                		mov.W	r5, 18[r10]
 677:C:/Users/John/Desktop/workspace/miniwinwm/MiniWin/gl\gl.c **** 		temp_float = cosf((float)end_angle / DEGREES_IN_RAD) * (float)radius;
 2509                             		.loc 1 677 21
 2510 01ac 98 6D                   		mov.W	2[r6], r5
 2511 01ae FC 47 55                		itof	r5, r5
 2512                             		.loc 1 677 16
 2513 01b1 FD 72 45 E0 2E 65 42    		fdiv	#0x42652ee0, r5
 2514 01b8 EF 51                   		mov.L	r5, r1
 2515 01ba 05 00 00 00             		bsr	_cosf
 2516 01be EF 14                   		mov.L	r1, r4
 2517                             		.loc 1 677 58
 2518 01c0 DD A5 12                		mov.W	36[r10], r5
 2519 01c3 FC 47 55                		itof	r5, r5
 2520                             		.loc 1 677 14
 2521 01c6 FC 8F 45                		fmul	r4, r5
 2522 01c9 E7 A5 02                		mov.L	r5, 8[r10]
 678:C:/Users/John/Desktop/workspace/miniwinwm/MiniWin/gl\gl.c **** 		triangle_corners_y[1] = y - (int16_t)temp_float;
 2523                             		.loc 1 678 29
 2524 01cc DD A4 11                		mov.W	34[r10], r4
 2525                             		.loc 1 678 31
 2526 01cf ED A5 02                		mov.L	8[r10], r5
 2527 01d2 FC 97 55                		ftoi	r5, r5
 2528                             		.loc 1 678 29
 2529 01d5 FF 05 54                		sub	r5, r4, r5
 2530 01d8 DF 54                   		mov.W	r5, r4
 2531                             		.loc 1 678 25
 2532 01da 71 A5 16                		add	#22, r10, r5
 2533 01dd 90 5C                   		mov.W	r4, 2[r5]
 679:C:/Users/John/Desktop/workspace/miniwinwm/MiniWin/gl\gl.c **** 		temp_float = sinf((float)i / DEGREES_IN_RAD) * (float)radius;
 2534                             		.loc 1 679 21
 2535 01df DD A5 02                		mov.W	4[r10], r5
 2536 01e2 FC 47 55                		itof	r5, r5
 2537                             		.loc 1 679 16
 2538 01e5 FD 72 45 E0 2E 65 42    		fdiv	#0x42652ee0, r5
 2539 01ec EF 51                   		mov.L	r5, r1
 2540 01ee 05 00 00 00             		bsr	_sinf
 2541 01f2 EF 14                   		mov.L	r1, r4
 2542                             		.loc 1 679 50
 2543 01f4 DD A5 12                		mov.W	36[r10], r5
 2544 01f7 FC 47 55                		itof	r5, r5
 2545                             		.loc 1 679 14
 2546 01fa FC 8F 45                		fmul	r4, r5
 2547 01fd E7 A5 02                		mov.L	r5, 8[r10]
 680:C:/Users/John/Desktop/workspace/miniwinwm/MiniWin/gl\gl.c **** 		triangle_corners_x[2] = x + (int16_t)temp_float;
 2548                             		.loc 1 680 31
 2549 0200 ED A5 02                		mov.L	8[r10], r5
 2550 0203 FC 97 55                		ftoi	r5, r5
 2551 0206 DF 54                   		mov.W	r5, r4
 2552                             		.loc 1 680 29
 2553 0208 DD A5 10                		mov.W	32[r10], r5
 2554 020b 4B 45                   		add	r4, r5
 2555                             		.loc 1 680 25
 2556 020d D7 A5 0A                		mov.W	r5, 20[r10]
 681:C:/Users/John/Desktop/workspace/miniwinwm/MiniWin/gl\gl.c **** 		temp_float = cosf((float)i / DEGREES_IN_RAD) * (float)radius;
 2557                             		.loc 1 681 21
 2558 0210 DD A5 02                		mov.W	4[r10], r5
 2559 0213 FC 47 55                		itof	r5, r5
 2560                             		.loc 1 681 16
 2561 0216 FD 72 45 E0 2E 65 42    		fdiv	#0x42652ee0, r5
 2562 021d EF 51                   		mov.L	r5, r1
 2563 021f 05 00 00 00             		bsr	_cosf
 2564 0223 EF 14                   		mov.L	r1, r4
 2565                             		.loc 1 681 50
 2566 0225 DD A5 12                		mov.W	36[r10], r5
 2567 0228 FC 47 55                		itof	r5, r5
 2568                             		.loc 1 681 14
 2569 022b FC 8F 45                		fmul	r4, r5
 2570 022e E7 A5 02                		mov.L	r5, 8[r10]
 682:C:/Users/John/Desktop/workspace/miniwinwm/MiniWin/gl\gl.c **** 		triangle_corners_y[2] = y - (int16_t)temp_float;
 2571                             		.loc 1 682 29
 2572 0231 DD A4 11                		mov.W	34[r10], r4
 2573                             		.loc 1 682 31
 2574 0234 ED A5 02                		mov.L	8[r10], r5
 2575 0237 FC 97 55                		ftoi	r5, r5
 2576                             		.loc 1 682 29
 2577 023a FF 05 54                		sub	r5, r4, r5
 2578 023d DF 54                   		mov.W	r5, r4
 2579                             		.loc 1 682 25
 2580 023f 71 A5 16                		add	#22, r10, r5
 2581 0242 90 D4                   		mov.W	r4, 4[r5]
 683:C:/Users/John/Desktop/workspace/miniwinwm/MiniWin/gl\gl.c **** 
 684:C:/Users/John/Desktop/workspace/miniwinwm/MiniWin/gl\gl.c **** 		filled_poly(draw_info, 3, triangle_corners_x, triangle_corners_y, 0, 0);
 2582                             		.loc 1 684 3
 2583 0244 71 A4 16                		add	#22, r10, r4
 2584 0247 71 A5 10                		add	#16, r10, r5
 2585 024a 3D 01 00                		mov.W	#0, 2[r0]
 2586 024d F8 05 00                		mov.W	#0, [r0]
 2587 0250 EF 53                   		mov.L	r5, r3
 2588 0252 66 32                   		mov	#3, r2
 2589 0254 ED A1 07                		mov.L	28[r10], r1
 2590 0257 05 00 00 00             		bsr	_filled_poly
 2591                             	.L112:
 685:C:/Users/John/Desktop/workspace/miniwinwm/MiniWin/gl\gl.c **** 	}
 686:C:/Users/John/Desktop/workspace/miniwinwm/MiniWin/gl\gl.c **** }
 2592                             		.loc 1 686 1
 2593 025b 03                      		nop
 2594 025c 71 00 34                		add	#52, r0
 2595 025f 7E B6                   		pop	r6
 2596 0261 7E BA                   		pop	r10
 2597 0263 02                      		rts
 2598                             	.LFE7:
 2600                             		.section	.text.draw_character_0_degrees,"ax",@progbits
 2602                             	_draw_character_0_degrees:
 2603                             	.LFB8:
 687:C:/Users/John/Desktop/workspace/miniwinwm/MiniWin/gl\gl.c **** 
 688:C:/Users/John/Desktop/workspace/miniwinwm/MiniWin/gl\gl.c **** /**
 689:C:/Users/John/Desktop/workspace/miniwinwm/MiniWin/gl\gl.c ****  * Draw a single fixed width character at 0 degrees rotation.
 690:C:/Users/John/Desktop/workspace/miniwinwm/MiniWin/gl\gl.c ****  * Foreground colour, background colour, font and transparency controlled by gc.
 691:C:/Users/John/Desktop/workspace/miniwinwm/MiniWin/gl\gl.c ****  *
 692:C:/Users/John/Desktop/workspace/miniwinwm/MiniWin/gl\gl.c ****  * @param draw_info Reference frame origin coordinates and clip region rect
 693:C:/Users/John/Desktop/workspace/miniwinwm/MiniWin/gl\gl.c ****  * @param x Coordinate of the left edge of the rectangle containing the character
 694:C:/Users/John/Desktop/workspace/miniwinwm/MiniWin/gl\gl.c ****  * @param y Coordinate of the top edge of the rectangle containing the character
 695:C:/Users/John/Desktop/workspace/miniwinwm/MiniWin/gl\gl.c ****  * @param c The character
 696:C:/Users/John/Desktop/workspace/miniwinwm/MiniWin/gl\gl.c ****  */
 697:C:/Users/John/Desktop/workspace/miniwinwm/MiniWin/gl\gl.c **** static void draw_character_0_degrees(const mw_gl_draw_info_t *draw_info, int16_t x, int16_t y, char
 698:C:/Users/John/Desktop/workspace/miniwinwm/MiniWin/gl\gl.c **** {
 2604                             		.loc 1 698 1
 2605 0000 7E AA                   		push.l	r10
 2606                             	.LCFI25:
 2607 0002 71 0A DC                		add	#-36, r0, r10
 2608                             	.LCFI26:
 2609 0005 71 A0 F8                		add	#-8, r10, r0
 2610                             	.LCFI27:
 2611 0008 E7 A1 06                		mov.L	r1, 24[r10]
 2612 000b D7 A2 0E                		mov.W	r2, 28[r10]
 2613 000e D7 A3 0F                		mov.W	r3, 30[r10]
 2614 0011 C7 A4 20                		mov.B	r4, 32[r10]
 699:C:/Users/John/Desktop/workspace/miniwinwm/MiniWin/gl\gl.c **** 	int16_t char_x;
 700:C:/Users/John/Desktop/workspace/miniwinwm/MiniWin/gl\gl.c **** 	int16_t char_y;
 701:C:/Users/John/Desktop/workspace/miniwinwm/MiniWin/gl\gl.c **** 	uint32_t mask;
 702:C:/Users/John/Desktop/workspace/miniwinwm/MiniWin/gl\gl.c **** 	uint32_t word;
 703:C:/Users/John/Desktop/workspace/miniwinwm/MiniWin/gl\gl.c **** 	int16_t character_byte_width;
 704:C:/Users/John/Desktop/workspace/miniwinwm/MiniWin/gl\gl.c **** 	int16_t byte_pos;
 705:C:/Users/John/Desktop/workspace/miniwinwm/MiniWin/gl\gl.c **** 	int16_t byte;
 706:C:/Users/John/Desktop/workspace/miniwinwm/MiniWin/gl\gl.c **** 	int16_t font_width = mw_gl_get_font_width();
 2615                             		.loc 1 706 23
 2616 0014 05 00 00 00             		bsr	_mw_gl_get_font_width
 2617 0018 EF 15                   		mov.L	r1, r5
 2618 001a D7 A5 09                		mov.W	r5, 18[r10]
 707:C:/Users/John/Desktop/workspace/miniwinwm/MiniWin/gl\gl.c **** 	int16_t font_height = mw_gl_get_font_height();
 2619                             		.loc 1 707 24
 2620 001d 05 00 00 00             		bsr	_mw_gl_get_font_height
 2621 0021 EF 15                   		mov.L	r1, r5
 2622 0023 D7 A5 0A                		mov.W	r5, 20[r10]
 708:C:/Users/John/Desktop/workspace/miniwinwm/MiniWin/gl\gl.c **** 	int16_t i;
 709:C:/Users/John/Desktop/workspace/miniwinwm/MiniWin/gl\gl.c **** 
 710:C:/Users/John/Desktop/workspace/miniwinwm/MiniWin/gl\gl.c **** 	if (x >= draw_info->clip_rect.x + draw_info->clip_rect.width ||
 2623                             		.loc 1 710 8
 2624 0026 DD A4 0E                		mov.W	28[r10], r4
 2625                             		.loc 1 710 31
 2626 0029 ED A5 06                		mov.L	24[r10], r5
 2627 002c 98 D5                   		mov.W	4[r5], r5
 2628 002e DF 53                   		mov.W	r5, r3
 2629                             		.loc 1 710 56
 2630 0030 ED A5 06                		mov.L	24[r10], r5
 2631 0033 99 55                   		mov.W	8[r5], r5
 2632 0035 DF 55                   		mov.W	r5, r5
 2633                             		.loc 1 710 34
 2634 0037 4B 35                   		add	r3, r5
 2635                             		.loc 1 710 5
 2636 0039 47 54                   		cmp	r5, r4
 2637 003b 29 05 38 99 01          		bge	.L129
 711:C:/Users/John/Desktop/workspace/miniwinwm/MiniWin/gl\gl.c **** 			y >= draw_info->clip_rect.y + draw_info->clip_rect.height ||
 2638                             		.loc 1 711 6 discriminator 1
 2639 0040 DD A4 0F                		mov.W	30[r10], r4
 2640                             		.loc 1 711 29 discriminator 1
 2641 0043 ED A5 06                		mov.L	24[r10], r5
 2642 0046 98 DD                   		mov.W	6[r5], r5
 2643 0048 DF 53                   		mov.W	r5, r3
 2644                             		.loc 1 711 54 discriminator 1
 2645 004a ED A5 06                		mov.L	24[r10], r5
 2646 004d 99 5D                   		mov.W	10[r5], r5
 2647 004f DF 55                   		mov.W	r5, r5
 2648                             		.loc 1 711 32 discriminator 1
 2649 0051 4B 35                   		add	r3, r5
 710:C:/Users/John/Desktop/workspace/miniwinwm/MiniWin/gl\gl.c **** 			y >= draw_info->clip_rect.y + draw_info->clip_rect.height ||
 2650                             		.loc 1 710 63 discriminator 1
 2651 0053 47 54                   		cmp	r5, r4
 2652 0055 29 05 38 7F 01          		bge	.L129
 712:C:/Users/John/Desktop/workspace/miniwinwm/MiniWin/gl\gl.c **** 			x + font_width + 1 <= draw_info->clip_rect.x ||
 2653                             		.loc 1 712 6
 2654 005a DD A4 0E                		mov.W	28[r10], r4
 2655 005d DD A5 09                		mov.W	18[r10], r5
 2656 0060 4B 54                   		add	r5, r4
 2657                             		.loc 1 712 46
 2658 0062 ED A5 06                		mov.L	24[r10], r5
 2659 0065 98 D5                   		mov.W	4[r5], r5
 2660 0067 DF 55                   		mov.W	r5, r5
 711:C:/Users/John/Desktop/workspace/miniwinwm/MiniWin/gl\gl.c **** 			y >= draw_info->clip_rect.y + draw_info->clip_rect.height ||
 2661                             		.loc 1 711 62
 2662 0069 47 54                   		cmp	r5, r4
 2663 006b 28 05 38 69 01          		blt	.L129
 713:C:/Users/John/Desktop/workspace/miniwinwm/MiniWin/gl\gl.c **** 			y + font_height + 1 <= draw_info->clip_rect.y)
 2664                             		.loc 1 713 6
 2665 0070 DD A4 0F                		mov.W	30[r10], r4
 2666 0073 DD A5 0A                		mov.W	20[r10], r5
 2667 0076 4B 54                   		add	r5, r4
 2668                             		.loc 1 713 47
 2669 0078 ED A5 06                		mov.L	24[r10], r5
 2670 007b 98 DD                   		mov.W	6[r5], r5
 2671 007d DF 55                   		mov.W	r5, r5
 712:C:/Users/John/Desktop/workspace/miniwinwm/MiniWin/gl\gl.c **** 			x + font_width + 1 <= draw_info->clip_rect.x ||
 2672                             		.loc 1 712 49
 2673 007f 47 54                   		cmp	r5, r4
 2674 0081 28 05 38 53 01          		blt	.L129
 714:C:/Users/John/Desktop/workspace/miniwinwm/MiniWin/gl\gl.c **** 	{
 715:C:/Users/John/Desktop/workspace/miniwinwm/MiniWin/gl\gl.c **** 		return;
 716:C:/Users/John/Desktop/workspace/miniwinwm/MiniWin/gl\gl.c **** 	}
 717:C:/Users/John/Desktop/workspace/miniwinwm/MiniWin/gl\gl.c **** 
 718:C:/Users/John/Desktop/workspace/miniwinwm/MiniWin/gl\gl.c **** 	if (gc.bg_transparent == MW_GL_BG_NOT_TRANSPARENT)
 2675                             		.loc 1 718 8
 2676 0086 FB 52 00 00 00 00       		mov.L	#_gc, r5
 2677 008c AB DD                   		mov.L	60[r5], r5
 2678                             		.loc 1 718 5
 2679 008e 61 15                   		cmp	#1, r5
 2680 0090 21 29                   		bne	.L117
 719:C:/Users/John/Desktop/workspace/miniwinwm/MiniWin/gl\gl.c **** 	{
 720:C:/Users/John/Desktop/workspace/miniwinwm/MiniWin/gl\gl.c **** 		filled_rectangle(draw_info,
 721:C:/Users/John/Desktop/workspace/miniwinwm/MiniWin/gl\gl.c **** 				x,
 722:C:/Users/John/Desktop/workspace/miniwinwm/MiniWin/gl\gl.c **** 				y,
 723:C:/Users/John/Desktop/workspace/miniwinwm/MiniWin/gl\gl.c **** 				font_width + 1,
 2681                             		.loc 1 723 16
 2682 0092 DD A5 09                		mov.W	18[r10], r5
 2683 0095 62 15                   		add	#1, r5
 720:C:/Users/John/Desktop/workspace/miniwinwm/MiniWin/gl\gl.c **** 				x,
 2684                             		.loc 1 720 3
 2685 0097 DF 54                   		mov.W	r5, r4
 724:C:/Users/John/Desktop/workspace/miniwinwm/MiniWin/gl\gl.c **** 				font_height + 1,
 2686                             		.loc 1 724 17
 2687 0099 DD A5 0A                		mov.W	20[r10], r5
 2688 009c 62 15                   		add	#1, r5
 720:C:/Users/John/Desktop/workspace/miniwinwm/MiniWin/gl\gl.c **** 				x,
 2689                             		.loc 1 720 3
 2690 009e DF 53                   		mov.W	r5, r3
 2691 00a0 FB 52 00 00 00 00       		mov.L	#_gc, r5
 2692 00a6 A8 5D                   		mov.L	4[r5], r5
 2693 00a8 A0 0D                   		mov.L	r5, 4[r0]
 2694 00aa D3 03                   		mov.W	r3, [r0]
 2695 00ac DD A3 0F                		mov.W	30[r10], r3
 2696 00af DD A2 0E                		mov.W	28[r10], r2
 2697 00b2 ED A1 06                		mov.L	24[r10], r1
 2698 00b5 05 00 00 00             		bsr	_filled_rectangle
 2699                             	.L117:
 725:C:/Users/John/Desktop/workspace/miniwinwm/MiniWin/gl\gl.c **** 				gc.bg_colour);
 726:C:/Users/John/Desktop/workspace/miniwinwm/MiniWin/gl\gl.c **** 	}
 727:C:/Users/John/Desktop/workspace/miniwinwm/MiniWin/gl\gl.c **** 
 728:C:/Users/John/Desktop/workspace/miniwinwm/MiniWin/gl\gl.c **** 	character_byte_width = font_width / 8 + (int16_t)(font_width % 8 > 0 ? 1 : 0);
 2700                             		.loc 1 728 40
 2701 00b9 DD A5 09                		mov.W	18[r10], r5
 2702 00bc 61 05                   		cmp	#0, r5
 2703 00be 28 04                   		bge	.L118
 2704 00c0 62 75                   		add	#7, r5
 2705                             	.L118:
 2706 00c2 6A 35                   		shar	#3, r5
 2707 00c4 DF 54                   		mov.W	r5, r4
 2708                             		.loc 1 728 42
 2709 00c6 DD A5 09                		mov.W	18[r10], r5
 2710 00c9 74 25 07 00 00 80       		and	#-2147483641, r5
 2711 00cf 61 05                   		cmp	#0, r5
 2712 00d1 28 09                   		bge	.L119
 2713 00d3 60 15                   		sub	#1, r5
 2714 00d5 75 35 F8                		or	#-8, r5
 2715 00d8 62 15                   		add	#1, r5
 2716                             	.L119:
 2717 00da DF 55                   		mov.W	r5, r5
 2718 00dc 61 05                   		cmp	#0, r5
 2719 00de FC DB 5A                		scgt.L	r5
 2720 00e1 5B 55                   		movu.B	r5, r5
 2721                             		.loc 1 728 40
 2722 00e3 4B 45                   		add	r4, r5
 2723                             		.loc 1 728 23
 2724 00e5 D7 A5 0B                		mov.W	r5, 22[r10]
 729:C:/Users/John/Desktop/workspace/miniwinwm/MiniWin/gl\gl.c **** 	byte_pos = ((int16_t)c - (int16_t)' ') * font_height * character_byte_width;
 2725                             		.loc 1 729 14
 2726 00e8 59 A5 20                		movu.B	32[r10], r5
 2727                             		.loc 1 729 25
 2728 00eb 71 55 E0                		add	#-32, r5
 2729                             		.loc 1 729 11
 2730 00ee DF 54                   		mov.W	r5, r4
 2731 00f0 DD A5 0A                		mov.W	20[r10], r5
 2732 00f3 4F 45                   		mul	r4, r5
 2733 00f5 DF 54                   		mov.W	r5, r4
 2734 00f7 DD A5 0B                		mov.W	22[r10], r5
 2735 00fa 4F 45                   		mul	r4, r5
 2736 00fc D7 A5 06                		mov.W	r5, 12[r10]
 730:C:/Users/John/Desktop/workspace/miniwinwm/MiniWin/gl\gl.c **** 
 731:C:/Users/John/Desktop/workspace/miniwinwm/MiniWin/gl\gl.c **** 	for (char_y = 0; char_y < mw_gl_get_font_height(); char_y++)
 2737                             		.loc 1 731 14
 2738 00ff F9 A5 01 00             		mov.W	#0, 2[r10]
 2739                             		.loc 1 731 2
 2740 0103 38 BF 00                		bra	.L120
 2741                             	.L128:
 732:C:/Users/John/Desktop/workspace/miniwinwm/MiniWin/gl\gl.c **** 	{
 733:C:/Users/John/Desktop/workspace/miniwinwm/MiniWin/gl\gl.c **** 		word = 0U;
 2742                             		.loc 1 733 8
 2743 0106 F9 A6 02 00             		mov.L	#0, 8[r10]
 734:C:/Users/John/Desktop/workspace/miniwinwm/MiniWin/gl\gl.c **** 		for (byte = 0; byte < character_byte_width; byte++)
 2744                             		.loc 1 734 13
 2745 010a F9 A5 07 00             		mov.W	#0, 14[r10]
 2746                             		.loc 1 734 3
 2747 010e 2E 31                   		bra	.L121
 2748                             	.L122:
 735:C:/Users/John/Desktop/workspace/miniwinwm/MiniWin/gl\gl.c **** 		{
 736:C:/Users/John/Desktop/workspace/miniwinwm/MiniWin/gl\gl.c **** 			word <<= 8U;
 2749                             		.loc 1 736 9 discriminator 3
 2750 0110 ED A5 02                		mov.L	8[r10], r5
 2751 0113 6C 85                   		shll	#8, r5
 2752 0115 E7 A5 02                		mov.L	r5, 8[r10]
 737:C:/Users/John/Desktop/workspace/miniwinwm/MiniWin/gl\gl.c **** 			word |= (uint32_t)get_font_data()[byte_pos];
 2753                             		.loc 1 737 22 discriminator 3
 2754 0118 05 00 00 00             		bsr	_get_font_data
 2755 011c EF 14                   		mov.L	r1, r4
 2756                             		.loc 1 737 37 discriminator 3
 2757 011e DD A5 06                		mov.W	12[r10], r5
 2758 0121 4B 45                   		add	r4, r5
 2759 0123 CC 55                   		mov.B	[r5], r5
 2760                             		.loc 1 737 12 discriminator 3
 2761 0125 5B 55                   		movu.B	r5, r5
 2762                             		.loc 1 737 9 discriminator 3
 2763 0127 ED A4 02                		mov.L	8[r10], r4
 2764 012a 57 45                   		or	r4, r5
 2765 012c E7 A5 02                		mov.L	r5, 8[r10]
 738:C:/Users/John/Desktop/workspace/miniwinwm/MiniWin/gl\gl.c **** 			byte_pos++;
 2766                             		.loc 1 738 12 discriminator 3
 2767 012f DD A5 06                		mov.W	12[r10], r5
 2768 0132 62 15                   		add	#1, r5
 2769 0134 D7 A5 06                		mov.W	r5, 12[r10]
 734:C:/Users/John/Desktop/workspace/miniwinwm/MiniWin/gl\gl.c **** 		{
 2770                             		.loc 1 734 51 discriminator 3
 2771 0137 DD A5 07                		mov.W	14[r10], r5
 2772 013a 62 15                   		add	#1, r5
 2773 013c D7 A5 07                		mov.W	r5, 14[r10]
 2774                             	.L121:
 734:C:/Users/John/Desktop/workspace/miniwinwm/MiniWin/gl\gl.c **** 		{
 2775                             		.loc 1 734 3 discriminator 1
 2776 013f DD A4 07                		mov.W	14[r10], r4
 2777 0142 DD A5 0B                		mov.W	22[r10], r5
 2778 0145 47 54                   		cmp	r5, r4
 2779 0147 29 C9                   		blt	.L122
 739:C:/Users/John/Desktop/workspace/miniwinwm/MiniWin/gl\gl.c **** 		}
 740:C:/Users/John/Desktop/workspace/miniwinwm/MiniWin/gl\gl.c **** 
 741:C:/Users/John/Desktop/workspace/miniwinwm/MiniWin/gl\gl.c **** 		for (i = 0; i < 4 - character_byte_width; i++)
 2780                             		.loc 1 741 10
 2781 0149 F9 A5 08 00             		mov.W	#0, 16[r10]
 2782                             		.loc 1 741 3
 2783 014d 2E 12                   		bra	.L123
 2784                             	.L124:
 742:C:/Users/John/Desktop/workspace/miniwinwm/MiniWin/gl\gl.c **** 		{
 743:C:/Users/John/Desktop/workspace/miniwinwm/MiniWin/gl\gl.c **** 			word <<= 8;
 2785                             		.loc 1 743 9 discriminator 3
 2786 014f ED A5 02                		mov.L	8[r10], r5
 2787 0152 6C 85                   		shll	#8, r5
 2788 0154 E7 A5 02                		mov.L	r5, 8[r10]
 741:C:/Users/John/Desktop/workspace/miniwinwm/MiniWin/gl\gl.c **** 		{
 2789                             		.loc 1 741 46 discriminator 3
 2790 0157 DD A5 08                		mov.W	16[r10], r5
 2791 015a 62 15                   		add	#1, r5
 2792 015c D7 A5 08                		mov.W	r5, 16[r10]
 2793                             	.L123:
 741:C:/Users/John/Desktop/workspace/miniwinwm/MiniWin/gl\gl.c **** 		{
 2794                             		.loc 1 741 17 discriminator 1
 2795 015f DD A4 08                		mov.W	16[r10], r4
 741:C:/Users/John/Desktop/workspace/miniwinwm/MiniWin/gl\gl.c **** 		{
 2796                             		.loc 1 741 21 discriminator 1
 2797 0162 DD A5 0B                		mov.W	22[r10], r5
 2798 0165 66 43                   		mov.L	#4, r3
 2799 0167 FF 05 53                		sub	r5, r3, r5
 741:C:/Users/John/Desktop/workspace/miniwinwm/MiniWin/gl\gl.c **** 		{
 2800                             		.loc 1 741 3 discriminator 1
 2801 016a 47 54                   		cmp	r5, r4
 2802 016c 29 E3                   		blt	.L124
 744:C:/Users/John/Desktop/workspace/miniwinwm/MiniWin/gl\gl.c **** 		}
 745:C:/Users/John/Desktop/workspace/miniwinwm/MiniWin/gl\gl.c **** 		mask = 0x80000000U;
 2803                             		.loc 1 745 8
 2804 016e F9 A2 01 00 00 00 80    		mov.L	#-2147483648, 4[r10]
 746:C:/Users/John/Desktop/workspace/miniwinwm/MiniWin/gl\gl.c **** 
 747:C:/Users/John/Desktop/workspace/miniwinwm/MiniWin/gl\gl.c **** 		for (char_x = 0; char_x < font_width; char_x++)
 2805                             		.loc 1 747 15
 2806 0175 F8 A5 00                		mov.W	#0, [r10]
 2807                             		.loc 1 747 3
 2808 0178 2E 39                   		bra	.L125
 2809                             	.L127:
 748:C:/Users/John/Desktop/workspace/miniwinwm/MiniWin/gl\gl.c **** 		{
 749:C:/Users/John/Desktop/workspace/miniwinwm/MiniWin/gl\gl.c **** 			if ((word & mask) == mask)
 2810                             		.loc 1 749 14
 2811 017a ED A4 02                		mov.L	8[r10], r4
 2812 017d ED A5 01                		mov.L	4[r10], r5
 2813 0180 53 45                   		and	r4, r5
 2814                             		.loc 1 749 7
 2815 0182 ED A4 01                		mov.L	4[r10], r4
 2816 0185 47 54                   		cmp	r5, r4
 2817 0187 21 1C                   		bne	.L126
 750:C:/Users/John/Desktop/workspace/miniwinwm/MiniWin/gl\gl.c **** 			{
 751:C:/Users/John/Desktop/workspace/miniwinwm/MiniWin/gl\gl.c **** 				mw_gl_fg_pixel(draw_info, x + char_x, y + char_y);
 2818                             		.loc 1 751 33
 2819 0189 DD A4 0E                		mov.W	28[r10], r4
 2820 018c DC A5                   		mov.W	[r10], r5
 2821 018e 4B 45                   		add	r4, r5
 2822                             		.loc 1 751 5
 2823 0190 DF 52                   		mov.W	r5, r2
 2824                             		.loc 1 751 45
 2825 0192 DD A4 0F                		mov.W	30[r10], r4
 2826 0195 DD A5 01                		mov.W	2[r10], r5
 2827 0198 4B 45                   		add	r4, r5
 2828                             		.loc 1 751 5
 2829 019a DF 53                   		mov.W	r5, r3
 2830 019c ED A1 06                		mov.L	24[r10], r1
 2831 019f 05 00 00 00             		bsr	_mw_gl_fg_pixel
 2832                             	.L126:
 752:C:/Users/John/Desktop/workspace/miniwinwm/MiniWin/gl\gl.c **** 			}
 753:C:/Users/John/Desktop/workspace/miniwinwm/MiniWin/gl\gl.c **** 
 754:C:/Users/John/Desktop/workspace/miniwinwm/MiniWin/gl\gl.c **** 			mask >>= 1U;
 2833                             		.loc 1 754 9 discriminator 2
 2834 01a3 ED A5 01                		mov.L	4[r10], r5
 2835 01a6 68 15                   		shlr	#1, r5
 2836 01a8 E7 A5 01                		mov.L	r5, 4[r10]
 747:C:/Users/John/Desktop/workspace/miniwinwm/MiniWin/gl\gl.c **** 		{
 2837                             		.loc 1 747 47 discriminator 2
 2838 01ab DC A5                   		mov.W	[r10], r5
 2839 01ad 62 15                   		add	#1, r5
 2840 01af D3 A5                   		mov.W	r5, [r10]
 2841                             	.L125:
 747:C:/Users/John/Desktop/workspace/miniwinwm/MiniWin/gl\gl.c **** 		{
 2842                             		.loc 1 747 3 discriminator 1
 2843 01b1 DC A4                   		mov.W	[r10], r4
 2844 01b3 DD A5 09                		mov.W	18[r10], r5
 2845 01b6 47 54                   		cmp	r5, r4
 2846 01b8 29 C2                   		blt	.L127
 731:C:/Users/John/Desktop/workspace/miniwinwm/MiniWin/gl\gl.c **** 	{
 2847                             		.loc 1 731 59 discriminator 2
 2848 01ba DD A5 01                		mov.W	2[r10], r5
 2849 01bd 62 15                   		add	#1, r5
 2850 01bf D7 A5 01                		mov.W	r5, 2[r10]
 2851                             	.L120:
 731:C:/Users/John/Desktop/workspace/miniwinwm/MiniWin/gl\gl.c **** 	{
 2852                             		.loc 1 731 28 discriminator 1
 2853 01c2 05 00 00 00             		bsr	_mw_gl_get_font_height
 2854 01c6 EF 15                   		mov.L	r1, r5
 731:C:/Users/John/Desktop/workspace/miniwinwm/MiniWin/gl\gl.c **** 	{
 2855                             		.loc 1 731 2 discriminator 1
 2856 01c8 DD A4 01                		mov.W	2[r10], r4
 2857 01cb DF 55                   		mov.W	r5, r5
 2858 01cd 47 54                   		cmp	r5, r4
 2859 01cf 28 05 38 35 FF          		blt	.L128
 2860 01d4 2E 03                   		bra	.L113
 2861                             	.L129:
 715:C:/Users/John/Desktop/workspace/miniwinwm/MiniWin/gl\gl.c **** 	}
 2862                             		.loc 1 715 3
 2863 01d6 03                      		nop
 2864                             	.L113:
 755:C:/Users/John/Desktop/workspace/miniwinwm/MiniWin/gl\gl.c **** 		}
 756:C:/Users/John/Desktop/workspace/miniwinwm/MiniWin/gl\gl.c **** 	}
 757:C:/Users/John/Desktop/workspace/miniwinwm/MiniWin/gl\gl.c **** }
 2865                             		.loc 1 757 1
 2866 01d7 3F AA 0C                		rtsd	#48, r10-r10
 2867                             	.LFE8:
 2869                             		.section	.text.draw_character_90_degrees,"ax",@progbits
 2871                             	_draw_character_90_degrees:
 2872                             	.LFB9:
 758:C:/Users/John/Desktop/workspace/miniwinwm/MiniWin/gl\gl.c **** 
 759:C:/Users/John/Desktop/workspace/miniwinwm/MiniWin/gl\gl.c **** /**
 760:C:/Users/John/Desktop/workspace/miniwinwm/MiniWin/gl\gl.c ****  * Draw a single fixed width character at 90 degrees rotation.
 761:C:/Users/John/Desktop/workspace/miniwinwm/MiniWin/gl\gl.c ****  * Foreground colour, background colour, font and transparency controlled by gc.
 762:C:/Users/John/Desktop/workspace/miniwinwm/MiniWin/gl\gl.c ****  *
 763:C:/Users/John/Desktop/workspace/miniwinwm/MiniWin/gl\gl.c ****  * @param draw_info Reference frame origin coordinates and clip region rect
 764:C:/Users/John/Desktop/workspace/miniwinwm/MiniWin/gl\gl.c ****  * @param x Coordinate of the left edge of the rectangle containing the character
 765:C:/Users/John/Desktop/workspace/miniwinwm/MiniWin/gl\gl.c ****  * @param y Coordinate of the top edge of the rectangle containing the character
 766:C:/Users/John/Desktop/workspace/miniwinwm/MiniWin/gl\gl.c ****  * @param c The character
 767:C:/Users/John/Desktop/workspace/miniwinwm/MiniWin/gl\gl.c ****  */
 768:C:/Users/John/Desktop/workspace/miniwinwm/MiniWin/gl\gl.c **** static void draw_character_90_degrees(const mw_gl_draw_info_t *draw_info, int16_t x, int16_t y, cha
 769:C:/Users/John/Desktop/workspace/miniwinwm/MiniWin/gl\gl.c **** {
 2873                             		.loc 1 769 1
 2874 0000 7E AA                   		push.l	r10
 2875                             	.LCFI28:
 2876 0002 71 0A DC                		add	#-36, r0, r10
 2877                             	.LCFI29:
 2878 0005 71 A0 F8                		add	#-8, r10, r0
 2879                             	.LCFI30:
 2880 0008 E7 A1 06                		mov.L	r1, 24[r10]
 2881 000b D7 A2 0E                		mov.W	r2, 28[r10]
 2882 000e D7 A3 0F                		mov.W	r3, 30[r10]
 2883 0011 C7 A4 20                		mov.B	r4, 32[r10]
 770:C:/Users/John/Desktop/workspace/miniwinwm/MiniWin/gl\gl.c **** 	int16_t char_x;
 771:C:/Users/John/Desktop/workspace/miniwinwm/MiniWin/gl\gl.c **** 	int16_t char_y;
 772:C:/Users/John/Desktop/workspace/miniwinwm/MiniWin/gl\gl.c **** 	uint32_t mask;
 773:C:/Users/John/Desktop/workspace/miniwinwm/MiniWin/gl\gl.c **** 	uint32_t word;
 774:C:/Users/John/Desktop/workspace/miniwinwm/MiniWin/gl\gl.c **** 	int16_t character_byte_width;
 775:C:/Users/John/Desktop/workspace/miniwinwm/MiniWin/gl\gl.c **** 	int16_t byte_pos;
 776:C:/Users/John/Desktop/workspace/miniwinwm/MiniWin/gl\gl.c **** 	int16_t byte;
 777:C:/Users/John/Desktop/workspace/miniwinwm/MiniWin/gl\gl.c **** 	int16_t font_width = mw_gl_get_font_width();
 2884                             		.loc 1 777 23
 2885 0014 05 00 00 00             		bsr	_mw_gl_get_font_width
 2886 0018 EF 15                   		mov.L	r1, r5
 2887 001a D7 A5 09                		mov.W	r5, 18[r10]
 778:C:/Users/John/Desktop/workspace/miniwinwm/MiniWin/gl\gl.c **** 	int16_t font_height = mw_gl_get_font_height();
 2888                             		.loc 1 778 24
 2889 001d 05 00 00 00             		bsr	_mw_gl_get_font_height
 2890 0021 EF 15                   		mov.L	r1, r5
 2891 0023 D7 A5 0A                		mov.W	r5, 20[r10]
 779:C:/Users/John/Desktop/workspace/miniwinwm/MiniWin/gl\gl.c **** 	int16_t i;
 780:C:/Users/John/Desktop/workspace/miniwinwm/MiniWin/gl\gl.c **** 
 781:C:/Users/John/Desktop/workspace/miniwinwm/MiniWin/gl\gl.c **** 	if (x - font_height >= draw_info->clip_rect.x + draw_info->clip_rect.width ||
 2892                             		.loc 1 781 8
 2893 0026 DD A4 0E                		mov.W	28[r10], r4
 2894 0029 DD A5 0A                		mov.W	20[r10], r5
 2895 002c 43 54                   		sub	r5, r4
 2896                             		.loc 1 781 45
 2897 002e ED A5 06                		mov.L	24[r10], r5
 2898 0031 98 D5                   		mov.W	4[r5], r5
 2899 0033 DF 53                   		mov.W	r5, r3
 2900                             		.loc 1 781 70
 2901 0035 ED A5 06                		mov.L	24[r10], r5
 2902 0038 99 55                   		mov.W	8[r5], r5
 2903 003a DF 55                   		mov.W	r5, r5
 2904                             		.loc 1 781 48
 2905 003c 4B 35                   		add	r3, r5
 2906                             		.loc 1 781 5
 2907 003e 47 54                   		cmp	r5, r4
 2908 0040 29 05 38 98 01          		bge	.L146
 782:C:/Users/John/Desktop/workspace/miniwinwm/MiniWin/gl\gl.c **** 			y >= draw_info->clip_rect.y + draw_info->clip_rect.height ||
 2909                             		.loc 1 782 6 discriminator 1
 2910 0045 DD A4 0F                		mov.W	30[r10], r4
 2911                             		.loc 1 782 29 discriminator 1
 2912 0048 ED A5 06                		mov.L	24[r10], r5
 2913 004b 98 DD                   		mov.W	6[r5], r5
 2914 004d DF 53                   		mov.W	r5, r3
 2915                             		.loc 1 782 54 discriminator 1
 2916 004f ED A5 06                		mov.L	24[r10], r5
 2917 0052 99 5D                   		mov.W	10[r5], r5
 2918 0054 DF 55                   		mov.W	r5, r5
 2919                             		.loc 1 782 32 discriminator 1
 2920 0056 4B 35                   		add	r3, r5
 781:C:/Users/John/Desktop/workspace/miniwinwm/MiniWin/gl\gl.c **** 			y >= draw_info->clip_rect.y + draw_info->clip_rect.height ||
 2921                             		.loc 1 781 77 discriminator 1
 2922 0058 47 54                   		cmp	r5, r4
 2923 005a 29 05 38 7E 01          		bge	.L146
 783:C:/Users/John/Desktop/workspace/miniwinwm/MiniWin/gl\gl.c **** 			x <= draw_info->clip_rect.x ||
 2924                             		.loc 1 783 29
 2925 005f ED A5 06                		mov.L	24[r10], r5
 2926 0062 98 D5                   		mov.W	4[r5], r5
 782:C:/Users/John/Desktop/workspace/miniwinwm/MiniWin/gl\gl.c **** 			y >= draw_info->clip_rect.y + draw_info->clip_rect.height ||
 2927                             		.loc 1 782 62
 2928 0064 DD A4 0E                		mov.W	28[r10], r4
 2929 0067 DF 55                   		mov.W	r5, r5
 2930 0069 47 54                   		cmp	r5, r4
 2931 006b 2A 05 38 6D 01          		ble	.L146
 784:C:/Users/John/Desktop/workspace/miniwinwm/MiniWin/gl\gl.c **** 			y + font_width <= draw_info->clip_rect.y)
 2932                             		.loc 1 784 6
 2933 0070 DD A4 0F                		mov.W	30[r10], r4
 2934 0073 DD A5 09                		mov.W	18[r10], r5
 2935 0076 4B 54                   		add	r5, r4
 2936                             		.loc 1 784 42
 2937 0078 ED A5 06                		mov.L	24[r10], r5
 2938 007b 98 DD                   		mov.W	6[r5], r5
 2939 007d DF 55                   		mov.W	r5, r5
 783:C:/Users/John/Desktop/workspace/miniwinwm/MiniWin/gl\gl.c **** 			x <= draw_info->clip_rect.x ||
 2940                             		.loc 1 783 32
 2941 007f 47 54                   		cmp	r5, r4
 2942 0081 2A 05 38 57 01          		ble	.L146
 785:C:/Users/John/Desktop/workspace/miniwinwm/MiniWin/gl\gl.c **** 	{
 786:C:/Users/John/Desktop/workspace/miniwinwm/MiniWin/gl\gl.c **** 		return;
 787:C:/Users/John/Desktop/workspace/miniwinwm/MiniWin/gl\gl.c **** 	}
 788:C:/Users/John/Desktop/workspace/miniwinwm/MiniWin/gl\gl.c **** 
 789:C:/Users/John/Desktop/workspace/miniwinwm/MiniWin/gl\gl.c **** 	if (gc.bg_transparent == MW_GL_BG_NOT_TRANSPARENT)
 2943                             		.loc 1 789 8
 2944 0086 FB 52 00 00 00 00       		mov.L	#_gc, r5
 2945 008c AB DD                   		mov.L	60[r5], r5
 2946                             		.loc 1 789 5
 2947 008e 61 15                   		cmp	#1, r5
 2948 0090 21 31                   		bne	.L134
 790:C:/Users/John/Desktop/workspace/miniwinwm/MiniWin/gl\gl.c **** 	{
 791:C:/Users/John/Desktop/workspace/miniwinwm/MiniWin/gl\gl.c **** 		filled_rectangle(draw_info,
 792:C:/Users/John/Desktop/workspace/miniwinwm/MiniWin/gl\gl.c **** 				x - font_height,
 2949                             		.loc 1 792 7
 2950 0092 DD A4 0E                		mov.W	28[r10], r4
 2951 0095 DD A5 0A                		mov.W	20[r10], r5
 2952 0098 FF 05 54                		sub	r5, r4, r5
 791:C:/Users/John/Desktop/workspace/miniwinwm/MiniWin/gl\gl.c **** 				x - font_height,
 2953                             		.loc 1 791 3
 2954 009b DF 52                   		mov.W	r5, r2
 793:C:/Users/John/Desktop/workspace/miniwinwm/MiniWin/gl\gl.c **** 				y,
 794:C:/Users/John/Desktop/workspace/miniwinwm/MiniWin/gl\gl.c **** 				font_height + 1,
 2955                             		.loc 1 794 17
 2956 009d DD A5 0A                		mov.W	20[r10], r5
 2957 00a0 62 15                   		add	#1, r5
 791:C:/Users/John/Desktop/workspace/miniwinwm/MiniWin/gl\gl.c **** 				x - font_height,
 2958                             		.loc 1 791 3
 2959 00a2 DF 54                   		mov.W	r5, r4
 795:C:/Users/John/Desktop/workspace/miniwinwm/MiniWin/gl\gl.c **** 				font_width + 1,
 2960                             		.loc 1 795 16
 2961 00a4 DD A5 09                		mov.W	18[r10], r5
 2962 00a7 62 15                   		add	#1, r5
 791:C:/Users/John/Desktop/workspace/miniwinwm/MiniWin/gl\gl.c **** 				x - font_height,
 2963                             		.loc 1 791 3
 2964 00a9 DF 53                   		mov.W	r5, r3
 2965 00ab FB 52 00 00 00 00       		mov.L	#_gc, r5
 2966 00b1 A8 5D                   		mov.L	4[r5], r5
 2967 00b3 A0 0D                   		mov.L	r5, 4[r0]
 2968 00b5 D3 03                   		mov.W	r3, [r0]
 2969 00b7 DD A3 0F                		mov.W	30[r10], r3
 2970 00ba ED A1 06                		mov.L	24[r10], r1
 2971 00bd 05 00 00 00             		bsr	_filled_rectangle
 2972                             	.L134:
 796:C:/Users/John/Desktop/workspace/miniwinwm/MiniWin/gl\gl.c **** 				gc.bg_colour);
 797:C:/Users/John/Desktop/workspace/miniwinwm/MiniWin/gl\gl.c **** 	}
 798:C:/Users/John/Desktop/workspace/miniwinwm/MiniWin/gl\gl.c **** 
 799:C:/Users/John/Desktop/workspace/miniwinwm/MiniWin/gl\gl.c **** 	character_byte_width = font_width / 8 + (int16_t)(font_width % 8 > 0 ? 1 : 0);
 2973                             		.loc 1 799 40
 2974 00c1 DD A5 09                		mov.W	18[r10], r5
 2975 00c4 61 05                   		cmp	#0, r5
 2976 00c6 28 04                   		bge	.L135
 2977 00c8 62 75                   		add	#7, r5
 2978                             	.L135:
 2979 00ca 6A 35                   		shar	#3, r5
 2980 00cc DF 54                   		mov.W	r5, r4
 2981                             		.loc 1 799 42
 2982 00ce DD A5 09                		mov.W	18[r10], r5
 2983 00d1 74 25 07 00 00 80       		and	#-2147483641, r5
 2984 00d7 61 05                   		cmp	#0, r5
 2985 00d9 28 09                   		bge	.L136
 2986 00db 60 15                   		sub	#1, r5
 2987 00dd 75 35 F8                		or	#-8, r5
 2988 00e0 62 15                   		add	#1, r5
 2989                             	.L136:
 2990 00e2 DF 55                   		mov.W	r5, r5
 2991 00e4 61 05                   		cmp	#0, r5
 2992 00e6 FC DB 5A                		scgt.L	r5
 2993 00e9 5B 55                   		movu.B	r5, r5
 2994                             		.loc 1 799 40
 2995 00eb 4B 45                   		add	r4, r5
 2996                             		.loc 1 799 23
 2997 00ed D7 A5 0B                		mov.W	r5, 22[r10]
 800:C:/Users/John/Desktop/workspace/miniwinwm/MiniWin/gl\gl.c **** 	byte_pos = ((int16_t)c - (int16_t)' ') * font_height * character_byte_width;
 2998                             		.loc 1 800 14
 2999 00f0 59 A5 20                		movu.B	32[r10], r5
 3000                             		.loc 1 800 25
 3001 00f3 71 55 E0                		add	#-32, r5
 3002                             		.loc 1 800 11
 3003 00f6 DF 54                   		mov.W	r5, r4
 3004 00f8 DD A5 0A                		mov.W	20[r10], r5
 3005 00fb 4F 45                   		mul	r4, r5
 3006 00fd DF 54                   		mov.W	r5, r4
 3007 00ff DD A5 0B                		mov.W	22[r10], r5
 3008 0102 4F 45                   		mul	r4, r5
 3009 0104 D7 A5 06                		mov.W	r5, 12[r10]
 801:C:/Users/John/Desktop/workspace/miniwinwm/MiniWin/gl\gl.c **** 
 802:C:/Users/John/Desktop/workspace/miniwinwm/MiniWin/gl\gl.c **** 	for (char_y = 0; char_y < font_height; char_y++)
 3010                             		.loc 1 802 14
 3011 0107 F9 A5 01 00             		mov.W	#0, 2[r10]
 3012                             		.loc 1 802 2
 3013 010b 38 C0 00                		bra	.L137
 3014                             	.L145:
 803:C:/Users/John/Desktop/workspace/miniwinwm/MiniWin/gl\gl.c **** 	{
 804:C:/Users/John/Desktop/workspace/miniwinwm/MiniWin/gl\gl.c **** 		word = 0U;
 3015                             		.loc 1 804 8
 3016 010e F9 A6 02 00             		mov.L	#0, 8[r10]
 805:C:/Users/John/Desktop/workspace/miniwinwm/MiniWin/gl\gl.c **** 		for (byte = 0; byte < character_byte_width; byte++)
 3017                             		.loc 1 805 13
 3018 0112 F9 A5 07 00             		mov.W	#0, 14[r10]
 3019                             		.loc 1 805 3
 3020 0116 2E 31                   		bra	.L138
 3021                             	.L139:
 806:C:/Users/John/Desktop/workspace/miniwinwm/MiniWin/gl\gl.c **** 		{
 807:C:/Users/John/Desktop/workspace/miniwinwm/MiniWin/gl\gl.c **** 			word <<= 8U;
 3022                             		.loc 1 807 9 discriminator 3
 3023 0118 ED A5 02                		mov.L	8[r10], r5
 3024 011b 6C 85                   		shll	#8, r5
 3025 011d E7 A5 02                		mov.L	r5, 8[r10]
 808:C:/Users/John/Desktop/workspace/miniwinwm/MiniWin/gl\gl.c **** 			word |= (uint32_t)get_font_data()[byte_pos];
 3026                             		.loc 1 808 22 discriminator 3
 3027 0120 05 00 00 00             		bsr	_get_font_data
 3028 0124 EF 14                   		mov.L	r1, r4
 3029                             		.loc 1 808 37 discriminator 3
 3030 0126 DD A5 06                		mov.W	12[r10], r5
 3031 0129 4B 45                   		add	r4, r5
 3032 012b CC 55                   		mov.B	[r5], r5
 3033                             		.loc 1 808 12 discriminator 3
 3034 012d 5B 55                   		movu.B	r5, r5
 3035                             		.loc 1 808 9 discriminator 3
 3036 012f ED A4 02                		mov.L	8[r10], r4
 3037 0132 57 45                   		or	r4, r5
 3038 0134 E7 A5 02                		mov.L	r5, 8[r10]
 809:C:/Users/John/Desktop/workspace/miniwinwm/MiniWin/gl\gl.c **** 			byte_pos++;
 3039                             		.loc 1 809 12 discriminator 3
 3040 0137 DD A5 06                		mov.W	12[r10], r5
 3041 013a 62 15                   		add	#1, r5
 3042 013c D7 A5 06                		mov.W	r5, 12[r10]
 805:C:/Users/John/Desktop/workspace/miniwinwm/MiniWin/gl\gl.c **** 		{
 3043                             		.loc 1 805 51 discriminator 3
 3044 013f DD A5 07                		mov.W	14[r10], r5
 3045 0142 62 15                   		add	#1, r5
 3046 0144 D7 A5 07                		mov.W	r5, 14[r10]
 3047                             	.L138:
 805:C:/Users/John/Desktop/workspace/miniwinwm/MiniWin/gl\gl.c **** 		{
 3048                             		.loc 1 805 3 discriminator 1
 3049 0147 DD A4 07                		mov.W	14[r10], r4
 3050 014a DD A5 0B                		mov.W	22[r10], r5
 3051 014d 47 54                   		cmp	r5, r4
 3052 014f 29 C9                   		blt	.L139
 810:C:/Users/John/Desktop/workspace/miniwinwm/MiniWin/gl\gl.c **** 		}
 811:C:/Users/John/Desktop/workspace/miniwinwm/MiniWin/gl\gl.c **** 
 812:C:/Users/John/Desktop/workspace/miniwinwm/MiniWin/gl\gl.c **** 		for (i = 0; i < 4 - character_byte_width; i++)
 3053                             		.loc 1 812 10
 3054 0151 F9 A5 08 00             		mov.W	#0, 16[r10]
 3055                             		.loc 1 812 3
 3056 0155 2E 12                   		bra	.L140
 3057                             	.L141:
 813:C:/Users/John/Desktop/workspace/miniwinwm/MiniWin/gl\gl.c **** 		{
 814:C:/Users/John/Desktop/workspace/miniwinwm/MiniWin/gl\gl.c **** 			word <<= 8;
 3058                             		.loc 1 814 9 discriminator 3
 3059 0157 ED A5 02                		mov.L	8[r10], r5
 3060 015a 6C 85                   		shll	#8, r5
 3061 015c E7 A5 02                		mov.L	r5, 8[r10]
 812:C:/Users/John/Desktop/workspace/miniwinwm/MiniWin/gl\gl.c **** 		{
 3062                             		.loc 1 812 46 discriminator 3
 3063 015f DD A5 08                		mov.W	16[r10], r5
 3064 0162 62 15                   		add	#1, r5
 3065 0164 D7 A5 08                		mov.W	r5, 16[r10]
 3066                             	.L140:
 812:C:/Users/John/Desktop/workspace/miniwinwm/MiniWin/gl\gl.c **** 		{
 3067                             		.loc 1 812 17 discriminator 1
 3068 0167 DD A4 08                		mov.W	16[r10], r4
 812:C:/Users/John/Desktop/workspace/miniwinwm/MiniWin/gl\gl.c **** 		{
 3069                             		.loc 1 812 21 discriminator 1
 3070 016a DD A5 0B                		mov.W	22[r10], r5
 3071 016d 66 43                   		mov.L	#4, r3
 3072 016f FF 05 53                		sub	r5, r3, r5
 812:C:/Users/John/Desktop/workspace/miniwinwm/MiniWin/gl\gl.c **** 		{
 3073                             		.loc 1 812 3 discriminator 1
 3074 0172 47 54                   		cmp	r5, r4
 3075 0174 29 E3                   		blt	.L141
 815:C:/Users/John/Desktop/workspace/miniwinwm/MiniWin/gl\gl.c **** 		}
 816:C:/Users/John/Desktop/workspace/miniwinwm/MiniWin/gl\gl.c **** 		mask = 0x80000000U;
 3076                             		.loc 1 816 8
 3077 0176 F9 A2 01 00 00 00 80    		mov.L	#-2147483648, 4[r10]
 817:C:/Users/John/Desktop/workspace/miniwinwm/MiniWin/gl\gl.c **** 
 818:C:/Users/John/Desktop/workspace/miniwinwm/MiniWin/gl\gl.c **** 		for (char_x = 0; char_x < font_width; char_x++)
 3078                             		.loc 1 818 15
 3079 017d F8 A5 00                		mov.W	#0, [r10]
 3080                             		.loc 1 818 3
 3081 0180 2E 3A                   		bra	.L142
 3082                             	.L144:
 819:C:/Users/John/Desktop/workspace/miniwinwm/MiniWin/gl\gl.c **** 		{
 820:C:/Users/John/Desktop/workspace/miniwinwm/MiniWin/gl\gl.c **** 			if ((word & mask) == mask)
 3083                             		.loc 1 820 14
 3084 0182 ED A4 02                		mov.L	8[r10], r4
 3085 0185 ED A5 01                		mov.L	4[r10], r5
 3086 0188 53 45                   		and	r4, r5
 3087                             		.loc 1 820 7
 3088 018a ED A4 01                		mov.L	4[r10], r4
 3089 018d 47 54                   		cmp	r5, r4
 3090 018f 21 1D                   		bne	.L143
 821:C:/Users/John/Desktop/workspace/miniwinwm/MiniWin/gl\gl.c **** 			{
 822:C:/Users/John/Desktop/workspace/miniwinwm/MiniWin/gl\gl.c **** 	   			mw_gl_fg_pixel(draw_info, x - char_y, y + char_x);
 3091                             		.loc 1 822 36
 3092 0191 DD A4 0E                		mov.W	28[r10], r4
 3093 0194 DD A5 01                		mov.W	2[r10], r5
 3094 0197 FF 05 54                		sub	r5, r4, r5
 3095                             		.loc 1 822 8
 3096 019a DF 52                   		mov.W	r5, r2
 3097                             		.loc 1 822 48
 3098 019c DD A4 0F                		mov.W	30[r10], r4
 3099 019f DC A5                   		mov.W	[r10], r5
 3100 01a1 4B 45                   		add	r4, r5
 3101                             		.loc 1 822 8
 3102 01a3 DF 53                   		mov.W	r5, r3
 3103 01a5 ED A1 06                		mov.L	24[r10], r1
 3104 01a8 05 00 00 00             		bsr	_mw_gl_fg_pixel
 3105                             	.L143:
 823:C:/Users/John/Desktop/workspace/miniwinwm/MiniWin/gl\gl.c **** 			}
 824:C:/Users/John/Desktop/workspace/miniwinwm/MiniWin/gl\gl.c **** 
 825:C:/Users/John/Desktop/workspace/miniwinwm/MiniWin/gl\gl.c **** 			mask >>= 1U;
 3106                             		.loc 1 825 9 discriminator 2
 3107 01ac ED A5 01                		mov.L	4[r10], r5
 3108 01af 68 15                   		shlr	#1, r5
 3109 01b1 E7 A5 01                		mov.L	r5, 4[r10]
 818:C:/Users/John/Desktop/workspace/miniwinwm/MiniWin/gl\gl.c **** 		{
 3110                             		.loc 1 818 47 discriminator 2
 3111 01b4 DC A5                   		mov.W	[r10], r5
 3112 01b6 62 15                   		add	#1, r5
 3113 01b8 D3 A5                   		mov.W	r5, [r10]
 3114                             	.L142:
 818:C:/Users/John/Desktop/workspace/miniwinwm/MiniWin/gl\gl.c **** 		{
 3115                             		.loc 1 818 3 discriminator 1
 3116 01ba DC A4                   		mov.W	[r10], r4
 3117 01bc DD A5 09                		mov.W	18[r10], r5
 3118 01bf 47 54                   		cmp	r5, r4
 3119 01c1 29 C1                   		blt	.L144
 802:C:/Users/John/Desktop/workspace/miniwinwm/MiniWin/gl\gl.c **** 	{
 3120                             		.loc 1 802 47 discriminator 2
 3121 01c3 DD A5 01                		mov.W	2[r10], r5
 3122 01c6 62 15                   		add	#1, r5
 3123 01c8 D7 A5 01                		mov.W	r5, 2[r10]
 3124                             	.L137:
 802:C:/Users/John/Desktop/workspace/miniwinwm/MiniWin/gl\gl.c **** 	{
 3125                             		.loc 1 802 2 discriminator 1
 3126 01cb DD A4 01                		mov.W	2[r10], r4
 3127 01ce DD A5 0A                		mov.W	20[r10], r5
 3128 01d1 47 54                   		cmp	r5, r4
 3129 01d3 28 05 38 39 FF          		blt	.L145
 3130 01d8 2E 03                   		bra	.L130
 3131                             	.L146:
 786:C:/Users/John/Desktop/workspace/miniwinwm/MiniWin/gl\gl.c **** 	}
 3132                             		.loc 1 786 3
 3133 01da 03                      		nop
 3134                             	.L130:
 826:C:/Users/John/Desktop/workspace/miniwinwm/MiniWin/gl\gl.c **** 		}
 827:C:/Users/John/Desktop/workspace/miniwinwm/MiniWin/gl\gl.c **** 	}
 828:C:/Users/John/Desktop/workspace/miniwinwm/MiniWin/gl\gl.c **** }
 3135                             		.loc 1 828 1
 3136 01db 3F AA 0C                		rtsd	#48, r10-r10
 3137                             	.LFE9:
 3139                             		.section	.text.draw_character_180_degrees,"ax",@progbits
 3141                             	_draw_character_180_degrees:
 3142                             	.LFB10:
 829:C:/Users/John/Desktop/workspace/miniwinwm/MiniWin/gl\gl.c **** 
 830:C:/Users/John/Desktop/workspace/miniwinwm/MiniWin/gl\gl.c **** /**
 831:C:/Users/John/Desktop/workspace/miniwinwm/MiniWin/gl\gl.c ****  * Draw a single fixed width character at 180 degrees rotation.
 832:C:/Users/John/Desktop/workspace/miniwinwm/MiniWin/gl\gl.c ****  * Foreground colour, background colour, font and transparency controlled by gc.
 833:C:/Users/John/Desktop/workspace/miniwinwm/MiniWin/gl\gl.c ****  *
 834:C:/Users/John/Desktop/workspace/miniwinwm/MiniWin/gl\gl.c ****  * @param draw_info Reference frame origin coordinates and clip region rect
 835:C:/Users/John/Desktop/workspace/miniwinwm/MiniWin/gl\gl.c ****  * @param x Coordinate of the left edge of the rectangle containing the character
 836:C:/Users/John/Desktop/workspace/miniwinwm/MiniWin/gl\gl.c ****  * @param y Coordinate of the top edge of the rectangle containing the character
 837:C:/Users/John/Desktop/workspace/miniwinwm/MiniWin/gl\gl.c ****  * @param c The character
 838:C:/Users/John/Desktop/workspace/miniwinwm/MiniWin/gl\gl.c ****  */
 839:C:/Users/John/Desktop/workspace/miniwinwm/MiniWin/gl\gl.c **** static void draw_character_180_degrees(const mw_gl_draw_info_t *draw_info, int16_t x, int16_t y, ch
 840:C:/Users/John/Desktop/workspace/miniwinwm/MiniWin/gl\gl.c **** {
 3143                             		.loc 1 840 1
 3144 0000 6E 6C                   		pushm	r6-r12
 3145                             	.LCFI31:
 3146 0002 71 0A DC                		add	#-36, r0, r10
 3147                             	.LCFI32:
 3148 0005 71 A0 F8                		add	#-8, r10, r0
 3149                             	.LCFI33:
 3150 0008 E7 A1 06                		mov.L	r1, 24[r10]
 3151 000b D7 A2 0E                		mov.W	r2, 28[r10]
 3152 000e D7 A3 0F                		mov.W	r3, 30[r10]
 3153 0011 C7 A4 20                		mov.B	r4, 32[r10]
 841:C:/Users/John/Desktop/workspace/miniwinwm/MiniWin/gl\gl.c **** 	int16_t char_x;
 842:C:/Users/John/Desktop/workspace/miniwinwm/MiniWin/gl\gl.c **** 	int16_t char_y;
 843:C:/Users/John/Desktop/workspace/miniwinwm/MiniWin/gl\gl.c **** 	uint32_t mask;
 844:C:/Users/John/Desktop/workspace/miniwinwm/MiniWin/gl\gl.c **** 	uint32_t word;
 845:C:/Users/John/Desktop/workspace/miniwinwm/MiniWin/gl\gl.c **** 	int16_t character_byte_width;
 846:C:/Users/John/Desktop/workspace/miniwinwm/MiniWin/gl\gl.c **** 	int16_t byte_pos;
 847:C:/Users/John/Desktop/workspace/miniwinwm/MiniWin/gl\gl.c **** 	int16_t byte;
 848:C:/Users/John/Desktop/workspace/miniwinwm/MiniWin/gl\gl.c **** 	int16_t font_width = mw_gl_get_font_width();
 3154                             		.loc 1 848 23
 3155 0014 05 00 00 00             		bsr	_mw_gl_get_font_width
 3156 0018 EF 15                   		mov.L	r1, r5
 3157 001a D7 A5 09                		mov.W	r5, 18[r10]
 849:C:/Users/John/Desktop/workspace/miniwinwm/MiniWin/gl\gl.c **** 	int16_t font_height = mw_gl_get_font_height();
 3158                             		.loc 1 849 24
 3159 001d 05 00 00 00             		bsr	_mw_gl_get_font_height
 3160 0021 EF 15                   		mov.L	r1, r5
 3161 0023 D7 A5 0A                		mov.W	r5, 20[r10]
 850:C:/Users/John/Desktop/workspace/miniwinwm/MiniWin/gl\gl.c **** 	int16_t i;
 851:C:/Users/John/Desktop/workspace/miniwinwm/MiniWin/gl\gl.c **** 
 852:C:/Users/John/Desktop/workspace/miniwinwm/MiniWin/gl\gl.c **** 	if (x <= draw_info->clip_rect.x ||
 3162                             		.loc 1 852 31
 3163 0026 ED A5 06                		mov.L	24[r10], r5
 3164 0029 98 D5                   		mov.W	4[r5], r5
 3165                             		.loc 1 852 5
 3166 002b DD A4 0E                		mov.W	28[r10], r4
 3167 002e DF 55                   		mov.W	r5, r5
 3168 0030 47 54                   		cmp	r5, r4
 3169 0032 2A 05 38 C0 01          		ble	.L163
 853:C:/Users/John/Desktop/workspace/miniwinwm/MiniWin/gl\gl.c **** 			y <= draw_info->clip_rect.y ||
 3170                             		.loc 1 853 29 discriminator 1
 3171 0037 ED A5 06                		mov.L	24[r10], r5
 3172 003a 98 DD                   		mov.W	6[r5], r5
 852:C:/Users/John/Desktop/workspace/miniwinwm/MiniWin/gl\gl.c **** 			y <= draw_info->clip_rect.y ||
 3173                             		.loc 1 852 34 discriminator 1
 3174 003c DD A4 0F                		mov.W	30[r10], r4
 3175 003f DF 55                   		mov.W	r5, r5
 3176 0041 47 54                   		cmp	r5, r4
 3177 0043 2A 05 38 AF 01          		ble	.L163
 854:C:/Users/John/Desktop/workspace/miniwinwm/MiniWin/gl\gl.c **** 			x - font_width + 1 >= draw_info->clip_rect.x + draw_info->clip_rect.width ||
 3178                             		.loc 1 854 6
 3179 0048 DD A4 0E                		mov.W	28[r10], r4
 3180 004b DD A5 09                		mov.W	18[r10], r5
 3181 004e FF 05 54                		sub	r5, r4, r5
 3182                             		.loc 1 854 19
 3183 0051 71 54 01                		add	#1, r5, r4
 3184                             		.loc 1 854 46
 3185 0054 ED A5 06                		mov.L	24[r10], r5
 3186 0057 98 D5                   		mov.W	4[r5], r5
 3187 0059 DF 53                   		mov.W	r5, r3
 3188                             		.loc 1 854 71
 3189 005b ED A5 06                		mov.L	24[r10], r5
 3190 005e 99 55                   		mov.W	8[r5], r5
 3191 0060 DF 55                   		mov.W	r5, r5
 3192                             		.loc 1 854 49
 3193 0062 4B 35                   		add	r3, r5
 853:C:/Users/John/Desktop/workspace/miniwinwm/MiniWin/gl\gl.c **** 			y <= draw_info->clip_rect.y ||
 3194                             		.loc 1 853 32
 3195 0064 47 54                   		cmp	r5, r4
 3196 0066 29 05 38 8C 01          		bge	.L163
 855:C:/Users/John/Desktop/workspace/miniwinwm/MiniWin/gl\gl.c **** 			y - font_height + 1 >= draw_info->clip_rect.y +  draw_info->clip_rect.height)
 3197                             		.loc 1 855 6
 3198 006b DD A4 0F                		mov.W	30[r10], r4
 3199 006e DD A5 0A                		mov.W	20[r10], r5
 3200 0071 FF 05 54                		sub	r5, r4, r5
 3201                             		.loc 1 855 20
 3202 0074 71 54 01                		add	#1, r5, r4
 3203                             		.loc 1 855 47
 3204 0077 ED A5 06                		mov.L	24[r10], r5
 3205 007a 98 DD                   		mov.W	6[r5], r5
 3206 007c DF 53                   		mov.W	r5, r3
 3207                             		.loc 1 855 73
 3208 007e ED A5 06                		mov.L	24[r10], r5
 3209 0081 99 5D                   		mov.W	10[r5], r5
 3210 0083 DF 55                   		mov.W	r5, r5
 3211                             		.loc 1 855 50
 3212 0085 4B 35                   		add	r3, r5
 854:C:/Users/John/Desktop/workspace/miniwinwm/MiniWin/gl\gl.c **** 			x - font_width + 1 >= draw_info->clip_rect.x + draw_info->clip_rect.width ||
 3213                             		.loc 1 854 78
 3214 0087 47 54                   		cmp	r5, r4
 3215 0089 29 05 38 69 01          		bge	.L163
 856:C:/Users/John/Desktop/workspace/miniwinwm/MiniWin/gl\gl.c **** 	{
 857:C:/Users/John/Desktop/workspace/miniwinwm/MiniWin/gl\gl.c **** 		return;
 858:C:/Users/John/Desktop/workspace/miniwinwm/MiniWin/gl\gl.c **** 	}
 859:C:/Users/John/Desktop/workspace/miniwinwm/MiniWin/gl\gl.c **** 
 860:C:/Users/John/Desktop/workspace/miniwinwm/MiniWin/gl\gl.c **** 	if (gc.bg_transparent == MW_GL_BG_NOT_TRANSPARENT)
 3216                             		.loc 1 860 8
 3217 008e FB 52 00 00 00 00       		mov.L	#_gc, r5
 3218 0094 AB DD                   		mov.L	60[r5], r5
 3219                             		.loc 1 860 5
 3220 0096 61 15                   		cmp	#1, r5
 3221 0098 21 42                   		bne	.L151
 861:C:/Users/John/Desktop/workspace/miniwinwm/MiniWin/gl\gl.c **** 	{
 862:C:/Users/John/Desktop/workspace/miniwinwm/MiniWin/gl\gl.c **** 		filled_rectangle(draw_info,
 863:C:/Users/John/Desktop/workspace/miniwinwm/MiniWin/gl\gl.c **** 				x - font_width,
 3222                             		.loc 1 863 7
 3223 009a DD A4 0E                		mov.W	28[r10], r4
 3224 009d DD A5 09                		mov.W	18[r10], r5
 3225 00a0 FF 05 54                		sub	r5, r4, r5
 862:C:/Users/John/Desktop/workspace/miniwinwm/MiniWin/gl\gl.c **** 				x - font_width,
 3226                             		.loc 1 862 3
 3227 00a3 DF 56                   		mov.W	r5, r6
 864:C:/Users/John/Desktop/workspace/miniwinwm/MiniWin/gl\gl.c **** 				y - font_height,
 3228                             		.loc 1 864 7
 3229 00a5 DD A4 0F                		mov.W	30[r10], r4
 3230 00a8 DD A5 0A                		mov.W	20[r10], r5
 3231 00ab FF 05 54                		sub	r5, r4, r5
 862:C:/Users/John/Desktop/workspace/miniwinwm/MiniWin/gl\gl.c **** 				x - font_width,
 3232                             		.loc 1 862 3
 3233 00ae DF 5B                   		mov.W	r5, r11
 865:C:/Users/John/Desktop/workspace/miniwinwm/MiniWin/gl\gl.c **** 				font_width + 1,
 3234                             		.loc 1 865 16
 3235 00b0 DD A5 09                		mov.W	18[r10], r5
 3236 00b3 62 15                   		add	#1, r5
 862:C:/Users/John/Desktop/workspace/miniwinwm/MiniWin/gl\gl.c **** 				x - font_width,
 3237                             		.loc 1 862 3
 3238 00b5 DF 5C                   		mov.W	r5, r12
 866:C:/Users/John/Desktop/workspace/miniwinwm/MiniWin/gl\gl.c **** 				mw_gl_get_font_height() + 1,
 3239                             		.loc 1 866 5
 3240 00b7 05 00 00 00             		bsr	_mw_gl_get_font_height
 3241 00bb EF 15                   		mov.L	r1, r5
 3242                             		.loc 1 866 29
 3243 00bd 62 15                   		add	#1, r5
 862:C:/Users/John/Desktop/workspace/miniwinwm/MiniWin/gl\gl.c **** 				x - font_width,
 3244                             		.loc 1 862 3
 3245 00bf DF 54                   		mov.W	r5, r4
 3246 00c1 FB 52 00 00 00 00       		mov.L	#_gc, r5
 3247 00c7 A8 5D                   		mov.L	4[r5], r5
 3248 00c9 A0 0D                   		mov.L	r5, 4[r0]
 3249 00cb D3 04                   		mov.W	r4, [r0]
 3250 00cd DF C4                   		mov.W	r12, r4
 3251 00cf DF B3                   		mov.W	r11, r3
 3252 00d1 DF 62                   		mov.W	r6, r2
 3253 00d3 ED A1 06                		mov.L	24[r10], r1
 3254 00d6 05 00 00 00             		bsr	_filled_rectangle
 3255                             	.L151:
 867:C:/Users/John/Desktop/workspace/miniwinwm/MiniWin/gl\gl.c **** 				gc.bg_colour);
 868:C:/Users/John/Desktop/workspace/miniwinwm/MiniWin/gl\gl.c **** 	}
 869:C:/Users/John/Desktop/workspace/miniwinwm/MiniWin/gl\gl.c **** 
 870:C:/Users/John/Desktop/workspace/miniwinwm/MiniWin/gl\gl.c **** 	character_byte_width = font_width / 8 + (int16_t)(font_width % 8 > 0 ? 1 : 0);
 3256                             		.loc 1 870 40
 3257 00da DD A5 09                		mov.W	18[r10], r5
 3258 00dd 61 05                   		cmp	#0, r5
 3259 00df 28 04                   		bge	.L152
 3260 00e1 62 75                   		add	#7, r5
 3261                             	.L152:
 3262 00e3 6A 35                   		shar	#3, r5
 3263 00e5 DF 54                   		mov.W	r5, r4
 3264                             		.loc 1 870 42
 3265 00e7 DD A5 09                		mov.W	18[r10], r5
 3266 00ea 74 25 07 00 00 80       		and	#-2147483641, r5
 3267 00f0 61 05                   		cmp	#0, r5
 3268 00f2 28 09                   		bge	.L153
 3269 00f4 60 15                   		sub	#1, r5
 3270 00f6 75 35 F8                		or	#-8, r5
 3271 00f9 62 15                   		add	#1, r5
 3272                             	.L153:
 3273 00fb DF 55                   		mov.W	r5, r5
 3274 00fd 61 05                   		cmp	#0, r5
 3275 00ff FC DB 5A                		scgt.L	r5
 3276 0102 5B 55                   		movu.B	r5, r5
 3277                             		.loc 1 870 40
 3278 0104 4B 45                   		add	r4, r5
 3279                             		.loc 1 870 23
 3280 0106 D7 A5 0B                		mov.W	r5, 22[r10]
 871:C:/Users/John/Desktop/workspace/miniwinwm/MiniWin/gl\gl.c **** 	byte_pos = ((int16_t)c - (int16_t)' ') * font_height * character_byte_width;
 3281                             		.loc 1 871 14
 3282 0109 59 A5 20                		movu.B	32[r10], r5
 3283                             		.loc 1 871 25
 3284 010c 71 55 E0                		add	#-32, r5
 3285                             		.loc 1 871 11
 3286 010f DF 54                   		mov.W	r5, r4
 3287 0111 DD A5 0A                		mov.W	20[r10], r5
 3288 0114 4F 45                   		mul	r4, r5
 3289 0116 DF 54                   		mov.W	r5, r4
 3290 0118 DD A5 0B                		mov.W	22[r10], r5
 3291 011b 4F 45                   		mul	r4, r5
 3292 011d D7 A5 06                		mov.W	r5, 12[r10]
 872:C:/Users/John/Desktop/workspace/miniwinwm/MiniWin/gl\gl.c **** 
 873:C:/Users/John/Desktop/workspace/miniwinwm/MiniWin/gl\gl.c **** 	for (char_y = 0; char_y < font_height; char_y++)
 3293                             		.loc 1 873 14
 3294 0120 F9 A5 01 00             		mov.W	#0, 2[r10]
 3295                             		.loc 1 873 2
 3296 0124 38 C1 00                		bra	.L154
 3297                             	.L162:
 874:C:/Users/John/Desktop/workspace/miniwinwm/MiniWin/gl\gl.c **** 	{
 875:C:/Users/John/Desktop/workspace/miniwinwm/MiniWin/gl\gl.c **** 		word = 0U;
 3298                             		.loc 1 875 8
 3299 0127 F9 A6 02 00             		mov.L	#0, 8[r10]
 876:C:/Users/John/Desktop/workspace/miniwinwm/MiniWin/gl\gl.c **** 		for (byte = 0; byte < character_byte_width; byte++)
 3300                             		.loc 1 876 13
 3301 012b F9 A5 07 00             		mov.W	#0, 14[r10]
 3302                             		.loc 1 876 3
 3303 012f 2E 31                   		bra	.L155
 3304                             	.L156:
 877:C:/Users/John/Desktop/workspace/miniwinwm/MiniWin/gl\gl.c **** 		{
 878:C:/Users/John/Desktop/workspace/miniwinwm/MiniWin/gl\gl.c **** 			word <<= 8U;
 3305                             		.loc 1 878 9 discriminator 3
 3306 0131 ED A5 02                		mov.L	8[r10], r5
 3307 0134 6C 85                   		shll	#8, r5
 3308 0136 E7 A5 02                		mov.L	r5, 8[r10]
 879:C:/Users/John/Desktop/workspace/miniwinwm/MiniWin/gl\gl.c **** 			word |= (uint32_t)get_font_data()[byte_pos];
 3309                             		.loc 1 879 22 discriminator 3
 3310 0139 05 00 00 00             		bsr	_get_font_data
 3311 013d EF 14                   		mov.L	r1, r4
 3312                             		.loc 1 879 37 discriminator 3
 3313 013f DD A5 06                		mov.W	12[r10], r5
 3314 0142 4B 45                   		add	r4, r5
 3315 0144 CC 55                   		mov.B	[r5], r5
 3316                             		.loc 1 879 12 discriminator 3
 3317 0146 5B 55                   		movu.B	r5, r5
 3318                             		.loc 1 879 9 discriminator 3
 3319 0148 ED A4 02                		mov.L	8[r10], r4
 3320 014b 57 45                   		or	r4, r5
 3321 014d E7 A5 02                		mov.L	r5, 8[r10]
 880:C:/Users/John/Desktop/workspace/miniwinwm/MiniWin/gl\gl.c **** 			byte_pos++;
 3322                             		.loc 1 880 12 discriminator 3
 3323 0150 DD A5 06                		mov.W	12[r10], r5
 3324 0153 62 15                   		add	#1, r5
 3325 0155 D7 A5 06                		mov.W	r5, 12[r10]
 876:C:/Users/John/Desktop/workspace/miniwinwm/MiniWin/gl\gl.c **** 		{
 3326                             		.loc 1 876 51 discriminator 3
 3327 0158 DD A5 07                		mov.W	14[r10], r5
 3328 015b 62 15                   		add	#1, r5
 3329 015d D7 A5 07                		mov.W	r5, 14[r10]
 3330                             	.L155:
 876:C:/Users/John/Desktop/workspace/miniwinwm/MiniWin/gl\gl.c **** 		{
 3331                             		.loc 1 876 3 discriminator 1
 3332 0160 DD A4 07                		mov.W	14[r10], r4
 3333 0163 DD A5 0B                		mov.W	22[r10], r5
 3334 0166 47 54                   		cmp	r5, r4
 3335 0168 29 C9                   		blt	.L156
 881:C:/Users/John/Desktop/workspace/miniwinwm/MiniWin/gl\gl.c **** 		}
 882:C:/Users/John/Desktop/workspace/miniwinwm/MiniWin/gl\gl.c **** 
 883:C:/Users/John/Desktop/workspace/miniwinwm/MiniWin/gl\gl.c **** 		for (i = 0; i < 4 - character_byte_width; i++)
 3336                             		.loc 1 883 10
 3337 016a F9 A5 08 00             		mov.W	#0, 16[r10]
 3338                             		.loc 1 883 3
 3339 016e 2E 12                   		bra	.L157
 3340                             	.L158:
 884:C:/Users/John/Desktop/workspace/miniwinwm/MiniWin/gl\gl.c **** 		{
 885:C:/Users/John/Desktop/workspace/miniwinwm/MiniWin/gl\gl.c **** 			word <<= 8;
 3341                             		.loc 1 885 9 discriminator 3
 3342 0170 ED A5 02                		mov.L	8[r10], r5
 3343 0173 6C 85                   		shll	#8, r5
 3344 0175 E7 A5 02                		mov.L	r5, 8[r10]
 883:C:/Users/John/Desktop/workspace/miniwinwm/MiniWin/gl\gl.c **** 		{
 3345                             		.loc 1 883 46 discriminator 3
 3346 0178 DD A5 08                		mov.W	16[r10], r5
 3347 017b 62 15                   		add	#1, r5
 3348 017d D7 A5 08                		mov.W	r5, 16[r10]
 3349                             	.L157:
 883:C:/Users/John/Desktop/workspace/miniwinwm/MiniWin/gl\gl.c **** 		{
 3350                             		.loc 1 883 17 discriminator 1
 3351 0180 DD A4 08                		mov.W	16[r10], r4
 883:C:/Users/John/Desktop/workspace/miniwinwm/MiniWin/gl\gl.c **** 		{
 3352                             		.loc 1 883 21 discriminator 1
 3353 0183 DD A5 0B                		mov.W	22[r10], r5
 3354 0186 66 43                   		mov.L	#4, r3
 3355 0188 FF 05 53                		sub	r5, r3, r5
 883:C:/Users/John/Desktop/workspace/miniwinwm/MiniWin/gl\gl.c **** 		{
 3356                             		.loc 1 883 3 discriminator 1
 3357 018b 47 54                   		cmp	r5, r4
 3358 018d 29 E3                   		blt	.L158
 886:C:/Users/John/Desktop/workspace/miniwinwm/MiniWin/gl\gl.c **** 		}
 887:C:/Users/John/Desktop/workspace/miniwinwm/MiniWin/gl\gl.c **** 		mask = 0x80000000U;
 3359                             		.loc 1 887 8
 3360 018f F9 A2 01 00 00 00 80    		mov.L	#-2147483648, 4[r10]
 888:C:/Users/John/Desktop/workspace/miniwinwm/MiniWin/gl\gl.c **** 
 889:C:/Users/John/Desktop/workspace/miniwinwm/MiniWin/gl\gl.c **** 		for (char_x = 0; char_x < font_width; char_x++)
 3361                             		.loc 1 889 15
 3362 0196 F8 A5 00                		mov.W	#0, [r10]
 3363                             		.loc 1 889 3
 3364 0199 2E 3B                   		bra	.L159
 3365                             	.L161:
 890:C:/Users/John/Desktop/workspace/miniwinwm/MiniWin/gl\gl.c **** 		{
 891:C:/Users/John/Desktop/workspace/miniwinwm/MiniWin/gl\gl.c **** 			if ((word & mask) == mask)
 3366                             		.loc 1 891 14
 3367 019b ED A4 02                		mov.L	8[r10], r4
 3368 019e ED A5 01                		mov.L	4[r10], r5
 3369 01a1 53 45                   		and	r4, r5
 3370                             		.loc 1 891 7
 3371 01a3 ED A4 01                		mov.L	4[r10], r4
 3372 01a6 47 54                   		cmp	r5, r4
 3373 01a8 21 1E                   		bne	.L160
 892:C:/Users/John/Desktop/workspace/miniwinwm/MiniWin/gl\gl.c **** 			{
 893:C:/Users/John/Desktop/workspace/miniwinwm/MiniWin/gl\gl.c **** 				mw_gl_fg_pixel(draw_info, x - char_x, y - char_y);
 3374                             		.loc 1 893 33
 3375 01aa DD A4 0E                		mov.W	28[r10], r4
 3376 01ad DC A5                   		mov.W	[r10], r5
 3377 01af FF 05 54                		sub	r5, r4, r5
 3378                             		.loc 1 893 5
 3379 01b2 DF 52                   		mov.W	r5, r2
 3380                             		.loc 1 893 45
 3381 01b4 DD A4 0F                		mov.W	30[r10], r4
 3382 01b7 DD A5 01                		mov.W	2[r10], r5
 3383 01ba FF 05 54                		sub	r5, r4, r5
 3384                             		.loc 1 893 5
 3385 01bd DF 53                   		mov.W	r5, r3
 3386 01bf ED A1 06                		mov.L	24[r10], r1
 3387 01c2 05 00 00 00             		bsr	_mw_gl_fg_pixel
 3388                             	.L160:
 894:C:/Users/John/Desktop/workspace/miniwinwm/MiniWin/gl\gl.c **** 			}
 895:C:/Users/John/Desktop/workspace/miniwinwm/MiniWin/gl\gl.c **** 
 896:C:/Users/John/Desktop/workspace/miniwinwm/MiniWin/gl\gl.c **** 			mask >>= 1U;
 3389                             		.loc 1 896 9 discriminator 2
 3390 01c6 ED A5 01                		mov.L	4[r10], r5
 3391 01c9 68 15                   		shlr	#1, r5
 3392 01cb E7 A5 01                		mov.L	r5, 4[r10]
 889:C:/Users/John/Desktop/workspace/miniwinwm/MiniWin/gl\gl.c **** 		{
 3393                             		.loc 1 889 47 discriminator 2
 3394 01ce DC A5                   		mov.W	[r10], r5
 3395 01d0 62 15                   		add	#1, r5
 3396 01d2 D3 A5                   		mov.W	r5, [r10]
 3397                             	.L159:
 889:C:/Users/John/Desktop/workspace/miniwinwm/MiniWin/gl\gl.c **** 		{
 3398                             		.loc 1 889 3 discriminator 1
 3399 01d4 DC A4                   		mov.W	[r10], r4
 3400 01d6 DD A5 09                		mov.W	18[r10], r5
 3401 01d9 47 54                   		cmp	r5, r4
 3402 01db 29 C0                   		blt	.L161
 873:C:/Users/John/Desktop/workspace/miniwinwm/MiniWin/gl\gl.c **** 	{
 3403                             		.loc 1 873 47 discriminator 2
 3404 01dd DD A5 01                		mov.W	2[r10], r5
 3405 01e0 62 15                   		add	#1, r5
 3406 01e2 D7 A5 01                		mov.W	r5, 2[r10]
 3407                             	.L154:
 873:C:/Users/John/Desktop/workspace/miniwinwm/MiniWin/gl\gl.c **** 	{
 3408                             		.loc 1 873 2 discriminator 1
 3409 01e5 DD A4 01                		mov.W	2[r10], r4
 3410 01e8 DD A5 0A                		mov.W	20[r10], r5
 3411 01eb 47 54                   		cmp	r5, r4
 3412 01ed 28 05 38 38 FF          		blt	.L162
 3413 01f2 2E 03                   		bra	.L147
 3414                             	.L163:
 857:C:/Users/John/Desktop/workspace/miniwinwm/MiniWin/gl\gl.c **** 	}
 3415                             		.loc 1 857 3
 3416 01f4 03                      		nop
 3417                             	.L147:
 897:C:/Users/John/Desktop/workspace/miniwinwm/MiniWin/gl\gl.c **** 		}
 898:C:/Users/John/Desktop/workspace/miniwinwm/MiniWin/gl\gl.c **** 	}
 899:C:/Users/John/Desktop/workspace/miniwinwm/MiniWin/gl\gl.c **** }
 3418                             		.loc 1 899 1
 3419 01f5 3F 6C 12                		rtsd	#72, r6-r12
 3420                             	.LFE10:
 3422                             		.section	.text.draw_character_270_degrees,"ax",@progbits
 3424                             	_draw_character_270_degrees:
 3425                             	.LFB11:
 900:C:/Users/John/Desktop/workspace/miniwinwm/MiniWin/gl\gl.c **** 
 901:C:/Users/John/Desktop/workspace/miniwinwm/MiniWin/gl\gl.c **** /**
 902:C:/Users/John/Desktop/workspace/miniwinwm/MiniWin/gl\gl.c ****  * Draw a single fixed width character at 270 degrees rotation.
 903:C:/Users/John/Desktop/workspace/miniwinwm/MiniWin/gl\gl.c ****  * Foreground colour, background colour, font and transparency controlled by gc.
 904:C:/Users/John/Desktop/workspace/miniwinwm/MiniWin/gl\gl.c ****  *
 905:C:/Users/John/Desktop/workspace/miniwinwm/MiniWin/gl\gl.c ****  * @param draw_info Reference frame origin coordinates and clip region rect
 906:C:/Users/John/Desktop/workspace/miniwinwm/MiniWin/gl\gl.c ****  * @param x Coordinate of the left edge of the rectangle containing the character
 907:C:/Users/John/Desktop/workspace/miniwinwm/MiniWin/gl\gl.c ****  * @param y Coordinate of the top edge of the rectangle containing the character
 908:C:/Users/John/Desktop/workspace/miniwinwm/MiniWin/gl\gl.c ****  * @param c The character
 909:C:/Users/John/Desktop/workspace/miniwinwm/MiniWin/gl\gl.c ****  */
 910:C:/Users/John/Desktop/workspace/miniwinwm/MiniWin/gl\gl.c **** static void draw_character_270_degrees(const mw_gl_draw_info_t *draw_info, int16_t x, int16_t y, ch
 911:C:/Users/John/Desktop/workspace/miniwinwm/MiniWin/gl\gl.c **** {
 3426                             		.loc 1 911 1
 3427 0000 7E AA                   		push.l	r10
 3428                             	.LCFI34:
 3429 0002 71 0A DC                		add	#-36, r0, r10
 3430                             	.LCFI35:
 3431 0005 71 A0 F8                		add	#-8, r10, r0
 3432                             	.LCFI36:
 3433 0008 E7 A1 06                		mov.L	r1, 24[r10]
 3434 000b D7 A2 0E                		mov.W	r2, 28[r10]
 3435 000e D7 A3 0F                		mov.W	r3, 30[r10]
 3436 0011 C7 A4 20                		mov.B	r4, 32[r10]
 912:C:/Users/John/Desktop/workspace/miniwinwm/MiniWin/gl\gl.c **** 	int16_t char_x;
 913:C:/Users/John/Desktop/workspace/miniwinwm/MiniWin/gl\gl.c **** 	int16_t char_y;
 914:C:/Users/John/Desktop/workspace/miniwinwm/MiniWin/gl\gl.c **** 	uint32_t mask;
 915:C:/Users/John/Desktop/workspace/miniwinwm/MiniWin/gl\gl.c **** 	uint32_t word;
 916:C:/Users/John/Desktop/workspace/miniwinwm/MiniWin/gl\gl.c **** 	int16_t character_byte_width;
 917:C:/Users/John/Desktop/workspace/miniwinwm/MiniWin/gl\gl.c **** 	int16_t byte_pos;
 918:C:/Users/John/Desktop/workspace/miniwinwm/MiniWin/gl\gl.c **** 	int16_t byte;
 919:C:/Users/John/Desktop/workspace/miniwinwm/MiniWin/gl\gl.c **** 	int16_t font_width = mw_gl_get_font_width();
 3437                             		.loc 1 919 23
 3438 0014 05 00 00 00             		bsr	_mw_gl_get_font_width
 3439 0018 EF 15                   		mov.L	r1, r5
 3440 001a D7 A5 09                		mov.W	r5, 18[r10]
 920:C:/Users/John/Desktop/workspace/miniwinwm/MiniWin/gl\gl.c **** 	int16_t font_height = mw_gl_get_font_height();
 3441                             		.loc 1 920 24
 3442 001d 05 00 00 00             		bsr	_mw_gl_get_font_height
 3443 0021 EF 15                   		mov.L	r1, r5
 3444 0023 D7 A5 0A                		mov.W	r5, 20[r10]
 921:C:/Users/John/Desktop/workspace/miniwinwm/MiniWin/gl\gl.c **** 	int16_t i;
 922:C:/Users/John/Desktop/workspace/miniwinwm/MiniWin/gl\gl.c **** 
 923:C:/Users/John/Desktop/workspace/miniwinwm/MiniWin/gl\gl.c **** 	if (x >= draw_info->clip_rect.x + draw_info->clip_rect.width ||
 3445                             		.loc 1 923 8
 3446 0026 DD A4 0E                		mov.W	28[r10], r4
 3447                             		.loc 1 923 31
 3448 0029 ED A5 06                		mov.L	24[r10], r5
 3449 002c 98 D5                   		mov.W	4[r5], r5
 3450 002e DF 53                   		mov.W	r5, r3
 3451                             		.loc 1 923 56
 3452 0030 ED A5 06                		mov.L	24[r10], r5
 3453 0033 99 55                   		mov.W	8[r5], r5
 3454 0035 DF 55                   		mov.W	r5, r5
 3455                             		.loc 1 923 34
 3456 0037 4B 35                   		add	r3, r5
 3457                             		.loc 1 923 5
 3458 0039 47 54                   		cmp	r5, r4
 3459 003b 29 05 38 A6 01          		bge	.L180
 924:C:/Users/John/Desktop/workspace/miniwinwm/MiniWin/gl\gl.c **** 			y <= draw_info->clip_rect.y ||
 3460                             		.loc 1 924 29 discriminator 1
 3461 0040 ED A5 06                		mov.L	24[r10], r5
 3462 0043 98 DD                   		mov.W	6[r5], r5
 923:C:/Users/John/Desktop/workspace/miniwinwm/MiniWin/gl\gl.c **** 			y <= draw_info->clip_rect.y ||
 3463                             		.loc 1 923 63 discriminator 1
 3464 0045 DD A4 0F                		mov.W	30[r10], r4
 3465 0048 DF 55                   		mov.W	r5, r5
 3466 004a 47 54                   		cmp	r5, r4
 3467 004c 2A 05 38 95 01          		ble	.L180
 925:C:/Users/John/Desktop/workspace/miniwinwm/MiniWin/gl\gl.c **** 			x + font_height + 1 <= draw_info->clip_rect.x ||
 3468                             		.loc 1 925 6
 3469 0051 DD A4 0E                		mov.W	28[r10], r4
 3470 0054 DD A5 0A                		mov.W	20[r10], r5
 3471 0057 4B 54                   		add	r5, r4
 3472                             		.loc 1 925 47
 3473 0059 ED A5 06                		mov.L	24[r10], r5
 3474 005c 98 D5                   		mov.W	4[r5], r5
 3475 005e DF 55                   		mov.W	r5, r5
 924:C:/Users/John/Desktop/workspace/miniwinwm/MiniWin/gl\gl.c **** 			y <= draw_info->clip_rect.y ||
 3476                             		.loc 1 924 32
 3477 0060 47 54                   		cmp	r5, r4
 3478 0062 28 05 38 7F 01          		blt	.L180
 926:C:/Users/John/Desktop/workspace/miniwinwm/MiniWin/gl\gl.c **** 			y - font_width + 1 >= draw_info->clip_rect.y +  draw_info->clip_rect.height)
 3479                             		.loc 1 926 6
 3480 0067 DD A4 0F                		mov.W	30[r10], r4
 3481 006a DD A5 09                		mov.W	18[r10], r5
 3482 006d FF 05 54                		sub	r5, r4, r5
 3483                             		.loc 1 926 19
 3484 0070 71 54 01                		add	#1, r5, r4
 3485                             		.loc 1 926 46
 3486 0073 ED A5 06                		mov.L	24[r10], r5
 3487 0076 98 DD                   		mov.W	6[r5], r5
 3488 0078 DF 53                   		mov.W	r5, r3
 3489                             		.loc 1 926 72
 3490 007a ED A5 06                		mov.L	24[r10], r5
 3491 007d 99 5D                   		mov.W	10[r5], r5
 3492 007f DF 55                   		mov.W	r5, r5
 3493                             		.loc 1 926 49
 3494 0081 4B 35                   		add	r3, r5
 925:C:/Users/John/Desktop/workspace/miniwinwm/MiniWin/gl\gl.c **** 			x + font_height + 1 <= draw_info->clip_rect.x ||
 3495                             		.loc 1 925 50
 3496 0083 47 54                   		cmp	r5, r4
 3497 0085 29 05 38 5C 01          		bge	.L180
 927:C:/Users/John/Desktop/workspace/miniwinwm/MiniWin/gl\gl.c **** 	{
 928:C:/Users/John/Desktop/workspace/miniwinwm/MiniWin/gl\gl.c **** 		return;
 929:C:/Users/John/Desktop/workspace/miniwinwm/MiniWin/gl\gl.c **** 	}
 930:C:/Users/John/Desktop/workspace/miniwinwm/MiniWin/gl\gl.c **** 
 931:C:/Users/John/Desktop/workspace/miniwinwm/MiniWin/gl\gl.c **** 	if (gc.bg_transparent == MW_GL_BG_NOT_TRANSPARENT)
 3498                             		.loc 1 931 8
 3499 008a FB 52 00 00 00 00       		mov.L	#_gc, r5
 3500 0090 AB DD                   		mov.L	60[r5], r5
 3501                             		.loc 1 931 5
 3502 0092 61 15                   		cmp	#1, r5
 3503 0094 21 31                   		bne	.L168
 932:C:/Users/John/Desktop/workspace/miniwinwm/MiniWin/gl\gl.c **** 	{
 933:C:/Users/John/Desktop/workspace/miniwinwm/MiniWin/gl\gl.c **** 		filled_rectangle(draw_info,
 934:C:/Users/John/Desktop/workspace/miniwinwm/MiniWin/gl\gl.c **** 				x,
 935:C:/Users/John/Desktop/workspace/miniwinwm/MiniWin/gl\gl.c **** 				y - font_width,
 3504                             		.loc 1 935 7
 3505 0096 DD A4 0F                		mov.W	30[r10], r4
 3506 0099 DD A5 09                		mov.W	18[r10], r5
 3507 009c FF 05 54                		sub	r5, r4, r5
 933:C:/Users/John/Desktop/workspace/miniwinwm/MiniWin/gl\gl.c **** 				x,
 3508                             		.loc 1 933 3
 3509 009f DF 53                   		mov.W	r5, r3
 936:C:/Users/John/Desktop/workspace/miniwinwm/MiniWin/gl\gl.c **** 				font_height + 1,
 3510                             		.loc 1 936 17
 3511 00a1 DD A5 0A                		mov.W	20[r10], r5
 3512 00a4 62 15                   		add	#1, r5
 933:C:/Users/John/Desktop/workspace/miniwinwm/MiniWin/gl\gl.c **** 				x,
 3513                             		.loc 1 933 3
 3514 00a6 DF 54                   		mov.W	r5, r4
 937:C:/Users/John/Desktop/workspace/miniwinwm/MiniWin/gl\gl.c **** 				font_width + 1,
 3515                             		.loc 1 937 16
 3516 00a8 DD A5 09                		mov.W	18[r10], r5
 3517 00ab 62 15                   		add	#1, r5
 933:C:/Users/John/Desktop/workspace/miniwinwm/MiniWin/gl\gl.c **** 				x,
 3518                             		.loc 1 933 3
 3519 00ad DF 52                   		mov.W	r5, r2
 3520 00af FB 52 00 00 00 00       		mov.L	#_gc, r5
 3521 00b5 A8 5D                   		mov.L	4[r5], r5
 3522 00b7 A0 0D                   		mov.L	r5, 4[r0]
 3523 00b9 D3 02                   		mov.W	r2, [r0]
 3524 00bb DD A2 0E                		mov.W	28[r10], r2
 3525 00be ED A1 06                		mov.L	24[r10], r1
 3526 00c1 05 00 00 00             		bsr	_filled_rectangle
 3527                             	.L168:
 938:C:/Users/John/Desktop/workspace/miniwinwm/MiniWin/gl\gl.c **** 				gc.bg_colour);
 939:C:/Users/John/Desktop/workspace/miniwinwm/MiniWin/gl\gl.c **** 	}
 940:C:/Users/John/Desktop/workspace/miniwinwm/MiniWin/gl\gl.c **** 
 941:C:/Users/John/Desktop/workspace/miniwinwm/MiniWin/gl\gl.c **** 	character_byte_width = font_width / 8 + (int16_t)(font_width % 8 > 0 ? 1 : 0);
 3528                             		.loc 1 941 40
 3529 00c5 DD A5 09                		mov.W	18[r10], r5
 3530 00c8 61 05                   		cmp	#0, r5
 3531 00ca 28 04                   		bge	.L169
 3532 00cc 62 75                   		add	#7, r5
 3533                             	.L169:
 3534 00ce 6A 35                   		shar	#3, r5
 3535 00d0 DF 54                   		mov.W	r5, r4
 3536                             		.loc 1 941 42
 3537 00d2 DD A5 09                		mov.W	18[r10], r5
 3538 00d5 74 25 07 00 00 80       		and	#-2147483641, r5
 3539 00db 61 05                   		cmp	#0, r5
 3540 00dd 28 09                   		bge	.L170
 3541 00df 60 15                   		sub	#1, r5
 3542 00e1 75 35 F8                		or	#-8, r5
 3543 00e4 62 15                   		add	#1, r5
 3544                             	.L170:
 3545 00e6 DF 55                   		mov.W	r5, r5
 3546 00e8 61 05                   		cmp	#0, r5
 3547 00ea FC DB 5A                		scgt.L	r5
 3548 00ed 5B 55                   		movu.B	r5, r5
 3549                             		.loc 1 941 40
 3550 00ef 4B 45                   		add	r4, r5
 3551                             		.loc 1 941 23
 3552 00f1 D7 A5 0B                		mov.W	r5, 22[r10]
 942:C:/Users/John/Desktop/workspace/miniwinwm/MiniWin/gl\gl.c **** 	byte_pos = ((int16_t)c - (int16_t)' ') * font_height * character_byte_width;
 3553                             		.loc 1 942 14
 3554 00f4 59 A5 20                		movu.B	32[r10], r5
 3555                             		.loc 1 942 25
 3556 00f7 71 55 E0                		add	#-32, r5
 3557                             		.loc 1 942 11
 3558 00fa DF 54                   		mov.W	r5, r4
 3559 00fc DD A5 0A                		mov.W	20[r10], r5
 3560 00ff 4F 45                   		mul	r4, r5
 3561 0101 DF 54                   		mov.W	r5, r4
 3562 0103 DD A5 0B                		mov.W	22[r10], r5
 3563 0106 4F 45                   		mul	r4, r5
 3564 0108 D7 A5 06                		mov.W	r5, 12[r10]
 943:C:/Users/John/Desktop/workspace/miniwinwm/MiniWin/gl\gl.c **** 
 944:C:/Users/John/Desktop/workspace/miniwinwm/MiniWin/gl\gl.c **** 	for (char_y = 0; char_y < mw_gl_get_font_height(); char_y++)
 3565                             		.loc 1 944 14
 3566 010b F9 A5 01 00             		mov.W	#0, 2[r10]
 3567                             		.loc 1 944 2
 3568 010f 38 C0 00                		bra	.L171
 3569                             	.L179:
 945:C:/Users/John/Desktop/workspace/miniwinwm/MiniWin/gl\gl.c **** 	{
 946:C:/Users/John/Desktop/workspace/miniwinwm/MiniWin/gl\gl.c **** 		word = 0U;
 3570                             		.loc 1 946 8
 3571 0112 F9 A6 02 00             		mov.L	#0, 8[r10]
 947:C:/Users/John/Desktop/workspace/miniwinwm/MiniWin/gl\gl.c **** 		for (byte = 0; byte < character_byte_width; byte++)
 3572                             		.loc 1 947 13
 3573 0116 F9 A5 07 00             		mov.W	#0, 14[r10]
 3574                             		.loc 1 947 3
 3575 011a 2E 31                   		bra	.L172
 3576                             	.L173:
 948:C:/Users/John/Desktop/workspace/miniwinwm/MiniWin/gl\gl.c **** 		{
 949:C:/Users/John/Desktop/workspace/miniwinwm/MiniWin/gl\gl.c **** 			word <<= 8U;
 3577                             		.loc 1 949 9 discriminator 3
 3578 011c ED A5 02                		mov.L	8[r10], r5
 3579 011f 6C 85                   		shll	#8, r5
 3580 0121 E7 A5 02                		mov.L	r5, 8[r10]
 950:C:/Users/John/Desktop/workspace/miniwinwm/MiniWin/gl\gl.c **** 			word |= (uint32_t)get_font_data()[byte_pos];
 3581                             		.loc 1 950 22 discriminator 3
 3582 0124 05 00 00 00             		bsr	_get_font_data
 3583 0128 EF 14                   		mov.L	r1, r4
 3584                             		.loc 1 950 37 discriminator 3
 3585 012a DD A5 06                		mov.W	12[r10], r5
 3586 012d 4B 45                   		add	r4, r5
 3587 012f CC 55                   		mov.B	[r5], r5
 3588                             		.loc 1 950 12 discriminator 3
 3589 0131 5B 55                   		movu.B	r5, r5
 3590                             		.loc 1 950 9 discriminator 3
 3591 0133 ED A4 02                		mov.L	8[r10], r4
 3592 0136 57 45                   		or	r4, r5
 3593 0138 E7 A5 02                		mov.L	r5, 8[r10]
 951:C:/Users/John/Desktop/workspace/miniwinwm/MiniWin/gl\gl.c **** 			byte_pos++;
 3594                             		.loc 1 951 12 discriminator 3
 3595 013b DD A5 06                		mov.W	12[r10], r5
 3596 013e 62 15                   		add	#1, r5
 3597 0140 D7 A5 06                		mov.W	r5, 12[r10]
 947:C:/Users/John/Desktop/workspace/miniwinwm/MiniWin/gl\gl.c **** 		{
 3598                             		.loc 1 947 51 discriminator 3
 3599 0143 DD A5 07                		mov.W	14[r10], r5
 3600 0146 62 15                   		add	#1, r5
 3601 0148 D7 A5 07                		mov.W	r5, 14[r10]
 3602                             	.L172:
 947:C:/Users/John/Desktop/workspace/miniwinwm/MiniWin/gl\gl.c **** 		{
 3603                             		.loc 1 947 3 discriminator 1
 3604 014b DD A4 07                		mov.W	14[r10], r4
 3605 014e DD A5 0B                		mov.W	22[r10], r5
 3606 0151 47 54                   		cmp	r5, r4
 3607 0153 29 C9                   		blt	.L173
 952:C:/Users/John/Desktop/workspace/miniwinwm/MiniWin/gl\gl.c **** 		}
 953:C:/Users/John/Desktop/workspace/miniwinwm/MiniWin/gl\gl.c **** 
 954:C:/Users/John/Desktop/workspace/miniwinwm/MiniWin/gl\gl.c **** 		for (i = 0; i < 4 - character_byte_width; i++)
 3608                             		.loc 1 954 10
 3609 0155 F9 A5 08 00             		mov.W	#0, 16[r10]
 3610                             		.loc 1 954 3
 3611 0159 2E 12                   		bra	.L174
 3612                             	.L175:
 955:C:/Users/John/Desktop/workspace/miniwinwm/MiniWin/gl\gl.c **** 		{
 956:C:/Users/John/Desktop/workspace/miniwinwm/MiniWin/gl\gl.c **** 			word <<= 8;
 3613                             		.loc 1 956 9 discriminator 3
 3614 015b ED A5 02                		mov.L	8[r10], r5
 3615 015e 6C 85                   		shll	#8, r5
 3616 0160 E7 A5 02                		mov.L	r5, 8[r10]
 954:C:/Users/John/Desktop/workspace/miniwinwm/MiniWin/gl\gl.c **** 		{
 3617                             		.loc 1 954 46 discriminator 3
 3618 0163 DD A5 08                		mov.W	16[r10], r5
 3619 0166 62 15                   		add	#1, r5
 3620 0168 D7 A5 08                		mov.W	r5, 16[r10]
 3621                             	.L174:
 954:C:/Users/John/Desktop/workspace/miniwinwm/MiniWin/gl\gl.c **** 		{
 3622                             		.loc 1 954 17 discriminator 1
 3623 016b DD A4 08                		mov.W	16[r10], r4
 954:C:/Users/John/Desktop/workspace/miniwinwm/MiniWin/gl\gl.c **** 		{
 3624                             		.loc 1 954 21 discriminator 1
 3625 016e DD A5 0B                		mov.W	22[r10], r5
 3626 0171 66 43                   		mov.L	#4, r3
 3627 0173 FF 05 53                		sub	r5, r3, r5
 954:C:/Users/John/Desktop/workspace/miniwinwm/MiniWin/gl\gl.c **** 		{
 3628                             		.loc 1 954 3 discriminator 1
 3629 0176 47 54                   		cmp	r5, r4
 3630 0178 29 E3                   		blt	.L175
 957:C:/Users/John/Desktop/workspace/miniwinwm/MiniWin/gl\gl.c **** 		}
 958:C:/Users/John/Desktop/workspace/miniwinwm/MiniWin/gl\gl.c **** 		mask = 0x80000000U;
 3631                             		.loc 1 958 8
 3632 017a F9 A2 01 00 00 00 80    		mov.L	#-2147483648, 4[r10]
 959:C:/Users/John/Desktop/workspace/miniwinwm/MiniWin/gl\gl.c **** 
 960:C:/Users/John/Desktop/workspace/miniwinwm/MiniWin/gl\gl.c **** 		for (char_x = 0; char_x < font_width; char_x++)
 3633                             		.loc 1 960 15
 3634 0181 F8 A5 00                		mov.W	#0, [r10]
 3635                             		.loc 1 960 3
 3636 0184 2E 3A                   		bra	.L176
 3637                             	.L178:
 961:C:/Users/John/Desktop/workspace/miniwinwm/MiniWin/gl\gl.c **** 		{
 962:C:/Users/John/Desktop/workspace/miniwinwm/MiniWin/gl\gl.c **** 			if ((word & mask) == mask)
 3638                             		.loc 1 962 14
 3639 0186 ED A4 02                		mov.L	8[r10], r4
 3640 0189 ED A5 01                		mov.L	4[r10], r5
 3641 018c 53 45                   		and	r4, r5
 3642                             		.loc 1 962 7
 3643 018e ED A4 01                		mov.L	4[r10], r4
 3644 0191 47 54                   		cmp	r5, r4
 3645 0193 21 1D                   		bne	.L177
 963:C:/Users/John/Desktop/workspace/miniwinwm/MiniWin/gl\gl.c **** 			{
 964:C:/Users/John/Desktop/workspace/miniwinwm/MiniWin/gl\gl.c **** 	   			mw_gl_fg_pixel(draw_info, x + char_y, y - char_x);
 3646                             		.loc 1 964 36
 3647 0195 DD A4 0E                		mov.W	28[r10], r4
 3648 0198 DD A5 01                		mov.W	2[r10], r5
 3649 019b 4B 45                   		add	r4, r5
 3650                             		.loc 1 964 8
 3651 019d DF 52                   		mov.W	r5, r2
 3652                             		.loc 1 964 48
 3653 019f DD A4 0F                		mov.W	30[r10], r4
 3654 01a2 DC A5                   		mov.W	[r10], r5
 3655 01a4 FF 05 54                		sub	r5, r4, r5
 3656                             		.loc 1 964 8
 3657 01a7 DF 53                   		mov.W	r5, r3
 3658 01a9 ED A1 06                		mov.L	24[r10], r1
 3659 01ac 05 00 00 00             		bsr	_mw_gl_fg_pixel
 3660                             	.L177:
 965:C:/Users/John/Desktop/workspace/miniwinwm/MiniWin/gl\gl.c **** 			}
 966:C:/Users/John/Desktop/workspace/miniwinwm/MiniWin/gl\gl.c **** 
 967:C:/Users/John/Desktop/workspace/miniwinwm/MiniWin/gl\gl.c **** 			mask >>= 1U;
 3661                             		.loc 1 967 9 discriminator 2
 3662 01b0 ED A5 01                		mov.L	4[r10], r5
 3663 01b3 68 15                   		shlr	#1, r5
 3664 01b5 E7 A5 01                		mov.L	r5, 4[r10]
 960:C:/Users/John/Desktop/workspace/miniwinwm/MiniWin/gl\gl.c **** 		{
 3665                             		.loc 1 960 47 discriminator 2
 3666 01b8 DC A5                   		mov.W	[r10], r5
 3667 01ba 62 15                   		add	#1, r5
 3668 01bc D3 A5                   		mov.W	r5, [r10]
 3669                             	.L176:
 960:C:/Users/John/Desktop/workspace/miniwinwm/MiniWin/gl\gl.c **** 		{
 3670                             		.loc 1 960 3 discriminator 1
 3671 01be DC A4                   		mov.W	[r10], r4
 3672 01c0 DD A5 09                		mov.W	18[r10], r5
 3673 01c3 47 54                   		cmp	r5, r4
 3674 01c5 29 C1                   		blt	.L178
 944:C:/Users/John/Desktop/workspace/miniwinwm/MiniWin/gl\gl.c **** 	{
 3675                             		.loc 1 944 59 discriminator 2
 3676 01c7 DD A5 01                		mov.W	2[r10], r5
 3677 01ca 62 15                   		add	#1, r5
 3678 01cc D7 A5 01                		mov.W	r5, 2[r10]
 3679                             	.L171:
 944:C:/Users/John/Desktop/workspace/miniwinwm/MiniWin/gl\gl.c **** 	{
 3680                             		.loc 1 944 28 discriminator 1
 3681 01cf 05 00 00 00             		bsr	_mw_gl_get_font_height
 3682 01d3 EF 15                   		mov.L	r1, r5
 944:C:/Users/John/Desktop/workspace/miniwinwm/MiniWin/gl\gl.c **** 	{
 3683                             		.loc 1 944 2 discriminator 1
 3684 01d5 DD A4 01                		mov.W	2[r10], r4
 3685 01d8 DF 55                   		mov.W	r5, r5
 3686 01da 47 54                   		cmp	r5, r4
 3687 01dc 28 05 38 34 FF          		blt	.L179
 3688 01e1 2E 03                   		bra	.L164
 3689                             	.L180:
 928:C:/Users/John/Desktop/workspace/miniwinwm/MiniWin/gl\gl.c **** 	}
 3690                             		.loc 1 928 3
 3691 01e3 03                      		nop
 3692                             	.L164:
 968:C:/Users/John/Desktop/workspace/miniwinwm/MiniWin/gl\gl.c **** 		}
 969:C:/Users/John/Desktop/workspace/miniwinwm/MiniWin/gl\gl.c **** 	}
 970:C:/Users/John/Desktop/workspace/miniwinwm/MiniWin/gl\gl.c **** }
 3693                             		.loc 1 970 1
 3694 01e4 3F AA 0C                		rtsd	#48, r10-r10
 3695                             	.LFE11:
 3697                             		.section C,"a",@progbits
 3698 0059 00 00 00                		.p2align 2
 3699                             	.LC3:
 3700 005c 55 6E 6B 6E 6F 77 6E 20 		.string	"Unknown text rotation"
 3700      74 65 78 74 20 72 6F 74 
 3700      61 74 69 6F 6E 00 
 3701                             		.section	.text.title_font_string,"ax",@progbits
 3703                             	_title_font_string:
 3704                             	.LFB12:
 971:C:/Users/John/Desktop/workspace/miniwinwm/MiniWin/gl\gl.c **** 
 972:C:/Users/John/Desktop/workspace/miniwinwm/MiniWin/gl\gl.c **** /**
 973:C:/Users/John/Desktop/workspace/miniwinwm/MiniWin/gl\gl.c ****  * Draw a string of proportional title font string. Foreground colour, background colour, rotation 
 974:C:/Users/John/Desktop/workspace/miniwinwm/MiniWin/gl\gl.c ****  *
 975:C:/Users/John/Desktop/workspace/miniwinwm/MiniWin/gl\gl.c ****  * @param draw_info Reference frame origin coordinates and clip region rect
 976:C:/Users/John/Desktop/workspace/miniwinwm/MiniWin/gl\gl.c ****  * @param x Coordinate of the left edge of the rectangle containing the first character
 977:C:/Users/John/Desktop/workspace/miniwinwm/MiniWin/gl\gl.c ****  * @param y Coordinate of the top edge of the rectangle containing the first character
 978:C:/Users/John/Desktop/workspace/miniwinwm/MiniWin/gl\gl.c ****  * @param s Pointer to the null terminated string containing characters
 979:C:/Users/John/Desktop/workspace/miniwinwm/MiniWin/gl\gl.c ****  */
 980:C:/Users/John/Desktop/workspace/miniwinwm/MiniWin/gl\gl.c **** static void title_font_string(const mw_gl_draw_info_t *draw_info, int16_t x, int16_t y, const char 
 981:C:/Users/John/Desktop/workspace/miniwinwm/MiniWin/gl\gl.c **** {
 3705                             		.loc 1 981 1
 3706 0000 6E 7A                   		pushm	r7-r10
 3707                             	.LCFI37:
 3708 0002 71 0A D8                		add	#-40, r0, r10
 3709                             	.LCFI38:
 3710 0005 71 A0 F8                		add	#-8, r10, r0
 3711                             	.LCFI39:
 3712 0008 E7 A1 07                		mov.L	r1, 28[r10]
 3713 000b D7 A2 10                		mov.W	r2, 32[r10]
 3714 000e D7 A3 11                		mov.W	r3, 34[r10]
 3715 0011 E7 A4 09                		mov.L	r4, 36[r10]
 982:C:/Users/John/Desktop/workspace/miniwinwm/MiniWin/gl\gl.c **** 	size_t length = strlen(s);
 3716                             		.loc 1 982 18
 3717 0014 ED A1 09                		mov.L	36[r10], r1
 3718 0017 05 00 00 00             		bsr	_strlen
 3719 001b E7 A1 03                		mov.L	r1, 12[r10]
 983:C:/Users/John/Desktop/workspace/miniwinwm/MiniWin/gl\gl.c **** 	uint8_t mask;
 984:C:/Users/John/Desktop/workspace/miniwinwm/MiniWin/gl\gl.c **** 	int16_t start_pos_in_bitmap;
 985:C:/Users/John/Desktop/workspace/miniwinwm/MiniWin/gl\gl.c **** 	int16_t end_pos_in_bitmap;
 986:C:/Users/John/Desktop/workspace/miniwinwm/MiniWin/gl\gl.c **** 	int16_t bitmap_x;
 987:C:/Users/John/Desktop/workspace/miniwinwm/MiniWin/gl\gl.c **** 	int16_t bitmap_y;
 988:C:/Users/John/Desktop/workspace/miniwinwm/MiniWin/gl\gl.c **** 	uint8_t i;
 989:C:/Users/John/Desktop/workspace/miniwinwm/MiniWin/gl\gl.c **** 	uint8_t byte_from_bitmap;
 990:C:/Users/John/Desktop/workspace/miniwinwm/MiniWin/gl\gl.c **** 	char c;
 991:C:/Users/John/Desktop/workspace/miniwinwm/MiniWin/gl\gl.c **** 	int16_t next_char_start_position_along_string = 0;
 3720                             		.loc 1 991 10
 3721 001e F9 A5 04 00             		mov.W	#0, 8[r10]
 992:C:/Users/John/Desktop/workspace/miniwinwm/MiniWin/gl\gl.c **** 	int16_t position_across_character;
 993:C:/Users/John/Desktop/workspace/miniwinwm/MiniWin/gl\gl.c **** 	int16_t string_width_pixels;
 994:C:/Users/John/Desktop/workspace/miniwinwm/MiniWin/gl\gl.c **** 	uint16_t temp_uint16;
 995:C:/Users/John/Desktop/workspace/miniwinwm/MiniWin/gl\gl.c **** 
 996:C:/Users/John/Desktop/workspace/miniwinwm/MiniWin/gl\gl.c **** 	if (draw_info == NULL || s == NULL)
 3722                             		.loc 1 996 5
 3723 0022 ED A5 07                		mov.L	28[r10], r5
 3724 0025 61 05                   		cmp	#0, r5
 3725 0027 10                      		beq	.L182
 3726                             		.loc 1 996 24 discriminator 1
 3727 0028 ED A5 09                		mov.L	36[r10], r5
 3728 002b 61 05                   		cmp	#0, r5
 3729 002d 21 1B                   		bne	.L183
 3730                             	.L182:
 997:C:/Users/John/Desktop/workspace/miniwinwm/MiniWin/gl\gl.c **** 	{
 998:C:/Users/John/Desktop/workspace/miniwinwm/MiniWin/gl\gl.c **** 		MW_ASSERT((bool)false, "Null pointer argument");
 3731                             		.loc 1 998 3
 3732 002f FB 42 00 00 00 00       		mov.L	#.LC0, r4
 3733 0035 FB 3A E6 03             		mov.L	#0x3e6, r3
 3734 0039 FB 22 00 00 00 00       		mov.L	#___func__.3237, r2
 3735 003f 66 01                   		mov	#0, r1
 3736 0041 05 00 00 00             		bsr	_mw_debug_print_assert
 999:C:/Users/John/Desktop/workspace/miniwinwm/MiniWin/gl\gl.c **** 		return;
 3737                             		.loc 1 999 3
 3738 0045 38 64 04                		bra	.L181
 3739                             	.L183:
1000:C:/Users/John/Desktop/workspace/miniwinwm/MiniWin/gl\gl.c **** 	}
1001:C:/Users/John/Desktop/workspace/miniwinwm/MiniWin/gl\gl.c **** 
1002:C:/Users/John/Desktop/workspace/miniwinwm/MiniWin/gl\gl.c **** 	string_width_pixels = mw_gl_get_string_width_pixels(s);
 3740                             		.loc 1 1002 24
 3741 0048 ED A1 09                		mov.L	36[r10], r1
 3742 004b 05 00 00 00             		bsr	_mw_gl_get_string_width_pixels
 3743 004f EF 15                   		mov.L	r1, r5
 3744 0051 D7 A5 08                		mov.W	r5, 16[r10]
1003:C:/Users/John/Desktop/workspace/miniwinwm/MiniWin/gl\gl.c **** 
1004:C:/Users/John/Desktop/workspace/miniwinwm/MiniWin/gl\gl.c **** 	switch (gc.text_rotation)
 3745                             		.loc 1 1004 12
 3746 0054 FB 52 00 00 00 00       		mov.L	#_gc, r5
 3747 005a AC 5D                   		mov.L	68[r5], r5
 3748                             		.loc 1 1004 2
 3749 005c 61 15                   		cmp	#1, r5
 3750 005e 3A 9F 00                		beq	.L185
 3751 0061 61 05                   		cmp	#0, r5
 3752 0063 20 0F                   		beq	.L186
 3753 0065 61 25                   		cmp	#2, r5
 3754 0067 3A 27 01                		beq	.L187
 3755 006a 61 35                   		cmp	#3, r5
 3756 006c 3A BB 01                		beq	.L188
 3757 006f 38 4D 02                		bra	.L218
 3758                             	.L186:
1005:C:/Users/John/Desktop/workspace/miniwinwm/MiniWin/gl\gl.c **** 	{
1006:C:/Users/John/Desktop/workspace/miniwinwm/MiniWin/gl\gl.c **** 	case MW_GL_TEXT_ROTATION_0:
1007:C:/Users/John/Desktop/workspace/miniwinwm/MiniWin/gl\gl.c **** 		/* check for completely off rect */
1008:C:/Users/John/Desktop/workspace/miniwinwm/MiniWin/gl\gl.c **** 		if (x >= draw_info->clip_rect.x + draw_info->clip_rect.width ||
 3759                             		.loc 1 1008 9
 3760 0072 DD A4 10                		mov.W	32[r10], r4
 3761                             		.loc 1 1008 32
 3762 0075 ED A5 07                		mov.L	28[r10], r5
 3763 0078 98 D5                   		mov.W	4[r5], r5
 3764 007a DF 53                   		mov.W	r5, r3
 3765                             		.loc 1 1008 57
 3766 007c ED A5 07                		mov.L	28[r10], r5
 3767 007f 99 55                   		mov.W	8[r5], r5
 3768 0081 DF 55                   		mov.W	r5, r5
 3769                             		.loc 1 1008 35
 3770 0083 4B 35                   		add	r3, r5
 3771                             		.loc 1 1008 6
 3772 0085 47 54                   		cmp	r5, r4
 3773 0087 29 05 38 18 04          		bge	.L219
1009:C:/Users/John/Desktop/workspace/miniwinwm/MiniWin/gl\gl.c **** 				y >= draw_info->clip_rect.y + draw_info->clip_rect.height ||
 3774                             		.loc 1 1009 7 discriminator 1
 3775 008c DD A4 11                		mov.W	34[r10], r4
 3776                             		.loc 1 1009 30 discriminator 1
 3777 008f ED A5 07                		mov.L	28[r10], r5
 3778 0092 98 DD                   		mov.W	6[r5], r5
 3779 0094 DF 53                   		mov.W	r5, r3
 3780                             		.loc 1 1009 55 discriminator 1
 3781 0096 ED A5 07                		mov.L	28[r10], r5
 3782 0099 99 5D                   		mov.W	10[r5], r5
 3783 009b DF 55                   		mov.W	r5, r5
 3784                             		.loc 1 1009 33 discriminator 1
 3785 009d 4B 35                   		add	r3, r5
1008:C:/Users/John/Desktop/workspace/miniwinwm/MiniWin/gl\gl.c **** 				y >= draw_info->clip_rect.y + draw_info->clip_rect.height ||
 3786                             		.loc 1 1008 64 discriminator 1
 3787 009f 47 54                   		cmp	r5, r4
 3788 00a1 29 05 38 FE 03          		bge	.L219
1010:C:/Users/John/Desktop/workspace/miniwinwm/MiniWin/gl\gl.c **** 				x + string_width_pixels <= draw_info->clip_rect.x ||
 3789                             		.loc 1 1010 7
 3790 00a6 DD A4 10                		mov.W	32[r10], r4
 3791 00a9 DD A5 08                		mov.W	16[r10], r5
 3792 00ac 4B 54                   		add	r5, r4
 3793                             		.loc 1 1010 52
 3794 00ae ED A5 07                		mov.L	28[r10], r5
 3795 00b1 98 D5                   		mov.W	4[r5], r5
 3796 00b3 DF 55                   		mov.W	r5, r5
1009:C:/Users/John/Desktop/workspace/miniwinwm/MiniWin/gl\gl.c **** 				y >= draw_info->clip_rect.y + draw_info->clip_rect.height ||
 3797                             		.loc 1 1009 63
 3798 00b5 47 54                   		cmp	r5, r4
 3799 00b7 2A 05 38 E8 03          		ble	.L219
1011:C:/Users/John/Desktop/workspace/miniwinwm/MiniWin/gl\gl.c **** 				y + MW_GL_TITLE_FONT_HEIGHT <= draw_info->clip_rect.y)
 3800                             		.loc 1 1011 33
 3801 00bc DD A5 11                		mov.W	34[r10], r5
 3802 00bf 71 54 0F                		add	#15, r5, r4
 3803                             		.loc 1 1011 56
 3804 00c2 ED A5 07                		mov.L	28[r10], r5
 3805 00c5 98 DD                   		mov.W	6[r5], r5
 3806 00c7 DF 55                   		mov.W	r5, r5
1010:C:/Users/John/Desktop/workspace/miniwinwm/MiniWin/gl\gl.c **** 				x + string_width_pixels <= draw_info->clip_rect.x ||
 3807                             		.loc 1 1010 55
 3808 00c9 47 54                   		cmp	r5, r4
 3809 00cb 28 05 38 D4 03          		blt	.L219
1012:C:/Users/John/Desktop/workspace/miniwinwm/MiniWin/gl\gl.c **** 		{
1013:C:/Users/John/Desktop/workspace/miniwinwm/MiniWin/gl\gl.c **** 			return;
1014:C:/Users/John/Desktop/workspace/miniwinwm/MiniWin/gl\gl.c **** 		}
1015:C:/Users/John/Desktop/workspace/miniwinwm/MiniWin/gl\gl.c **** 
1016:C:/Users/John/Desktop/workspace/miniwinwm/MiniWin/gl\gl.c **** 		if (gc.bg_transparent == MW_GL_BG_NOT_TRANSPARENT)
 3810                             		.loc 1 1016 9
 3811 00d0 FB 52 00 00 00 00       		mov.L	#_gc, r5
 3812 00d6 AB DD                   		mov.L	60[r5], r5
 3813                             		.loc 1 1016 6
 3814 00d8 61 15                   		cmp	#1, r5
 3815 00da 3B F9 01                		bne	.L220
1017:C:/Users/John/Desktop/workspace/miniwinwm/MiniWin/gl\gl.c **** 		{
1018:C:/Users/John/Desktop/workspace/miniwinwm/MiniWin/gl\gl.c **** 			filled_rectangle(draw_info,
 3816                             		.loc 1 1018 4
 3817 00dd FB 52 00 00 00 00       		mov.L	#_gc, r5
 3818 00e3 A8 5D                   		mov.L	4[r5], r5
 3819 00e5 A0 0D                   		mov.L	r5, 4[r0]
 3820 00e7 F8 05 10                		mov.W	#16, [r0]
 3821 00ea DD A4 08                		mov.W	16[r10], r4
 3822 00ed DD A3 11                		mov.W	34[r10], r3
 3823 00f0 DD A2 10                		mov.W	32[r10], r2
 3824 00f3 ED A1 07                		mov.L	28[r10], r1
 3825 00f6 05 00 00 00             		bsr	_filled_rectangle
1019:C:/Users/John/Desktop/workspace/miniwinwm/MiniWin/gl\gl.c **** 					x,
1020:C:/Users/John/Desktop/workspace/miniwinwm/MiniWin/gl\gl.c **** 					y,
1021:C:/Users/John/Desktop/workspace/miniwinwm/MiniWin/gl\gl.c **** 					string_width_pixels,
1022:C:/Users/John/Desktop/workspace/miniwinwm/MiniWin/gl\gl.c **** 					MW_GL_TITLE_FONT_HEIGHT,
1023:C:/Users/John/Desktop/workspace/miniwinwm/MiniWin/gl\gl.c **** 					gc.bg_colour);
1024:C:/Users/John/Desktop/workspace/miniwinwm/MiniWin/gl\gl.c **** 		}
1025:C:/Users/John/Desktop/workspace/miniwinwm/MiniWin/gl\gl.c **** 		break;
 3826                             		.loc 1 1025 3
 3827 00fa 38 D9 01                		bra	.L220
 3828                             	.L185:
1026:C:/Users/John/Desktop/workspace/miniwinwm/MiniWin/gl\gl.c **** 
1027:C:/Users/John/Desktop/workspace/miniwinwm/MiniWin/gl\gl.c **** 	case MW_GL_TEXT_ROTATION_90:
1028:C:/Users/John/Desktop/workspace/miniwinwm/MiniWin/gl\gl.c **** 		/* check for completely off rect */
1029:C:/Users/John/Desktop/workspace/miniwinwm/MiniWin/gl\gl.c **** 		if (x - MW_GL_TITLE_FONT_HEIGHT >= draw_info->clip_rect.x + draw_info->clip_rect.width ||
 3829                             		.loc 1 1029 35
 3830 00fd DD A5 10                		mov.W	32[r10], r5
 3831 0100 71 54 F1                		add	#-15, r5, r4
 3832                             		.loc 1 1029 58
 3833 0103 ED A5 07                		mov.L	28[r10], r5
 3834 0106 98 D5                   		mov.W	4[r5], r5
 3835 0108 DF 53                   		mov.W	r5, r3
 3836                             		.loc 1 1029 83
 3837 010a ED A5 07                		mov.L	28[r10], r5
 3838 010d 99 55                   		mov.W	8[r5], r5
 3839 010f DF 55                   		mov.W	r5, r5
 3840                             		.loc 1 1029 61
 3841 0111 4B 35                   		add	r3, r5
 3842                             		.loc 1 1029 6
 3843 0113 47 54                   		cmp	r5, r4
 3844 0115 2B 05 38 8C 03          		bgt	.L221
1030:C:/Users/John/Desktop/workspace/miniwinwm/MiniWin/gl\gl.c **** 				y >= draw_info->clip_rect.y + draw_info->clip_rect.height ||
 3845                             		.loc 1 1030 7 discriminator 1
 3846 011a DD A4 11                		mov.W	34[r10], r4
 3847                             		.loc 1 1030 30 discriminator 1
 3848 011d ED A5 07                		mov.L	28[r10], r5
 3849 0120 98 DD                   		mov.W	6[r5], r5
 3850 0122 DF 53                   		mov.W	r5, r3
 3851                             		.loc 1 1030 55 discriminator 1
 3852 0124 ED A5 07                		mov.L	28[r10], r5
 3853 0127 99 5D                   		mov.W	10[r5], r5
 3854 0129 DF 55                   		mov.W	r5, r5
 3855                             		.loc 1 1030 33 discriminator 1
 3856 012b 4B 35                   		add	r3, r5
1029:C:/Users/John/Desktop/workspace/miniwinwm/MiniWin/gl\gl.c **** 				y >= draw_info->clip_rect.y + draw_info->clip_rect.height ||
 3857                             		.loc 1 1029 90 discriminator 1
 3858 012d 47 54                   		cmp	r5, r4
 3859 012f 29 05 38 72 03          		bge	.L221
1031:C:/Users/John/Desktop/workspace/miniwinwm/MiniWin/gl\gl.c **** 				x <= draw_info->clip_rect.x ||
 3860                             		.loc 1 1031 30
 3861 0134 ED A5 07                		mov.L	28[r10], r5
 3862 0137 98 D5                   		mov.W	4[r5], r5
1030:C:/Users/John/Desktop/workspace/miniwinwm/MiniWin/gl\gl.c **** 				y >= draw_info->clip_rect.y + draw_info->clip_rect.height ||
 3863                             		.loc 1 1030 63
 3864 0139 DD A4 10                		mov.W	32[r10], r4
 3865 013c DF 55                   		mov.W	r5, r5
 3866 013e 47 54                   		cmp	r5, r4
 3867 0140 2A 05 38 61 03          		ble	.L221
1032:C:/Users/John/Desktop/workspace/miniwinwm/MiniWin/gl\gl.c **** 				y + string_width_pixels <= draw_info->clip_rect.y)
 3868                             		.loc 1 1032 7
 3869 0145 DD A4 11                		mov.W	34[r10], r4
 3870 0148 DD A5 08                		mov.W	16[r10], r5
 3871 014b 4B 54                   		add	r5, r4
 3872                             		.loc 1 1032 52
 3873 014d ED A5 07                		mov.L	28[r10], r5
 3874 0150 98 DD                   		mov.W	6[r5], r5
 3875 0152 DF 55                   		mov.W	r5, r5
1031:C:/Users/John/Desktop/workspace/miniwinwm/MiniWin/gl\gl.c **** 				x <= draw_info->clip_rect.x ||
 3876                             		.loc 1 1031 33
 3877 0154 47 54                   		cmp	r5, r4
 3878 0156 2A 05 38 4B 03          		ble	.L221
1033:C:/Users/John/Desktop/workspace/miniwinwm/MiniWin/gl\gl.c **** 		{
1034:C:/Users/John/Desktop/workspace/miniwinwm/MiniWin/gl\gl.c **** 			return;
1035:C:/Users/John/Desktop/workspace/miniwinwm/MiniWin/gl\gl.c **** 		}
1036:C:/Users/John/Desktop/workspace/miniwinwm/MiniWin/gl\gl.c **** 
1037:C:/Users/John/Desktop/workspace/miniwinwm/MiniWin/gl\gl.c **** 		if (gc.bg_transparent == MW_GL_BG_NOT_TRANSPARENT)
 3879                             		.loc 1 1037 9
 3880 015b FB 52 00 00 00 00       		mov.L	#_gc, r5
 3881 0161 AB DD                   		mov.L	60[r5], r5
 3882                             		.loc 1 1037 6
 3883 0163 61 15                   		cmp	#1, r5
 3884 0165 3B 70 01                		bne	.L222
1038:C:/Users/John/Desktop/workspace/miniwinwm/MiniWin/gl\gl.c **** 		{
1039:C:/Users/John/Desktop/workspace/miniwinwm/MiniWin/gl\gl.c **** 			filled_rectangle(draw_info,
1040:C:/Users/John/Desktop/workspace/miniwinwm/MiniWin/gl\gl.c **** 					x - MW_GL_TITLE_FONT_HEIGHT + 1,
 3885                             		.loc 1 1040 34
 3886 0168 DD A5 10                		mov.W	32[r10], r5
 3887 016b 60 F5                   		sub	#15, r5
1039:C:/Users/John/Desktop/workspace/miniwinwm/MiniWin/gl\gl.c **** 					x - MW_GL_TITLE_FONT_HEIGHT + 1,
 3888                             		.loc 1 1039 4
 3889 016d DF 52                   		mov.W	r5, r2
 3890 016f FB 52 00 00 00 00       		mov.L	#_gc, r5
 3891 0175 A8 5D                   		mov.L	4[r5], r5
 3892 0177 A0 0D                   		mov.L	r5, 4[r0]
 3893 0179 DD A5 08                		mov.W	16[r10], r5
 3894 017c D3 05                   		mov.W	r5, [r0]
 3895 017e 75 44 10                		mov	#16, r4
 3896 0181 DD A3 11                		mov.W	34[r10], r3
 3897 0184 ED A1 07                		mov.L	28[r10], r1
 3898 0187 05 00 00 00             		bsr	_filled_rectangle
1041:C:/Users/John/Desktop/workspace/miniwinwm/MiniWin/gl\gl.c **** 					y,
1042:C:/Users/John/Desktop/workspace/miniwinwm/MiniWin/gl\gl.c **** 					MW_GL_TITLE_FONT_HEIGHT,
1043:C:/Users/John/Desktop/workspace/miniwinwm/MiniWin/gl\gl.c **** 					string_width_pixels,
1044:C:/Users/John/Desktop/workspace/miniwinwm/MiniWin/gl\gl.c **** 					gc.bg_colour);
1045:C:/Users/John/Desktop/workspace/miniwinwm/MiniWin/gl\gl.c **** 		}
1046:C:/Users/John/Desktop/workspace/miniwinwm/MiniWin/gl\gl.c **** 		break;
 3899                             		.loc 1 1046 3
 3900 018b 38 4A 01                		bra	.L222
 3901                             	.L187:
1047:C:/Users/John/Desktop/workspace/miniwinwm/MiniWin/gl\gl.c **** 
1048:C:/Users/John/Desktop/workspace/miniwinwm/MiniWin/gl\gl.c **** 	case MW_GL_TEXT_ROTATION_180:
1049:C:/Users/John/Desktop/workspace/miniwinwm/MiniWin/gl\gl.c **** 		/* check for completely off rect */
1050:C:/Users/John/Desktop/workspace/miniwinwm/MiniWin/gl\gl.c **** 		if (x <= draw_info->clip_rect.x ||
 3902                             		.loc 1 1050 32
 3903 018e ED A5 07                		mov.L	28[r10], r5
 3904 0191 98 D5                   		mov.W	4[r5], r5
 3905                             		.loc 1 1050 6
 3906 0193 DD A4 10                		mov.W	32[r10], r4
 3907 0196 DF 55                   		mov.W	r5, r5
 3908 0198 47 54                   		cmp	r5, r4
 3909 019a 2A 05 38 09 03          		ble	.L223
1051:C:/Users/John/Desktop/workspace/miniwinwm/MiniWin/gl\gl.c **** 				y <= draw_info->clip_rect.y ||
 3910                             		.loc 1 1051 30 discriminator 1
 3911 019f ED A5 07                		mov.L	28[r10], r5
 3912 01a2 98 DD                   		mov.W	6[r5], r5
1050:C:/Users/John/Desktop/workspace/miniwinwm/MiniWin/gl\gl.c **** 				y <= draw_info->clip_rect.y ||
 3913                             		.loc 1 1050 35 discriminator 1
 3914 01a4 DD A4 11                		mov.W	34[r10], r4
 3915 01a7 DF 55                   		mov.W	r5, r5
 3916 01a9 47 54                   		cmp	r5, r4
 3917 01ab 2A 05 38 F8 02          		ble	.L223
1052:C:/Users/John/Desktop/workspace/miniwinwm/MiniWin/gl\gl.c **** 				x - string_width_pixels >= draw_info->clip_rect.x  + draw_info->clip_rect.width ||
 3918                             		.loc 1 1052 7
 3919 01b0 DD A4 10                		mov.W	32[r10], r4
 3920 01b3 DD A5 08                		mov.W	16[r10], r5
 3921 01b6 43 54                   		sub	r5, r4
 3922                             		.loc 1 1052 52
 3923 01b8 ED A5 07                		mov.L	28[r10], r5
 3924 01bb 98 D5                   		mov.W	4[r5], r5
 3925 01bd DF 53                   		mov.W	r5, r3
 3926                             		.loc 1 1052 78
 3927 01bf ED A5 07                		mov.L	28[r10], r5
 3928 01c2 99 55                   		mov.W	8[r5], r5
 3929 01c4 DF 55                   		mov.W	r5, r5
 3930                             		.loc 1 1052 56
 3931 01c6 4B 35                   		add	r3, r5
1051:C:/Users/John/Desktop/workspace/miniwinwm/MiniWin/gl\gl.c **** 				y <= draw_info->clip_rect.y ||
 3932                             		.loc 1 1051 33
 3933 01c8 47 54                   		cmp	r5, r4
 3934 01ca 29 05 38 D9 02          		bge	.L223
1053:C:/Users/John/Desktop/workspace/miniwinwm/MiniWin/gl\gl.c **** 				y - MW_GL_TITLE_FONT_HEIGHT >= draw_info->clip_rect.y + draw_info->clip_rect.height)
 3935                             		.loc 1 1053 33
 3936 01cf DD A5 11                		mov.W	34[r10], r5
 3937 01d2 71 54 F1                		add	#-15, r5, r4
 3938                             		.loc 1 1053 56
 3939 01d5 ED A5 07                		mov.L	28[r10], r5
 3940 01d8 98 DD                   		mov.W	6[r5], r5
 3941 01da DF 53                   		mov.W	r5, r3
 3942                             		.loc 1 1053 81
 3943 01dc ED A5 07                		mov.L	28[r10], r5
 3944 01df 99 5D                   		mov.W	10[r5], r5
 3945 01e1 DF 55                   		mov.W	r5, r5
 3946                             		.loc 1 1053 59
 3947 01e3 4B 35                   		add	r3, r5
1052:C:/Users/John/Desktop/workspace/miniwinwm/MiniWin/gl\gl.c **** 				x - string_width_pixels >= draw_info->clip_rect.x  + draw_info->clip_rect.width ||
 3948                             		.loc 1 1052 85
 3949 01e5 47 54                   		cmp	r5, r4
 3950 01e7 2B 05 38 BC 02          		bgt	.L223
1054:C:/Users/John/Desktop/workspace/miniwinwm/MiniWin/gl\gl.c **** 		{
1055:C:/Users/John/Desktop/workspace/miniwinwm/MiniWin/gl\gl.c **** 			return;
1056:C:/Users/John/Desktop/workspace/miniwinwm/MiniWin/gl\gl.c **** 		}
1057:C:/Users/John/Desktop/workspace/miniwinwm/MiniWin/gl\gl.c **** 
1058:C:/Users/John/Desktop/workspace/miniwinwm/MiniWin/gl\gl.c **** 		if (gc.bg_transparent == MW_GL_BG_NOT_TRANSPARENT)
 3951                             		.loc 1 1058 9
 3952 01ec FB 52 00 00 00 00       		mov.L	#_gc, r5
 3953 01f2 AB DD                   		mov.L	60[r5], r5
 3954                             		.loc 1 1058 6
 3955 01f4 61 15                   		cmp	#1, r5
 3956 01f6 3B E1 00                		bne	.L224
1059:C:/Users/John/Desktop/workspace/miniwinwm/MiniWin/gl\gl.c **** 		{
1060:C:/Users/John/Desktop/workspace/miniwinwm/MiniWin/gl\gl.c **** 			filled_rectangle(draw_info,
1061:C:/Users/John/Desktop/workspace/miniwinwm/MiniWin/gl\gl.c **** 					x - string_width_pixels + 1,
 3957                             		.loc 1 1061 8
 3958 01f9 DD A4 10                		mov.W	32[r10], r4
 3959 01fc DD A5 08                		mov.W	16[r10], r5
 3960 01ff FF 05 54                		sub	r5, r4, r5
 3961                             		.loc 1 1061 30
 3962 0202 62 15                   		add	#1, r5
1060:C:/Users/John/Desktop/workspace/miniwinwm/MiniWin/gl\gl.c **** 					x - string_width_pixels + 1,
 3963                             		.loc 1 1060 4
 3964 0204 DF 52                   		mov.W	r5, r2
1062:C:/Users/John/Desktop/workspace/miniwinwm/MiniWin/gl\gl.c **** 					y - MW_GL_TITLE_FONT_HEIGHT + 1,
 3965                             		.loc 1 1062 34
 3966 0206 DD A5 11                		mov.W	34[r10], r5
 3967 0209 60 F5                   		sub	#15, r5
1060:C:/Users/John/Desktop/workspace/miniwinwm/MiniWin/gl\gl.c **** 					x - string_width_pixels + 1,
 3968                             		.loc 1 1060 4
 3969 020b DF 53                   		mov.W	r5, r3
 3970 020d FB 52 00 00 00 00       		mov.L	#_gc, r5
 3971 0213 A8 5D                   		mov.L	4[r5], r5
 3972 0215 A0 0D                   		mov.L	r5, 4[r0]
 3973 0217 F8 05 10                		mov.W	#16, [r0]
 3974 021a DD A4 08                		mov.W	16[r10], r4
 3975 021d ED A1 07                		mov.L	28[r10], r1
 3976 0220 05 00 00 00             		bsr	_filled_rectangle
1063:C:/Users/John/Desktop/workspace/miniwinwm/MiniWin/gl\gl.c **** 					string_width_pixels,
1064:C:/Users/John/Desktop/workspace/miniwinwm/MiniWin/gl\gl.c **** 					MW_GL_TITLE_FONT_HEIGHT,
1065:C:/Users/John/Desktop/workspace/miniwinwm/MiniWin/gl\gl.c **** 					gc.bg_colour);
1066:C:/Users/John/Desktop/workspace/miniwinwm/MiniWin/gl\gl.c **** 		}
1067:C:/Users/John/Desktop/workspace/miniwinwm/MiniWin/gl\gl.c **** 		break;
 3977                             		.loc 1 1067 3
 3978 0224 38 B3 00                		bra	.L224
 3979                             	.L188:
1068:C:/Users/John/Desktop/workspace/miniwinwm/MiniWin/gl\gl.c **** 
1069:C:/Users/John/Desktop/workspace/miniwinwm/MiniWin/gl\gl.c **** 	case MW_GL_TEXT_ROTATION_270:
1070:C:/Users/John/Desktop/workspace/miniwinwm/MiniWin/gl\gl.c **** 		/* check for completely off rect */
1071:C:/Users/John/Desktop/workspace/miniwinwm/MiniWin/gl\gl.c **** 		if (x >= draw_info->clip_rect.x + draw_info->clip_rect.width ||
 3980                             		.loc 1 1071 9
 3981 0227 DD A4 10                		mov.W	32[r10], r4
 3982                             		.loc 1 1071 32
 3983 022a ED A5 07                		mov.L	28[r10], r5
 3984 022d 98 D5                   		mov.W	4[r5], r5
 3985 022f DF 53                   		mov.W	r5, r3
 3986                             		.loc 1 1071 57
 3987 0231 ED A5 07                		mov.L	28[r10], r5
 3988 0234 99 55                   		mov.W	8[r5], r5
 3989 0236 DF 55                   		mov.W	r5, r5
 3990                             		.loc 1 1071 35
 3991 0238 4B 35                   		add	r3, r5
 3992                             		.loc 1 1071 6
 3993 023a 47 54                   		cmp	r5, r4
 3994 023c 29 05 38 6A 02          		bge	.L225
1072:C:/Users/John/Desktop/workspace/miniwinwm/MiniWin/gl\gl.c **** 				y <= draw_info->clip_rect.y ||
 3995                             		.loc 1 1072 30 discriminator 1
 3996 0241 ED A5 07                		mov.L	28[r10], r5
 3997 0244 98 DD                   		mov.W	6[r5], r5
1071:C:/Users/John/Desktop/workspace/miniwinwm/MiniWin/gl\gl.c **** 				y <= draw_info->clip_rect.y ||
 3998                             		.loc 1 1071 64 discriminator 1
 3999 0246 DD A4 11                		mov.W	34[r10], r4
 4000 0249 DF 55                   		mov.W	r5, r5
 4001 024b 47 54                   		cmp	r5, r4
 4002 024d 2A 05 38 59 02          		ble	.L225
1073:C:/Users/John/Desktop/workspace/miniwinwm/MiniWin/gl\gl.c **** 				x + MW_GL_TITLE_FONT_HEIGHT <= draw_info->clip_rect.x ||
 4003                             		.loc 1 1073 33
 4004 0252 DD A5 10                		mov.W	32[r10], r5
 4005 0255 71 54 0F                		add	#15, r5, r4
 4006                             		.loc 1 1073 56
 4007 0258 ED A5 07                		mov.L	28[r10], r5
 4008 025b 98 D5                   		mov.W	4[r5], r5
 4009 025d DF 55                   		mov.W	r5, r5
1072:C:/Users/John/Desktop/workspace/miniwinwm/MiniWin/gl\gl.c **** 				y <= draw_info->clip_rect.y ||
 4010                             		.loc 1 1072 33
 4011 025f 47 54                   		cmp	r5, r4
 4012 0261 28 05 38 45 02          		blt	.L225
1074:C:/Users/John/Desktop/workspace/miniwinwm/MiniWin/gl\gl.c **** 				y - string_width_pixels >= draw_info->clip_rect.y +  draw_info->clip_rect.height)
 4013                             		.loc 1 1074 7
 4014 0266 DD A4 11                		mov.W	34[r10], r4
 4015 0269 DD A5 08                		mov.W	16[r10], r5
 4016 026c 43 54                   		sub	r5, r4
 4017                             		.loc 1 1074 52
 4018 026e ED A5 07                		mov.L	28[r10], r5
 4019 0271 98 DD                   		mov.W	6[r5], r5
 4020 0273 DF 53                   		mov.W	r5, r3
 4021                             		.loc 1 1074 78
 4022 0275 ED A5 07                		mov.L	28[r10], r5
 4023 0278 99 5D                   		mov.W	10[r5], r5
 4024 027a DF 55                   		mov.W	r5, r5
 4025                             		.loc 1 1074 55
 4026 027c 4B 35                   		add	r3, r5
1073:C:/Users/John/Desktop/workspace/miniwinwm/MiniWin/gl\gl.c **** 				x + MW_GL_TITLE_FONT_HEIGHT <= draw_info->clip_rect.x ||
 4027                             		.loc 1 1073 59
 4028 027e 47 54                   		cmp	r5, r4
 4029 0280 29 05 38 26 02          		bge	.L225
1075:C:/Users/John/Desktop/workspace/miniwinwm/MiniWin/gl\gl.c **** 		{
1076:C:/Users/John/Desktop/workspace/miniwinwm/MiniWin/gl\gl.c **** 			return;
1077:C:/Users/John/Desktop/workspace/miniwinwm/MiniWin/gl\gl.c **** 		}
1078:C:/Users/John/Desktop/workspace/miniwinwm/MiniWin/gl\gl.c **** 
1079:C:/Users/John/Desktop/workspace/miniwinwm/MiniWin/gl\gl.c **** 		if (gc.bg_transparent == MW_GL_BG_NOT_TRANSPARENT)
 4030                             		.loc 1 1079 9
 4031 0285 FB 52 00 00 00 00       		mov.L	#_gc, r5
 4032 028b AB DD                   		mov.L	60[r5], r5
 4033                             		.loc 1 1079 6
 4034 028d 61 15                   		cmp	#1, r5
 4035 028f 21 4B                   		bne	.L226
1080:C:/Users/John/Desktop/workspace/miniwinwm/MiniWin/gl\gl.c **** 		{
1081:C:/Users/John/Desktop/workspace/miniwinwm/MiniWin/gl\gl.c **** 			filled_rectangle(draw_info,
1082:C:/Users/John/Desktop/workspace/miniwinwm/MiniWin/gl\gl.c **** 					x,
1083:C:/Users/John/Desktop/workspace/miniwinwm/MiniWin/gl\gl.c **** 					y - string_width_pixels + 1,
 4036                             		.loc 1 1083 8
 4037 0291 DD A4 11                		mov.W	34[r10], r4
 4038 0294 DD A5 08                		mov.W	16[r10], r5
 4039 0297 FF 05 54                		sub	r5, r4, r5
 4040                             		.loc 1 1083 30
 4041 029a 62 15                   		add	#1, r5
1081:C:/Users/John/Desktop/workspace/miniwinwm/MiniWin/gl\gl.c **** 					x,
 4042                             		.loc 1 1081 4
 4043 029c DF 53                   		mov.W	r5, r3
 4044 029e FB 52 00 00 00 00       		mov.L	#_gc, r5
 4045 02a4 A8 5D                   		mov.L	4[r5], r5
 4046 02a6 A0 0D                   		mov.L	r5, 4[r0]
 4047 02a8 DD A5 08                		mov.W	16[r10], r5
 4048 02ab D3 05                   		mov.W	r5, [r0]
 4049 02ad 75 44 10                		mov	#16, r4
 4050 02b0 DD A2 10                		mov.W	32[r10], r2
 4051 02b3 ED A1 07                		mov.L	28[r10], r1
 4052 02b6 05 00 00 00             		bsr	_filled_rectangle
1084:C:/Users/John/Desktop/workspace/miniwinwm/MiniWin/gl\gl.c **** 					MW_GL_TITLE_FONT_HEIGHT,
1085:C:/Users/John/Desktop/workspace/miniwinwm/MiniWin/gl\gl.c **** 					string_width_pixels,
1086:C:/Users/John/Desktop/workspace/miniwinwm/MiniWin/gl\gl.c **** 					gc.bg_colour);
1087:C:/Users/John/Desktop/workspace/miniwinwm/MiniWin/gl\gl.c **** 		}
1088:C:/Users/John/Desktop/workspace/miniwinwm/MiniWin/gl\gl.c **** 		break;
 4053                             		.loc 1 1088 3
 4054 02ba 2E 20                   		bra	.L226
 4055                             	.L218:
1089:C:/Users/John/Desktop/workspace/miniwinwm/MiniWin/gl\gl.c **** 
1090:C:/Users/John/Desktop/workspace/miniwinwm/MiniWin/gl\gl.c **** 	default:
1091:C:/Users/John/Desktop/workspace/miniwinwm/MiniWin/gl\gl.c **** 		MW_ASSERT((bool)false, "Unknown text rotation");
 4056                             		.loc 1 1091 3
 4057 02bc FB 42 5C 00 00 00       		mov.L	#.LC3, r4
 4058 02c2 FB 3A 43 04             		mov.L	#0x443, r3
 4059 02c6 FB 22 00 00 00 00       		mov.L	#___func__.3237, r2
 4060 02cc 66 01                   		mov	#0, r1
 4061 02ce 05 00 00 00             		bsr	_mw_debug_print_assert
1092:C:/Users/John/Desktop/workspace/miniwinwm/MiniWin/gl\gl.c **** 		break;
 4062                             		.loc 1 1092 3
 4063 02d2 09                      		bra	.L193
 4064                             	.L220:
1025:C:/Users/John/Desktop/workspace/miniwinwm/MiniWin/gl\gl.c **** 
 4065                             		.loc 1 1025 3
 4066 02d3 03                      		nop
 4067 02d4 0F                      		bra	.L193
 4068                             	.L222:
1046:C:/Users/John/Desktop/workspace/miniwinwm/MiniWin/gl\gl.c **** 
 4069                             		.loc 1 1046 3
 4070 02d5 03                      		nop
 4071 02d6 0D                      		bra	.L193
 4072                             	.L224:
1067:C:/Users/John/Desktop/workspace/miniwinwm/MiniWin/gl\gl.c **** 
 4073                             		.loc 1 1067 3
 4074 02d7 03                      		nop
 4075 02d8 2E 03                   		bra	.L193
 4076                             	.L226:
1088:C:/Users/John/Desktop/workspace/miniwinwm/MiniWin/gl\gl.c **** 
 4077                             		.loc 1 1088 3
 4078 02da 03                      		nop
 4079                             		.balign 8,3,4
 4080                             	.L193:
1093:C:/Users/John/Desktop/workspace/miniwinwm/MiniWin/gl\gl.c **** 	}
1094:C:/Users/John/Desktop/workspace/miniwinwm/MiniWin/gl\gl.c **** 
1095:C:/Users/John/Desktop/workspace/miniwinwm/MiniWin/gl\gl.c **** 	for (i = 0U; i < length; i++)
 4081                             		.loc 1 1095 9
 4082 02db F9 A4 06 00             		mov.B	#0, 6[r10]
 4083                             		.loc 1 1095 2
 4084 02df 38 B4 01                		bra	.L203
 4085                             	.L217:
1096:C:/Users/John/Desktop/workspace/miniwinwm/MiniWin/gl\gl.c **** 	{
1097:C:/Users/John/Desktop/workspace/miniwinwm/MiniWin/gl\gl.c **** 		for (bitmap_y = 0; bitmap_y < MW_GL_TITLE_FONT_HEIGHT; bitmap_y++)
 4086                             		.loc 1 1097 17
 4087 02e2 F9 A5 02 00             		mov.W	#0, 4[r10]
 4088                             		.loc 1 1097 3
 4089 02e6 38 90 01                		bra	.L204
 4090                             	.L216:
1098:C:/Users/John/Desktop/workspace/miniwinwm/MiniWin/gl\gl.c **** 		{
1099:C:/Users/John/Desktop/workspace/miniwinwm/MiniWin/gl\gl.c **** 			c = s[i];
 4091                             		.loc 1 1099 9
 4092 02e9 59 A5 06                		movu.B	6[r10], r5
 4093 02ec ED A4 09                		mov.L	36[r10], r4
 4094 02ef 4B 45                   		add	r4, r5
 4095                             		.loc 1 1099 6
 4096 02f1 CC 55                   		mov.B	[r5], r5
 4097 02f3 C7 A5 07                		mov.B	r5, 7[r10]
1100:C:/Users/John/Desktop/workspace/miniwinwm/MiniWin/gl\gl.c **** 			if (c < ' ' || c > '~')
 4098                             		.loc 1 1100 7
 4099 02f6 59 A5 07                		movu.B	7[r10], r5
 4100 02f9 75 55 1F                		cmp	#31, r5
 4101 02fc 25 0A                   		bleu	.L205
 4102                             		.loc 1 1100 16 discriminator 1
 4103 02fe 59 A5 07                		movu.B	7[r10], r5
 4104 0301 75 55 7E                		cmp	#0x7e, r5
 4105 0304 25 06                   		bleu	.L206
 4106                             	.L205:
1101:C:/Users/John/Desktop/workspace/miniwinwm/MiniWin/gl\gl.c **** 			{
1102:C:/Users/John/Desktop/workspace/miniwinwm/MiniWin/gl\gl.c **** 				c = '*';
 4107                             		.loc 1 1102 7
 4108 0306 F9 A4 07 2A             		mov.B	#42, 7[r10]
 4109                             	.L206:
1103:C:/Users/John/Desktop/workspace/miniwinwm/MiniWin/gl\gl.c **** 			}
1104:C:/Users/John/Desktop/workspace/miniwinwm/MiniWin/gl\gl.c **** 			c -= 32;
 4110                             		.loc 1 1104 6
 4111 030a CD A5 07                		mov.B	7[r10], r5
 4112 030d 71 55 E0                		add	#-32, r5
 4113 0310 C7 A5 07                		mov.B	r5, 7[r10]
1105:C:/Users/John/Desktop/workspace/miniwinwm/MiniWin/gl\gl.c **** 
1106:C:/Users/John/Desktop/workspace/miniwinwm/MiniWin/gl\gl.c **** 			start_pos_in_bitmap = (int16_t)mw_title_font_positions[(uint8_t)c];
 4114                             		.loc 1 1106 59
 4115 0313 59 A5 07                		movu.B	7[r10], r5
 4116                             		.loc 1 1106 58
 4117 0316 FB 42 00 00 00 00       		mov.L	#_mw_title_font_positions, r4
 4118 031c FE 55 45                		mov.W	[r5,r4], r5
 4119                             		.loc 1 1106 24
 4120 031f D7 A5 09                		mov.W	r5, 18[r10]
1107:C:/Users/John/Desktop/workspace/miniwinwm/MiniWin/gl\gl.c **** 			end_pos_in_bitmap = (int16_t)mw_title_font_positions[(uint8_t)c + 1U];
 4121                             		.loc 1 1107 57
 4122 0322 59 A5 07                		movu.B	7[r10], r5
 4123                             		.loc 1 1107 68
 4124 0325 62 15                   		add	#1, r5
 4125                             		.loc 1 1107 56
 4126 0327 FB 42 00 00 00 00       		mov.L	#_mw_title_font_positions, r4
 4127 032d FE 55 45                		mov.W	[r5,r4], r5
 4128                             		.loc 1 1107 22
 4129 0330 D7 A5 0A                		mov.W	r5, 20[r10]
1108:C:/Users/John/Desktop/workspace/miniwinwm/MiniWin/gl\gl.c **** 
1109:C:/Users/John/Desktop/workspace/miniwinwm/MiniWin/gl\gl.c **** 			mask = 0x80U;
 4130                             		.loc 1 1109 9
 4131 0333 F8 A4 80                		mov.B	#-128, [r10]
1110:C:/Users/John/Desktop/workspace/miniwinwm/MiniWin/gl\gl.c **** 			temp_uint16 = mw_title_font_positions[(uint8_t)c] & 0x07U;
 4132                             		.loc 1 1110 42
 4133 0336 59 A5 07                		movu.B	7[r10], r5
 4134                             		.loc 1 1110 41
 4135 0339 FB 42 00 00 00 00       		mov.L	#_mw_title_font_positions, r4
 4136 033f FE 55 45                		mov.W	[r5,r4], r5
 4137                             		.loc 1 1110 16
 4138 0342 64 75                   		and	#7, r5
 4139 0344 D7 A5 0B                		mov.W	r5, 22[r10]
1111:C:/Users/John/Desktop/workspace/miniwinwm/MiniWin/gl\gl.c **** 			/* the next line is MISRA compliant despite a warning because the shift operand cannot be > 7 */
1112:C:/Users/John/Desktop/workspace/miniwinwm/MiniWin/gl\gl.c **** 			mask >>= (uint8_t)temp_uint16;
 4140                             		.loc 1 1112 9
 4141 0347 58 A4                   		movu.B	[r10], r4
 4142                             		.loc 1 1112 13
 4143 0349 DD A5 0B                		mov.W	22[r10], r5
 4144 034c 5B 55                   		movu.B	r5, r5
 4145                             		.loc 1 1112 9
 4146 034e EF 47                   		mov.L	r4, r7
 4147 0350 FD 61 57                		shar	r5, r7
 4148 0353 EF 75                   		mov.L	r7, r5
 4149 0355 C3 A5                   		mov.B	r5, [r10]
1113:C:/Users/John/Desktop/workspace/miniwinwm/MiniWin/gl\gl.c **** 
1114:C:/Users/John/Desktop/workspace/miniwinwm/MiniWin/gl\gl.c **** 			position_across_character = 0;
 4150                             		.loc 1 1114 30
 4151 0357 F9 A5 05 00             		mov.W	#0, 10[r10]
1115:C:/Users/John/Desktop/workspace/miniwinwm/MiniWin/gl\gl.c **** 			for (bitmap_x = start_pos_in_bitmap; bitmap_x < end_pos_in_bitmap; bitmap_x++)
 4152                             		.loc 1 1115 18
 4153 035b DD A5 09                		mov.W	18[r10], r5
 4154 035e D7 A5 01                		mov.W	r5, 2[r10]
 4155                             		.loc 1 1115 4
 4156 0361 38 00 01                		bra	.L207
 4157                             	.L215:
1116:C:/Users/John/Desktop/workspace/miniwinwm/MiniWin/gl\gl.c **** 			{
1117:C:/Users/John/Desktop/workspace/miniwinwm/MiniWin/gl\gl.c **** 				byte_from_bitmap = mw_title_font_bitmap[((uint16_t)bitmap_x >> 3U) + (uint16_t)bitmap_y * 87U];
 4158                             		.loc 1 1117 46
 4159 0364 DD A5 01                		mov.W	2[r10], r5
 4160                             		.loc 1 1117 65
 4161 0367 5F 55                   		movu.W	r5, r5
 4162 0369 68 35                   		shlr	#3, r5
 4163 036b 5F 54                   		movu.W	r5, r4
 4164                             		.loc 1 1117 74
 4165 036d DD A5 02                		mov.W	4[r10], r5
 4166 0370 5F 55                   		movu.W	r5, r5
 4167                             		.loc 1 1117 93
 4168 0372 75 15 57                		mul	#0x57, r5
 4169                             		.loc 1 1117 72
 4170 0375 4B 45                   		add	r4, r5
 4171                             		.loc 1 1117 22
 4172 0377 FB 42 00 00 00 00       		mov.L	#_mw_title_font_bitmap, r4
 4173 037d FE 45 45                		mov.B	[r5,r4], r5
 4174 0380 C7 A5 18                		mov.B	r5, 24[r10]
1118:C:/Users/John/Desktop/workspace/miniwinwm/MiniWin/gl\gl.c **** 
1119:C:/Users/John/Desktop/workspace/miniwinwm/MiniWin/gl\gl.c **** 				if ((byte_from_bitmap & mask) == 0U)
 4175                             		.loc 1 1119 35
 4176 0383 CD A4 18                		mov.B	24[r10], r4
 4177 0386 CC A5                   		mov.B	[r10], r5
 4178 0388 53 45                   		and	r4, r5
 4179                             		.loc 1 1119 8
 4180 038a 5B 55                   		movu.B	r5, r5
 4181 038c 61 05                   		cmp	#0, r5
 4182 038e 3B B4 00                		bne	.L227
1120:C:/Users/John/Desktop/workspace/miniwinwm/MiniWin/gl\gl.c **** 				{
1121:C:/Users/John/Desktop/workspace/miniwinwm/MiniWin/gl\gl.c **** 					switch (gc.text_rotation)
 4183                             		.loc 1 1121 16
 4184 0391 FB 52 00 00 00 00       		mov.L	#_gc, r5
 4185 0397 AC 5D                   		mov.L	68[r5], r5
 4186                             		.loc 1 1121 6
 4187 0399 61 15                   		cmp	#1, r5
 4188 039b 20 35                   		beq	.L209
 4189 039d 61 05                   		cmp	#0, r5
 4190 039f 20 0D                   		beq	.L210
 4191 03a1 61 25                   		cmp	#2, r5
 4192 03a3 20 52                   		beq	.L211
 4193 03a5 61 35                   		cmp	#3, r5
 4194 03a7 20 75                   		beq	.L212
1122:C:/Users/John/Desktop/workspace/miniwinwm/MiniWin/gl\gl.c **** 					{
1123:C:/Users/John/Desktop/workspace/miniwinwm/MiniWin/gl\gl.c **** 					case MW_GL_TEXT_ROTATION_0:
1124:C:/Users/John/Desktop/workspace/miniwinwm/MiniWin/gl\gl.c **** 						mw_gl_fg_pixel(draw_info,
1125:C:/Users/John/Desktop/workspace/miniwinwm/MiniWin/gl\gl.c **** 								x + next_char_start_position_along_string + position_across_character ,
1126:C:/Users/John/Desktop/workspace/miniwinwm/MiniWin/gl\gl.c **** 								y + bitmap_y);
1127:C:/Users/John/Desktop/workspace/miniwinwm/MiniWin/gl\gl.c **** 						break;
1128:C:/Users/John/Desktop/workspace/miniwinwm/MiniWin/gl\gl.c **** 
1129:C:/Users/John/Desktop/workspace/miniwinwm/MiniWin/gl\gl.c **** 					case MW_GL_TEXT_ROTATION_90:
1130:C:/Users/John/Desktop/workspace/miniwinwm/MiniWin/gl\gl.c **** 						mw_gl_fg_pixel(draw_info,
1131:C:/Users/John/Desktop/workspace/miniwinwm/MiniWin/gl\gl.c **** 								x - bitmap_y,
1132:C:/Users/John/Desktop/workspace/miniwinwm/MiniWin/gl\gl.c **** 								y + next_char_start_position_along_string + position_across_character);
1133:C:/Users/John/Desktop/workspace/miniwinwm/MiniWin/gl\gl.c **** 						break;
1134:C:/Users/John/Desktop/workspace/miniwinwm/MiniWin/gl\gl.c **** 
1135:C:/Users/John/Desktop/workspace/miniwinwm/MiniWin/gl\gl.c **** 					case MW_GL_TEXT_ROTATION_180:
1136:C:/Users/John/Desktop/workspace/miniwinwm/MiniWin/gl\gl.c **** 						mw_gl_fg_pixel(draw_info,
1137:C:/Users/John/Desktop/workspace/miniwinwm/MiniWin/gl\gl.c **** 								x - next_char_start_position_along_string - position_across_character,
1138:C:/Users/John/Desktop/workspace/miniwinwm/MiniWin/gl\gl.c **** 								y - bitmap_y);
1139:C:/Users/John/Desktop/workspace/miniwinwm/MiniWin/gl\gl.c **** 
1140:C:/Users/John/Desktop/workspace/miniwinwm/MiniWin/gl\gl.c **** 						break;
1141:C:/Users/John/Desktop/workspace/miniwinwm/MiniWin/gl\gl.c **** 
1142:C:/Users/John/Desktop/workspace/miniwinwm/MiniWin/gl\gl.c **** 					case MW_GL_TEXT_ROTATION_270:
1143:C:/Users/John/Desktop/workspace/miniwinwm/MiniWin/gl\gl.c **** 						mw_gl_fg_pixel(draw_info,
1144:C:/Users/John/Desktop/workspace/miniwinwm/MiniWin/gl\gl.c **** 								x + bitmap_y,
1145:C:/Users/John/Desktop/workspace/miniwinwm/MiniWin/gl\gl.c **** 								y - next_char_start_position_along_string - position_across_character);
1146:C:/Users/John/Desktop/workspace/miniwinwm/MiniWin/gl\gl.c **** 						break;
1147:C:/Users/John/Desktop/workspace/miniwinwm/MiniWin/gl\gl.c **** 
1148:C:/Users/John/Desktop/workspace/miniwinwm/MiniWin/gl\gl.c **** 					default:
1149:C:/Users/John/Desktop/workspace/miniwinwm/MiniWin/gl\gl.c **** 						/* keep MISRA happy */
1150:C:/Users/John/Desktop/workspace/miniwinwm/MiniWin/gl\gl.c **** 						break;
 4195                             		.loc 1 1150 7
 4196 03a9 38 9A 00                		bra	.L208
 4197                             	.L210:
1125:C:/Users/John/Desktop/workspace/miniwinwm/MiniWin/gl\gl.c **** 								y + bitmap_y);
 4198                             		.loc 1 1125 11
 4199 03ac DD A4 10                		mov.W	32[r10], r4
 4200 03af DD A5 04                		mov.W	8[r10], r5
 4201 03b2 4B 45                   		add	r4, r5
 4202 03b4 DF 54                   		mov.W	r5, r4
1125:C:/Users/John/Desktop/workspace/miniwinwm/MiniWin/gl\gl.c **** 								y + bitmap_y);
 4203                             		.loc 1 1125 51
 4204 03b6 DD A5 05                		mov.W	10[r10], r5
 4205 03b9 4B 45                   		add	r4, r5
1124:C:/Users/John/Desktop/workspace/miniwinwm/MiniWin/gl\gl.c **** 								x + next_char_start_position_along_string + position_across_character ,
 4206                             		.loc 1 1124 7
 4207 03bb DF 52                   		mov.W	r5, r2
1126:C:/Users/John/Desktop/workspace/miniwinwm/MiniWin/gl\gl.c **** 						break;
 4208                             		.loc 1 1126 11
 4209 03bd DD A4 11                		mov.W	34[r10], r4
 4210 03c0 DD A5 02                		mov.W	4[r10], r5
 4211 03c3 4B 45                   		add	r4, r5
1124:C:/Users/John/Desktop/workspace/miniwinwm/MiniWin/gl\gl.c **** 								x + next_char_start_position_along_string + position_across_character ,
 4212                             		.loc 1 1124 7
 4213 03c5 DF 53                   		mov.W	r5, r3
 4214 03c7 ED A1 07                		mov.L	28[r10], r1
 4215 03ca 05 00 00 00             		bsr	_mw_gl_fg_pixel
1127:C:/Users/John/Desktop/workspace/miniwinwm/MiniWin/gl\gl.c **** 
 4216                             		.loc 1 1127 7
 4217 03ce 2E 75                   		bra	.L208
 4218                             	.L209:
1131:C:/Users/John/Desktop/workspace/miniwinwm/MiniWin/gl\gl.c **** 								y + next_char_start_position_along_string + position_across_character);
 4219                             		.loc 1 1131 11
 4220 03d0 DD A4 10                		mov.W	32[r10], r4
 4221 03d3 DD A5 02                		mov.W	4[r10], r5
 4222 03d6 FF 05 54                		sub	r5, r4, r5
1130:C:/Users/John/Desktop/workspace/miniwinwm/MiniWin/gl\gl.c **** 								x - bitmap_y,
 4223                             		.loc 1 1130 7
 4224 03d9 DF 52                   		mov.W	r5, r2
1132:C:/Users/John/Desktop/workspace/miniwinwm/MiniWin/gl\gl.c **** 						break;
 4225                             		.loc 1 1132 11
 4226 03db DD A4 11                		mov.W	34[r10], r4
 4227 03de DD A5 04                		mov.W	8[r10], r5
 4228 03e1 4B 45                   		add	r4, r5
 4229 03e3 DF 54                   		mov.W	r5, r4
1132:C:/Users/John/Desktop/workspace/miniwinwm/MiniWin/gl\gl.c **** 						break;
 4230                             		.loc 1 1132 51
 4231 03e5 DD A5 05                		mov.W	10[r10], r5
 4232 03e8 4B 45                   		add	r4, r5
1130:C:/Users/John/Desktop/workspace/miniwinwm/MiniWin/gl\gl.c **** 								x - bitmap_y,
 4233                             		.loc 1 1130 7
 4234 03ea DF 53                   		mov.W	r5, r3
 4235 03ec ED A1 07                		mov.L	28[r10], r1
 4236 03ef 05 00 00 00             		bsr	_mw_gl_fg_pixel
1133:C:/Users/John/Desktop/workspace/miniwinwm/MiniWin/gl\gl.c **** 
 4237                             		.loc 1 1133 7
 4238 03f3 2E 50                   		bra	.L208
 4239                             	.L211:
1137:C:/Users/John/Desktop/workspace/miniwinwm/MiniWin/gl\gl.c **** 								y - bitmap_y);
 4240                             		.loc 1 1137 11
 4241 03f5 DD A4 10                		mov.W	32[r10], r4
 4242 03f8 DD A5 04                		mov.W	8[r10], r5
 4243 03fb FF 05 54                		sub	r5, r4, r5
 4244 03fe DF 54                   		mov.W	r5, r4
1137:C:/Users/John/Desktop/workspace/miniwinwm/MiniWin/gl\gl.c **** 								y - bitmap_y);
 4245                             		.loc 1 1137 51
 4246 0400 DD A5 05                		mov.W	10[r10], r5
 4247 0403 FF 05 54                		sub	r5, r4, r5
1136:C:/Users/John/Desktop/workspace/miniwinwm/MiniWin/gl\gl.c **** 								x - next_char_start_position_along_string - position_across_character,
 4248                             		.loc 1 1136 7
 4249 0406 DF 52                   		mov.W	r5, r2
1138:C:/Users/John/Desktop/workspace/miniwinwm/MiniWin/gl\gl.c **** 
 4250                             		.loc 1 1138 11
 4251 0408 DD A4 11                		mov.W	34[r10], r4
 4252 040b DD A5 02                		mov.W	4[r10], r5
 4253 040e FF 05 54                		sub	r5, r4, r5
1136:C:/Users/John/Desktop/workspace/miniwinwm/MiniWin/gl\gl.c **** 								x - next_char_start_position_along_string - position_across_character,
 4254                             		.loc 1 1136 7
 4255 0411 DF 53                   		mov.W	r5, r3
 4256 0413 ED A1 07                		mov.L	28[r10], r1
 4257 0416 05 00 00 00             		bsr	_mw_gl_fg_pixel
1140:C:/Users/John/Desktop/workspace/miniwinwm/MiniWin/gl\gl.c **** 
 4258                             		.loc 1 1140 7
 4259 041a 2E 29                   		bra	.L208
 4260                             	.L212:
1144:C:/Users/John/Desktop/workspace/miniwinwm/MiniWin/gl\gl.c **** 								y - next_char_start_position_along_string - position_across_character);
 4261                             		.loc 1 1144 11
 4262 041c DD A4 10                		mov.W	32[r10], r4
 4263 041f DD A5 02                		mov.W	4[r10], r5
 4264 0422 4B 45                   		add	r4, r5
1143:C:/Users/John/Desktop/workspace/miniwinwm/MiniWin/gl\gl.c **** 								x + bitmap_y,
 4265                             		.loc 1 1143 7
 4266 0424 DF 52                   		mov.W	r5, r2
1145:C:/Users/John/Desktop/workspace/miniwinwm/MiniWin/gl\gl.c **** 						break;
 4267                             		.loc 1 1145 11
 4268 0426 DD A4 11                		mov.W	34[r10], r4
 4269 0429 DD A5 04                		mov.W	8[r10], r5
 4270 042c FF 05 54                		sub	r5, r4, r5
 4271 042f DF 54                   		mov.W	r5, r4
1145:C:/Users/John/Desktop/workspace/miniwinwm/MiniWin/gl\gl.c **** 						break;
 4272                             		.loc 1 1145 51
 4273 0431 DD A5 05                		mov.W	10[r10], r5
 4274 0434 FF 05 54                		sub	r5, r4, r5
1143:C:/Users/John/Desktop/workspace/miniwinwm/MiniWin/gl\gl.c **** 								x + bitmap_y,
 4275                             		.loc 1 1143 7
 4276 0437 DF 53                   		mov.W	r5, r3
 4277 0439 ED A1 07                		mov.L	28[r10], r1
 4278 043c 05 00 00 00             		bsr	_mw_gl_fg_pixel
1146:C:/Users/John/Desktop/workspace/miniwinwm/MiniWin/gl\gl.c **** 
 4279                             		.loc 1 1146 7
 4280 0440 2E 03                   		bra	.L208
 4281                             	.L227:
1151:C:/Users/John/Desktop/workspace/miniwinwm/MiniWin/gl\gl.c **** 					}
1152:C:/Users/John/Desktop/workspace/miniwinwm/MiniWin/gl\gl.c **** 				}
 4282                             		.loc 1 1152 5
 4283 0442 03                      		nop
 4284                             		.balign 8,3,3
 4285                             	.L208:
1153:C:/Users/John/Desktop/workspace/miniwinwm/MiniWin/gl\gl.c **** 
1154:C:/Users/John/Desktop/workspace/miniwinwm/MiniWin/gl\gl.c **** 				mask >>= 1U;
 4286                             		.loc 1 1154 10
 4287 0443 58 A5                   		movu.B	[r10], r5
 4288 0445 68 15                   		shlr	#1, r5
 4289 0447 C3 A5                   		mov.B	r5, [r10]
1155:C:/Users/John/Desktop/workspace/miniwinwm/MiniWin/gl\gl.c **** 				if (mask == 0U)
 4290                             		.loc 1 1155 8
 4291 0449 58 A5                   		movu.B	[r10], r5
 4292 044b 61 05                   		cmp	#0, r5
 4293 044d 1C                      		bne	.L214
1156:C:/Users/John/Desktop/workspace/miniwinwm/MiniWin/gl\gl.c **** 				{
1157:C:/Users/John/Desktop/workspace/miniwinwm/MiniWin/gl\gl.c **** 					mask = 0x80U;
 4294                             		.loc 1 1157 11
 4295 044e F8 A4 80                		mov.B	#-128, [r10]
 4296                             	.L214:
1158:C:/Users/John/Desktop/workspace/miniwinwm/MiniWin/gl\gl.c **** 				}
1159:C:/Users/John/Desktop/workspace/miniwinwm/MiniWin/gl\gl.c **** 				position_across_character++;
 4297                             		.loc 1 1159 30 discriminator 2
 4298 0451 DD A5 05                		mov.W	10[r10], r5
 4299 0454 62 15                   		add	#1, r5
 4300 0456 D7 A5 05                		mov.W	r5, 10[r10]
1115:C:/Users/John/Desktop/workspace/miniwinwm/MiniWin/gl\gl.c **** 			{
 4301                             		.loc 1 1115 79 discriminator 2
 4302 0459 DD A5 01                		mov.W	2[r10], r5
 4303 045c 62 15                   		add	#1, r5
 4304 045e D7 A5 01                		mov.W	r5, 2[r10]
 4305                             	.L207:
1115:C:/Users/John/Desktop/workspace/miniwinwm/MiniWin/gl\gl.c **** 			{
 4306                             		.loc 1 1115 4 discriminator 1
 4307 0461 DD A4 01                		mov.W	2[r10], r4
 4308 0464 DD A5 0A                		mov.W	20[r10], r5
 4309 0467 47 54                   		cmp	r5, r4
 4310 0469 28 05 38 F9 FE          		blt	.L215
1097:C:/Users/John/Desktop/workspace/miniwinwm/MiniWin/gl\gl.c **** 		{
 4311                             		.loc 1 1097 66 discriminator 2
 4312 046e DD A5 02                		mov.W	4[r10], r5
 4313 0471 62 15                   		add	#1, r5
 4314 0473 D7 A5 02                		mov.W	r5, 4[r10]
 4315                             	.L204:
1097:C:/Users/John/Desktop/workspace/miniwinwm/MiniWin/gl\gl.c **** 		{
 4316                             		.loc 1 1097 3 discriminator 1
 4317 0476 DD A5 02                		mov.W	4[r10], r5
 4318 0479 61 F5                   		cmp	#15, r5
 4319 047b 2A 05 38 6C FE          		ble	.L216
1160:C:/Users/John/Desktop/workspace/miniwinwm/MiniWin/gl\gl.c **** 			}
1161:C:/Users/John/Desktop/workspace/miniwinwm/MiniWin/gl\gl.c **** 		}
1162:C:/Users/John/Desktop/workspace/miniwinwm/MiniWin/gl\gl.c **** 		next_char_start_position_along_string += position_across_character;
 4320                             		.loc 1 1162 41 discriminator 2
 4321 0480 DD A4 04                		mov.W	8[r10], r4
 4322 0483 DD A5 05                		mov.W	10[r10], r5
 4323 0486 4B 45                   		add	r4, r5
 4324 0488 D7 A5 04                		mov.W	r5, 8[r10]
1095:C:/Users/John/Desktop/workspace/miniwinwm/MiniWin/gl\gl.c **** 	{
 4325                             		.loc 1 1095 28 discriminator 2
 4326 048b CD A5 06                		mov.B	6[r10], r5
 4327 048e 62 15                   		add	#1, r5
 4328 0490 C7 A5 06                		mov.B	r5, 6[r10]
 4329                             	.L203:
1095:C:/Users/John/Desktop/workspace/miniwinwm/MiniWin/gl\gl.c **** 	{
 4330                             		.loc 1 1095 17 discriminator 1
 4331 0493 59 A5 06                		movu.B	6[r10], r5
1095:C:/Users/John/Desktop/workspace/miniwinwm/MiniWin/gl\gl.c **** 	{
 4332                             		.loc 1 1095 2 discriminator 1
 4333 0496 ED A4 03                		mov.L	12[r10], r4
 4334 0499 47 54                   		cmp	r5, r4
 4335 049b 25 05 38 45 FE          		bgtu	.L217
 4336 04a0 09                      		bra	.L181
 4337                             	.L219:
1013:C:/Users/John/Desktop/workspace/miniwinwm/MiniWin/gl\gl.c **** 		}
 4338                             		.loc 1 1013 4
 4339 04a1 03                      		nop
 4340 04a2 0F                      		bra	.L181
 4341                             	.L221:
1034:C:/Users/John/Desktop/workspace/miniwinwm/MiniWin/gl\gl.c **** 		}
 4342                             		.loc 1 1034 4
 4343 04a3 03                      		nop
 4344 04a4 0D                      		bra	.L181
 4345                             	.L223:
1055:C:/Users/John/Desktop/workspace/miniwinwm/MiniWin/gl\gl.c **** 		}
 4346                             		.loc 1 1055 4
 4347 04a5 03                      		nop
 4348 04a6 2E 03                   		bra	.L181
 4349                             	.L225:
1076:C:/Users/John/Desktop/workspace/miniwinwm/MiniWin/gl\gl.c **** 		}
 4350                             		.loc 1 1076 4
 4351 04a8 03                      		nop
 4352                             		.balign 8,3,2
 4353                             	.L181:
1163:C:/Users/John/Desktop/workspace/miniwinwm/MiniWin/gl\gl.c **** 	}
1164:C:/Users/John/Desktop/workspace/miniwinwm/MiniWin/gl\gl.c **** }
 4354                             		.loc 1 1164 1
 4355 04a9 3F 7A 10                		rtsd	#64, r7-r10
 4356                             	.LFE12:
 4358 04ac 76 10 01 00             		.section	.text.get_font_data,"ax",@progbits
 4360                             	_get_font_data:
 4361                             	.LFB13:
1165:C:/Users/John/Desktop/workspace/miniwinwm/MiniWin/gl\gl.c **** 
1166:C:/Users/John/Desktop/workspace/miniwinwm/MiniWin/gl\gl.c **** /**
1167:C:/Users/John/Desktop/workspace/miniwinwm/MiniWin/gl\gl.c ****  * Get a pointer to a font's bitmap for fixed width fonts
1168:C:/Users/John/Desktop/workspace/miniwinwm/MiniWin/gl\gl.c ****  *
1169:C:/Users/John/Desktop/workspace/miniwinwm/MiniWin/gl\gl.c ****  * @return Pointer to bit map data
1170:C:/Users/John/Desktop/workspace/miniwinwm/MiniWin/gl\gl.c ****  */
1171:C:/Users/John/Desktop/workspace/miniwinwm/MiniWin/gl\gl.c **** static const uint8_t *get_font_data(void)
1172:C:/Users/John/Desktop/workspace/miniwinwm/MiniWin/gl\gl.c **** {
 4362                             		.loc 1 1172 1
 4363 0000 7E AA                   		push.l	r10
 4364                             	.LCFI40:
 4365 0002 EF 0A                   		mov.L	r0, r10
 4366                             	.LCFI41:
1173:C:/Users/John/Desktop/workspace/miniwinwm/MiniWin/gl\gl.c **** 	switch (gc.font)
 4367                             		.loc 1 1173 12
 4368 0004 FB 52 00 00 00 00       		mov.L	#_gc, r5
 4369 000a AC 55                   		mov.L	64[r5], r5
 4370                             		.loc 1 1173 2
 4371 000c 61 25                   		cmp	#2, r5
 4372 000e 20 2E                   		beq	.L229
 4373 0010 61 25                   		cmp	#2, r5
 4374 0012 24 0C                   		bgtu	.L230
 4375 0014 61 05                   		cmp	#0, r5
 4376 0016 20 12                   		beq	.L231
 4377 0018 61 15                   		cmp	#1, r5
 4378 001a 20 18                   		beq	.L232
 4379 001c 2E 3D                   		bra	.L233
 4380                             	.L230:
 4381 001e 61 35                   		cmp	#3, r5
 4382 0020 20 26                   		beq	.L234
 4383 0022 61 45                   		cmp	#4, r5
 4384 0024 20 2C                   		beq	.L235
 4385 0026 2E 33                   		bra	.L233
 4386                             	.L231:
1174:C:/Users/John/Desktop/workspace/miniwinwm/MiniWin/gl\gl.c **** 	{
1175:C:/Users/John/Desktop/workspace/miniwinwm/MiniWin/gl\gl.c **** 	case MW_GL_FONT_9:
1176:C:/Users/John/Desktop/workspace/miniwinwm/MiniWin/gl\gl.c **** 		return (Font9.table);
 4387                             		.loc 1 1176 16
 4388 0028 FB 52 00 00 00 00       		mov.L	#_Font9, r5
 4389 002e EC 55                   		mov.L	[r5], r5
 4390 0030 2E 2B                   		bra	.L236
 4391                             	.L232:
1177:C:/Users/John/Desktop/workspace/miniwinwm/MiniWin/gl\gl.c **** 		break;
1178:C:/Users/John/Desktop/workspace/miniwinwm/MiniWin/gl\gl.c **** 
1179:C:/Users/John/Desktop/workspace/miniwinwm/MiniWin/gl\gl.c **** #ifdef MW_FONT_12_INCLUDED
1180:C:/Users/John/Desktop/workspace/miniwinwm/MiniWin/gl\gl.c **** 	case MW_GL_FONT_12:
1181:C:/Users/John/Desktop/workspace/miniwinwm/MiniWin/gl\gl.c **** 		return (Font12.table);
 4392                             		.loc 1 1181 17
 4393 0032 FB 52 00 00 00 00       		mov.L	#_Font12, r5
 4394 0038 EC 55                   		mov.L	[r5], r5
 4395 003a 2E 21                   		bra	.L236
 4396                             	.L229:
1182:C:/Users/John/Desktop/workspace/miniwinwm/MiniWin/gl\gl.c **** 		break;
1183:C:/Users/John/Desktop/workspace/miniwinwm/MiniWin/gl\gl.c **** #endif
1184:C:/Users/John/Desktop/workspace/miniwinwm/MiniWin/gl\gl.c **** 
1185:C:/Users/John/Desktop/workspace/miniwinwm/MiniWin/gl\gl.c **** #ifdef MW_FONT_16_INCLUDED
1186:C:/Users/John/Desktop/workspace/miniwinwm/MiniWin/gl\gl.c **** 	case MW_GL_FONT_16:
1187:C:/Users/John/Desktop/workspace/miniwinwm/MiniWin/gl\gl.c **** 		return (Font16.table);
 4397                             		.loc 1 1187 17
 4398 003c FB 52 00 00 00 00       		mov.L	#_Font16, r5
 4399 0042 EC 55                   		mov.L	[r5], r5
 4400 0044 2E 17                   		bra	.L236
 4401                             	.L234:
1188:C:/Users/John/Desktop/workspace/miniwinwm/MiniWin/gl\gl.c **** 		break;
1189:C:/Users/John/Desktop/workspace/miniwinwm/MiniWin/gl\gl.c **** #endif
1190:C:/Users/John/Desktop/workspace/miniwinwm/MiniWin/gl\gl.c **** 
1191:C:/Users/John/Desktop/workspace/miniwinwm/MiniWin/gl\gl.c **** #ifdef MW_FONT_20_INCLUDED
1192:C:/Users/John/Desktop/workspace/miniwinwm/MiniWin/gl\gl.c **** 	case MW_GL_FONT_20:
1193:C:/Users/John/Desktop/workspace/miniwinwm/MiniWin/gl\gl.c **** 		return (Font20.table);
 4402                             		.loc 1 1193 17
 4403 0046 FB 52 00 00 00 00       		mov.L	#_Font20, r5
 4404 004c EC 55                   		mov.L	[r5], r5
 4405 004e 2E 0D                   		bra	.L236
 4406                             	.L235:
1194:C:/Users/John/Desktop/workspace/miniwinwm/MiniWin/gl\gl.c **** 		break;
1195:C:/Users/John/Desktop/workspace/miniwinwm/MiniWin/gl\gl.c **** #endif
1196:C:/Users/John/Desktop/workspace/miniwinwm/MiniWin/gl\gl.c **** 
1197:C:/Users/John/Desktop/workspace/miniwinwm/MiniWin/gl\gl.c **** #ifdef MW_FONT_24_INCLUDED
1198:C:/Users/John/Desktop/workspace/miniwinwm/MiniWin/gl\gl.c **** 	case MW_GL_FONT_24:
1199:C:/Users/John/Desktop/workspace/miniwinwm/MiniWin/gl\gl.c **** 		return (Font24.table);
 4407                             		.loc 1 1199 17
 4408 0050 FB 52 00 00 00 00       		mov.L	#_Font24, r5
 4409 0056 EC 55                   		mov.L	[r5], r5
 4410 0058 0B                      		bra	.L236
 4411                             	.L233:
1200:C:/Users/John/Desktop/workspace/miniwinwm/MiniWin/gl\gl.c **** 		break;
1201:C:/Users/John/Desktop/workspace/miniwinwm/MiniWin/gl\gl.c **** #endif
1202:C:/Users/John/Desktop/workspace/miniwinwm/MiniWin/gl\gl.c **** 
1203:C:/Users/John/Desktop/workspace/miniwinwm/MiniWin/gl\gl.c **** 	default:
1204:C:/Users/John/Desktop/workspace/miniwinwm/MiniWin/gl\gl.c **** 		return (NULL);
 4412                             		.loc 1 1204 10
 4413 0059 66 05                   		mov.L	#0, r5
 4414                             		.balign 8,3,1
 4415                             	.L236:
1205:C:/Users/John/Desktop/workspace/miniwinwm/MiniWin/gl\gl.c **** 		break;
1206:C:/Users/John/Desktop/workspace/miniwinwm/MiniWin/gl\gl.c **** 	}
1207:C:/Users/John/Desktop/workspace/miniwinwm/MiniWin/gl\gl.c **** 
1208:C:/Users/John/Desktop/workspace/miniwinwm/MiniWin/gl\gl.c **** 	return (NULL);
1209:C:/Users/John/Desktop/workspace/miniwinwm/MiniWin/gl\gl.c **** }
 4416                             		.loc 1 1209 1
 4417 005b EF 51                   		mov.L	r5, r1
 4418 005d 3F AA 01                		rtsd	#4, r10-r10
 4419                             	.LFE13:
 4421                             		.section	.text.tt_pixel_callback_anti_aliasing,"ax",@progbits
 4423                             	_tt_pixel_callback_anti_aliasing:
 4424                             	.LFB14:
1210:C:/Users/John/Desktop/workspace/miniwinwm/MiniWin/gl\gl.c **** 
1211:C:/Users/John/Desktop/workspace/miniwinwm/MiniWin/gl\gl.c **** /**
1212:C:/Users/John/Desktop/workspace/miniwinwm/MiniWin/gl\gl.c ****  * Draw alpha blended true type font pixels with anti-aliasing
1213:C:/Users/John/Desktop/workspace/miniwinwm/MiniWin/gl\gl.c ****  *
1214:C:/Users/John/Desktop/workspace/miniwinwm/MiniWin/gl\gl.c ****  * @param x The x coordinate of the left most pixel
1215:C:/Users/John/Desktop/workspace/miniwinwm/MiniWin/gl\gl.c ****  * @param y The y coordinate of all the pixels
1216:C:/Users/John/Desktop/workspace/miniwinwm/MiniWin/gl\gl.c ****  * @param count The number of pixels to draw
1217:C:/Users/John/Desktop/workspace/miniwinwm/MiniWin/gl\gl.c ****  * @alpha Alpha blending value between background colour and foreground colour
1218:C:/Users/John/Desktop/workspace/miniwinwm/MiniWin/gl\gl.c ****  * @param state Pointer to font rendering state structure
1219:C:/Users/John/Desktop/workspace/miniwinwm/MiniWin/gl\gl.c ****  */
1220:C:/Users/John/Desktop/workspace/miniwinwm/MiniWin/gl\gl.c **** static void tt_pixel_callback_anti_aliasing(int16_t x, int16_t y, uint8_t count, uint8_t alpha, voi
1221:C:/Users/John/Desktop/workspace/miniwinwm/MiniWin/gl\gl.c **** {
 4425                             		.loc 1 1221 1
 4426 0000 6E 7A                   		pushm	r7-r10
 4427                             	.LCFI42:
 4428 0002 71 0A EC                		add	#-20, r0, r10
 4429                             	.LCFI43:
 4430 0005 EF A0                   		mov.L	r10, r0
 4431 0007 75 45 28                		mov.L	#40, r5
 4432 000a 4B A5                   		add	r10, r5
 4433 000c D7 A1 04                		mov.W	r1, 8[r10]
 4434 000f D7 A2 05                		mov.W	r2, 10[r10]
 4435 0012 C7 A3 0C                		mov.B	r3, 12[r10]
 4436 0015 C7 A4 0D                		mov.B	r4, 13[r10]
1222:C:/Users/John/Desktop/workspace/miniwinwm/MiniWin/gl\gl.c **** 	uint8_t alpha_red;
1223:C:/Users/John/Desktop/workspace/miniwinwm/MiniWin/gl\gl.c **** 	uint8_t alpha_green;
1224:C:/Users/John/Desktop/workspace/miniwinwm/MiniWin/gl\gl.c **** 	uint8_t alpha_blue;
1225:C:/Users/John/Desktop/workspace/miniwinwm/MiniWin/gl\gl.c **** 
1226:C:/Users/John/Desktop/workspace/miniwinwm/MiniWin/gl\gl.c **** 	/* get tt font rendering state */
1227:C:/Users/John/Desktop/workspace/miniwinwm/MiniWin/gl\gl.c **** 	tt_font_state_t *tt_font_state = (tt_font_state_t *)state;
 4437                             		.loc 1 1227 19
 4438 0018 EC 55                   		mov.L	[r5], r5
 4439 001a E3 A5                   		mov.L	r5, [r10]
1228:C:/Users/John/Desktop/workspace/miniwinwm/MiniWin/gl\gl.c **** 
1229:C:/Users/John/Desktop/workspace/miniwinwm/MiniWin/gl\gl.c **** 	/* check y value is still in box */
1230:C:/Users/John/Desktop/workspace/miniwinwm/MiniWin/gl\gl.c ****     if (y - tt_font_state->vert_scroll_pixels >= tt_font_state->bottom)
 4440                             		.loc 1 1230 11
 4441 001c DD A4 05                		mov.W	10[r10], r4
 4442                             		.loc 1 1230 26
 4443 001f EC A5                   		mov.L	[r10], r5
 4444 0021 9B DD                   		mov.W	30[r5], r5
 4445 0023 DF 55                   		mov.W	r5, r5
 4446                             		.loc 1 1230 11
 4447 0025 43 54                   		sub	r5, r4
 4448                             		.loc 1 1230 63
 4449 0027 EC A5                   		mov.L	[r10], r5
 4450 0029 9A 55                   		mov.W	16[r5], r5
 4451 002b DF 55                   		mov.W	r5, r5
 4452                             		.loc 1 1230 8
 4453 002d 47 54                   		cmp	r5, r4
 4454 002f 29 05 38 0D 01          		bge	.L243
1231:C:/Users/John/Desktop/workspace/miniwinwm/MiniWin/gl\gl.c ****     {
1232:C:/Users/John/Desktop/workspace/miniwinwm/MiniWin/gl\gl.c ****     	return;
1233:C:/Users/John/Desktop/workspace/miniwinwm/MiniWin/gl\gl.c ****     }
1234:C:/Users/John/Desktop/workspace/miniwinwm/MiniWin/gl\gl.c **** 
1235:C:/Users/John/Desktop/workspace/miniwinwm/MiniWin/gl\gl.c ****     if (y - tt_font_state->vert_scroll_pixels < 0)
 4455                             		.loc 1 1235 11
 4456 0034 DD A4 05                		mov.W	10[r10], r4
 4457                             		.loc 1 1235 26
 4458 0037 EC A5                   		mov.L	[r10], r5
 4459 0039 9B DD                   		mov.W	30[r5], r5
 4460 003b DF 55                   		mov.W	r5, r5
 4461                             		.loc 1 1235 11
 4462 003d FF 05 54                		sub	r5, r4, r5
 4463                             		.loc 1 1235 8
 4464 0040 61 05                   		cmp	#0, r5
 4465 0042 28 05 38 FD 00          		blt	.L244
1236:C:/Users/John/Desktop/workspace/miniwinwm/MiniWin/gl\gl.c ****     {
1237:C:/Users/John/Desktop/workspace/miniwinwm/MiniWin/gl\gl.c ****     	return;
1238:C:/Users/John/Desktop/workspace/miniwinwm/MiniWin/gl\gl.c ****     }
1239:C:/Users/John/Desktop/workspace/miniwinwm/MiniWin/gl\gl.c **** 
1240:C:/Users/John/Desktop/workspace/miniwinwm/MiniWin/gl\gl.c ****     /* do all pixels */
1241:C:/Users/John/Desktop/workspace/miniwinwm/MiniWin/gl\gl.c **** 	y = y - tt_font_state->vert_scroll_pixels;
 4466                             		.loc 1 1241 8
 4467 0047 DD A4 05                		mov.W	10[r10], r4
 4468                             		.loc 1 1241 23
 4469 004a EC A5                   		mov.L	[r10], r5
 4470 004c 9B DD                   		mov.W	30[r5], r5
 4471                             		.loc 1 1241 8
 4472 004e FF 05 54                		sub	r5, r4, r5
 4473                             		.loc 1 1241 4
 4474 0051 D7 A5 05                		mov.W	r5, 10[r10]
1242:C:/Users/John/Desktop/workspace/miniwinwm/MiniWin/gl\gl.c **** 
1243:C:/Users/John/Desktop/workspace/miniwinwm/MiniWin/gl\gl.c **** 	/* calculate alpha blended colour values */
1244:C:/Users/John/Desktop/workspace/miniwinwm/MiniWin/gl\gl.c **** 	alpha_red = ((tt_font_state->fg_red * alpha) + (tt_font_state->bg_red * ((uint8_t)UINT8_MAX - alph
 4475                             		.loc 1 1244 29
 4476 0054 EC A5                   		mov.L	[r10], r5
 4477 0056 8C D5                   		mov.B	18[r5], r5
 4478 0058 5B 54                   		movu.B	r5, r4
 4479                             		.loc 1 1244 38
 4480 005a 59 A5 0D                		movu.B	13[r10], r5
 4481 005d FF 33 54                		mul	r5, r4, r3
 4482                             		.loc 1 1244 63
 4483 0060 EC A5                   		mov.L	[r10], r5
 4484 0062 8D 5D                   		mov.B	21[r5], r5
 4485 0064 5B 54                   		movu.B	r5, r4
 4486                             		.loc 1 1244 94
 4487 0066 59 A5 0D                		movu.B	13[r10], r5
 4488 0069 75 42 FF                		mov.L	#0xff, r2
 4489 006c FF 05 52                		sub	r5, r2, r5
 4490                             		.loc 1 1244 72
 4491 006f 4F 45                   		mul	r4, r5
 4492                             		.loc 1 1244 47
 4493 0071 4B 35                   		add	r3, r5
 4494                             		.loc 1 1244 105
 4495 0073 FB 72 81 80 80 80       		mov.L	#-2139062143, r7
 4496 0079 FC 1B 57                		emul	r5, r7
 4497 007c EF 73                   		mov.L	r7, r3
 4498 007e EF 84                   		mov.L	r8, r4
 4499 0080 4B 54                   		add	r5, r4
 4500 0082 6A 74                   		shar	#7, r4
 4501 0084 6B F5                   		shar	#31, r5
 4502 0086 FF 05 54                		sub	r5, r4, r5
 4503                             		.loc 1 1244 12
 4504 0089 C7 A5 04                		mov.B	r5, 4[r10]
1245:C:/Users/John/Desktop/workspace/miniwinwm/MiniWin/gl\gl.c **** 	alpha_green = ((tt_font_state->fg_green * alpha) + (tt_font_state->bg_green * ((uint8_t)UINT8_MAX 
 4505                             		.loc 1 1245 31
 4506 008c EC A5                   		mov.L	[r10], r5
 4507 008e 8C DD                   		mov.B	19[r5], r5
 4508 0090 5B 54                   		movu.B	r5, r4
 4509                             		.loc 1 1245 42
 4510 0092 59 A5 0D                		movu.B	13[r10], r5
 4511 0095 FF 33 54                		mul	r5, r4, r3
 4512                             		.loc 1 1245 67
 4513 0098 EC A5                   		mov.L	[r10], r5
 4514 009a 8D D5                   		mov.B	22[r5], r5
 4515 009c 5B 54                   		movu.B	r5, r4
 4516                             		.loc 1 1245 100
 4517 009e 59 A5 0D                		movu.B	13[r10], r5
 4518 00a1 75 42 FF                		mov.L	#0xff, r2
 4519 00a4 FF 05 52                		sub	r5, r2, r5
 4520                             		.loc 1 1245 78
 4521 00a7 4F 45                   		mul	r4, r5
 4522                             		.loc 1 1245 51
 4523 00a9 4B 35                   		add	r3, r5
 4524                             		.loc 1 1245 111
 4525 00ab FB 72 81 80 80 80       		mov.L	#-2139062143, r7
 4526 00b1 FC 1B 57                		emul	r5, r7
 4527 00b4 EF 73                   		mov.L	r7, r3
 4528 00b6 EF 84                   		mov.L	r8, r4
 4529 00b8 4B 54                   		add	r5, r4
 4530 00ba 6A 74                   		shar	#7, r4
 4531 00bc 6B F5                   		shar	#31, r5
 4532 00be FF 05 54                		sub	r5, r4, r5
 4533                             		.loc 1 1245 14
 4534 00c1 C7 A5 05                		mov.B	r5, 5[r10]
1246:C:/Users/John/Desktop/workspace/miniwinwm/MiniWin/gl\gl.c **** 	alpha_blue = ((tt_font_state->fg_blue * alpha) + (tt_font_state->bg_blue * ((uint8_t)UINT8_MAX - a
 4535                             		.loc 1 1246 30
 4536 00c4 EC A5                   		mov.L	[r10], r5
 4537 00c6 8D 55                   		mov.B	20[r5], r5
 4538 00c8 5B 54                   		movu.B	r5, r4
 4539                             		.loc 1 1246 40
 4540 00ca 59 A5 0D                		movu.B	13[r10], r5
 4541 00cd FF 33 54                		mul	r5, r4, r3
 4542                             		.loc 1 1246 65
 4543 00d0 EC A5                   		mov.L	[r10], r5
 4544 00d2 8D DD                   		mov.B	23[r5], r5
 4545 00d4 5B 54                   		movu.B	r5, r4
 4546                             		.loc 1 1246 97
 4547 00d6 59 A5 0D                		movu.B	13[r10], r5
 4548 00d9 75 42 FF                		mov.L	#0xff, r2
 4549 00dc FF 05 52                		sub	r5, r2, r5
 4550                             		.loc 1 1246 75
 4551 00df 4F 45                   		mul	r4, r5
 4552                             		.loc 1 1246 49
 4553 00e1 4B 35                   		add	r3, r5
 4554                             		.loc 1 1246 108
 4555 00e3 FB 72 81 80 80 80       		mov.L	#-2139062143, r7
 4556 00e9 FC 1B 57                		emul	r5, r7
 4557 00ec EF 73                   		mov.L	r7, r3
 4558 00ee EF 84                   		mov.L	r8, r4
 4559 00f0 4B 54                   		add	r5, r4
 4560 00f2 6A 74                   		shar	#7, r4
 4561 00f4 6B F5                   		shar	#31, r5
 4562 00f6 FF 05 54                		sub	r5, r4, r5
 4563                             		.loc 1 1246 13
 4564 00f9 C7 A5 06                		mov.B	r5, 6[r10]
1247:C:/Users/John/Desktop/workspace/miniwinwm/MiniWin/gl\gl.c **** 
1248:C:/Users/John/Desktop/workspace/miniwinwm/MiniWin/gl\gl.c ****     while (count-- > 0U)
 4565                             		.loc 1 1248 11
 4566 00fc 2E 32                   		bra	.L241
 4567                             	.L242:
1249:C:/Users/John/Desktop/workspace/miniwinwm/MiniWin/gl\gl.c ****     {
1250:C:/Users/John/Desktop/workspace/miniwinwm/MiniWin/gl\gl.c ****     	/* set pixel colour with this value */
1251:C:/Users/John/Desktop/workspace/miniwinwm/MiniWin/gl\gl.c ****     	mw_gl_set_fg_colour(((mw_hal_lcd_colour_t)alpha_red << 16U) +
 4568                             		.loc 1 1251 27
 4569 00fe 59 A5 04                		movu.B	4[r10], r5
 4570                             		.loc 1 1251 58
 4571 0101 FD D0 54                		shll	#16, r5, r4
1252:C:/Users/John/Desktop/workspace/miniwinwm/MiniWin/gl\gl.c ****     			((mw_hal_lcd_colour_t)alpha_green << 8U) +
 4572                             		.loc 1 1252 9
 4573 0104 59 A5 05                		movu.B	5[r10], r5
 4574                             		.loc 1 1252 42
 4575 0107 6C 85                   		shll	#8, r5
1251:C:/Users/John/Desktop/workspace/miniwinwm/MiniWin/gl\gl.c ****     			((mw_hal_lcd_colour_t)alpha_green << 8U) +
 4576                             		.loc 1 1251 66
 4577 0109 4B 54                   		add	r5, r4
1253:C:/Users/John/Desktop/workspace/miniwinwm/MiniWin/gl\gl.c **** 				(mw_hal_lcd_colour_t)alpha_blue);
 4578                             		.loc 1 1253 5
 4579 010b 59 A5 06                		movu.B	6[r10], r5
1251:C:/Users/John/Desktop/workspace/miniwinwm/MiniWin/gl\gl.c ****     			((mw_hal_lcd_colour_t)alpha_green << 8U) +
 4580                             		.loc 1 1251 6
 4581 010e 4B 45                   		add	r4, r5
 4582 0110 EF 51                   		mov.L	r5, r1
 4583 0112 05 00 00 00             		bsr	_mw_gl_set_fg_colour
1254:C:/Users/John/Desktop/workspace/miniwinwm/MiniWin/gl\gl.c **** 
1255:C:/Users/John/Desktop/workspace/miniwinwm/MiniWin/gl\gl.c ****     	/* draw pixel */
1256:C:/Users/John/Desktop/workspace/miniwinwm/MiniWin/gl\gl.c ****         mw_gl_fg_pixel(tt_font_state->draw_info, x, y);
 4584                             		.loc 1 1256 9
 4585 0116 EC A5                   		mov.L	[r10], r5
 4586 0118 EC 55                   		mov.L	[r5], r5
 4587 011a DD A3 05                		mov.W	10[r10], r3
 4588 011d DD A2 04                		mov.W	8[r10], r2
 4589 0120 EF 51                   		mov.L	r5, r1
 4590 0122 05 00 00 00             		bsr	_mw_gl_fg_pixel
1257:C:/Users/John/Desktop/workspace/miniwinwm/MiniWin/gl\gl.c **** 
1258:C:/Users/John/Desktop/workspace/miniwinwm/MiniWin/gl\gl.c ****         /* move on to next pixel */
1259:C:/Users/John/Desktop/workspace/miniwinwm/MiniWin/gl\gl.c ****         x++;
 4591                             		.loc 1 1259 10
 4592 0126 DD A5 04                		mov.W	8[r10], r5
 4593 0129 62 15                   		add	#1, r5
 4594 012b D7 A5 04                		mov.W	r5, 8[r10]
 4595                             	.L241:
1248:C:/Users/John/Desktop/workspace/miniwinwm/MiniWin/gl\gl.c ****     {
 4596                             		.loc 1 1248 17
 4597 012e CD A5 0C                		mov.B	12[r10], r5
 4598 0131 71 54 FF                		add	#-1, r5, r4
 4599 0134 C7 A4 0C                		mov.B	r4, 12[r10]
1248:C:/Users/John/Desktop/workspace/miniwinwm/MiniWin/gl\gl.c ****     {
 4600                             		.loc 1 1248 11
 4601 0137 5B 55                   		movu.B	r5, r5
 4602 0139 61 05                   		cmp	#0, r5
 4603 013b 21 C3                   		bne	.L242
 4604 013d 0D                      		bra	.L237
 4605                             	.L243:
1232:C:/Users/John/Desktop/workspace/miniwinwm/MiniWin/gl\gl.c ****     }
 4606                             		.loc 1 1232 6
 4607 013e 03                      		nop
 4608 013f 2E 03                   		bra	.L237
 4609                             	.L244:
1237:C:/Users/John/Desktop/workspace/miniwinwm/MiniWin/gl\gl.c ****     }
 4610                             		.loc 1 1237 6
 4611 0141 03                      		nop
 4612                             	.L237:
1260:C:/Users/John/Desktop/workspace/miniwinwm/MiniWin/gl\gl.c ****     }
1261:C:/Users/John/Desktop/workspace/miniwinwm/MiniWin/gl\gl.c **** }
 4613                             		.loc 1 1261 1
 4614 0142 3F 7A 09                		rtsd	#36, r7-r10
 4615                             	.LFE14:
 4617                             		.section	.text.tt_character_callback,"ax",@progbits
 4619                             	_tt_character_callback:
 4620                             	.LFB15:
1262:C:/Users/John/Desktop/workspace/miniwinwm/MiniWin/gl\gl.c **** 
1263:C:/Users/John/Desktop/workspace/miniwinwm/MiniWin/gl\gl.c **** 
1264:C:/Users/John/Desktop/workspace/miniwinwm/MiniWin/gl\gl.c **** /**
1265:C:/Users/John/Desktop/workspace/miniwinwm/MiniWin/gl\gl.c ****  * Draw a true type font character
1266:C:/Users/John/Desktop/workspace/miniwinwm/MiniWin/gl\gl.c ****  *
1267:C:/Users/John/Desktop/workspace/miniwinwm/MiniWin/gl\gl.c ****  * @param x The x position of the left edge of the character to render
1268:C:/Users/John/Desktop/workspace/miniwinwm/MiniWin/gl\gl.c ****  * @param y The x position of the top edge of the character to render
1269:C:/Users/John/Desktop/workspace/miniwinwm/MiniWin/gl\gl.c ****  * @param character The character to plot
1270:C:/Users/John/Desktop/workspace/miniwinwm/MiniWin/gl\gl.c ****  * @param state Pointer to font rendering state structure
1271:C:/Users/John/Desktop/workspace/miniwinwm/MiniWin/gl\gl.c ****  */
1272:C:/Users/John/Desktop/workspace/miniwinwm/MiniWin/gl\gl.c **** static uint8_t tt_character_callback(int16_t x, int16_t y, mf_char character, void *state)
1273:C:/Users/John/Desktop/workspace/miniwinwm/MiniWin/gl\gl.c **** {
 4621                             		.loc 1 1273 1
 4622 0000 7E AA                   		push.l	r10
 4623                             	.LCFI44:
 4624 0002 71 0A F0                		add	#-16, r0, r10
 4625                             	.LCFI45:
 4626 0005 71 A0 F8                		add	#-8, r10, r0
 4627                             	.LCFI46:
 4628 0008 D7 A1 02                		mov.W	r1, 4[r10]
 4629 000b D7 A2 03                		mov.W	r2, 6[r10]
 4630 000e C7 A3 08                		mov.B	r3, 8[r10]
 4631 0011 E7 A4 03                		mov.L	r4, 12[r10]
1274:C:/Users/John/Desktop/workspace/miniwinwm/MiniWin/gl\gl.c **** 	/* get tt font rendering state */
1275:C:/Users/John/Desktop/workspace/miniwinwm/MiniWin/gl\gl.c **** 	tt_font_state_t *tt_font_state = (tt_font_state_t *)state;
 4632                             		.loc 1 1275 19
 4633 0014 ED A5 03                		mov.L	12[r10], r5
 4634 0017 E3 A5                   		mov.L	r5, [r10]
1276:C:/Users/John/Desktop/workspace/miniwinwm/MiniWin/gl\gl.c **** 
1277:C:/Users/John/Desktop/workspace/miniwinwm/MiniWin/gl\gl.c **** 	/* render the character with anti-aliasing */
1278:C:/Users/John/Desktop/workspace/miniwinwm/MiniWin/gl\gl.c **** 	if ((tt_font_state->font->flags & MF_FONT_FLAG_BW) == MF_FONT_FLAG_BW)
 4635                             		.loc 1 1278 20
 4636 0019 EC A5                   		mov.L	[r10], r5
 4637 001b A8 5D                   		mov.L	4[r5], r5
 4638                             		.loc 1 1278 26
 4639 001d 8B DD                   		mov.B	15[r5], r5
 4640                             		.loc 1 1278 34
 4641 001f 5B 55                   		movu.B	r5, r5
 4642 0021 64 25                   		and	#2, r5
 4643                             		.loc 1 1278 5
 4644 0023 61 05                   		cmp	#0, r5
 4645 0025 20 24                   		beq	.L246
1279:C:/Users/John/Desktop/workspace/miniwinwm/MiniWin/gl\gl.c **** 	{
1280:C:/Users/John/Desktop/workspace/miniwinwm/MiniWin/gl\gl.c **** 		return (mf_render_character(tt_font_state->font, x, y, character, tt_pixel_callback_no_anti_alias
 4646                             		.loc 1 1280 11
 4647 0027 EC A5                   		mov.L	[r10], r5
 4648 0029 A8 5D                   		mov.L	4[r5], r5
 4649 002b ED A4 03                		mov.L	12[r10], r4
 4650 002e A0 0C                   		mov.L	r4, 4[r0]
 4651 0030 F8 02 00 00 00 00       		mov.L	#_tt_pixel_callback_no_anti_aliasing, [r0]
 4652 0036 CD A4 08                		mov.B	8[r10], r4
 4653 0039 DD A3 03                		mov.W	6[r10], r3
 4654 003c DD A2 02                		mov.W	4[r10], r2
 4655 003f EF 51                   		mov.L	r5, r1
 4656 0041 05 00 00 00             		bsr	_mf_render_character
 4657 0045 EF 15                   		mov.L	r1, r5
 4658 0047 2E 22                   		bra	.L247
 4659                             	.L246:
1281:C:/Users/John/Desktop/workspace/miniwinwm/MiniWin/gl\gl.c **** 	}
1282:C:/Users/John/Desktop/workspace/miniwinwm/MiniWin/gl\gl.c **** 	else
1283:C:/Users/John/Desktop/workspace/miniwinwm/MiniWin/gl\gl.c **** 	{
1284:C:/Users/John/Desktop/workspace/miniwinwm/MiniWin/gl\gl.c **** 		return (mf_render_character(tt_font_state->font, x, y, character, tt_pixel_callback_anti_aliasing
 4660                             		.loc 1 1284 11
 4661 0049 EC A5                   		mov.L	[r10], r5
 4662 004b A8 5D                   		mov.L	4[r5], r5
 4663 004d ED A4 03                		mov.L	12[r10], r4
 4664 0050 A0 0C                   		mov.L	r4, 4[r0]
 4665 0052 F8 02 00 00 00 00       		mov.L	#_tt_pixel_callback_anti_aliasing, [r0]
 4666 0058 CD A4 08                		mov.B	8[r10], r4
 4667 005b DD A3 03                		mov.W	6[r10], r3
 4668 005e DD A2 02                		mov.W	4[r10], r2
 4669 0061 EF 51                   		mov.L	r5, r1
 4670 0063 05 00 00 00             		bsr	_mf_render_character
 4671 0067 EF 15                   		mov.L	r1, r5
 4672                             	.L247:
 4673 0069 5B 55                   		movu.B	r5, r5
1285:C:/Users/John/Desktop/workspace/miniwinwm/MiniWin/gl\gl.c **** 	}
1286:C:/Users/John/Desktop/workspace/miniwinwm/MiniWin/gl\gl.c **** }
 4674                             		.loc 1 1286 1
 4675 006b EF 51                   		mov.L	r5, r1
 4676 006d 3F AA 07                		rtsd	#28, r10-r10
 4677                             	.LFE15:
 4679                             		.section	.text.tt_pixel_callback_no_anti_aliasing,"ax",@progbits
 4681                             	_tt_pixel_callback_no_anti_aliasing:
 4682                             	.LFB16:
1287:C:/Users/John/Desktop/workspace/miniwinwm/MiniWin/gl\gl.c **** 
1288:C:/Users/John/Desktop/workspace/miniwinwm/MiniWin/gl\gl.c **** /**
1289:C:/Users/John/Desktop/workspace/miniwinwm/MiniWin/gl\gl.c ****  * Draw a monochrome true type font pixels without anti-aliasing
1290:C:/Users/John/Desktop/workspace/miniwinwm/MiniWin/gl\gl.c ****  *
1291:C:/Users/John/Desktop/workspace/miniwinwm/MiniWin/gl\gl.c ****  * @param x The x coordinate of the left most pixel
1292:C:/Users/John/Desktop/workspace/miniwinwm/MiniWin/gl\gl.c ****  * @param y The y coordinate of all the pixels
1293:C:/Users/John/Desktop/workspace/miniwinwm/MiniWin/gl\gl.c ****  * @param count The number of pixels to draw
1294:C:/Users/John/Desktop/workspace/miniwinwm/MiniWin/gl\gl.c ****  * @alpha Alpha blending value between background colour and foreground colour
1295:C:/Users/John/Desktop/workspace/miniwinwm/MiniWin/gl\gl.c ****  * @param state Pointer to font rendering state structure
1296:C:/Users/John/Desktop/workspace/miniwinwm/MiniWin/gl\gl.c ****  */
1297:C:/Users/John/Desktop/workspace/miniwinwm/MiniWin/gl\gl.c **** static void tt_pixel_callback_no_anti_aliasing(int16_t x, int16_t y, uint8_t count, uint8_t alpha, 
1298:C:/Users/John/Desktop/workspace/miniwinwm/MiniWin/gl\gl.c **** {
 4683                             		.loc 1 1298 1
 4684 0000 7E AA                   		push.l	r10
 4685                             	.LCFI47:
 4686 0002 71 0A F0                		add	#-16, r0, r10
 4687                             	.LCFI48:
 4688 0005 EF A0                   		mov.L	r10, r0
 4689 0007 75 45 18                		mov.L	#24, r5
 4690 000a 4B A5                   		add	r10, r5
 4691 000c D7 A1 02                		mov.W	r1, 4[r10]
 4692 000f D7 A2 03                		mov.W	r2, 6[r10]
 4693 0012 C7 A3 08                		mov.B	r3, 8[r10]
 4694 0015 C7 A4 09                		mov.B	r4, 9[r10]
1299:C:/Users/John/Desktop/workspace/miniwinwm/MiniWin/gl\gl.c **** 	/* get tt font rendering state */
1300:C:/Users/John/Desktop/workspace/miniwinwm/MiniWin/gl\gl.c **** 	tt_font_state_t *tt_font_state = (tt_font_state_t *)state;
 4695                             		.loc 1 1300 19
 4696 0018 EC 55                   		mov.L	[r5], r5
 4697 001a E3 A5                   		mov.L	r5, [r10]
1301:C:/Users/John/Desktop/workspace/miniwinwm/MiniWin/gl\gl.c **** 
1302:C:/Users/John/Desktop/workspace/miniwinwm/MiniWin/gl\gl.c **** 	/* check y value is still in box */
1303:C:/Users/John/Desktop/workspace/miniwinwm/MiniWin/gl\gl.c ****     if ((int16_t)(y - tt_font_state->vert_scroll_pixels) >= (int16_t)tt_font_state->bottom)
 4698                             		.loc 1 1303 21
 4699 001c DD A4 03                		mov.W	6[r10], r4
 4700                             		.loc 1 1303 36
 4701 001f EC A5                   		mov.L	[r10], r5
 4702 0021 9B DD                   		mov.W	30[r5], r5
 4703                             		.loc 1 1303 21
 4704 0023 FF 05 54                		sub	r5, r4, r5
 4705 0026 DF 54                   		mov.W	r5, r4
 4706                             		.loc 1 1303 83
 4707 0028 EC A5                   		mov.L	[r10], r5
 4708 002a 9A 55                   		mov.W	16[r5], r5
 4709                             		.loc 1 1303 8
 4710 002c DF 44                   		mov.W	r4, r4
 4711 002e DF 55                   		mov.W	r5, r5
 4712 0030 47 54                   		cmp	r5, r4
 4713 0032 28 49                   		bge	.L254
1304:C:/Users/John/Desktop/workspace/miniwinwm/MiniWin/gl\gl.c ****     {
1305:C:/Users/John/Desktop/workspace/miniwinwm/MiniWin/gl\gl.c ****     	return;
1306:C:/Users/John/Desktop/workspace/miniwinwm/MiniWin/gl\gl.c ****     }
1307:C:/Users/John/Desktop/workspace/miniwinwm/MiniWin/gl\gl.c **** 
1308:C:/Users/John/Desktop/workspace/miniwinwm/MiniWin/gl\gl.c ****     if ((int16_t)(y - tt_font_state->vert_scroll_pixels) < 0)
 4714                             		.loc 1 1308 21
 4715 0034 DD A4 03                		mov.W	6[r10], r4
 4716                             		.loc 1 1308 36
 4717 0037 EC A5                   		mov.L	[r10], r5
 4718 0039 9B DD                   		mov.W	30[r5], r5
 4719                             		.loc 1 1308 21
 4720 003b FF 05 54                		sub	r5, r4, r5
 4721                             		.loc 1 1308 8
 4722 003e DF 55                   		mov.W	r5, r5
 4723 0040 61 05                   		cmp	#0, r5
 4724 0042 29 3C                   		blt	.L255
1309:C:/Users/John/Desktop/workspace/miniwinwm/MiniWin/gl\gl.c ****     {
1310:C:/Users/John/Desktop/workspace/miniwinwm/MiniWin/gl\gl.c ****     	return;
1311:C:/Users/John/Desktop/workspace/miniwinwm/MiniWin/gl\gl.c ****     }
1312:C:/Users/John/Desktop/workspace/miniwinwm/MiniWin/gl\gl.c **** 
1313:C:/Users/John/Desktop/workspace/miniwinwm/MiniWin/gl\gl.c ****     /* do all pixels */
1314:C:/Users/John/Desktop/workspace/miniwinwm/MiniWin/gl\gl.c **** 	y = y - tt_font_state->vert_scroll_pixels;
 4725                             		.loc 1 1314 8
 4726 0044 DD A4 03                		mov.W	6[r10], r4
 4727                             		.loc 1 1314 23
 4728 0047 EC A5                   		mov.L	[r10], r5
 4729 0049 9B DD                   		mov.W	30[r5], r5
 4730                             		.loc 1 1314 8
 4731 004b FF 05 54                		sub	r5, r4, r5
 4732                             		.loc 1 1314 4
 4733 004e D7 A5 03                		mov.W	r5, 6[r10]
1315:C:/Users/John/Desktop/workspace/miniwinwm/MiniWin/gl\gl.c **** 
1316:C:/Users/John/Desktop/workspace/miniwinwm/MiniWin/gl\gl.c ****     while (count-- > 0U)
 4734                             		.loc 1 1316 11
 4735 0051 2E 1A                   		bra	.L252
 4736                             	.L253:
1317:C:/Users/John/Desktop/workspace/miniwinwm/MiniWin/gl\gl.c ****     {
1318:C:/Users/John/Desktop/workspace/miniwinwm/MiniWin/gl\gl.c ****     	/* draw pixel */
1319:C:/Users/John/Desktop/workspace/miniwinwm/MiniWin/gl\gl.c ****         mw_gl_fg_pixel(tt_font_state->draw_info, x, y);
 4737                             		.loc 1 1319 9
 4738 0053 EC A5                   		mov.L	[r10], r5
 4739 0055 EC 55                   		mov.L	[r5], r5
 4740 0057 DD A3 03                		mov.W	6[r10], r3
 4741 005a DD A2 02                		mov.W	4[r10], r2
 4742 005d EF 51                   		mov.L	r5, r1
 4743 005f 05 00 00 00             		bsr	_mw_gl_fg_pixel
1320:C:/Users/John/Desktop/workspace/miniwinwm/MiniWin/gl\gl.c **** 
1321:C:/Users/John/Desktop/workspace/miniwinwm/MiniWin/gl\gl.c ****         /* move on to next pixel */
1322:C:/Users/John/Desktop/workspace/miniwinwm/MiniWin/gl\gl.c ****         x++;
 4744                             		.loc 1 1322 10
 4745 0063 DD A5 02                		mov.W	4[r10], r5
 4746 0066 62 15                   		add	#1, r5
 4747 0068 D7 A5 02                		mov.W	r5, 4[r10]
 4748                             	.L252:
1316:C:/Users/John/Desktop/workspace/miniwinwm/MiniWin/gl\gl.c ****     {
 4749                             		.loc 1 1316 17
 4750 006b CD A5 08                		mov.B	8[r10], r5
 4751 006e 71 54 FF                		add	#-1, r5, r4
 4752 0071 C7 A4 08                		mov.B	r4, 8[r10]
1316:C:/Users/John/Desktop/workspace/miniwinwm/MiniWin/gl\gl.c ****     {
 4753                             		.loc 1 1316 11
 4754 0074 5B 55                   		movu.B	r5, r5
 4755 0076 61 05                   		cmp	#0, r5
 4756 0078 21 DB                   		bne	.L253
 4757 007a 0D                      		bra	.L248
 4758                             	.L254:
1305:C:/Users/John/Desktop/workspace/miniwinwm/MiniWin/gl\gl.c ****     }
 4759                             		.loc 1 1305 6
 4760 007b 03                      		nop
 4761 007c 2E 03                   		bra	.L248
 4762                             	.L255:
1310:C:/Users/John/Desktop/workspace/miniwinwm/MiniWin/gl\gl.c ****     }
 4763                             		.loc 1 1310 6
 4764 007e 03                      		nop
 4765                             	.L248:
1323:C:/Users/John/Desktop/workspace/miniwinwm/MiniWin/gl\gl.c ****     }
1324:C:/Users/John/Desktop/workspace/miniwinwm/MiniWin/gl\gl.c **** }
 4766                             		.loc 1 1324 1
 4767 007f 3F AA 05                		rtsd	#20, r10-r10
 4768                             	.LFE16:
 4770                             		.section C,"a",@progbits
 4771 0072 00 00                   		.p2align 2
 4772                             	.LC4:
 4773 0074 49 6E 76 61 6C 69 64 20 		.string	"Invalid justification"
 4773      6A 75 73 74 69 66 69 63 
 4773      61 74 69 6F 6E 00 
 4774                             		.section	.text.tt_line_callback,"ax",@progbits
 4776                             	_tt_line_callback:
 4777                             	.LFB17:
1325:C:/Users/John/Desktop/workspace/miniwinwm/MiniWin/gl\gl.c **** 
1326:C:/Users/John/Desktop/workspace/miniwinwm/MiniWin/gl\gl.c **** /**
1327:C:/Users/John/Desktop/workspace/miniwinwm/MiniWin/gl\gl.c ****  * Draw a true type font justified line
1328:C:/Users/John/Desktop/workspace/miniwinwm/MiniWin/gl\gl.c ****  *
1329:C:/Users/John/Desktop/workspace/miniwinwm/MiniWin/gl\gl.c ****  * @param line Pointer to start of the text to render in this line
1330:C:/Users/John/Desktop/workspace/miniwinwm/MiniWin/gl\gl.c ****  * @param count Number of characters to render in this line
1331:C:/Users/John/Desktop/workspace/miniwinwm/MiniWin/gl\gl.c ****  * @param state Pointer to font rendering state structure
1332:C:/Users/John/Desktop/workspace/miniwinwm/MiniWin/gl\gl.c ****  * @return true if rendering should stop as reached bottom of box, else false to continue rendering
1333:C:/Users/John/Desktop/workspace/miniwinwm/MiniWin/gl\gl.c ****  */
1334:C:/Users/John/Desktop/workspace/miniwinwm/MiniWin/gl\gl.c **** static bool tt_line_callback(mf_str line, uint16_t count, void *state)
1335:C:/Users/John/Desktop/workspace/miniwinwm/MiniWin/gl\gl.c **** {
 4778                             		.loc 1 1335 1
 4779 0000 7E AA                   		push.l	r10
 4780                             	.LCFI49:
 4781 0002 71 0A F0                		add	#-16, r0, r10
 4782                             	.LCFI50:
 4783 0005 71 A0 F0                		add	#-16, r10, r0
 4784                             	.LCFI51:
 4785 0008 E7 A1 01                		mov.L	r1, 4[r10]
 4786 000b D7 A2 04                		mov.W	r2, 8[r10]
 4787 000e E7 A3 03                		mov.L	r3, 12[r10]
1336:C:/Users/John/Desktop/workspace/miniwinwm/MiniWin/gl\gl.c **** 	/* get tt font rendering state */
1337:C:/Users/John/Desktop/workspace/miniwinwm/MiniWin/gl\gl.c **** 	tt_font_state_t *tt_font_state = (tt_font_state_t *)state;
 4788                             		.loc 1 1337 19
 4789 0011 ED A5 03                		mov.L	12[r10], r5
 4790 0014 E3 A5                   		mov.L	r5, [r10]
1338:C:/Users/John/Desktop/workspace/miniwinwm/MiniWin/gl\gl.c **** 
1339:C:/Users/John/Desktop/workspace/miniwinwm/MiniWin/gl\gl.c **** 	/* draw background for this line, gc already set up */
1340:C:/Users/John/Desktop/workspace/miniwinwm/MiniWin/gl\gl.c **** 	mw_gl_rectangle(tt_font_state->draw_info,
 4791                             		.loc 1 1340 2
 4792 0016 EC A5                   		mov.L	[r10], r5
 4793 0018 EC 51                   		mov.L	[r5], r1
 4794 001a EC A5                   		mov.L	[r10], r5
 4795 001c 99 52                   		mov.W	8[r5], r2
 4796 001e EC A5                   		mov.L	[r10], r5
 4797 0020 99 5B                   		mov.W	10[r5], r3
 4798 0022 EC A5                   		mov.L	[r10], r5
 4799 0024 99 D4                   		mov.W	12[r5], r4
1341:C:/Users/John/Desktop/workspace/miniwinwm/MiniWin/gl\gl.c **** 			tt_font_state->bounding_box.x,
1342:C:/Users/John/Desktop/workspace/miniwinwm/MiniWin/gl\gl.c **** 			tt_font_state->bounding_box.y,
1343:C:/Users/John/Desktop/workspace/miniwinwm/MiniWin/gl\gl.c **** 			tt_font_state->bounding_box.width,
1344:C:/Users/John/Desktop/workspace/miniwinwm/MiniWin/gl\gl.c **** 			(int16_t)tt_font_state->font->line_height);
 4800                             		.loc 1 1344 26
 4801 0026 EC A5                   		mov.L	[r10], r5
 4802 0028 A8 5D                   		mov.L	4[r5], r5
 4803                             		.loc 1 1344 32
 4804 002a 8B D5                   		mov.B	14[r5], r5
1340:C:/Users/John/Desktop/workspace/miniwinwm/MiniWin/gl\gl.c **** 			tt_font_state->bounding_box.x,
 4805                             		.loc 1 1340 2
 4806 002c 5B 55                   		movu.B	r5, r5
 4807 002e D3 05                   		mov.W	r5, [r0]
 4808 0030 05 00 00 00             		bsr	_mw_gl_rectangle
1345:C:/Users/John/Desktop/workspace/miniwinwm/MiniWin/gl\gl.c **** 
1346:C:/Users/John/Desktop/workspace/miniwinwm/MiniWin/gl\gl.c **** 	/* now check justification */
1347:C:/Users/John/Desktop/workspace/miniwinwm/MiniWin/gl\gl.c ****     if (tt_font_state->justification == MW_GL_TT_FULLY_JUSTIFIED)
 4809                             		.loc 1 1347 22
 4810 0034 EC A5                   		mov.L	[r10], r5
 4811 0036 A9 D5                   		mov.L	24[r5], r5
 4812                             		.loc 1 1347 8
 4813 0038 61 35                   		cmp	#3, r5
 4814 003a 21 31                   		bne	.L257
1348:C:/Users/John/Desktop/workspace/miniwinwm/MiniWin/gl\gl.c ****     {
1349:C:/Users/John/Desktop/workspace/miniwinwm/MiniWin/gl\gl.c **** 		mf_render_justified(tt_font_state->font,
 4815                             		.loc 1 1349 3
 4816 003c EC A5                   		mov.L	[r10], r5
 4817 003e A8 59                   		mov.L	4[r5], r1
 4818 0040 EC A5                   		mov.L	[r10], r5
 4819 0042 99 52                   		mov.W	8[r5], r2
 4820 0044 EC A5                   		mov.L	[r10], r5
 4821 0046 99 5B                   		mov.W	10[r5], r3
 4822 0048 EC A5                   		mov.L	[r10], r5
 4823 004a 99 D5                   		mov.W	12[r5], r5
 4824 004c ED A4 03                		mov.L	12[r10], r4
 4825 004f A0 8C                   		mov.L	r4, 12[r0]
 4826 0051 F9 02 02 00 00 00 00    		mov.L	#_tt_character_callback, 8[r0]
 4827 0058 DD A4 04                		mov.W	8[r10], r4
 4828 005b 90 84                   		mov.W	r4, 4[r0]
 4829 005d ED A4 01                		mov.L	4[r10], r4
 4830 0060 E3 04                   		mov.L	r4, [r0]
 4831 0062 DF 54                   		mov.W	r5, r4
 4832 0064 05 00 00 00             		bsr	_mf_render_justified
 4833 0068 38 D3 00                		bra	.L258
 4834                             	.L257:
1350:C:/Users/John/Desktop/workspace/miniwinwm/MiniWin/gl\gl.c **** 				tt_font_state->bounding_box.x,
1351:C:/Users/John/Desktop/workspace/miniwinwm/MiniWin/gl\gl.c **** 				tt_font_state->bounding_box.y,
1352:C:/Users/John/Desktop/workspace/miniwinwm/MiniWin/gl\gl.c **** 				tt_font_state->bounding_box.width,
1353:C:/Users/John/Desktop/workspace/miniwinwm/MiniWin/gl\gl.c **** 				line,
1354:C:/Users/John/Desktop/workspace/miniwinwm/MiniWin/gl\gl.c **** 				count,
1355:C:/Users/John/Desktop/workspace/miniwinwm/MiniWin/gl\gl.c **** 				tt_character_callback,
1356:C:/Users/John/Desktop/workspace/miniwinwm/MiniWin/gl\gl.c **** 				state);
1357:C:/Users/John/Desktop/workspace/miniwinwm/MiniWin/gl\gl.c ****     }
1358:C:/Users/John/Desktop/workspace/miniwinwm/MiniWin/gl\gl.c ****     else if (tt_font_state->justification == MW_GL_TT_LEFT_JUSTIFIED)
 4835                             		.loc 1 1358 27
 4836 006b EC A5                   		mov.L	[r10], r5
 4837 006d A9 D5                   		mov.L	24[r5], r5
 4838                             		.loc 1 1358 13
 4839 006f 61 05                   		cmp	#0, r5
 4840 0071 21 2F                   		bne	.L259
1359:C:/Users/John/Desktop/workspace/miniwinwm/MiniWin/gl\gl.c ****     {
1360:C:/Users/John/Desktop/workspace/miniwinwm/MiniWin/gl\gl.c ****     	mf_render_aligned(tt_font_state->font,
 4841                             		.loc 1 1360 6
 4842 0073 EC A5                   		mov.L	[r10], r5
 4843 0075 A8 59                   		mov.L	4[r5], r1
 4844 0077 EC A5                   		mov.L	[r10], r5
 4845 0079 99 52                   		mov.W	8[r5], r2
 4846 007b EC A5                   		mov.L	[r10], r5
 4847 007d 99 5D                   		mov.W	10[r5], r5
 4848 007f ED A4 03                		mov.L	12[r10], r4
 4849 0082 A0 8C                   		mov.L	r4, 12[r0]
 4850 0084 F9 02 02 00 00 00 00    		mov.L	#_tt_character_callback, 8[r0]
 4851 008b DD A4 04                		mov.W	8[r10], r4
 4852 008e 90 84                   		mov.W	r4, 4[r0]
 4853 0090 ED A4 01                		mov.L	4[r10], r4
 4854 0093 E3 04                   		mov.L	r4, [r0]
 4855 0095 66 04                   		mov.L	#0, r4
 4856 0097 DF 53                   		mov.W	r5, r3
 4857 0099 05 00 00 00             		bsr	_mf_render_aligned
 4858 009d 38 9E 00                		bra	.L258
 4859                             	.L259:
1361:C:/Users/John/Desktop/workspace/miniwinwm/MiniWin/gl\gl.c ****     			tt_font_state->bounding_box.x,
1362:C:/Users/John/Desktop/workspace/miniwinwm/MiniWin/gl\gl.c **** 				tt_font_state->bounding_box.y,
1363:C:/Users/John/Desktop/workspace/miniwinwm/MiniWin/gl\gl.c **** 				MF_ALIGN_LEFT,
1364:C:/Users/John/Desktop/workspace/miniwinwm/MiniWin/gl\gl.c ****     			line,
1365:C:/Users/John/Desktop/workspace/miniwinwm/MiniWin/gl\gl.c ****     			count,
1366:C:/Users/John/Desktop/workspace/miniwinwm/MiniWin/gl\gl.c **** 				tt_character_callback,
1367:C:/Users/John/Desktop/workspace/miniwinwm/MiniWin/gl\gl.c ****     			state);
1368:C:/Users/John/Desktop/workspace/miniwinwm/MiniWin/gl\gl.c ****     }
1369:C:/Users/John/Desktop/workspace/miniwinwm/MiniWin/gl\gl.c ****     else if (tt_font_state->justification == MW_GL_TT_RIGHT_JUSTIFIED)
 4860                             		.loc 1 1369 27
 4861 00a0 EC A5                   		mov.L	[r10], r5
 4862 00a2 A9 D5                   		mov.L	24[r5], r5
 4863                             		.loc 1 1369 13
 4864 00a4 61 25                   		cmp	#2, r5
 4865 00a6 21 38                   		bne	.L260
1370:C:/Users/John/Desktop/workspace/miniwinwm/MiniWin/gl\gl.c ****     {
1371:C:/Users/John/Desktop/workspace/miniwinwm/MiniWin/gl\gl.c ****     	mf_render_aligned(tt_font_state->font,
 4866                             		.loc 1 1371 6
 4867 00a8 EC A5                   		mov.L	[r10], r5
 4868 00aa A8 59                   		mov.L	4[r5], r1
1372:C:/Users/John/Desktop/workspace/miniwinwm/MiniWin/gl\gl.c ****     			tt_font_state->bounding_box.x + tt_font_state->bounding_box.width,
 4869                             		.loc 1 1372 35
 4870 00ac EC A5                   		mov.L	[r10], r5
 4871 00ae 99 55                   		mov.W	8[r5], r5
 4872 00b0 DF 54                   		mov.W	r5, r4
 4873                             		.loc 1 1372 67
 4874 00b2 EC A5                   		mov.L	[r10], r5
 4875 00b4 99 D5                   		mov.W	12[r5], r5
 4876                             		.loc 1 1372 38
 4877 00b6 4B 45                   		add	r4, r5
1371:C:/Users/John/Desktop/workspace/miniwinwm/MiniWin/gl\gl.c ****     			tt_font_state->bounding_box.x + tt_font_state->bounding_box.width,
 4878                             		.loc 1 1371 6
 4879 00b8 DF 52                   		mov.W	r5, r2
 4880 00ba EC A5                   		mov.L	[r10], r5
 4881 00bc 99 5D                   		mov.W	10[r5], r5
 4882 00be ED A4 03                		mov.L	12[r10], r4
 4883 00c1 A0 8C                   		mov.L	r4, 12[r0]
 4884 00c3 F9 02 02 00 00 00 00    		mov.L	#_tt_character_callback, 8[r0]
 4885 00ca DD A4 04                		mov.W	8[r10], r4
 4886 00cd 90 84                   		mov.W	r4, 4[r0]
 4887 00cf ED A4 01                		mov.L	4[r10], r4
 4888 00d2 E3 04                   		mov.L	r4, [r0]
 4889 00d4 66 24                   		mov.L	#2, r4
 4890 00d6 DF 53                   		mov.W	r5, r3
 4891 00d8 05 00 00 00             		bsr	_mf_render_aligned
 4892 00dc 2E 5F                   		bra	.L258
 4893                             	.L260:
1373:C:/Users/John/Desktop/workspace/miniwinwm/MiniWin/gl\gl.c **** 				tt_font_state->bounding_box.y,
1374:C:/Users/John/Desktop/workspace/miniwinwm/MiniWin/gl\gl.c **** 				MF_ALIGN_RIGHT,
1375:C:/Users/John/Desktop/workspace/miniwinwm/MiniWin/gl\gl.c ****     			line,
1376:C:/Users/John/Desktop/workspace/miniwinwm/MiniWin/gl\gl.c ****     			count,
1377:C:/Users/John/Desktop/workspace/miniwinwm/MiniWin/gl\gl.c **** 				tt_character_callback,
1378:C:/Users/John/Desktop/workspace/miniwinwm/MiniWin/gl\gl.c ****     			state);
1379:C:/Users/John/Desktop/workspace/miniwinwm/MiniWin/gl\gl.c ****     }
1380:C:/Users/John/Desktop/workspace/miniwinwm/MiniWin/gl\gl.c ****     else if (tt_font_state->justification == MW_GL_TT_CENTRE_JUSTIFIED)
 4894                             		.loc 1 1380 27
 4895 00de EC A5                   		mov.L	[r10], r5
 4896 00e0 A9 D5                   		mov.L	24[r5], r5
 4897                             		.loc 1 1380 13
 4898 00e2 61 15                   		cmp	#1, r5
 4899 00e4 21 41                   		bne	.L261
1381:C:/Users/John/Desktop/workspace/miniwinwm/MiniWin/gl\gl.c ****     {
1382:C:/Users/John/Desktop/workspace/miniwinwm/MiniWin/gl\gl.c ****     	mf_render_aligned(tt_font_state->font,
 4900                             		.loc 1 1382 6
 4901 00e6 EC A5                   		mov.L	[r10], r5
 4902 00e8 A8 59                   		mov.L	4[r5], r1
1383:C:/Users/John/Desktop/workspace/miniwinwm/MiniWin/gl\gl.c ****     			tt_font_state->bounding_box.x + (tt_font_state->bounding_box.width / 2),
 4903                             		.loc 1 1383 35
 4904 00ea EC A5                   		mov.L	[r10], r5
 4905 00ec 99 55                   		mov.W	8[r5], r5
 4906 00ee DF 53                   		mov.W	r5, r3
 4907                             		.loc 1 1383 68
 4908 00f0 EC A5                   		mov.L	[r10], r5
 4909 00f2 99 D5                   		mov.W	12[r5], r5
 4910                             		.loc 1 1383 38
 4911 00f4 DF 55                   		mov.W	r5, r5
 4912 00f6 FD 9F 54                		shlr	#31, r5, r4
 4913 00f9 4B 45                   		add	r4, r5
 4914 00fb 6A 15                   		shar	#1, r5
 4915 00fd 4B 35                   		add	r3, r5
1382:C:/Users/John/Desktop/workspace/miniwinwm/MiniWin/gl\gl.c ****     			tt_font_state->bounding_box.x + (tt_font_state->bounding_box.width / 2),
 4916                             		.loc 1 1382 6
 4917 00ff DF 52                   		mov.W	r5, r2
 4918 0101 EC A5                   		mov.L	[r10], r5
 4919 0103 99 5D                   		mov.W	10[r5], r5
 4920 0105 ED A4 03                		mov.L	12[r10], r4
 4921 0108 A0 8C                   		mov.L	r4, 12[r0]
 4922 010a F9 02 02 00 00 00 00    		mov.L	#_tt_character_callback, 8[r0]
 4923 0111 DD A4 04                		mov.W	8[r10], r4
 4924 0114 90 84                   		mov.W	r4, 4[r0]
 4925 0116 ED A4 01                		mov.L	4[r10], r4
 4926 0119 E3 04                   		mov.L	r4, [r0]
 4927 011b 66 14                   		mov.L	#1, r4
 4928 011d DF 53                   		mov.W	r5, r3
 4929 011f 05 00 00 00             		bsr	_mf_render_aligned
 4930 0123 2E 18                   		bra	.L258
 4931                             	.L261:
1384:C:/Users/John/Desktop/workspace/miniwinwm/MiniWin/gl\gl.c **** 				tt_font_state->bounding_box.y,
1385:C:/Users/John/Desktop/workspace/miniwinwm/MiniWin/gl\gl.c **** 				MF_ALIGN_CENTER,
1386:C:/Users/John/Desktop/workspace/miniwinwm/MiniWin/gl\gl.c ****     			line,
1387:C:/Users/John/Desktop/workspace/miniwinwm/MiniWin/gl\gl.c ****     			count,
1388:C:/Users/John/Desktop/workspace/miniwinwm/MiniWin/gl\gl.c **** 				tt_character_callback,
1389:C:/Users/John/Desktop/workspace/miniwinwm/MiniWin/gl\gl.c ****     			state);
1390:C:/Users/John/Desktop/workspace/miniwinwm/MiniWin/gl\gl.c ****     }
1391:C:/Users/John/Desktop/workspace/miniwinwm/MiniWin/gl\gl.c ****     else
1392:C:/Users/John/Desktop/workspace/miniwinwm/MiniWin/gl\gl.c ****     {
1393:C:/Users/John/Desktop/workspace/miniwinwm/MiniWin/gl\gl.c ****     	MW_ASSERT((bool)false, "Invalid justification");
 4932                             		.loc 1 1393 6
 4933 0125 FB 42 74 00 00 00       		mov.L	#.LC4, r4
 4934 012b FB 3A 71 05             		mov.L	#0x571, r3
 4935 012f FB 22 00 00 00 00       		mov.L	#___func__.3306, r2
 4936 0135 66 01                   		mov	#0, r1
 4937 0137 05 00 00 00             		bsr	_mw_debug_print_assert
 4938                             		.balign 8,3,1
 4939                             	.L258:
1394:C:/Users/John/Desktop/workspace/miniwinwm/MiniWin/gl\gl.c ****     }
1395:C:/Users/John/Desktop/workspace/miniwinwm/MiniWin/gl\gl.c **** 
1396:C:/Users/John/Desktop/workspace/miniwinwm/MiniWin/gl\gl.c ****     /* move next y value on by font height */
1397:C:/Users/John/Desktop/workspace/miniwinwm/MiniWin/gl\gl.c ****     tt_font_state->bounding_box.y += (int16_t)tt_font_state->font->line_height;
 4940                             		.loc 1 1397 35
 4941 013b EC A5                   		mov.L	[r10], r5
 4942 013d 99 5D                   		mov.W	10[r5], r5
 4943 013f DF 54                   		mov.W	r5, r4
 4944                             		.loc 1 1397 60
 4945 0141 EC A5                   		mov.L	[r10], r5
 4946 0143 A8 5D                   		mov.L	4[r5], r5
 4947                             		.loc 1 1397 66
 4948 0145 8B D5                   		mov.B	14[r5], r5
 4949 0147 5B 55                   		movu.B	r5, r5
 4950                             		.loc 1 1397 35
 4951 0149 4B 45                   		add	r4, r5
 4952 014b DF 54                   		mov.W	r5, r4
 4953 014d EC A5                   		mov.L	[r10], r5
 4954 014f 91 5C                   		mov.W	r4, 10[r5]
1398:C:/Users/John/Desktop/workspace/miniwinwm/MiniWin/gl\gl.c **** 
1399:C:/Users/John/Desktop/workspace/miniwinwm/MiniWin/gl\gl.c ****     /* check if y value is still in the text box */
1400:C:/Users/John/Desktop/workspace/miniwinwm/MiniWin/gl\gl.c ****     if (tt_font_state->bounding_box.y - tt_font_state->vert_scroll_pixels > tt_font_state->bottom)
 4955                             		.loc 1 1400 36
 4956 0151 EC A5                   		mov.L	[r10], r5
 4957 0153 99 5D                   		mov.W	10[r5], r5
 4958 0155 DF 54                   		mov.W	r5, r4
 4959                             		.loc 1 1400 54
 4960 0157 EC A5                   		mov.L	[r10], r5
 4961 0159 9B DD                   		mov.W	30[r5], r5
 4962 015b DF 55                   		mov.W	r5, r5
 4963                             		.loc 1 1400 39
 4964 015d 43 54                   		sub	r5, r4
 4965                             		.loc 1 1400 90
 4966 015f EC A5                   		mov.L	[r10], r5
 4967 0161 9A 55                   		mov.W	16[r5], r5
 4968 0163 DF 55                   		mov.W	r5, r5
 4969                             		.loc 1 1400 8
 4970 0165 47 54                   		cmp	r5, r4
 4971 0167 2B 05                   		ble	.L262
1401:C:/Users/John/Desktop/workspace/miniwinwm/MiniWin/gl\gl.c ****     {
1402:C:/Users/John/Desktop/workspace/miniwinwm/MiniWin/gl\gl.c ****     	return (false);
 4972                             		.loc 1 1402 13
 4973 0169 66 05                   		mov	#0, r5
 4974 016b 0B                      		bra	.L263
 4975                             	.L262:
1403:C:/Users/John/Desktop/workspace/miniwinwm/MiniWin/gl\gl.c ****     }
1404:C:/Users/John/Desktop/workspace/miniwinwm/MiniWin/gl\gl.c **** 
1405:C:/Users/John/Desktop/workspace/miniwinwm/MiniWin/gl\gl.c **** 	return (true);
 4976                             		.loc 1 1405 9
 4977 016c 66 15                   		mov	#1, r5
 4978                             	.L263:
 4979 016e 5B 55                   		movu.B	r5, r5
1406:C:/Users/John/Desktop/workspace/miniwinwm/MiniWin/gl\gl.c **** }
 4980                             		.loc 1 1406 1
 4981 0170 EF 51                   		mov.L	r5, r1
 4982 0172 3F AA 09                		rtsd	#36, r10-r10
 4983                             	.LFE17:
 4985 0175 FC 13 00                		.section	.text.tt_dummy_line_callback,"ax",@progbits
 4987                             	_tt_dummy_line_callback:
 4988                             	.LFB18:
1407:C:/Users/John/Desktop/workspace/miniwinwm/MiniWin/gl\gl.c **** 
1408:C:/Users/John/Desktop/workspace/miniwinwm/MiniWin/gl\gl.c **** /**
1409:C:/Users/John/Desktop/workspace/miniwinwm/MiniWin/gl\gl.c ****  * Do a dummy draw of a true type font justified line and increment line counter
1410:C:/Users/John/Desktop/workspace/miniwinwm/MiniWin/gl\gl.c ****  *
1411:C:/Users/John/Desktop/workspace/miniwinwm/MiniWin/gl\gl.c ****  * @param line The text to dummy render in this line
1412:C:/Users/John/Desktop/workspace/miniwinwm/MiniWin/gl\gl.c ****  * @param count Unused
1413:C:/Users/John/Desktop/workspace/miniwinwm/MiniWin/gl\gl.c ****  * @param state Pointer to font rendering state structure
1414:C:/Users/John/Desktop/workspace/miniwinwm/MiniWin/gl\gl.c ****  */
1415:C:/Users/John/Desktop/workspace/miniwinwm/MiniWin/gl\gl.c **** static bool tt_dummy_line_callback(mf_str line, uint16_t count, void *state)
1416:C:/Users/John/Desktop/workspace/miniwinwm/MiniWin/gl\gl.c **** {
 4989                             		.loc 1 1416 1
 4990 0000 7E AA                   		push.l	r10
 4991                             	.LCFI52:
 4992 0002 71 0A F0                		add	#-16, r0, r10
 4993                             	.LCFI53:
 4994 0005 EF A0                   		mov.L	r10, r0
 4995 0007 E7 A1 01                		mov.L	r1, 4[r10]
 4996 000a D7 A2 04                		mov.W	r2, 8[r10]
 4997 000d E7 A3 03                		mov.L	r3, 12[r10]
1417:C:/Users/John/Desktop/workspace/miniwinwm/MiniWin/gl\gl.c **** 	/* get tt font rendering state */
1418:C:/Users/John/Desktop/workspace/miniwinwm/MiniWin/gl\gl.c **** 	tt_font_state_t *tt_font_state = (tt_font_state_t *)state;
 4998                             		.loc 1 1418 19
 4999 0010 ED A5 03                		mov.L	12[r10], r5
 5000 0013 E3 A5                   		mov.L	r5, [r10]
1419:C:/Users/John/Desktop/workspace/miniwinwm/MiniWin/gl\gl.c **** 
1420:C:/Users/John/Desktop/workspace/miniwinwm/MiniWin/gl\gl.c ****     /* increment line count */
1421:C:/Users/John/Desktop/workspace/miniwinwm/MiniWin/gl\gl.c ****     tt_font_state->rendered_line_count++;
 5001                             		.loc 1 1421 18
 5002 0015 EC A5                   		mov.L	[r10], r5
 5003 0017 9B D5                   		mov.W	28[r5], r5
 5004                             		.loc 1 1421 39
 5005 0019 62 15                   		add	#1, r5
 5006 001b DF 54                   		mov.W	r5, r4
 5007 001d EC A5                   		mov.L	[r10], r5
 5008 001f 93 D4                   		mov.W	r4, 28[r5]
1422:C:/Users/John/Desktop/workspace/miniwinwm/MiniWin/gl\gl.c **** 
1423:C:/Users/John/Desktop/workspace/miniwinwm/MiniWin/gl\gl.c **** 	return (true);
 5009                             		.loc 1 1423 9
 5010 0021 66 15                   		mov	#1, r5
 5011 0023 5B 55                   		movu.B	r5, r5
1424:C:/Users/John/Desktop/workspace/miniwinwm/MiniWin/gl\gl.c **** }
 5012                             		.loc 1 1424 1
 5013 0025 EF 51                   		mov.L	r5, r1
 5014 0027 3F AA 05                		rtsd	#20, r10-r10
 5015                             	.LFE18:
 5017                             		.section	.text.mw_gl_init,"ax",@progbits
 5018                             		.global	_mw_gl_init
 5020                             	_mw_gl_init:
 5021                             	.LFB19:
1425:C:/Users/John/Desktop/workspace/miniwinwm/MiniWin/gl\gl.c **** 
1426:C:/Users/John/Desktop/workspace/miniwinwm/MiniWin/gl\gl.c **** /***********************
1427:C:/Users/John/Desktop/workspace/miniwinwm/MiniWin/gl\gl.c **** *** GLOBAL FUNCTIONS ***
1428:C:/Users/John/Desktop/workspace/miniwinwm/MiniWin/gl\gl.c **** ***********************/
1429:C:/Users/John/Desktop/workspace/miniwinwm/MiniWin/gl\gl.c **** 
1430:C:/Users/John/Desktop/workspace/miniwinwm/MiniWin/gl\gl.c **** void mw_gl_init(void)
1431:C:/Users/John/Desktop/workspace/miniwinwm/MiniWin/gl\gl.c **** {
 5022                             		.loc 1 1431 1
 5023 0000 7E AA                   		push.l	r10
 5024                             	.LCFI54:
 5025 0002 EF 0A                   		mov.L	r0, r10
 5026                             	.LCFI55:
1432:C:/Users/John/Desktop/workspace/miniwinwm/MiniWin/gl\gl.c **** 	gc.fg_colour = MW_HAL_LCD_WHITE;
 5027                             		.loc 1 1432 15
 5028 0004 FB 52 00 00 00 00       		mov.L	#_gc, r5
 5029 000a F8 52 FF FF FF 00       		mov.L	#0xffffff, [r5]
1433:C:/Users/John/Desktop/workspace/miniwinwm/MiniWin/gl\gl.c **** 	gc.bg_colour = MW_HAL_LCD_BLACK;
 5030                             		.loc 1 1433 15
 5031 0010 FB 52 00 00 00 00       		mov.L	#_gc, r5
 5032 0016 3E 51 00                		mov.L	#0, 4[r5]
1434:C:/Users/John/Desktop/workspace/miniwinwm/MiniWin/gl\gl.c **** 	gc.solid_fill_colour = MW_HAL_LCD_WHITE;
 5033                             		.loc 1 1434 23
 5034 0019 FB 52 00 00 00 00       		mov.L	#_gc, r5
 5035 001f F9 52 02 FF FF FF 00    		mov.L	#0xffffff, 8[r5]
1435:C:/Users/John/Desktop/workspace/miniwinwm/MiniWin/gl\gl.c **** 	gc.line = MW_GL_SOLID_LINE;
 5036                             		.loc 1 1435 10
 5037 0026 FB 52 00 00 00 00       		mov.L	#_gc, r5
 5038 002c F9 5E 03 FF FF 00       		mov.L	#0xffff, 12[r5]
1436:C:/Users/John/Desktop/workspace/miniwinwm/MiniWin/gl\gl.c **** 	gc.border = MW_GL_BORDER_ON;
 5039                             		.loc 1 1436 12
 5040 0032 FB 52 00 00 00 00       		mov.L	#_gc, r5
 5041 0038 3E 5C 01                		mov.L	#1, 48[r5]
1437:C:/Users/John/Desktop/workspace/miniwinwm/MiniWin/gl\gl.c **** 	gc.fill = MW_GL_NO_FILL;
 5042                             		.loc 1 1437 10
 5043 003b FB 52 00 00 00 00       		mov.L	#_gc, r5
 5044 0041 3E 5D 00                		mov.L	#0, 52[r5]
1438:C:/Users/John/Desktop/workspace/miniwinwm/MiniWin/gl\gl.c **** 	gc.pattern_set = false;
 5045                             		.loc 1 1438 17
 5046 0044 FB 52 00 00 00 00       		mov.L	#_gc, r5
 5047 004a F9 54 38 00             		mov.B	#0, 56[r5]
1439:C:/Users/John/Desktop/workspace/miniwinwm/MiniWin/gl\gl.c **** 	gc.bg_transparent = MW_GL_BG_NOT_TRANSPARENT;
 5048                             		.loc 1 1439 20
 5049 004e FB 52 00 00 00 00       		mov.L	#_gc, r5
 5050 0054 3E 5F 01                		mov.L	#1, 60[r5]
1440:C:/Users/John/Desktop/workspace/miniwinwm/MiniWin/gl\gl.c **** 	gc.font = MW_GL_FONT_9;
 5051                             		.loc 1 1440 10
 5052 0057 FB 52 00 00 00 00       		mov.L	#_gc, r5
 5053 005d 3E D0 00                		mov.L	#0, 64[r5]
1441:C:/Users/John/Desktop/workspace/miniwinwm/MiniWin/gl\gl.c **** 	gc.text_rotation = MW_GL_TEXT_ROTATION_0;
 5054                             		.loc 1 1441 19
 5055 0060 FB 52 00 00 00 00       		mov.L	#_gc, r5
 5056 0066 3E D1 00                		mov.L	#0, 68[r5]
1442:C:/Users/John/Desktop/workspace/miniwinwm/MiniWin/gl\gl.c **** }
 5057                             		.loc 1 1442 1
 5058 0069 03                      		nop
 5059 006a 3F AA 01                		rtsd	#4, r10-r10
 5060                             	.LFE19:
 5062                             		.section	.text.mw_gl_get_gc,"ax",@progbits
 5063                             		.global	_mw_gl_get_gc
 5065                             	_mw_gl_get_gc:
 5066                             	.LFB20:
1443:C:/Users/John/Desktop/workspace/miniwinwm/MiniWin/gl\gl.c **** 
1444:C:/Users/John/Desktop/workspace/miniwinwm/MiniWin/gl\gl.c **** mw_gl_gc_t *mw_gl_get_gc(void)
1445:C:/Users/John/Desktop/workspace/miniwinwm/MiniWin/gl\gl.c **** {
 5067                             		.loc 1 1445 1
 5068 0000 7E AA                   		push.l	r10
 5069                             	.LCFI56:
 5070 0002 EF 0A                   		mov.L	r0, r10
 5071                             	.LCFI57:
1446:C:/Users/John/Desktop/workspace/miniwinwm/MiniWin/gl\gl.c **** 	return (&gc);
 5072                             		.loc 1 1446 10
 5073 0004 FB 52 00 00 00 00       		mov.L	#_gc, r5
1447:C:/Users/John/Desktop/workspace/miniwinwm/MiniWin/gl\gl.c **** }
 5074                             		.loc 1 1447 1
 5075 000a EF 51                   		mov.L	r5, r1
 5076 000c 3F AA 01                		rtsd	#4, r10-r10
 5077                             	.LFE20:
 5079                             		.section	.text.mw_gl_set_fg_colour,"ax",@progbits
 5080                             		.global	_mw_gl_set_fg_colour
 5082                             	_mw_gl_set_fg_colour:
 5083                             	.LFB21:
1448:C:/Users/John/Desktop/workspace/miniwinwm/MiniWin/gl\gl.c **** 
1449:C:/Users/John/Desktop/workspace/miniwinwm/MiniWin/gl\gl.c **** void mw_gl_set_fg_colour(mw_hal_lcd_colour_t colour)
1450:C:/Users/John/Desktop/workspace/miniwinwm/MiniWin/gl\gl.c **** {
 5084                             		.loc 1 1450 1
 5085 0000 7E AA                   		push.l	r10
 5086                             	.LCFI58:
 5087 0002 71 0A FC                		add	#-4, r0, r10
 5088                             	.LCFI59:
 5089 0005 EF A0                   		mov.L	r10, r0
 5090 0007 E3 A1                   		mov.L	r1, [r10]
1451:C:/Users/John/Desktop/workspace/miniwinwm/MiniWin/gl\gl.c **** 	gc.fg_colour = colour;
 5091                             		.loc 1 1451 15
 5092 0009 FB 52 00 00 00 00       		mov.L	#_gc, r5
 5093 000f EC A4                   		mov.L	[r10], r4
 5094 0011 E3 54                   		mov.L	r4, [r5]
1452:C:/Users/John/Desktop/workspace/miniwinwm/MiniWin/gl\gl.c **** }
 5095                             		.loc 1 1452 1
 5096 0013 03                      		nop
 5097 0014 3F AA 02                		rtsd	#8, r10-r10
 5098                             	.LFE21:
 5100                             		.section	.text.mw_gl_set_bg_colour,"ax",@progbits
 5101                             		.global	_mw_gl_set_bg_colour
 5103                             	_mw_gl_set_bg_colour:
 5104                             	.LFB22:
1453:C:/Users/John/Desktop/workspace/miniwinwm/MiniWin/gl\gl.c **** 
1454:C:/Users/John/Desktop/workspace/miniwinwm/MiniWin/gl\gl.c **** void mw_gl_set_bg_colour(mw_hal_lcd_colour_t colour)
1455:C:/Users/John/Desktop/workspace/miniwinwm/MiniWin/gl\gl.c **** {
 5105                             		.loc 1 1455 1
 5106 0000 7E AA                   		push.l	r10
 5107                             	.LCFI60:
 5108 0002 71 0A FC                		add	#-4, r0, r10
 5109                             	.LCFI61:
 5110 0005 EF A0                   		mov.L	r10, r0
 5111 0007 E3 A1                   		mov.L	r1, [r10]
1456:C:/Users/John/Desktop/workspace/miniwinwm/MiniWin/gl\gl.c **** 	gc.bg_colour = colour;
 5112                             		.loc 1 1456 15
 5113 0009 FB 52 00 00 00 00       		mov.L	#_gc, r5
 5114 000f EC A4                   		mov.L	[r10], r4
 5115 0011 A0 5C                   		mov.L	r4, 4[r5]
1457:C:/Users/John/Desktop/workspace/miniwinwm/MiniWin/gl\gl.c **** }
 5116                             		.loc 1 1457 1
 5117 0013 03                      		nop
 5118 0014 3F AA 02                		rtsd	#8, r10-r10
 5119                             	.LFE22:
 5121                             		.section	.text.mw_gl_set_solid_fill_colour,"ax",@progbits
 5122                             		.global	_mw_gl_set_solid_fill_colour
 5124                             	_mw_gl_set_solid_fill_colour:
 5125                             	.LFB23:
1458:C:/Users/John/Desktop/workspace/miniwinwm/MiniWin/gl\gl.c **** 
1459:C:/Users/John/Desktop/workspace/miniwinwm/MiniWin/gl\gl.c **** void mw_gl_set_solid_fill_colour(mw_hal_lcd_colour_t colour)
1460:C:/Users/John/Desktop/workspace/miniwinwm/MiniWin/gl\gl.c **** {
 5126                             		.loc 1 1460 1
 5127 0000 7E AA                   		push.l	r10
 5128                             	.LCFI62:
 5129 0002 71 0A FC                		add	#-4, r0, r10
 5130                             	.LCFI63:
 5131 0005 EF A0                   		mov.L	r10, r0
 5132 0007 E3 A1                   		mov.L	r1, [r10]
1461:C:/Users/John/Desktop/workspace/miniwinwm/MiniWin/gl\gl.c **** 	gc.solid_fill_colour = colour;
 5133                             		.loc 1 1461 23
 5134 0009 FB 52 00 00 00 00       		mov.L	#_gc, r5
 5135 000f EC A4                   		mov.L	[r10], r4
 5136 0011 A0 D4                   		mov.L	r4, 8[r5]
1462:C:/Users/John/Desktop/workspace/miniwinwm/MiniWin/gl\gl.c **** }
 5137                             		.loc 1 1462 1
 5138 0013 03                      		nop
 5139 0014 3F AA 02                		rtsd	#8, r10-r10
 5140                             	.LFE23:
 5142                             		.section	.text.mw_gl_set_line,"ax",@progbits
 5143                             		.global	_mw_gl_set_line
 5145                             	_mw_gl_set_line:
 5146                             	.LFB24:
1463:C:/Users/John/Desktop/workspace/miniwinwm/MiniWin/gl\gl.c **** 
1464:C:/Users/John/Desktop/workspace/miniwinwm/MiniWin/gl\gl.c **** void mw_gl_set_line(mw_gl_line_t line)
1465:C:/Users/John/Desktop/workspace/miniwinwm/MiniWin/gl\gl.c **** {
 5147                             		.loc 1 1465 1
 5148 0000 7E AA                   		push.l	r10
 5149                             	.LCFI64:
 5150 0002 71 0A FC                		add	#-4, r0, r10
 5151                             	.LCFI65:
 5152 0005 EF A0                   		mov.L	r10, r0
 5153 0007 E3 A1                   		mov.L	r1, [r10]
1466:C:/Users/John/Desktop/workspace/miniwinwm/MiniWin/gl\gl.c **** 	gc.line = line;
 5154                             		.loc 1 1466 10
 5155 0009 FB 52 00 00 00 00       		mov.L	#_gc, r5
 5156 000f EC A4                   		mov.L	[r10], r4
 5157 0011 A0 DC                   		mov.L	r4, 12[r5]
1467:C:/Users/John/Desktop/workspace/miniwinwm/MiniWin/gl\gl.c **** }
 5158                             		.loc 1 1467 1
 5159 0013 03                      		nop
 5160 0014 3F AA 02                		rtsd	#8, r10-r10
 5161                             	.LFE24:
 5163                             		.section	.text.mw_gl_set_pattern,"ax",@progbits
 5164                             		.global	_mw_gl_set_pattern
 5166                             	_mw_gl_set_pattern:
 5167                             	.LFB25:
1468:C:/Users/John/Desktop/workspace/miniwinwm/MiniWin/gl\gl.c **** 
1469:C:/Users/John/Desktop/workspace/miniwinwm/MiniWin/gl\gl.c **** void mw_gl_set_pattern(const mw_gl_pattern_t pattern)
1470:C:/Users/John/Desktop/workspace/miniwinwm/MiniWin/gl\gl.c **** {
 5168                             		.loc 1 1470 1
 5169 0000 7E AA                   		push.l	r10
 5170                             	.LCFI66:
 5171 0002 71 0A FC                		add	#-4, r0, r10
 5172                             	.LCFI67:
 5173 0005 EF A0                   		mov.L	r10, r0
 5174 0007 E3 A1                   		mov.L	r1, [r10]
1471:C:/Users/John/Desktop/workspace/miniwinwm/MiniWin/gl\gl.c **** 	(void)memcpy((gc.pattern), (pattern), (sizeof(mw_gl_pattern_t)));
 5175                             		.loc 1 1471 8
 5176 0009 75 43 20                		mov.L	#32, r3
 5177 000c EC A2                   		mov.L	[r10], r2
 5178 000e FB 12 10 00 00 00       		mov.L	#_gc+16, r1
 5179 0014 05 00 00 00             		bsr	_memcpy
1472:C:/Users/John/Desktop/workspace/miniwinwm/MiniWin/gl\gl.c **** 	gc.pattern_set = true;
 5180                             		.loc 1 1472 17
 5181 0018 FB 52 00 00 00 00       		mov.L	#_gc, r5
 5182 001e F9 54 38 01             		mov.B	#1, 56[r5]
1473:C:/Users/John/Desktop/workspace/miniwinwm/MiniWin/gl\gl.c **** }
 5183                             		.loc 1 1473 1
 5184 0022 03                      		nop
 5185 0023 3F AA 02                		rtsd	#8, r10-r10
 5186                             	.LFE25:
 5188                             		.section	.text.mw_gl_clear_pattern,"ax",@progbits
 5189                             		.global	_mw_gl_clear_pattern
 5191                             	_mw_gl_clear_pattern:
 5192                             	.LFB26:
1474:C:/Users/John/Desktop/workspace/miniwinwm/MiniWin/gl\gl.c **** 
1475:C:/Users/John/Desktop/workspace/miniwinwm/MiniWin/gl\gl.c **** void mw_gl_clear_pattern(void)
1476:C:/Users/John/Desktop/workspace/miniwinwm/MiniWin/gl\gl.c **** {
 5193                             		.loc 1 1476 1
 5194 0000 7E AA                   		push.l	r10
 5195                             	.LCFI68:
 5196 0002 EF 0A                   		mov.L	r0, r10
 5197                             	.LCFI69:
1477:C:/Users/John/Desktop/workspace/miniwinwm/MiniWin/gl\gl.c **** 	gc.pattern_set = false;
 5198                             		.loc 1 1477 17
 5199 0004 FB 52 00 00 00 00       		mov.L	#_gc, r5
 5200 000a F9 54 38 00             		mov.B	#0, 56[r5]
1478:C:/Users/John/Desktop/workspace/miniwinwm/MiniWin/gl\gl.c **** }
 5201                             		.loc 1 1478 1
 5202 000e 03                      		nop
 5203 000f 3F AA 01                		rtsd	#4, r10-r10
 5204                             	.LFE26:
 5206                             		.section	.text.mw_gl_set_border,"ax",@progbits
 5207                             		.global	_mw_gl_set_border
 5209                             	_mw_gl_set_border:
 5210                             	.LFB27:
1479:C:/Users/John/Desktop/workspace/miniwinwm/MiniWin/gl\gl.c **** 
1480:C:/Users/John/Desktop/workspace/miniwinwm/MiniWin/gl\gl.c **** void mw_gl_set_border(mw_gl_border_t border)
1481:C:/Users/John/Desktop/workspace/miniwinwm/MiniWin/gl\gl.c **** {
 5211                             		.loc 1 1481 1
 5212 0000 7E AA                   		push.l	r10
 5213                             	.LCFI70:
 5214 0002 71 0A FC                		add	#-4, r0, r10
 5215                             	.LCFI71:
 5216 0005 EF A0                   		mov.L	r10, r0
 5217 0007 E3 A1                   		mov.L	r1, [r10]
1482:C:/Users/John/Desktop/workspace/miniwinwm/MiniWin/gl\gl.c **** 	gc.border = border;
 5218                             		.loc 1 1482 12
 5219 0009 FB 52 00 00 00 00       		mov.L	#_gc, r5
 5220 000f EC A4                   		mov.L	[r10], r4
 5221 0011 A3 54                   		mov.L	r4, 48[r5]
1483:C:/Users/John/Desktop/workspace/miniwinwm/MiniWin/gl\gl.c **** }
 5222                             		.loc 1 1483 1
 5223 0013 03                      		nop
 5224 0014 3F AA 02                		rtsd	#8, r10-r10
 5225                             	.LFE27:
 5227                             		.section	.text.mw_gl_set_fill,"ax",@progbits
 5228                             		.global	_mw_gl_set_fill
 5230                             	_mw_gl_set_fill:
 5231                             	.LFB28:
1484:C:/Users/John/Desktop/workspace/miniwinwm/MiniWin/gl\gl.c **** 
1485:C:/Users/John/Desktop/workspace/miniwinwm/MiniWin/gl\gl.c **** void mw_gl_set_fill(mw_gl_fill_t fill)
1486:C:/Users/John/Desktop/workspace/miniwinwm/MiniWin/gl\gl.c **** {
 5232                             		.loc 1 1486 1
 5233 0000 7E AA                   		push.l	r10
 5234                             	.LCFI72:
 5235 0002 71 0A FC                		add	#-4, r0, r10
 5236                             	.LCFI73:
 5237 0005 EF A0                   		mov.L	r10, r0
 5238 0007 E3 A1                   		mov.L	r1, [r10]
1487:C:/Users/John/Desktop/workspace/miniwinwm/MiniWin/gl\gl.c **** 	gc.fill = fill;
 5239                             		.loc 1 1487 10
 5240 0009 FB 52 00 00 00 00       		mov.L	#_gc, r5
 5241 000f EC A4                   		mov.L	[r10], r4
 5242 0011 A3 5C                   		mov.L	r4, 52[r5]
1488:C:/Users/John/Desktop/workspace/miniwinwm/MiniWin/gl\gl.c **** }
 5243                             		.loc 1 1488 1
 5244 0013 03                      		nop
 5245 0014 3F AA 02                		rtsd	#8, r10-r10
 5246                             	.LFE28:
 5248                             		.section	.text.mw_gl_set_bg_transparency,"ax",@progbits
 5249                             		.global	_mw_gl_set_bg_transparency
 5251                             	_mw_gl_set_bg_transparency:
 5252                             	.LFB29:
1489:C:/Users/John/Desktop/workspace/miniwinwm/MiniWin/gl\gl.c **** 
1490:C:/Users/John/Desktop/workspace/miniwinwm/MiniWin/gl\gl.c **** void mw_gl_set_bg_transparency(mw_gl_bg_transparent_t bg_transparent)
1491:C:/Users/John/Desktop/workspace/miniwinwm/MiniWin/gl\gl.c **** {
 5253                             		.loc 1 1491 1
 5254 0000 7E AA                   		push.l	r10
 5255                             	.LCFI74:
 5256 0002 71 0A FC                		add	#-4, r0, r10
 5257                             	.LCFI75:
 5258 0005 EF A0                   		mov.L	r10, r0
 5259 0007 E3 A1                   		mov.L	r1, [r10]
1492:C:/Users/John/Desktop/workspace/miniwinwm/MiniWin/gl\gl.c **** 	gc.bg_transparent = bg_transparent;
 5260                             		.loc 1 1492 20
 5261 0009 FB 52 00 00 00 00       		mov.L	#_gc, r5
 5262 000f EC A4                   		mov.L	[r10], r4
 5263 0011 A3 DC                   		mov.L	r4, 60[r5]
1493:C:/Users/John/Desktop/workspace/miniwinwm/MiniWin/gl\gl.c **** }
 5264                             		.loc 1 1493 1
 5265 0013 03                      		nop
 5266 0014 3F AA 02                		rtsd	#8, r10-r10
 5267                             	.LFE29:
 5269                             		.section C,"a",@progbits
 5270 008a 00 00                   		.p2align 2
 5271                             	.LC5:
 5272 008c 55 6E 6B 6E 6F 77 6E 20 		.string	"Unknown font"
 5272      66 6F 6E 74 00 
 5273 0099 00 00 00                		.section	.text.mw_gl_set_font,"ax",@progbits
 5274                             		.global	_mw_gl_set_font
 5276                             	_mw_gl_set_font:
 5277                             	.LFB30:
1494:C:/Users/John/Desktop/workspace/miniwinwm/MiniWin/gl\gl.c **** 
1495:C:/Users/John/Desktop/workspace/miniwinwm/MiniWin/gl\gl.c **** void mw_gl_set_font(mw_gl_font_t font)
1496:C:/Users/John/Desktop/workspace/miniwinwm/MiniWin/gl\gl.c **** {
 5278                             		.loc 1 1496 1
 5279 0000 7E AA                   		push.l	r10
 5280                             	.LCFI76:
 5281 0002 71 0A FC                		add	#-4, r0, r10
 5282                             	.LCFI77:
 5283 0005 EF A0                   		mov.L	r10, r0
 5284 0007 E3 A1                   		mov.L	r1, [r10]
1497:C:/Users/John/Desktop/workspace/miniwinwm/MiniWin/gl\gl.c **** #ifndef MW_FONT_12_INCLUDED
1498:C:/Users/John/Desktop/workspace/miniwinwm/MiniWin/gl\gl.c **** 	MW_ASSERT(font != MW_GL_FONT_12, "Font not included");
1499:C:/Users/John/Desktop/workspace/miniwinwm/MiniWin/gl\gl.c **** #endif
1500:C:/Users/John/Desktop/workspace/miniwinwm/MiniWin/gl\gl.c **** 
1501:C:/Users/John/Desktop/workspace/miniwinwm/MiniWin/gl\gl.c **** #ifndef MW_FONT_16_INCLUDED
1502:C:/Users/John/Desktop/workspace/miniwinwm/MiniWin/gl\gl.c **** 	MW_ASSERT(font != MW_GL_FONT_16, "Font not included");
1503:C:/Users/John/Desktop/workspace/miniwinwm/MiniWin/gl\gl.c **** #endif
1504:C:/Users/John/Desktop/workspace/miniwinwm/MiniWin/gl\gl.c **** 
1505:C:/Users/John/Desktop/workspace/miniwinwm/MiniWin/gl\gl.c **** #ifndef MW_FONT_20_INCLUDED
1506:C:/Users/John/Desktop/workspace/miniwinwm/MiniWin/gl\gl.c **** 	MW_ASSERT(font != MW_GL_FONT_20, "Font not included");
1507:C:/Users/John/Desktop/workspace/miniwinwm/MiniWin/gl\gl.c **** #endif
1508:C:/Users/John/Desktop/workspace/miniwinwm/MiniWin/gl\gl.c **** 
1509:C:/Users/John/Desktop/workspace/miniwinwm/MiniWin/gl\gl.c **** #ifndef MW_FONT_20_INCLUDED
1510:C:/Users/John/Desktop/workspace/miniwinwm/MiniWin/gl\gl.c **** 	MW_ASSERT(font != MW_GL_FONT_20, "Font not included");
1511:C:/Users/John/Desktop/workspace/miniwinwm/MiniWin/gl\gl.c **** #endif
1512:C:/Users/John/Desktop/workspace/miniwinwm/MiniWin/gl\gl.c **** 
1513:C:/Users/John/Desktop/workspace/miniwinwm/MiniWin/gl\gl.c **** #ifndef MW_FONT_24_INCLUDED
1514:C:/Users/John/Desktop/workspace/miniwinwm/MiniWin/gl\gl.c **** 	MW_ASSERT(font != MW_GL_FONT_24, "Font not included");
1515:C:/Users/John/Desktop/workspace/miniwinwm/MiniWin/gl\gl.c **** #endif
1516:C:/Users/John/Desktop/workspace/miniwinwm/MiniWin/gl\gl.c **** 
1517:C:/Users/John/Desktop/workspace/miniwinwm/MiniWin/gl\gl.c **** 	MW_ASSERT(font == MW_GL_FONT_9 ||
 5285                             		.loc 1 1517 2
 5286 0009 EC A5                   		mov.L	[r10], r5
 5287 000b 61 05                   		cmp	#0, r5
 5288 000d 20 1E                   		beq	.L279
 5289                             		.loc 1 1517 2 is_stmt 0 discriminator 2
 5290 000f EC A5                   		mov.L	[r10], r5
 5291 0011 61 15                   		cmp	#1, r5
 5292 0013 20 18                   		beq	.L279
 5293                             		.loc 1 1517 2 discriminator 4
 5294 0015 EC A5                   		mov.L	[r10], r5
 5295 0017 61 25                   		cmp	#2, r5
 5296 0019 20 12                   		beq	.L279
 5297                             		.loc 1 1517 2 discriminator 6
 5298 001b EC A5                   		mov.L	[r10], r5
 5299 001d 61 35                   		cmp	#3, r5
 5300 001f 20 0C                   		beq	.L279
 5301                             		.loc 1 1517 2 discriminator 8
 5302 0021 EC A5                   		mov.L	[r10], r5
 5303 0023 61 45                   		cmp	#4, r5
 5304 0025 16                      		beq	.L279
 5305                             		.loc 1 1517 2 discriminator 10
 5306 0026 EC A5                   		mov.L	[r10], r5
 5307 0028 61 55                   		cmp	#5, r5
 5308 002a 1C                      		bne	.L280
 5309                             		.balign 8,3,1
 5310                             	.L279:
 5311                             		.loc 1 1517 2 discriminator 11
 5312 002b 66 15                   		mov.L	#1, r5
 5313 002d 0B                      		bra	.L281
 5314                             	.L280:
 5315                             		.loc 1 1517 2 discriminator 12
 5316 002e 66 05                   		mov.L	#0, r5
 5317                             	.L281:
 5318                             		.loc 1 1517 2 discriminator 14
 5319 0030 64 15                   		and	#1, r5
 5320 0032 FB 42 8C 00 00 00       		mov.L	#.LC5, r4
 5321 0038 FB 3A F3 05             		mov.L	#0x5f3, r3
 5322 003c FB 22 00 00 00 00       		mov.L	#___func__.3349, r2
 5323 0042 CF 51                   		mov.B	r5, r1
 5324 0044 05 00 00 00             		bsr	_mw_debug_print_assert
1518:C:/Users/John/Desktop/workspace/miniwinwm/MiniWin/gl\gl.c **** 			font == MW_GL_FONT_12 ||
1519:C:/Users/John/Desktop/workspace/miniwinwm/MiniWin/gl\gl.c **** 			font == MW_GL_FONT_16 ||
1520:C:/Users/John/Desktop/workspace/miniwinwm/MiniWin/gl\gl.c **** 			font == MW_GL_FONT_20 ||
1521:C:/Users/John/Desktop/workspace/miniwinwm/MiniWin/gl\gl.c **** 			font == MW_GL_FONT_24 ||
1522:C:/Users/John/Desktop/workspace/miniwinwm/MiniWin/gl\gl.c **** 			font == MW_GL_TITLE_FONT,
1523:C:/Users/John/Desktop/workspace/miniwinwm/MiniWin/gl\gl.c **** 			"Unknown font");
1524:C:/Users/John/Desktop/workspace/miniwinwm/MiniWin/gl\gl.c **** 
1525:C:/Users/John/Desktop/workspace/miniwinwm/MiniWin/gl\gl.c **** 	gc.font = font;
 5325                             		.loc 1 1525 10 is_stmt 1 discriminator 14
 5326 0048 FB 52 00 00 00 00       		mov.L	#_gc, r5
 5327 004e EC A4                   		mov.L	[r10], r4
 5328 0050 A4 54                   		mov.L	r4, 64[r5]
1526:C:/Users/John/Desktop/workspace/miniwinwm/MiniWin/gl\gl.c **** }
 5329                             		.loc 1 1526 1 discriminator 14
 5330 0052 03                      		nop
 5331 0053 3F AA 02                		rtsd	#8, r10-r10
 5332                             	.LFE30:
 5334 0056 EF 00                   		.section	.text.mw_gl_set_text_rotation,"ax",@progbits
 5335                             		.global	_mw_gl_set_text_rotation
 5337                             	_mw_gl_set_text_rotation:
 5338                             	.LFB31:
1527:C:/Users/John/Desktop/workspace/miniwinwm/MiniWin/gl\gl.c **** 
1528:C:/Users/John/Desktop/workspace/miniwinwm/MiniWin/gl\gl.c **** void mw_gl_set_text_rotation(mw_gl_text_rotation_t text_rotation)
1529:C:/Users/John/Desktop/workspace/miniwinwm/MiniWin/gl\gl.c **** {
 5339                             		.loc 1 1529 1
 5340 0000 7E AA                   		push.l	r10
 5341                             	.LCFI78:
 5342 0002 71 0A FC                		add	#-4, r0, r10
 5343                             	.LCFI79:
 5344 0005 EF A0                   		mov.L	r10, r0
 5345 0007 E3 A1                   		mov.L	r1, [r10]
1530:C:/Users/John/Desktop/workspace/miniwinwm/MiniWin/gl\gl.c **** 	gc.text_rotation = text_rotation;
 5346                             		.loc 1 1530 19
 5347 0009 FB 52 00 00 00 00       		mov.L	#_gc, r5
 5348 000f EC A4                   		mov.L	[r10], r4
 5349 0011 A4 5C                   		mov.L	r4, 68[r5]
1531:C:/Users/John/Desktop/workspace/miniwinwm/MiniWin/gl\gl.c **** }
 5350                             		.loc 1 1531 1
 5351 0013 03                      		nop
 5352 0014 3F AA 02                		rtsd	#8, r10-r10
 5353                             	.LFE31:
 5355                             		.section	.text.mw_gl_get_font_width,"ax",@progbits
 5356                             		.global	_mw_gl_get_font_width
 5358                             	_mw_gl_get_font_width:
 5359                             	.LFB32:
1532:C:/Users/John/Desktop/workspace/miniwinwm/MiniWin/gl\gl.c **** 
1533:C:/Users/John/Desktop/workspace/miniwinwm/MiniWin/gl\gl.c **** int16_t mw_gl_get_font_width(void)
1534:C:/Users/John/Desktop/workspace/miniwinwm/MiniWin/gl\gl.c **** {
 5360                             		.loc 1 1534 1
 5361 0000 7E AA                   		push.l	r10
 5362                             	.LCFI80:
 5363 0002 EF 0A                   		mov.L	r0, r10
 5364                             	.LCFI81:
1535:C:/Users/John/Desktop/workspace/miniwinwm/MiniWin/gl\gl.c **** 	switch (gc.font)
 5365                             		.loc 1 1535 12
 5366 0004 FB 52 00 00 00 00       		mov.L	#_gc, r5
 5367 000a AC 55                   		mov.L	64[r5], r5
 5368                             		.loc 1 1535 2
 5369 000c 61 25                   		cmp	#2, r5
 5370 000e 20 2E                   		beq	.L284
 5371 0010 61 25                   		cmp	#2, r5
 5372 0012 24 0C                   		bgtu	.L285
 5373 0014 61 05                   		cmp	#0, r5
 5374 0016 20 12                   		beq	.L286
 5375 0018 61 15                   		cmp	#1, r5
 5376 001a 20 18                   		beq	.L287
 5377 001c 2E 3D                   		bra	.L288
 5378                             	.L285:
 5379 001e 61 35                   		cmp	#3, r5
 5380 0020 20 26                   		beq	.L289
 5381 0022 61 45                   		cmp	#4, r5
 5382 0024 20 2C                   		beq	.L290
 5383 0026 2E 33                   		bra	.L288
 5384                             	.L286:
1536:C:/Users/John/Desktop/workspace/miniwinwm/MiniWin/gl\gl.c **** 	{
1537:C:/Users/John/Desktop/workspace/miniwinwm/MiniWin/gl\gl.c **** 	case MW_GL_FONT_9:
1538:C:/Users/John/Desktop/workspace/miniwinwm/MiniWin/gl\gl.c **** 		return ((int16_t)Font9.Width);
 5385                             		.loc 1 1538 25
 5386 0028 FB 52 00 00 00 00       		mov.L	#_Font9, r5
 5387 002e 98 D5                   		mov.W	4[r5], r5
 5388                             		.loc 1 1538 11
 5389 0030 2E 2B                   		bra	.L291
 5390                             	.L287:
1539:C:/Users/John/Desktop/workspace/miniwinwm/MiniWin/gl\gl.c **** 		break;
1540:C:/Users/John/Desktop/workspace/miniwinwm/MiniWin/gl\gl.c **** 
1541:C:/Users/John/Desktop/workspace/miniwinwm/MiniWin/gl\gl.c **** #ifdef MW_FONT_12_INCLUDED
1542:C:/Users/John/Desktop/workspace/miniwinwm/MiniWin/gl\gl.c **** 	case MW_GL_FONT_12:
1543:C:/Users/John/Desktop/workspace/miniwinwm/MiniWin/gl\gl.c **** 		return ((int16_t)Font12.Width);
 5391                             		.loc 1 1543 26
 5392 0032 FB 52 00 00 00 00       		mov.L	#_Font12, r5
 5393 0038 98 D5                   		mov.W	4[r5], r5
 5394                             		.loc 1 1543 11
 5395 003a 2E 21                   		bra	.L291
 5396                             	.L284:
1544:C:/Users/John/Desktop/workspace/miniwinwm/MiniWin/gl\gl.c **** 		break;
1545:C:/Users/John/Desktop/workspace/miniwinwm/MiniWin/gl\gl.c **** #endif
1546:C:/Users/John/Desktop/workspace/miniwinwm/MiniWin/gl\gl.c **** 
1547:C:/Users/John/Desktop/workspace/miniwinwm/MiniWin/gl\gl.c **** #ifdef MW_FONT_16_INCLUDED
1548:C:/Users/John/Desktop/workspace/miniwinwm/MiniWin/gl\gl.c **** 	case MW_GL_FONT_16:
1549:C:/Users/John/Desktop/workspace/miniwinwm/MiniWin/gl\gl.c **** 		return ((int16_t)Font16.Width);
 5397                             		.loc 1 1549 26
 5398 003c FB 52 00 00 00 00       		mov.L	#_Font16, r5
 5399 0042 98 D5                   		mov.W	4[r5], r5
 5400                             		.loc 1 1549 11
 5401 0044 2E 17                   		bra	.L291
 5402                             	.L289:
1550:C:/Users/John/Desktop/workspace/miniwinwm/MiniWin/gl\gl.c **** 		break;
1551:C:/Users/John/Desktop/workspace/miniwinwm/MiniWin/gl\gl.c **** #endif
1552:C:/Users/John/Desktop/workspace/miniwinwm/MiniWin/gl\gl.c **** 
1553:C:/Users/John/Desktop/workspace/miniwinwm/MiniWin/gl\gl.c **** #ifdef MW_FONT_20_INCLUDED
1554:C:/Users/John/Desktop/workspace/miniwinwm/MiniWin/gl\gl.c **** 	case MW_GL_FONT_20:
1555:C:/Users/John/Desktop/workspace/miniwinwm/MiniWin/gl\gl.c **** 		return ((int16_t)Font20.Width);
 5403                             		.loc 1 1555 26
 5404 0046 FB 52 00 00 00 00       		mov.L	#_Font20, r5
 5405 004c 98 D5                   		mov.W	4[r5], r5
 5406                             		.loc 1 1555 11
 5407 004e 2E 0D                   		bra	.L291
 5408                             	.L290:
1556:C:/Users/John/Desktop/workspace/miniwinwm/MiniWin/gl\gl.c **** 		break;
1557:C:/Users/John/Desktop/workspace/miniwinwm/MiniWin/gl\gl.c **** #endif
1558:C:/Users/John/Desktop/workspace/miniwinwm/MiniWin/gl\gl.c **** 
1559:C:/Users/John/Desktop/workspace/miniwinwm/MiniWin/gl\gl.c **** #ifdef MW_FONT_24_INCLUDED
1560:C:/Users/John/Desktop/workspace/miniwinwm/MiniWin/gl\gl.c **** 	case MW_GL_FONT_24:
1561:C:/Users/John/Desktop/workspace/miniwinwm/MiniWin/gl\gl.c **** 		return ((int16_t)Font24.Width);
 5409                             		.loc 1 1561 26
 5410 0050 FB 52 00 00 00 00       		mov.L	#_Font24, r5
 5411 0056 98 D5                   		mov.W	4[r5], r5
 5412                             		.loc 1 1561 11
 5413 0058 0B                      		bra	.L291
 5414                             	.L288:
1562:C:/Users/John/Desktop/workspace/miniwinwm/MiniWin/gl\gl.c **** 		break;
1563:C:/Users/John/Desktop/workspace/miniwinwm/MiniWin/gl\gl.c **** #endif
1564:C:/Users/John/Desktop/workspace/miniwinwm/MiniWin/gl\gl.c **** 
1565:C:/Users/John/Desktop/workspace/miniwinwm/MiniWin/gl\gl.c **** 	default:
1566:C:/Users/John/Desktop/workspace/miniwinwm/MiniWin/gl\gl.c **** 		return (0);
 5415                             		.loc 1 1566 10
 5416 0059 66 05                   		mov	#0, r5
 5417                             		.balign 8,3,1
 5418                             	.L291:
 5419 005b DF 55                   		mov.W	r5, r5
1567:C:/Users/John/Desktop/workspace/miniwinwm/MiniWin/gl\gl.c **** 		break;
1568:C:/Users/John/Desktop/workspace/miniwinwm/MiniWin/gl\gl.c **** 	}
1569:C:/Users/John/Desktop/workspace/miniwinwm/MiniWin/gl\gl.c **** 
1570:C:/Users/John/Desktop/workspace/miniwinwm/MiniWin/gl\gl.c **** 	return (0);
1571:C:/Users/John/Desktop/workspace/miniwinwm/MiniWin/gl\gl.c **** }
 5420                             		.loc 1 1571 1
 5421 005d EF 51                   		mov.L	r5, r1
 5422 005f 3F AA 01                		rtsd	#4, r10-r10
 5423                             	.LFE32:
 5425 0062 74 10 01 00 00 00       		.section	.text.mw_gl_get_font_height,"ax",@progbits
 5426                             		.global	_mw_gl_get_font_height
 5428                             	_mw_gl_get_font_height:
 5429                             	.LFB33:
1572:C:/Users/John/Desktop/workspace/miniwinwm/MiniWin/gl\gl.c **** 
1573:C:/Users/John/Desktop/workspace/miniwinwm/MiniWin/gl\gl.c **** int16_t mw_gl_get_font_height(void)
1574:C:/Users/John/Desktop/workspace/miniwinwm/MiniWin/gl\gl.c **** {
 5430                             		.loc 1 1574 1
 5431 0000 7E AA                   		push.l	r10
 5432                             	.LCFI82:
 5433 0002 EF 0A                   		mov.L	r0, r10
 5434                             	.LCFI83:
1575:C:/Users/John/Desktop/workspace/miniwinwm/MiniWin/gl\gl.c **** 	switch (gc.font)
 5435                             		.loc 1 1575 12
 5436 0004 FB 52 00 00 00 00       		mov.L	#_gc, r5
 5437 000a AC 55                   		mov.L	64[r5], r5
 5438                             		.loc 1 1575 2
 5439 000c 61 25                   		cmp	#2, r5
 5440 000e 20 32                   		beq	.L293
 5441 0010 61 25                   		cmp	#2, r5
 5442 0012 24 0C                   		bgtu	.L294
 5443 0014 61 05                   		cmp	#0, r5
 5444 0016 20 16                   		beq	.L295
 5445 0018 61 15                   		cmp	#1, r5
 5446 001a 20 1C                   		beq	.L296
 5447 001c 2E 45                   		bra	.L297
 5448                             	.L294:
 5449 001e 61 45                   		cmp	#4, r5
 5450 0020 20 34                   		beq	.L298
 5451 0022 61 45                   		cmp	#4, r5
 5452 0024 23 26                   		bltu	.L299
 5453 0026 61 55                   		cmp	#5, r5
 5454 0028 20 35                   		beq	.L300
 5455 002a 2E 37                   		bra	.L297
 5456                             	.L295:
1576:C:/Users/John/Desktop/workspace/miniwinwm/MiniWin/gl\gl.c **** 	{
1577:C:/Users/John/Desktop/workspace/miniwinwm/MiniWin/gl\gl.c **** 	case MW_GL_FONT_9:
1578:C:/Users/John/Desktop/workspace/miniwinwm/MiniWin/gl\gl.c **** 		return ((int16_t)Font9.Height);
 5457                             		.loc 1 1578 25
 5458 002c FB 52 00 00 00 00       		mov.L	#_Font9, r5
 5459 0032 98 DD                   		mov.W	6[r5], r5
 5460                             		.loc 1 1578 11
 5461 0034 2E 2F                   		bra	.L301
 5462                             	.L296:
1579:C:/Users/John/Desktop/workspace/miniwinwm/MiniWin/gl\gl.c **** 		break;
1580:C:/Users/John/Desktop/workspace/miniwinwm/MiniWin/gl\gl.c **** 
1581:C:/Users/John/Desktop/workspace/miniwinwm/MiniWin/gl\gl.c **** #ifdef MW_FONT_12_INCLUDED
1582:C:/Users/John/Desktop/workspace/miniwinwm/MiniWin/gl\gl.c **** 	case MW_GL_FONT_12:
1583:C:/Users/John/Desktop/workspace/miniwinwm/MiniWin/gl\gl.c **** 		return ((int16_t)Font12.Height);
 5463                             		.loc 1 1583 26
 5464 0036 FB 52 00 00 00 00       		mov.L	#_Font12, r5
 5465 003c 98 DD                   		mov.W	6[r5], r5
 5466                             		.loc 1 1583 11
 5467 003e 2E 25                   		bra	.L301
 5468                             	.L293:
1584:C:/Users/John/Desktop/workspace/miniwinwm/MiniWin/gl\gl.c **** 		break;
1585:C:/Users/John/Desktop/workspace/miniwinwm/MiniWin/gl\gl.c **** #endif
1586:C:/Users/John/Desktop/workspace/miniwinwm/MiniWin/gl\gl.c **** 
1587:C:/Users/John/Desktop/workspace/miniwinwm/MiniWin/gl\gl.c **** #ifdef MW_FONT_16_INCLUDED
1588:C:/Users/John/Desktop/workspace/miniwinwm/MiniWin/gl\gl.c **** 	case MW_GL_FONT_16:
1589:C:/Users/John/Desktop/workspace/miniwinwm/MiniWin/gl\gl.c **** 		return ((int16_t)Font16.Height);
 5469                             		.loc 1 1589 26
 5470 0040 FB 52 00 00 00 00       		mov.L	#_Font16, r5
 5471 0046 98 DD                   		mov.W	6[r5], r5
 5472                             		.loc 1 1589 11
 5473 0048 2E 1B                   		bra	.L301
 5474                             	.L299:
1590:C:/Users/John/Desktop/workspace/miniwinwm/MiniWin/gl\gl.c **** 		break;
1591:C:/Users/John/Desktop/workspace/miniwinwm/MiniWin/gl\gl.c **** #endif
1592:C:/Users/John/Desktop/workspace/miniwinwm/MiniWin/gl\gl.c **** 
1593:C:/Users/John/Desktop/workspace/miniwinwm/MiniWin/gl\gl.c **** #ifdef MW_FONT_20_INCLUDED
1594:C:/Users/John/Desktop/workspace/miniwinwm/MiniWin/gl\gl.c **** 	case MW_GL_FONT_20:
1595:C:/Users/John/Desktop/workspace/miniwinwm/MiniWin/gl\gl.c **** 		return ((int16_t)Font20.Height);
 5475                             		.loc 1 1595 26
 5476 004a FB 52 00 00 00 00       		mov.L	#_Font20, r5
 5477 0050 98 DD                   		mov.W	6[r5], r5
 5478                             		.loc 1 1595 11
 5479 0052 2E 11                   		bra	.L301
 5480                             	.L298:
1596:C:/Users/John/Desktop/workspace/miniwinwm/MiniWin/gl\gl.c **** 		break;
1597:C:/Users/John/Desktop/workspace/miniwinwm/MiniWin/gl\gl.c **** #endif
1598:C:/Users/John/Desktop/workspace/miniwinwm/MiniWin/gl\gl.c **** 
1599:C:/Users/John/Desktop/workspace/miniwinwm/MiniWin/gl\gl.c **** #ifdef MW_FONT_24_INCLUDED
1600:C:/Users/John/Desktop/workspace/miniwinwm/MiniWin/gl\gl.c **** 	case MW_GL_FONT_24:
1601:C:/Users/John/Desktop/workspace/miniwinwm/MiniWin/gl\gl.c **** 		return ((int16_t)Font24.Height);
 5481                             		.loc 1 1601 26
 5482 0054 FB 52 00 00 00 00       		mov.L	#_Font24, r5
 5483 005a 98 DD                   		mov.W	6[r5], r5
 5484                             		.loc 1 1601 11
 5485 005c 0F                      		bra	.L301
 5486                             	.L300:
1602:C:/Users/John/Desktop/workspace/miniwinwm/MiniWin/gl\gl.c **** 		break;
1603:C:/Users/John/Desktop/workspace/miniwinwm/MiniWin/gl\gl.c **** #endif
1604:C:/Users/John/Desktop/workspace/miniwinwm/MiniWin/gl\gl.c **** 
1605:C:/Users/John/Desktop/workspace/miniwinwm/MiniWin/gl\gl.c **** 	case MW_GL_TITLE_FONT:
1606:C:/Users/John/Desktop/workspace/miniwinwm/MiniWin/gl\gl.c **** 		return (MW_GL_TITLE_FONT_HEIGHT);
 5487                             		.loc 1 1606 10
 5488 005d 75 45 10                		mov	#16, r5
 5489 0060 0B                      		bra	.L301
 5490                             	.L297:
1607:C:/Users/John/Desktop/workspace/miniwinwm/MiniWin/gl\gl.c **** 		break;
1608:C:/Users/John/Desktop/workspace/miniwinwm/MiniWin/gl\gl.c **** 
1609:C:/Users/John/Desktop/workspace/miniwinwm/MiniWin/gl\gl.c **** 	default:
1610:C:/Users/John/Desktop/workspace/miniwinwm/MiniWin/gl\gl.c **** 		return (0);
 5491                             		.loc 1 1610 10
 5492 0061 66 05                   		mov	#0, r5
 5493                             		.balign 8,3,1
 5494                             	.L301:
 5495 0063 DF 55                   		mov.W	r5, r5
1611:C:/Users/John/Desktop/workspace/miniwinwm/MiniWin/gl\gl.c **** 		break;
1612:C:/Users/John/Desktop/workspace/miniwinwm/MiniWin/gl\gl.c **** 	}
1613:C:/Users/John/Desktop/workspace/miniwinwm/MiniWin/gl\gl.c **** 
1614:C:/Users/John/Desktop/workspace/miniwinwm/MiniWin/gl\gl.c **** 	return (0);
1615:C:/Users/John/Desktop/workspace/miniwinwm/MiniWin/gl\gl.c **** }
 5496                             		.loc 1 1615 1
 5497 0065 EF 51                   		mov.L	r5, r1
 5498 0067 3F AA 01                		rtsd	#4, r10-r10
 5499                             	.LFE33:
 5501 006a 74 10 01 00 00 00       		.section	.text.mw_gl_solid_fill_pixel,"ax",@progbits
 5502                             		.global	_mw_gl_solid_fill_pixel
 5504                             	_mw_gl_solid_fill_pixel:
 5505                             	.LFB34:
1616:C:/Users/John/Desktop/workspace/miniwinwm/MiniWin/gl\gl.c **** 
1617:C:/Users/John/Desktop/workspace/miniwinwm/MiniWin/gl\gl.c **** void mw_gl_solid_fill_pixel(const mw_gl_draw_info_t *draw_info, int16_t x, int16_t y)
1618:C:/Users/John/Desktop/workspace/miniwinwm/MiniWin/gl\gl.c **** {
 5506                             		.loc 1 1618 1
 5507 0000 6E 7A                   		pushm	r7-r10
 5508                             	.LCFI84:
 5509 0002 71 0A F4                		add	#-12, r0, r10
 5510                             	.LCFI85:
 5511 0005 EF A0                   		mov.L	r10, r0
 5512 0007 E7 A1 01                		mov.L	r1, 4[r10]
 5513 000a D7 A2 04                		mov.W	r2, 8[r10]
 5514 000d D7 A3 05                		mov.W	r3, 10[r10]
1619:C:/Users/John/Desktop/workspace/miniwinwm/MiniWin/gl\gl.c **** 	uint16_t mask;
1620:C:/Users/John/Desktop/workspace/miniwinwm/MiniWin/gl\gl.c **** 	uint16_t pattern_y;
1621:C:/Users/John/Desktop/workspace/miniwinwm/MiniWin/gl\gl.c **** 
1622:C:/Users/John/Desktop/workspace/miniwinwm/MiniWin/gl\gl.c **** 	if (draw_info == NULL)
 5515                             		.loc 1 1622 5
 5516 0010 ED A5 01                		mov.L	4[r10], r5
 5517 0013 61 05                   		cmp	#0, r5
 5518 0015 21 1A                   		bne	.L303
1623:C:/Users/John/Desktop/workspace/miniwinwm/MiniWin/gl\gl.c **** 	{
1624:C:/Users/John/Desktop/workspace/miniwinwm/MiniWin/gl\gl.c **** 		MW_ASSERT((bool)false, "Null pointer argument");
 5519                             		.loc 1 1624 3
 5520 0017 FB 42 00 00 00 00       		mov.L	#.LC0, r4
 5521 001d FB 3A 58 06             		mov.L	#0x658, r3
 5522 0021 FB 22 00 00 00 00       		mov.L	#___func__.3379, r2
 5523 0027 66 01                   		mov	#0, r1
 5524 0029 05 00 00 00             		bsr	_mw_debug_print_assert
1625:C:/Users/John/Desktop/workspace/miniwinwm/MiniWin/gl\gl.c **** 		return;
 5525                             		.loc 1 1625 3
 5526 002d 2E 7D                   		bra	.L302
 5527                             	.L303:
1626:C:/Users/John/Desktop/workspace/miniwinwm/MiniWin/gl\gl.c **** 	}
1627:C:/Users/John/Desktop/workspace/miniwinwm/MiniWin/gl\gl.c **** 	
1628:C:/Users/John/Desktop/workspace/miniwinwm/MiniWin/gl\gl.c **** 	if (gc.pattern_set)
 5528                             		.loc 1 1628 8
 5529 002f FB 52 00 00 00 00       		mov.L	#_gc, r5
 5530 0035 CD 55 38                		mov.B	56[r5], r5
 5531                             		.loc 1 1628 5
 5532 0038 5B 55                   		movu.B	r5, r5
 5533 003a 61 05                   		cmp	#0, r5
 5534 003c 20 57                   		beq	.L305
1629:C:/Users/John/Desktop/workspace/miniwinwm/MiniWin/gl\gl.c **** 	{
1630:C:/Users/John/Desktop/workspace/miniwinwm/MiniWin/gl\gl.c **** 		/* the next line is MISRA compliant despite the warning because the shift operand cannot be > 15 
1631:C:/Users/John/Desktop/workspace/miniwinwm/MiniWin/gl\gl.c **** 		mask = 0x8000U >> ((uint16_t)x & 0x0FU);
 5535                             		.loc 1 1631 22
 5536 003e DD A5 04                		mov.W	8[r10], r5
 5537                             		.loc 1 1631 34
 5538 0041 5F 55                   		movu.W	r5, r5
 5539 0043 64 F5                   		and	#15, r5
 5540                             		.loc 1 1631 18
 5541 0045 FB 4E 00 80 00          		mov.L	#0x8000, r4
 5542 004a EF 47                   		mov.L	r4, r7
 5543 004c FD 60 57                		shlr	r5, r7
 5544 004f EF 75                   		mov.L	r7, r5
 5545                             		.loc 1 1631 8
 5546 0051 D3 A5                   		mov.W	r5, [r10]
1632:C:/Users/John/Desktop/workspace/miniwinwm/MiniWin/gl\gl.c **** 		pattern_y = (uint16_t)y & 0x0FU;
 5547                             		.loc 1 1632 15
 5548 0053 DD A5 05                		mov.W	10[r10], r5
 5549                             		.loc 1 1632 13
 5550 0056 64 F5                   		and	#15, r5
 5551 0058 D7 A5 01                		mov.W	r5, 2[r10]
1633:C:/Users/John/Desktop/workspace/miniwinwm/MiniWin/gl\gl.c **** 
1634:C:/Users/John/Desktop/workspace/miniwinwm/MiniWin/gl\gl.c **** 		if ((gc.pattern[pattern_y] & mask) == mask)
 5552                             		.loc 1 1634 18
 5553 005b 5D A5 01                		movu.W	2[r10], r5
 5554 005e FB 42 00 00 00 00       		mov.L	#_gc, r4
 5555 0064 62 85                   		add	#8, r5
 5556 0066 FE 55 45                		mov.W	[r5,r4], r5
 5557                             		.loc 1 1634 38
 5558 0069 DC A4                   		mov.W	[r10], r4
 5559 006b 53 45                   		and	r4, r5
 5560                             		.loc 1 1634 6
 5561 006d 5C A4                   		movu.W	[r10], r4
 5562 006f 5F 55                   		movu.W	r5, r5
 5563 0071 47 54                   		cmp	r5, r4
 5564 0073 21 11                   		bne	.L306
1635:C:/Users/John/Desktop/workspace/miniwinwm/MiniWin/gl\gl.c **** 		{
1636:C:/Users/John/Desktop/workspace/miniwinwm/MiniWin/gl\gl.c **** 			mw_gl_fg_pixel(draw_info, x, y);
 5565                             		.loc 1 1636 4
 5566 0075 DD A3 05                		mov.W	10[r10], r3
 5567 0078 DD A2 04                		mov.W	8[r10], r2
 5568 007b ED A1 01                		mov.L	4[r10], r1
 5569 007e 05 00 00 00             		bsr	_mw_gl_fg_pixel
 5570 0082 2E 28                   		bra	.L302
 5571                             	.L306:
1637:C:/Users/John/Desktop/workspace/miniwinwm/MiniWin/gl\gl.c **** 		}
1638:C:/Users/John/Desktop/workspace/miniwinwm/MiniWin/gl\gl.c **** 		else
1639:C:/Users/John/Desktop/workspace/miniwinwm/MiniWin/gl\gl.c **** 		{
1640:C:/Users/John/Desktop/workspace/miniwinwm/MiniWin/gl\gl.c **** 			mw_gl_bg_pixel(draw_info, x, y);
 5572                             		.loc 1 1640 4
 5573 0084 DD A3 05                		mov.W	10[r10], r3
 5574 0087 DD A2 04                		mov.W	8[r10], r2
 5575 008a ED A1 01                		mov.L	4[r10], r1
 5576 008d 05 00 00 00             		bsr	_mw_gl_bg_pixel
 5577 0091 2E 19                   		bra	.L302
 5578                             	.L305:
1641:C:/Users/John/Desktop/workspace/miniwinwm/MiniWin/gl\gl.c **** 		}
1642:C:/Users/John/Desktop/workspace/miniwinwm/MiniWin/gl\gl.c **** 	}
1643:C:/Users/John/Desktop/workspace/miniwinwm/MiniWin/gl\gl.c **** 	else
1644:C:/Users/John/Desktop/workspace/miniwinwm/MiniWin/gl\gl.c **** 	{
1645:C:/Users/John/Desktop/workspace/miniwinwm/MiniWin/gl\gl.c **** 		pixel(draw_info, x, y, gc.solid_fill_colour);
 5579                             		.loc 1 1645 3
 5580 0093 FB 52 00 00 00 00       		mov.L	#_gc, r5
 5581 0099 A8 D5                   		mov.L	8[r5], r5
 5582 009b EF 54                   		mov.L	r5, r4
 5583 009d DD A3 05                		mov.W	10[r10], r3
 5584 00a0 DD A2 04                		mov.W	8[r10], r2
 5585 00a3 ED A1 01                		mov.L	4[r10], r1
 5586 00a6 05 00 00 00             		bsr	_pixel
 5587                             		.balign 8,3,2
 5588                             	.L302:
1646:C:/Users/John/Desktop/workspace/miniwinwm/MiniWin/gl\gl.c **** 	}
1647:C:/Users/John/Desktop/workspace/miniwinwm/MiniWin/gl\gl.c **** }
 5589                             		.loc 1 1647 1
 5590 00aa 3F 7A 07                		rtsd	#28, r7-r10
 5591                             	.LFE34:
 5593 00ad FC 13 00                		.section	.text.mw_gl_fg_pixel,"ax",@progbits
 5594                             		.global	_mw_gl_fg_pixel
 5596                             	_mw_gl_fg_pixel:
 5597                             	.LFB35:
1648:C:/Users/John/Desktop/workspace/miniwinwm/MiniWin/gl\gl.c **** 
1649:C:/Users/John/Desktop/workspace/miniwinwm/MiniWin/gl\gl.c **** void mw_gl_fg_pixel(const mw_gl_draw_info_t *draw_info, int16_t client_x, int16_t client_y)
1650:C:/Users/John/Desktop/workspace/miniwinwm/MiniWin/gl\gl.c **** {
 5598                             		.loc 1 1650 1
 5599 0000 7E AA                   		push.l	r10
 5600                             	.LCFI86:
 5601 0002 71 0A F8                		add	#-8, r0, r10
 5602                             	.LCFI87:
 5603 0005 EF A0                   		mov.L	r10, r0
 5604 0007 E3 A1                   		mov.L	r1, [r10]
 5605 0009 D7 A2 02                		mov.W	r2, 4[r10]
 5606 000c D7 A3 03                		mov.W	r3, 6[r10]
1651:C:/Users/John/Desktop/workspace/miniwinwm/MiniWin/gl\gl.c **** 	if (draw_info == NULL)
 5607                             		.loc 1 1651 5
 5608 000f EC A5                   		mov.L	[r10], r5
 5609 0011 61 05                   		cmp	#0, r5
 5610 0013 21 1A                   		bne	.L309
1652:C:/Users/John/Desktop/workspace/miniwinwm/MiniWin/gl\gl.c **** 	{
1653:C:/Users/John/Desktop/workspace/miniwinwm/MiniWin/gl\gl.c **** 		MW_ASSERT((bool)false, "Null pointer argument");
 5611                             		.loc 1 1653 3
 5612 0015 FB 42 00 00 00 00       		mov.L	#.LC0, r4
 5613 001b FB 3A 75 06             		mov.L	#0x675, r3
 5614 001f FB 22 00 00 00 00       		mov.L	#___func__.3385, r2
 5615 0025 66 01                   		mov	#0, r1
 5616 0027 05 00 00 00             		bsr	_mw_debug_print_assert
1654:C:/Users/John/Desktop/workspace/miniwinwm/MiniWin/gl\gl.c **** 		return;
 5617                             		.loc 1 1654 3
 5618 002b 2E 18                   		bra	.L308
 5619                             	.L309:
1655:C:/Users/John/Desktop/workspace/miniwinwm/MiniWin/gl\gl.c **** 	}
1656:C:/Users/John/Desktop/workspace/miniwinwm/MiniWin/gl\gl.c **** 
1657:C:/Users/John/Desktop/workspace/miniwinwm/MiniWin/gl\gl.c **** 	pixel(draw_info, client_x, client_y, gc.fg_colour);
 5620                             		.loc 1 1657 2
 5621 002d FB 52 00 00 00 00       		mov.L	#_gc, r5
 5622 0033 EC 55                   		mov.L	[r5], r5
 5623 0035 EF 54                   		mov.L	r5, r4
 5624 0037 DD A3 03                		mov.W	6[r10], r3
 5625 003a DD A2 02                		mov.W	4[r10], r2
 5626 003d EC A1                   		mov.L	[r10], r1
 5627 003f 05 00 00 00             		bsr	_pixel
 5628                             	.L308:
1658:C:/Users/John/Desktop/workspace/miniwinwm/MiniWin/gl\gl.c **** }
 5629                             		.loc 1 1658 1
 5630 0043 3F AA 03                		rtsd	#12, r10-r10
 5631                             	.LFE35:
 5633                             		.section	.text.mw_gl_bg_pixel,"ax",@progbits
 5634                             		.global	_mw_gl_bg_pixel
 5636                             	_mw_gl_bg_pixel:
 5637                             	.LFB36:
1659:C:/Users/John/Desktop/workspace/miniwinwm/MiniWin/gl\gl.c **** 
1660:C:/Users/John/Desktop/workspace/miniwinwm/MiniWin/gl\gl.c **** void mw_gl_bg_pixel(const mw_gl_draw_info_t *draw_info, int16_t client_x, int16_t client_y)
1661:C:/Users/John/Desktop/workspace/miniwinwm/MiniWin/gl\gl.c **** {
 5638                             		.loc 1 1661 1
 5639 0000 7E AA                   		push.l	r10
 5640                             	.LCFI88:
 5641 0002 71 0A F8                		add	#-8, r0, r10
 5642                             	.LCFI89:
 5643 0005 EF A0                   		mov.L	r10, r0
 5644 0007 E3 A1                   		mov.L	r1, [r10]
 5645 0009 D7 A2 02                		mov.W	r2, 4[r10]
 5646 000c D7 A3 03                		mov.W	r3, 6[r10]
1662:C:/Users/John/Desktop/workspace/miniwinwm/MiniWin/gl\gl.c **** 	if (draw_info == NULL)
 5647                             		.loc 1 1662 5
 5648 000f EC A5                   		mov.L	[r10], r5
 5649 0011 61 05                   		cmp	#0, r5
 5650 0013 21 1A                   		bne	.L312
1663:C:/Users/John/Desktop/workspace/miniwinwm/MiniWin/gl\gl.c **** 	{
1664:C:/Users/John/Desktop/workspace/miniwinwm/MiniWin/gl\gl.c **** 		MW_ASSERT((bool)false, "Null pointer argument");
 5651                             		.loc 1 1664 3
 5652 0015 FB 42 00 00 00 00       		mov.L	#.LC0, r4
 5653 001b FB 3A 80 06             		mov.L	#0x680, r3
 5654 001f FB 22 00 00 00 00       		mov.L	#___func__.3391, r2
 5655 0025 66 01                   		mov	#0, r1
 5656 0027 05 00 00 00             		bsr	_mw_debug_print_assert
1665:C:/Users/John/Desktop/workspace/miniwinwm/MiniWin/gl\gl.c **** 		return;
 5657                             		.loc 1 1665 3
 5658 002b 2E 24                   		bra	.L311
 5659                             	.L312:
1666:C:/Users/John/Desktop/workspace/miniwinwm/MiniWin/gl\gl.c **** 	}
1667:C:/Users/John/Desktop/workspace/miniwinwm/MiniWin/gl\gl.c **** 
1668:C:/Users/John/Desktop/workspace/miniwinwm/MiniWin/gl\gl.c **** 	if (gc.bg_transparent == MW_GL_BG_NOT_TRANSPARENT)
 5660                             		.loc 1 1668 8
 5661 002d FB 52 00 00 00 00       		mov.L	#_gc, r5
 5662 0033 AB DD                   		mov.L	60[r5], r5
 5663                             		.loc 1 1668 5
 5664 0035 61 15                   		cmp	#1, r5
 5665 0037 21 18                   		bne	.L311
1669:C:/Users/John/Desktop/workspace/miniwinwm/MiniWin/gl\gl.c **** 	{
1670:C:/Users/John/Desktop/workspace/miniwinwm/MiniWin/gl\gl.c **** 		pixel(draw_info, client_x, client_y, gc.bg_colour);
 5666                             		.loc 1 1670 3
 5667 0039 FB 52 00 00 00 00       		mov.L	#_gc, r5
 5668 003f A8 5D                   		mov.L	4[r5], r5
 5669 0041 EF 54                   		mov.L	r5, r4
 5670 0043 DD A3 03                		mov.W	6[r10], r3
 5671 0046 DD A2 02                		mov.W	4[r10], r2
 5672 0049 EC A1                   		mov.L	[r10], r1
 5673 004b 05 00 00 00             		bsr	_pixel
 5674                             	.L311:
1671:C:/Users/John/Desktop/workspace/miniwinwm/MiniWin/gl\gl.c **** 	}
1672:C:/Users/John/Desktop/workspace/miniwinwm/MiniWin/gl\gl.c **** }
 5675                             		.loc 1 1672 1
 5676 004f 3F AA 03                		rtsd	#12, r10-r10
 5677                             	.LFE36:
 5679                             		.section	.text.mw_gl_hline,"ax",@progbits
 5680                             		.global	_mw_gl_hline
 5682                             	_mw_gl_hline:
 5683                             	.LFB37:
1673:C:/Users/John/Desktop/workspace/miniwinwm/MiniWin/gl\gl.c **** 
1674:C:/Users/John/Desktop/workspace/miniwinwm/MiniWin/gl\gl.c **** void mw_gl_hline(const mw_gl_draw_info_t *draw_info, int16_t x_start, int16_t x_end, int16_t y)
1675:C:/Users/John/Desktop/workspace/miniwinwm/MiniWin/gl\gl.c **** {
 5684                             		.loc 1 1675 1
 5685 0000 7E AA                   		push.l	r10
 5686                             	.LCFI90:
 5687 0002 71 0A EC                		add	#-20, r0, r10
 5688                             	.LCFI91:
 5689 0005 71 A0 F8                		add	#-8, r10, r0
 5690                             	.LCFI92:
 5691 0008 E7 A1 02                		mov.L	r1, 8[r10]
 5692 000b D7 A2 06                		mov.W	r2, 12[r10]
 5693 000e D7 A3 07                		mov.W	r3, 14[r10]
 5694 0011 D7 A4 08                		mov.W	r4, 16[r10]
1676:C:/Users/John/Desktop/workspace/miniwinwm/MiniWin/gl\gl.c **** 	int16_t temp;
1677:C:/Users/John/Desktop/workspace/miniwinwm/MiniWin/gl\gl.c **** 	int16_t x;
1678:C:/Users/John/Desktop/workspace/miniwinwm/MiniWin/gl\gl.c **** 	uint16_t mask = 0x8000U;
 5695                             		.loc 1 1678 11
 5696 0014 F9 A9 01 00 80          		mov.W	#-32768, 2[r10]
1679:C:/Users/John/Desktop/workspace/miniwinwm/MiniWin/gl\gl.c **** 
1680:C:/Users/John/Desktop/workspace/miniwinwm/MiniWin/gl\gl.c **** 	if (draw_info == NULL)
 5697                             		.loc 1 1680 5
 5698 0019 ED A5 02                		mov.L	8[r10], r5
 5699 001c 61 05                   		cmp	#0, r5
 5700 001e 21 1B                   		bne	.L315
1681:C:/Users/John/Desktop/workspace/miniwinwm/MiniWin/gl\gl.c **** 	{
1682:C:/Users/John/Desktop/workspace/miniwinwm/MiniWin/gl\gl.c **** 		MW_ASSERT((bool)false, "Null pointer argument");
 5701                             		.loc 1 1682 3
 5702 0020 FB 42 00 00 00 00       		mov.L	#.LC0, r4
 5703 0026 FB 3A 92 06             		mov.L	#0x692, r3
 5704 002a FB 22 00 00 00 00       		mov.L	#___func__.3401, r2
 5705 0030 66 01                   		mov	#0, r1
 5706 0032 05 00 00 00             		bsr	_mw_debug_print_assert
1683:C:/Users/John/Desktop/workspace/miniwinwm/MiniWin/gl\gl.c **** 		return;
 5707                             		.loc 1 1683 3
 5708 0036 38 2A 01                		bra	.L314
 5709                             	.L315:
1684:C:/Users/John/Desktop/workspace/miniwinwm/MiniWin/gl\gl.c **** 	}
1685:C:/Users/John/Desktop/workspace/miniwinwm/MiniWin/gl\gl.c **** 
1686:C:/Users/John/Desktop/workspace/miniwinwm/MiniWin/gl\gl.c **** 	if (x_start > x_end)
 5710                             		.loc 1 1686 5
 5711 0039 DD A4 06                		mov.W	12[r10], r4
 5712 003c DD A5 07                		mov.W	14[r10], r5
 5713 003f 47 54                   		cmp	r5, r4
 5714 0041 2B 14                   		ble	.L317
1687:C:/Users/John/Desktop/workspace/miniwinwm/MiniWin/gl\gl.c **** 	{
1688:C:/Users/John/Desktop/workspace/miniwinwm/MiniWin/gl\gl.c **** 		temp = x_end;
 5715                             		.loc 1 1688 8
 5716 0043 DD A5 07                		mov.W	14[r10], r5
 5717 0046 D7 A5 02                		mov.W	r5, 4[r10]
1689:C:/Users/John/Desktop/workspace/miniwinwm/MiniWin/gl\gl.c **** 		x_end = x_start;
 5718                             		.loc 1 1689 9
 5719 0049 DD A5 06                		mov.W	12[r10], r5
 5720 004c D7 A5 07                		mov.W	r5, 14[r10]
1690:C:/Users/John/Desktop/workspace/miniwinwm/MiniWin/gl\gl.c **** 		x_start = temp;
 5721                             		.loc 1 1690 11
 5722 004f DD A5 02                		mov.W	4[r10], r5
 5723 0052 D7 A5 06                		mov.W	r5, 12[r10]
 5724                             	.L317:
1691:C:/Users/John/Desktop/workspace/miniwinwm/MiniWin/gl\gl.c **** 	}
1692:C:/Users/John/Desktop/workspace/miniwinwm/MiniWin/gl\gl.c **** 
1693:C:/Users/John/Desktop/workspace/miniwinwm/MiniWin/gl\gl.c **** 	if (x_start >= draw_info->clip_rect.x + draw_info->clip_rect.width ||
 5725                             		.loc 1 1693 14
 5726 0055 DD A4 06                		mov.W	12[r10], r4
 5727                             		.loc 1 1693 37
 5728 0058 ED A5 02                		mov.L	8[r10], r5
 5729 005b 98 D5                   		mov.W	4[r5], r5
 5730 005d DF 53                   		mov.W	r5, r3
 5731                             		.loc 1 1693 62
 5732 005f ED A5 02                		mov.L	8[r10], r5
 5733 0062 99 55                   		mov.W	8[r5], r5
 5734 0064 DF 55                   		mov.W	r5, r5
 5735                             		.loc 1 1693 40
 5736 0066 4B 35                   		add	r3, r5
 5737                             		.loc 1 1693 5
 5738 0068 47 54                   		cmp	r5, r4
 5739 006a 29 05 38 F1 00          		bge	.L326
1694:C:/Users/John/Desktop/workspace/miniwinwm/MiniWin/gl\gl.c **** 			x_end < draw_info->clip_rect.x ||
 5740                             		.loc 1 1694 32 discriminator 1
 5741 006f ED A5 02                		mov.L	8[r10], r5
 5742 0072 98 D5                   		mov.W	4[r5], r5
1693:C:/Users/John/Desktop/workspace/miniwinwm/MiniWin/gl\gl.c **** 			x_end < draw_info->clip_rect.x ||
 5743                             		.loc 1 1693 69 discriminator 1
 5744 0074 DD A4 07                		mov.W	14[r10], r4
 5745 0077 DF 55                   		mov.W	r5, r5
 5746 0079 47 54                   		cmp	r5, r4
 5747 007b 28 05 38 E0 00          		blt	.L326
1695:C:/Users/John/Desktop/workspace/miniwinwm/MiniWin/gl\gl.c **** 			y < draw_info->clip_rect.y || y >= draw_info->clip_rect.y + draw_info->clip_rect.height)
 5748                             		.loc 1 1695 28
 5749 0080 ED A5 02                		mov.L	8[r10], r5
 5750 0083 98 DD                   		mov.W	6[r5], r5
1694:C:/Users/John/Desktop/workspace/miniwinwm/MiniWin/gl\gl.c **** 			x_end < draw_info->clip_rect.x ||
 5751                             		.loc 1 1694 35
 5752 0085 DD A4 08                		mov.W	16[r10], r4
 5753 0088 DF 55                   		mov.W	r5, r5
 5754 008a 47 54                   		cmp	r5, r4
 5755 008c 28 05 38 CF 00          		blt	.L326
 5756                             		.loc 1 1695 36
 5757 0091 DD A4 08                		mov.W	16[r10], r4
 5758                             		.loc 1 1695 59
 5759 0094 ED A5 02                		mov.L	8[r10], r5
 5760 0097 98 DD                   		mov.W	6[r5], r5
 5761 0099 DF 53                   		mov.W	r5, r3
 5762                             		.loc 1 1695 84
 5763 009b ED A5 02                		mov.L	8[r10], r5
 5764 009e 99 5D                   		mov.W	10[r5], r5
 5765 00a0 DF 55                   		mov.W	r5, r5
 5766                             		.loc 1 1695 62
 5767 00a2 4B 35                   		add	r3, r5
 5768                             		.loc 1 1695 31
 5769 00a4 47 54                   		cmp	r5, r4
 5770 00a6 29 05 38 B5 00          		bge	.L326
1696:C:/Users/John/Desktop/workspace/miniwinwm/MiniWin/gl\gl.c **** 	{
1697:C:/Users/John/Desktop/workspace/miniwinwm/MiniWin/gl\gl.c **** 		return;
1698:C:/Users/John/Desktop/workspace/miniwinwm/MiniWin/gl\gl.c **** 	}
1699:C:/Users/John/Desktop/workspace/miniwinwm/MiniWin/gl\gl.c **** 
1700:C:/Users/John/Desktop/workspace/miniwinwm/MiniWin/gl\gl.c **** 	if (gc.line == MW_GL_SOLID_LINE)
 5771                             		.loc 1 1700 8
 5772 00ab FB 52 00 00 00 00       		mov.L	#_gc, r5
 5773 00b1 A8 DD                   		mov.L	12[r5], r5
 5774                             		.loc 1 1700 5
 5775 00b3 77 05 FF FF 00          		cmp	#0xffff, r5
 5776 00b8 21 2B                   		bne	.L320
1701:C:/Users/John/Desktop/workspace/miniwinwm/MiniWin/gl\gl.c **** 	{
1702:C:/Users/John/Desktop/workspace/miniwinwm/MiniWin/gl\gl.c **** 		filled_rectangle(draw_info, x_start, y, (x_end - x_start) + 1, 1, gc.fg_colour);
 5777                             		.loc 1 1702 50
 5778 00ba DD A4 07                		mov.W	14[r10], r4
 5779 00bd DD A5 06                		mov.W	12[r10], r5
 5780 00c0 FF 05 54                		sub	r5, r4, r5
 5781                             		.loc 1 1702 61
 5782 00c3 62 15                   		add	#1, r5
 5783                             		.loc 1 1702 3
 5784 00c5 DF 54                   		mov.W	r5, r4
 5785 00c7 FB 52 00 00 00 00       		mov.L	#_gc, r5
 5786 00cd EC 55                   		mov.L	[r5], r5
 5787 00cf A0 0D                   		mov.L	r5, 4[r0]
 5788 00d1 F8 05 01                		mov.W	#1, [r0]
 5789 00d4 DD A3 08                		mov.W	16[r10], r3
 5790 00d7 DD A2 06                		mov.W	12[r10], r2
 5791 00da ED A1 02                		mov.L	8[r10], r1
 5792 00dd 05 00 00 00             		bsr	_filled_rectangle
 5793 00e1 2E 7F                   		bra	.L314
 5794                             	.L320:
1703:C:/Users/John/Desktop/workspace/miniwinwm/MiniWin/gl\gl.c **** 	}
1704:C:/Users/John/Desktop/workspace/miniwinwm/MiniWin/gl\gl.c **** 	else
1705:C:/Users/John/Desktop/workspace/miniwinwm/MiniWin/gl\gl.c **** 	{
1706:C:/Users/John/Desktop/workspace/miniwinwm/MiniWin/gl\gl.c **** 		for (x = x_start; x <= x_end; x++)
 5795                             		.loc 1 1706 10
 5796 00e3 DD A5 06                		mov.W	12[r10], r5
 5797 00e6 D3 A5                   		mov.W	r5, [r10]
 5798                             		.loc 1 1706 3
 5799 00e8 2E 6B                   		bra	.L321
 5800                             	.L325:
1707:C:/Users/John/Desktop/workspace/miniwinwm/MiniWin/gl\gl.c **** 		{
1708:C:/Users/John/Desktop/workspace/miniwinwm/MiniWin/gl\gl.c **** 			if (((uint16_t)gc.line & mask) == mask)
 5801                             		.loc 1 1708 21
 5802 00ea FB 52 00 00 00 00       		mov.L	#_gc, r5
 5803 00f0 A8 DD                   		mov.L	12[r5], r5
 5804                             		.loc 1 1708 35
 5805 00f2 DD A4 01                		mov.W	2[r10], r4
 5806 00f5 53 45                   		and	r4, r5
 5807                             		.loc 1 1708 7
 5808 00f7 5D A4 01                		movu.W	2[r10], r4
 5809 00fa 5F 55                   		movu.W	r5, r5
 5810 00fc 47 54                   		cmp	r5, r4
 5811 00fe 21 1A                   		bne	.L322
1709:C:/Users/John/Desktop/workspace/miniwinwm/MiniWin/gl\gl.c **** 			{
1710:C:/Users/John/Desktop/workspace/miniwinwm/MiniWin/gl\gl.c **** 				pixel(draw_info, x, y, gc.fg_colour);
 5812                             		.loc 1 1710 5
 5813 0100 FB 52 00 00 00 00       		mov.L	#_gc, r5
 5814 0106 EC 55                   		mov.L	[r5], r5
 5815 0108 EF 54                   		mov.L	r5, r4
 5816 010a DD A3 08                		mov.W	16[r10], r3
 5817 010d DC A2                   		mov.W	[r10], r2
 5818 010f ED A1 02                		mov.L	8[r10], r1
 5819 0112 05 00 00 00             		bsr	_pixel
 5820 0116 2E 24                   		bra	.L323
 5821                             	.L322:
1711:C:/Users/John/Desktop/workspace/miniwinwm/MiniWin/gl\gl.c **** 			}
1712:C:/Users/John/Desktop/workspace/miniwinwm/MiniWin/gl\gl.c **** 			else
1713:C:/Users/John/Desktop/workspace/miniwinwm/MiniWin/gl\gl.c **** 			{
1714:C:/Users/John/Desktop/workspace/miniwinwm/MiniWin/gl\gl.c **** 				if (gc.bg_transparent == MW_GL_BG_NOT_TRANSPARENT)
 5822                             		.loc 1 1714 11
 5823 0118 FB 52 00 00 00 00       		mov.L	#_gc, r5
 5824 011e AB DD                   		mov.L	60[r5], r5
 5825                             		.loc 1 1714 8
 5826 0120 61 15                   		cmp	#1, r5
 5827 0122 21 18                   		bne	.L323
1715:C:/Users/John/Desktop/workspace/miniwinwm/MiniWin/gl\gl.c **** 				{
1716:C:/Users/John/Desktop/workspace/miniwinwm/MiniWin/gl\gl.c **** 					pixel(draw_info, x, y, gc.bg_colour);
 5828                             		.loc 1 1716 6
 5829 0124 FB 52 00 00 00 00       		mov.L	#_gc, r5
 5830 012a A8 5D                   		mov.L	4[r5], r5
 5831 012c EF 54                   		mov.L	r5, r4
 5832 012e DD A3 08                		mov.W	16[r10], r3
 5833 0131 DC A2                   		mov.W	[r10], r2
 5834 0133 ED A1 02                		mov.L	8[r10], r1
 5835 0136 05 00 00 00             		bsr	_pixel
 5836                             	.L323:
1717:C:/Users/John/Desktop/workspace/miniwinwm/MiniWin/gl\gl.c **** 				}
1718:C:/Users/John/Desktop/workspace/miniwinwm/MiniWin/gl\gl.c **** 			}
1719:C:/Users/John/Desktop/workspace/miniwinwm/MiniWin/gl\gl.c **** 			mask >>= 1U;
 5837                             		.loc 1 1719 9
 5838 013a 5D A5 01                		movu.W	2[r10], r5
 5839 013d 68 15                   		shlr	#1, r5
 5840 013f D7 A5 01                		mov.W	r5, 2[r10]
1720:C:/Users/John/Desktop/workspace/miniwinwm/MiniWin/gl\gl.c **** 			if (mask == 0U)
 5841                             		.loc 1 1720 7
 5842 0142 5D A5 01                		movu.W	2[r10], r5
 5843 0145 61 05                   		cmp	#0, r5
 5844 0147 1E                      		bne	.L324
1721:C:/Users/John/Desktop/workspace/miniwinwm/MiniWin/gl\gl.c **** 			{
1722:C:/Users/John/Desktop/workspace/miniwinwm/MiniWin/gl\gl.c **** 				mask = 0x8000U;
 5845                             		.loc 1 1722 10
 5846 0148 F9 A9 01 00 80          		mov.W	#-32768, 2[r10]
 5847                             	.L324:
1706:C:/Users/John/Desktop/workspace/miniwinwm/MiniWin/gl\gl.c **** 		{
 5848                             		.loc 1 1706 34 discriminator 2
 5849 014d DC A5                   		mov.W	[r10], r5
 5850 014f 62 15                   		add	#1, r5
 5851 0151 D3 A5                   		mov.W	r5, [r10]
 5852                             	.L321:
1706:C:/Users/John/Desktop/workspace/miniwinwm/MiniWin/gl\gl.c **** 		{
 5853                             		.loc 1 1706 3 discriminator 1
 5854 0153 DC A4                   		mov.W	[r10], r4
 5855 0155 DD A5 07                		mov.W	14[r10], r5
 5856 0158 47 54                   		cmp	r5, r4
 5857 015a 2B 90                   		ble	.L325
 5858 015c 0C                      		bra	.L314
 5859                             	.L326:
1697:C:/Users/John/Desktop/workspace/miniwinwm/MiniWin/gl\gl.c **** 	}
 5860                             		.loc 1 1697 3
 5861 015d 03                      		nop
 5862 015e EF 00                   		.balign 8,3,2
 5863                             	.L314:
1723:C:/Users/John/Desktop/workspace/miniwinwm/MiniWin/gl\gl.c **** 			}
1724:C:/Users/John/Desktop/workspace/miniwinwm/MiniWin/gl\gl.c **** 		}
1725:C:/Users/John/Desktop/workspace/miniwinwm/MiniWin/gl\gl.c **** 	}
1726:C:/Users/John/Desktop/workspace/miniwinwm/MiniWin/gl\gl.c **** }
 5864                             		.loc 1 1726 1
 5865 0160 3F AA 08                		rtsd	#32, r10-r10
 5866                             	.LFE37:
 5868 0163 77 10 01 00 00          		.section	.text.mw_gl_vline,"ax",@progbits
 5869                             		.global	_mw_gl_vline
 5871                             	_mw_gl_vline:
 5872                             	.LFB38:
1727:C:/Users/John/Desktop/workspace/miniwinwm/MiniWin/gl\gl.c **** 
1728:C:/Users/John/Desktop/workspace/miniwinwm/MiniWin/gl\gl.c **** void mw_gl_vline(const mw_gl_draw_info_t *draw_info, int16_t x, int16_t y_start, int16_t y_end)
1729:C:/Users/John/Desktop/workspace/miniwinwm/MiniWin/gl\gl.c **** {
 5873                             		.loc 1 1729 1
 5874 0000 7E AA                   		push.l	r10
 5875                             	.LCFI93:
 5876 0002 71 0A EC                		add	#-20, r0, r10
 5877                             	.LCFI94:
 5878 0005 71 A0 F8                		add	#-8, r10, r0
 5879                             	.LCFI95:
 5880 0008 E7 A1 02                		mov.L	r1, 8[r10]
 5881 000b D7 A2 06                		mov.W	r2, 12[r10]
 5882 000e D7 A3 07                		mov.W	r3, 14[r10]
 5883 0011 D7 A4 08                		mov.W	r4, 16[r10]
1730:C:/Users/John/Desktop/workspace/miniwinwm/MiniWin/gl\gl.c **** 	int16_t temp;
1731:C:/Users/John/Desktop/workspace/miniwinwm/MiniWin/gl\gl.c **** 	int16_t y;
1732:C:/Users/John/Desktop/workspace/miniwinwm/MiniWin/gl\gl.c **** 	uint16_t mask = 0x8000U;
 5884                             		.loc 1 1732 11
 5885 0014 F9 A9 01 00 80          		mov.W	#-32768, 2[r10]
1733:C:/Users/John/Desktop/workspace/miniwinwm/MiniWin/gl\gl.c **** 
1734:C:/Users/John/Desktop/workspace/miniwinwm/MiniWin/gl\gl.c **** 	if (draw_info == NULL)
 5886                             		.loc 1 1734 5
 5887 0019 ED A5 02                		mov.L	8[r10], r5
 5888 001c 61 05                   		cmp	#0, r5
 5889 001e 21 1B                   		bne	.L328
1735:C:/Users/John/Desktop/workspace/miniwinwm/MiniWin/gl\gl.c **** 	{
1736:C:/Users/John/Desktop/workspace/miniwinwm/MiniWin/gl\gl.c **** 		MW_ASSERT((bool)false, "Null pointer argument");
 5890                             		.loc 1 1736 3
 5891 0020 FB 42 00 00 00 00       		mov.L	#.LC0, r4
 5892 0026 FB 3A C8 06             		mov.L	#0x6c8, r3
 5893 002a FB 22 00 00 00 00       		mov.L	#___func__.3414, r2
 5894 0030 66 01                   		mov	#0, r1
 5895 0032 05 00 00 00             		bsr	_mw_debug_print_assert
1737:C:/Users/John/Desktop/workspace/miniwinwm/MiniWin/gl\gl.c **** 		return;
 5896                             		.loc 1 1737 3
 5897 0036 38 2A 01                		bra	.L327
 5898                             	.L328:
1738:C:/Users/John/Desktop/workspace/miniwinwm/MiniWin/gl\gl.c **** 	}
1739:C:/Users/John/Desktop/workspace/miniwinwm/MiniWin/gl\gl.c **** 
1740:C:/Users/John/Desktop/workspace/miniwinwm/MiniWin/gl\gl.c **** 	if (y_start > y_end)
 5899                             		.loc 1 1740 5
 5900 0039 DD A4 07                		mov.W	14[r10], r4
 5901 003c DD A5 08                		mov.W	16[r10], r5
 5902 003f 47 54                   		cmp	r5, r4
 5903 0041 2B 14                   		ble	.L330
1741:C:/Users/John/Desktop/workspace/miniwinwm/MiniWin/gl\gl.c **** 	{
1742:C:/Users/John/Desktop/workspace/miniwinwm/MiniWin/gl\gl.c **** 		temp = y_end;
 5904                             		.loc 1 1742 8
 5905 0043 DD A5 08                		mov.W	16[r10], r5
 5906 0046 D7 A5 02                		mov.W	r5, 4[r10]
1743:C:/Users/John/Desktop/workspace/miniwinwm/MiniWin/gl\gl.c **** 		y_end = y_start;
 5907                             		.loc 1 1743 9
 5908 0049 DD A5 07                		mov.W	14[r10], r5
 5909 004c D7 A5 08                		mov.W	r5, 16[r10]
1744:C:/Users/John/Desktop/workspace/miniwinwm/MiniWin/gl\gl.c **** 		y_start = temp;
 5910                             		.loc 1 1744 11
 5911 004f DD A5 02                		mov.W	4[r10], r5
 5912 0052 D7 A5 07                		mov.W	r5, 14[r10]
 5913                             	.L330:
1745:C:/Users/John/Desktop/workspace/miniwinwm/MiniWin/gl\gl.c **** 	}
1746:C:/Users/John/Desktop/workspace/miniwinwm/MiniWin/gl\gl.c **** 
1747:C:/Users/John/Desktop/workspace/miniwinwm/MiniWin/gl\gl.c **** 	if (x < draw_info->clip_rect.x || x >= draw_info->clip_rect.x + draw_info->clip_rect.width ||
 5914                             		.loc 1 1747 30
 5915 0055 ED A5 02                		mov.L	8[r10], r5
 5916 0058 98 D5                   		mov.W	4[r5], r5
 5917                             		.loc 1 1747 5
 5918 005a DD A4 06                		mov.W	12[r10], r4
 5919 005d DF 55                   		mov.W	r5, r5
 5920 005f 47 54                   		cmp	r5, r4
 5921 0061 28 05 38 FC 00          		blt	.L339
 5922                             		.loc 1 1747 38 discriminator 1
 5923 0066 DD A4 06                		mov.W	12[r10], r4
 5924                             		.loc 1 1747 61 discriminator 1
 5925 0069 ED A5 02                		mov.L	8[r10], r5
 5926 006c 98 D5                   		mov.W	4[r5], r5
 5927 006e DF 53                   		mov.W	r5, r3
 5928                             		.loc 1 1747 86 discriminator 1
 5929 0070 ED A5 02                		mov.L	8[r10], r5
 5930 0073 99 55                   		mov.W	8[r5], r5
 5931 0075 DF 55                   		mov.W	r5, r5
 5932                             		.loc 1 1747 64 discriminator 1
 5933 0077 4B 35                   		add	r3, r5
 5934                             		.loc 1 1747 33 discriminator 1
 5935 0079 47 54                   		cmp	r5, r4
 5936 007b 29 05 38 E2 00          		bge	.L339
1748:C:/Users/John/Desktop/workspace/miniwinwm/MiniWin/gl\gl.c **** 			y_start >= draw_info->clip_rect.y + draw_info->clip_rect.height ||
 5937                             		.loc 1 1748 12 discriminator 2
 5938 0080 DD A4 07                		mov.W	14[r10], r4
 5939                             		.loc 1 1748 35 discriminator 2
 5940 0083 ED A5 02                		mov.L	8[r10], r5
 5941 0086 98 DD                   		mov.W	6[r5], r5
 5942 0088 DF 53                   		mov.W	r5, r3
 5943                             		.loc 1 1748 60 discriminator 2
 5944 008a ED A5 02                		mov.L	8[r10], r5
 5945 008d 99 5D                   		mov.W	10[r5], r5
 5946 008f DF 55                   		mov.W	r5, r5
 5947                             		.loc 1 1748 38 discriminator 2
 5948 0091 4B 35                   		add	r3, r5
1747:C:/Users/John/Desktop/workspace/miniwinwm/MiniWin/gl\gl.c **** 			y_start >= draw_info->clip_rect.y + draw_info->clip_rect.height ||
 5949                             		.loc 1 1747 93 discriminator 2
 5950 0093 47 54                   		cmp	r5, r4
 5951 0095 29 05 38 C8 00          		bge	.L339
1749:C:/Users/John/Desktop/workspace/miniwinwm/MiniWin/gl\gl.c **** 			y_end < draw_info->clip_rect.y)
 5952                             		.loc 1 1749 32
 5953 009a ED A5 02                		mov.L	8[r10], r5
 5954 009d 98 DD                   		mov.W	6[r5], r5
1748:C:/Users/John/Desktop/workspace/miniwinwm/MiniWin/gl\gl.c **** 			y_start >= draw_info->clip_rect.y + draw_info->clip_rect.height ||
 5955                             		.loc 1 1748 68
 5956 009f DD A4 08                		mov.W	16[r10], r4
 5957 00a2 DF 55                   		mov.W	r5, r5
 5958 00a4 47 54                   		cmp	r5, r4
 5959 00a6 28 05 38 B7 00          		blt	.L339
1750:C:/Users/John/Desktop/workspace/miniwinwm/MiniWin/gl\gl.c **** 	{
1751:C:/Users/John/Desktop/workspace/miniwinwm/MiniWin/gl\gl.c **** 		return;
1752:C:/Users/John/Desktop/workspace/miniwinwm/MiniWin/gl\gl.c **** 	}
1753:C:/Users/John/Desktop/workspace/miniwinwm/MiniWin/gl\gl.c **** 
1754:C:/Users/John/Desktop/workspace/miniwinwm/MiniWin/gl\gl.c **** 	if (gc.line == MW_GL_SOLID_LINE)
 5960                             		.loc 1 1754 8
 5961 00ab FB 52 00 00 00 00       		mov.L	#_gc, r5
 5962 00b1 A8 DD                   		mov.L	12[r5], r5
 5963                             		.loc 1 1754 5
 5964 00b3 77 05 FF FF 00          		cmp	#0xffff, r5
 5965 00b8 21 2C                   		bne	.L333
1755:C:/Users/John/Desktop/workspace/miniwinwm/MiniWin/gl\gl.c **** 	{
1756:C:/Users/John/Desktop/workspace/miniwinwm/MiniWin/gl\gl.c **** 		filled_rectangle(draw_info, x, y_start, 1, (y_end - y_start) + 1, gc.fg_colour);
 5966                             		.loc 1 1756 53
 5967 00ba DD A4 08                		mov.W	16[r10], r4
 5968 00bd DD A5 07                		mov.W	14[r10], r5
 5969 00c0 FF 05 54                		sub	r5, r4, r5
 5970                             		.loc 1 1756 64
 5971 00c3 62 15                   		add	#1, r5
 5972                             		.loc 1 1756 3
 5973 00c5 DF 54                   		mov.W	r5, r4
 5974 00c7 FB 52 00 00 00 00       		mov.L	#_gc, r5
 5975 00cd EC 55                   		mov.L	[r5], r5
 5976 00cf A0 0D                   		mov.L	r5, 4[r0]
 5977 00d1 D3 04                   		mov.W	r4, [r0]
 5978 00d3 66 14                   		mov	#1, r4
 5979 00d5 DD A3 07                		mov.W	14[r10], r3
 5980 00d8 DD A2 06                		mov.W	12[r10], r2
 5981 00db ED A1 02                		mov.L	8[r10], r1
 5982 00de 05 00 00 00             		bsr	_filled_rectangle
 5983 00e2 2E 7E                   		bra	.L327
 5984                             	.L333:
1757:C:/Users/John/Desktop/workspace/miniwinwm/MiniWin/gl\gl.c **** 	}
1758:C:/Users/John/Desktop/workspace/miniwinwm/MiniWin/gl\gl.c **** 	else
1759:C:/Users/John/Desktop/workspace/miniwinwm/MiniWin/gl\gl.c **** 	{
1760:C:/Users/John/Desktop/workspace/miniwinwm/MiniWin/gl\gl.c **** 		for (y = y_start; y <= y_end; y++)
 5985                             		.loc 1 1760 10
 5986 00e4 DD A5 07                		mov.W	14[r10], r5
 5987 00e7 D3 A5                   		mov.W	r5, [r10]
 5988                             		.loc 1 1760 3
 5989 00e9 2E 6B                   		bra	.L334
 5990                             	.L338:
1761:C:/Users/John/Desktop/workspace/miniwinwm/MiniWin/gl\gl.c **** 		{
1762:C:/Users/John/Desktop/workspace/miniwinwm/MiniWin/gl\gl.c **** 			if (((uint16_t)gc.line & mask) == mask)
 5991                             		.loc 1 1762 21
 5992 00eb FB 52 00 00 00 00       		mov.L	#_gc, r5
 5993 00f1 A8 DD                   		mov.L	12[r5], r5
 5994                             		.loc 1 1762 35
 5995 00f3 DD A4 01                		mov.W	2[r10], r4
 5996 00f6 53 45                   		and	r4, r5
 5997                             		.loc 1 1762 7
 5998 00f8 5D A4 01                		movu.W	2[r10], r4
 5999 00fb 5F 55                   		movu.W	r5, r5
 6000 00fd 47 54                   		cmp	r5, r4
 6001 00ff 21 1A                   		bne	.L335
1763:C:/Users/John/Desktop/workspace/miniwinwm/MiniWin/gl\gl.c **** 			{
1764:C:/Users/John/Desktop/workspace/miniwinwm/MiniWin/gl\gl.c **** 				pixel(draw_info, x, y, gc.fg_colour);
 6002                             		.loc 1 1764 5
 6003 0101 FB 52 00 00 00 00       		mov.L	#_gc, r5
 6004 0107 EC 55                   		mov.L	[r5], r5
 6005 0109 EF 54                   		mov.L	r5, r4
 6006 010b DC A3                   		mov.W	[r10], r3
 6007 010d DD A2 06                		mov.W	12[r10], r2
 6008 0110 ED A1 02                		mov.L	8[r10], r1
 6009 0113 05 00 00 00             		bsr	_pixel
 6010 0117 2E 24                   		bra	.L336
 6011                             	.L335:
1765:C:/Users/John/Desktop/workspace/miniwinwm/MiniWin/gl\gl.c **** 			}
1766:C:/Users/John/Desktop/workspace/miniwinwm/MiniWin/gl\gl.c **** 			else
1767:C:/Users/John/Desktop/workspace/miniwinwm/MiniWin/gl\gl.c **** 			{
1768:C:/Users/John/Desktop/workspace/miniwinwm/MiniWin/gl\gl.c **** 				if (gc.bg_transparent == MW_GL_BG_NOT_TRANSPARENT)
 6012                             		.loc 1 1768 11
 6013 0119 FB 52 00 00 00 00       		mov.L	#_gc, r5
 6014 011f AB DD                   		mov.L	60[r5], r5
 6015                             		.loc 1 1768 8
 6016 0121 61 15                   		cmp	#1, r5
 6017 0123 21 18                   		bne	.L336
1769:C:/Users/John/Desktop/workspace/miniwinwm/MiniWin/gl\gl.c **** 				{
1770:C:/Users/John/Desktop/workspace/miniwinwm/MiniWin/gl\gl.c **** 					pixel(draw_info, x, y, gc.bg_colour);
 6018                             		.loc 1 1770 6
 6019 0125 FB 52 00 00 00 00       		mov.L	#_gc, r5
 6020 012b A8 5D                   		mov.L	4[r5], r5
 6021 012d EF 54                   		mov.L	r5, r4
 6022 012f DC A3                   		mov.W	[r10], r3
 6023 0131 DD A2 06                		mov.W	12[r10], r2
 6024 0134 ED A1 02                		mov.L	8[r10], r1
 6025 0137 05 00 00 00             		bsr	_pixel
 6026                             	.L336:
1771:C:/Users/John/Desktop/workspace/miniwinwm/MiniWin/gl\gl.c **** 				}
1772:C:/Users/John/Desktop/workspace/miniwinwm/MiniWin/gl\gl.c **** 			}
1773:C:/Users/John/Desktop/workspace/miniwinwm/MiniWin/gl\gl.c **** 			mask >>= 1U;
 6027                             		.loc 1 1773 9
 6028 013b 5D A5 01                		movu.W	2[r10], r5
 6029 013e 68 15                   		shlr	#1, r5
 6030 0140 D7 A5 01                		mov.W	r5, 2[r10]
1774:C:/Users/John/Desktop/workspace/miniwinwm/MiniWin/gl\gl.c **** 			if (mask == 0U)
 6031                             		.loc 1 1774 7
 6032 0143 5D A5 01                		movu.W	2[r10], r5
 6033 0146 61 05                   		cmp	#0, r5
 6034 0148 1E                      		bne	.L337
1775:C:/Users/John/Desktop/workspace/miniwinwm/MiniWin/gl\gl.c **** 			{
1776:C:/Users/John/Desktop/workspace/miniwinwm/MiniWin/gl\gl.c **** 				mask = 0x8000U;
 6035                             		.loc 1 1776 10
 6036 0149 F9 A9 01 00 80          		mov.W	#-32768, 2[r10]
 6037                             	.L337:
1760:C:/Users/John/Desktop/workspace/miniwinwm/MiniWin/gl\gl.c **** 		{
 6038                             		.loc 1 1760 34 discriminator 2
 6039 014e DC A5                   		mov.W	[r10], r5
 6040 0150 62 15                   		add	#1, r5
 6041 0152 D3 A5                   		mov.W	r5, [r10]
 6042                             	.L334:
1760:C:/Users/John/Desktop/workspace/miniwinwm/MiniWin/gl\gl.c **** 		{
 6043                             		.loc 1 1760 3 discriminator 1
 6044 0154 DC A4                   		mov.W	[r10], r4
 6045 0156 DD A5 08                		mov.W	16[r10], r5
 6046 0159 47 54                   		cmp	r5, r4
 6047 015b 2B 90                   		ble	.L338
 6048 015d 2E 03                   		bra	.L327
 6049                             	.L339:
1751:C:/Users/John/Desktop/workspace/miniwinwm/MiniWin/gl\gl.c **** 	}
 6050                             		.loc 1 1751 3
 6051 015f 03                      		nop
 6052                             		.balign 8,3,2
 6053                             	.L327:
1777:C:/Users/John/Desktop/workspace/miniwinwm/MiniWin/gl\gl.c **** 			}
1778:C:/Users/John/Desktop/workspace/miniwinwm/MiniWin/gl\gl.c **** 		}
1779:C:/Users/John/Desktop/workspace/miniwinwm/MiniWin/gl\gl.c **** 	}
1780:C:/Users/John/Desktop/workspace/miniwinwm/MiniWin/gl\gl.c **** }
 6054                             		.loc 1 1780 1
 6055 0160 3F AA 08                		rtsd	#32, r10-r10
 6056                             	.LFE38:
 6058 0163 77 10 01 00 00          		.section	.text.mw_gl_line,"ax",@progbits
 6059                             		.global	_mw_gl_line
 6061                             	_mw_gl_line:
 6062                             	.LFB39:
1781:C:/Users/John/Desktop/workspace/miniwinwm/MiniWin/gl\gl.c **** 
1782:C:/Users/John/Desktop/workspace/miniwinwm/MiniWin/gl\gl.c **** void mw_gl_line(const mw_gl_draw_info_t *draw_info, int16_t p1x, int16_t p1y, int16_t p2x, int16_t 
1783:C:/Users/John/Desktop/workspace/miniwinwm/MiniWin/gl\gl.c **** {
 6063                             		.loc 1 1783 1
 6064 0000 7E AA                   		push.l	r10
 6065                             	.LCFI96:
 6066 0002 7E A6                   		push.l	r6
 6067                             	.LCFI97:
 6068 0004 71 0A DC                		add	#-36, r0, r10
 6069                             	.LCFI98:
 6070 0007 EF A0                   		mov.L	r10, r0
 6071 0009 75 46 30                		mov.L	#48, r6
 6072 000c 4B A6                   		add	r10, r6
 6073 000e E7 A1 05                		mov.L	r1, 20[r10]
 6074 0011 D7 A2 0C                		mov.W	r2, 24[r10]
 6075 0014 D7 A3 0D                		mov.W	r3, 26[r10]
 6076 0017 D7 A4 0E                		mov.W	r4, 28[r10]
1784:C:/Users/John/Desktop/workspace/miniwinwm/MiniWin/gl\gl.c **** 	int16_t F;
1785:C:/Users/John/Desktop/workspace/miniwinwm/MiniWin/gl\gl.c **** 	int16_t x;
1786:C:/Users/John/Desktop/workspace/miniwinwm/MiniWin/gl\gl.c **** 	int16_t y;
1787:C:/Users/John/Desktop/workspace/miniwinwm/MiniWin/gl\gl.c **** 	int16_t dy;
1788:C:/Users/John/Desktop/workspace/miniwinwm/MiniWin/gl\gl.c **** 	int16_t dx;
1789:C:/Users/John/Desktop/workspace/miniwinwm/MiniWin/gl\gl.c **** 	int16_t dy2;
1790:C:/Users/John/Desktop/workspace/miniwinwm/MiniWin/gl\gl.c **** 	int16_t dx2;
1791:C:/Users/John/Desktop/workspace/miniwinwm/MiniWin/gl\gl.c **** 	int16_t dy2_minus_dx2;
1792:C:/Users/John/Desktop/workspace/miniwinwm/MiniWin/gl\gl.c **** 	int16_t dy2_plus_dx2;
1793:C:/Users/John/Desktop/workspace/miniwinwm/MiniWin/gl\gl.c **** 	uint16_t mask = 0x8000U;
 6077                             		.loc 1 1793 11
 6078 001a F9 A9 03 00 80          		mov.W	#-32768, 6[r10]
1794:C:/Users/John/Desktop/workspace/miniwinwm/MiniWin/gl\gl.c **** 
1795:C:/Users/John/Desktop/workspace/miniwinwm/MiniWin/gl\gl.c **** 	if (draw_info == NULL)
 6079                             		.loc 1 1795 5
 6080 001f ED A5 05                		mov.L	20[r10], r5
 6081 0022 61 05                   		cmp	#0, r5
 6082 0024 21 1B                   		bne	.L341
1796:C:/Users/John/Desktop/workspace/miniwinwm/MiniWin/gl\gl.c **** 	{
1797:C:/Users/John/Desktop/workspace/miniwinwm/MiniWin/gl\gl.c **** 		MW_ASSERT((bool)false, "Null pointer argument");
 6083                             		.loc 1 1797 3
 6084 0026 FB 42 00 00 00 00       		mov.L	#.LC0, r4
 6085 002c FB 3A 05 07             		mov.L	#0x705, r3
 6086 0030 FB 22 00 00 00 00       		mov.L	#___func__.3435, r2
 6087 0036 66 01                   		mov	#0, r1
 6088 0038 05 00 00 00             		bsr	_mw_debug_print_assert
1798:C:/Users/John/Desktop/workspace/miniwinwm/MiniWin/gl\gl.c **** 		return;
 6089                             		.loc 1 1798 3
 6090 003c 38 7C 03                		bra	.L340
 6091                             	.L341:
1799:C:/Users/John/Desktop/workspace/miniwinwm/MiniWin/gl\gl.c **** 	}
1800:C:/Users/John/Desktop/workspace/miniwinwm/MiniWin/gl\gl.c **** 
1801:C:/Users/John/Desktop/workspace/miniwinwm/MiniWin/gl\gl.c **** 	if (gc.line == MW_GL_LINE_NONE)
 6092                             		.loc 1 1801 8
 6093 003f FB 52 00 00 00 00       		mov.L	#_gc, r5
 6094 0045 A8 DD                   		mov.L	12[r5], r5
 6095                             		.loc 1 1801 5
 6096 0047 61 05                   		cmp	#0, r5
 6097 0049 3A 6E 03                		beq	.L380
1802:C:/Users/John/Desktop/workspace/miniwinwm/MiniWin/gl\gl.c **** 	{
1803:C:/Users/John/Desktop/workspace/miniwinwm/MiniWin/gl\gl.c **** 		return;
1804:C:/Users/John/Desktop/workspace/miniwinwm/MiniWin/gl\gl.c **** 	}
1805:C:/Users/John/Desktop/workspace/miniwinwm/MiniWin/gl\gl.c **** 
1806:C:/Users/John/Desktop/workspace/miniwinwm/MiniWin/gl\gl.c **** 	if (p1x > p2x)
 6098                             		.loc 1 1806 5
 6099 004c DD A4 0C                		mov.W	24[r10], r4
 6100 004f DD A5 0E                		mov.W	28[r10], r5
 6101 0052 47 54                   		cmp	r5, r4
 6102 0054 2B 20                   		ble	.L344
1807:C:/Users/John/Desktop/workspace/miniwinwm/MiniWin/gl\gl.c **** 	{
1808:C:/Users/John/Desktop/workspace/miniwinwm/MiniWin/gl\gl.c **** 		F = p1x;
 6103                             		.loc 1 1808 5
 6104 0056 DD A5 0C                		mov.W	24[r10], r5
 6105 0059 D3 A5                   		mov.W	r5, [r10]
1809:C:/Users/John/Desktop/workspace/miniwinwm/MiniWin/gl\gl.c **** 		p1x = p2x;
 6106                             		.loc 1 1809 7
 6107 005b DD A5 0E                		mov.W	28[r10], r5
 6108 005e D7 A5 0C                		mov.W	r5, 24[r10]
1810:C:/Users/John/Desktop/workspace/miniwinwm/MiniWin/gl\gl.c **** 		p2x = F;
 6109                             		.loc 1 1810 7
 6110 0061 DC A5                   		mov.W	[r10], r5
 6111 0063 D7 A5 0E                		mov.W	r5, 28[r10]
1811:C:/Users/John/Desktop/workspace/miniwinwm/MiniWin/gl\gl.c **** 
1812:C:/Users/John/Desktop/workspace/miniwinwm/MiniWin/gl\gl.c **** 		F = p1y;
 6112                             		.loc 1 1812 5
 6113 0066 DD A5 0D                		mov.W	26[r10], r5
 6114 0069 D3 A5                   		mov.W	r5, [r10]
1813:C:/Users/John/Desktop/workspace/miniwinwm/MiniWin/gl\gl.c **** 		p1y = p2y;
 6115                             		.loc 1 1813 7
 6116 006b DC 65                   		mov.W	[r6], r5
 6117 006d D7 A5 0D                		mov.W	r5, 26[r10]
1814:C:/Users/John/Desktop/workspace/miniwinwm/MiniWin/gl\gl.c **** 		p2y = F;
 6118                             		.loc 1 1814 7
 6119 0070 DC A5                   		mov.W	[r10], r5
 6120 0072 D3 65                   		mov.W	r5, [r6]
 6121                             	.L344:
1815:C:/Users/John/Desktop/workspace/miniwinwm/MiniWin/gl\gl.c **** 	}
1816:C:/Users/John/Desktop/workspace/miniwinwm/MiniWin/gl\gl.c **** 
1817:C:/Users/John/Desktop/workspace/miniwinwm/MiniWin/gl\gl.c **** 	dy = p2y - p1y;
 6122                             		.loc 1 1817 11
 6123 0074 DC 64                   		mov.W	[r6], r4
 6124 0076 DD A5 0D                		mov.W	26[r10], r5
 6125 0079 FF 05 54                		sub	r5, r4, r5
 6126                             		.loc 1 1817 5
 6127 007c D7 A5 04                		mov.W	r5, 8[r10]
1818:C:/Users/John/Desktop/workspace/miniwinwm/MiniWin/gl\gl.c **** 	dx = p2x - p1x;
 6128                             		.loc 1 1818 11
 6129 007f DD A4 0E                		mov.W	28[r10], r4
 6130 0082 DD A5 0C                		mov.W	24[r10], r5
 6131 0085 FF 05 54                		sub	r5, r4, r5
 6132                             		.loc 1 1818 5
 6133 0088 D7 A5 05                		mov.W	r5, 10[r10]
1819:C:/Users/John/Desktop/workspace/miniwinwm/MiniWin/gl\gl.c **** 	dy2 = dy * 2;
 6134                             		.loc 1 1819 11
 6135 008b DD A5 04                		mov.W	8[r10], r5
 6136 008e 4B 55                   		add	r5, r5
 6137                             		.loc 1 1819 6
 6138 0090 D7 A5 06                		mov.W	r5, 12[r10]
1820:C:/Users/John/Desktop/workspace/miniwinwm/MiniWin/gl\gl.c **** 	dx2 = dx * 2;
 6139                             		.loc 1 1820 11
 6140 0093 DD A5 05                		mov.W	10[r10], r5
 6141 0096 4B 55                   		add	r5, r5
 6142                             		.loc 1 1820 6
 6143 0098 D7 A5 07                		mov.W	r5, 14[r10]
1821:C:/Users/John/Desktop/workspace/miniwinwm/MiniWin/gl\gl.c **** 	dy2_minus_dx2 = dy2 - dx2;
 6144                             		.loc 1 1821 22
 6145 009b DD A4 06                		mov.W	12[r10], r4
 6146 009e DD A5 07                		mov.W	14[r10], r5
 6147 00a1 FF 05 54                		sub	r5, r4, r5
 6148                             		.loc 1 1821 16
 6149 00a4 D7 A5 08                		mov.W	r5, 16[r10]
1822:C:/Users/John/Desktop/workspace/miniwinwm/MiniWin/gl\gl.c **** 	dy2_plus_dx2 = dy2 + dx2;
 6150                             		.loc 1 1822 21
 6151 00a7 DD A4 06                		mov.W	12[r10], r4
 6152 00aa DD A5 07                		mov.W	14[r10], r5
 6153 00ad 4B 45                   		add	r4, r5
 6154                             		.loc 1 1822 15
 6155 00af D7 A5 09                		mov.W	r5, 18[r10]
1823:C:/Users/John/Desktop/workspace/miniwinwm/MiniWin/gl\gl.c **** 
1824:C:/Users/John/Desktop/workspace/miniwinwm/MiniWin/gl\gl.c **** 	if (dy >= 0)
 6156                             		.loc 1 1824 5
 6157 00b2 DD A5 04                		mov.W	8[r10], r5
 6158 00b5 61 05                   		cmp	#0, r5
 6159 00b7 28 05 38 7E 01          		blt	.L345
1825:C:/Users/John/Desktop/workspace/miniwinwm/MiniWin/gl\gl.c **** 	{
1826:C:/Users/John/Desktop/workspace/miniwinwm/MiniWin/gl\gl.c **** 		if (dy <= dx)
 6160                             		.loc 1 1826 6
 6161 00bc DD A4 04                		mov.W	8[r10], r4
 6162 00bf DD A5 05                		mov.W	10[r10], r5
 6163 00c2 47 54                   		cmp	r5, r4
 6164 00c4 2B 05 38 BA 00          		bgt	.L346
1827:C:/Users/John/Desktop/workspace/miniwinwm/MiniWin/gl\gl.c **** 		{
1828:C:/Users/John/Desktop/workspace/miniwinwm/MiniWin/gl\gl.c **** 			F = dy2 - dx;
 6165                             		.loc 1 1828 12
 6166 00c9 DD A4 06                		mov.W	12[r10], r4
 6167 00cc DD A5 05                		mov.W	10[r10], r5
 6168 00cf FF 05 54                		sub	r5, r4, r5
 6169                             		.loc 1 1828 6
 6170 00d2 D3 A5                   		mov.W	r5, [r10]
1829:C:/Users/John/Desktop/workspace/miniwinwm/MiniWin/gl\gl.c **** 			x = p1x;
 6171                             		.loc 1 1829 6
 6172 00d4 DD A5 0C                		mov.W	24[r10], r5
 6173 00d7 D7 A5 01                		mov.W	r5, 2[r10]
1830:C:/Users/John/Desktop/workspace/miniwinwm/MiniWin/gl\gl.c **** 			y = p1y;
 6174                             		.loc 1 1830 6
 6175 00da DD A5 0D                		mov.W	26[r10], r5
 6176 00dd D7 A5 02                		mov.W	r5, 4[r10]
1831:C:/Users/John/Desktop/workspace/miniwinwm/MiniWin/gl\gl.c **** 			while (x <= p2x)
 6177                             		.loc 1 1831 10
 6178 00e0 38 90 00                		bra	.L347
 6179                             	.L354:
1832:C:/Users/John/Desktop/workspace/miniwinwm/MiniWin/gl\gl.c **** 			{
1833:C:/Users/John/Desktop/workspace/miniwinwm/MiniWin/gl\gl.c **** 				if (gc.line == MW_GL_SOLID_LINE)
 6180                             		.loc 1 1833 11
 6181 00e3 FB 52 00 00 00 00       		mov.L	#_gc, r5
 6182 00e9 A8 DD                   		mov.L	12[r5], r5
 6183                             		.loc 1 1833 8
 6184 00eb 77 05 FF FF 00          		cmp	#0xffff, r5
 6185 00f0 21 11                   		bne	.L348
1834:C:/Users/John/Desktop/workspace/miniwinwm/MiniWin/gl\gl.c **** 				{
1835:C:/Users/John/Desktop/workspace/miniwinwm/MiniWin/gl\gl.c **** 					mw_gl_fg_pixel(draw_info, x, y);
 6186                             		.loc 1 1835 6
 6187 00f2 DD A3 02                		mov.W	4[r10], r3
 6188 00f5 DD A2 01                		mov.W	2[r10], r2
 6189 00f8 ED A1 05                		mov.L	20[r10], r1
 6190 00fb 05 00 00 00             		bsr	_mw_gl_fg_pixel
 6191 00ff 2E 47                   		bra	.L349
 6192                             	.L348:
1836:C:/Users/John/Desktop/workspace/miniwinwm/MiniWin/gl\gl.c **** 				}
1837:C:/Users/John/Desktop/workspace/miniwinwm/MiniWin/gl\gl.c **** 				else
1838:C:/Users/John/Desktop/workspace/miniwinwm/MiniWin/gl\gl.c **** 				{
1839:C:/Users/John/Desktop/workspace/miniwinwm/MiniWin/gl\gl.c **** 					if (((uint16_t)gc.line & mask) == mask)
 6193                             		.loc 1 1839 23
 6194 0101 FB 52 00 00 00 00       		mov.L	#_gc, r5
 6195 0107 A8 DD                   		mov.L	12[r5], r5
 6196                             		.loc 1 1839 37
 6197 0109 DD A4 03                		mov.W	6[r10], r4
 6198 010c 53 45                   		and	r4, r5
 6199                             		.loc 1 1839 9
 6200 010e 5D A4 03                		movu.W	6[r10], r4
 6201 0111 5F 55                   		movu.W	r5, r5
 6202 0113 47 54                   		cmp	r5, r4
 6203 0115 21 11                   		bne	.L350
1840:C:/Users/John/Desktop/workspace/miniwinwm/MiniWin/gl\gl.c **** 					{
1841:C:/Users/John/Desktop/workspace/miniwinwm/MiniWin/gl\gl.c **** 						mw_gl_fg_pixel(draw_info, x, y);
 6204                             		.loc 1 1841 7
 6205 0117 DD A3 02                		mov.W	4[r10], r3
 6206 011a DD A2 01                		mov.W	2[r10], r2
 6207 011d ED A1 05                		mov.L	20[r10], r1
 6208 0120 05 00 00 00             		bsr	_mw_gl_fg_pixel
 6209 0124 2E 0F                   		bra	.L351
 6210                             	.L350:
1842:C:/Users/John/Desktop/workspace/miniwinwm/MiniWin/gl\gl.c **** 					}
1843:C:/Users/John/Desktop/workspace/miniwinwm/MiniWin/gl\gl.c **** 					else
1844:C:/Users/John/Desktop/workspace/miniwinwm/MiniWin/gl\gl.c **** 					{
1845:C:/Users/John/Desktop/workspace/miniwinwm/MiniWin/gl\gl.c **** 						mw_gl_bg_pixel(draw_info, x, y);
 6211                             		.loc 1 1845 7
 6212 0126 DD A3 02                		mov.W	4[r10], r3
 6213 0129 DD A2 01                		mov.W	2[r10], r2
 6214 012c ED A1 05                		mov.L	20[r10], r1
 6215 012f 05 00 00 00             		bsr	_mw_gl_bg_pixel
 6216                             	.L351:
1846:C:/Users/John/Desktop/workspace/miniwinwm/MiniWin/gl\gl.c **** 					}
1847:C:/Users/John/Desktop/workspace/miniwinwm/MiniWin/gl\gl.c **** 					mask >>= 1U;
 6217                             		.loc 1 1847 11
 6218 0133 5D A5 03                		movu.W	6[r10], r5
 6219 0136 68 15                   		shlr	#1, r5
 6220 0138 D7 A5 03                		mov.W	r5, 6[r10]
1848:C:/Users/John/Desktop/workspace/miniwinwm/MiniWin/gl\gl.c **** 					if (mask == 0U)
 6221                             		.loc 1 1848 9
 6222 013b 5D A5 03                		movu.W	6[r10], r5
 6223 013e 61 05                   		cmp	#0, r5
 6224 0140 1E                      		bne	.L349
1849:C:/Users/John/Desktop/workspace/miniwinwm/MiniWin/gl\gl.c **** 					{
1850:C:/Users/John/Desktop/workspace/miniwinwm/MiniWin/gl\gl.c **** 						mask = 0x8000U;
 6225                             		.loc 1 1850 12
 6226 0141 F9 A9 03 00 80          		mov.W	#-32768, 6[r10]
 6227                             	.L349:
1851:C:/Users/John/Desktop/workspace/miniwinwm/MiniWin/gl\gl.c **** 					}
1852:C:/Users/John/Desktop/workspace/miniwinwm/MiniWin/gl\gl.c **** 				}
1853:C:/Users/John/Desktop/workspace/miniwinwm/MiniWin/gl\gl.c **** 				if (F <= 0)
 6228                             		.loc 1 1853 8
 6229 0146 DC A5                   		mov.W	[r10], r5
 6230 0148 61 05                   		cmp	#0, r5
 6231 014a 2A 0D                   		bgt	.L352
1854:C:/Users/John/Desktop/workspace/miniwinwm/MiniWin/gl\gl.c **** 				{
1855:C:/Users/John/Desktop/workspace/miniwinwm/MiniWin/gl\gl.c **** 					F += dy2;
 6232                             		.loc 1 1855 8
 6233 014c DC A4                   		mov.W	[r10], r4
 6234 014e DD A5 06                		mov.W	12[r10], r5
 6235 0151 4B 45                   		add	r4, r5
 6236 0153 D3 A5                   		mov.W	r5, [r10]
 6237 0155 2E 13                   		bra	.L353
 6238                             	.L352:
1856:C:/Users/John/Desktop/workspace/miniwinwm/MiniWin/gl\gl.c **** 				}
1857:C:/Users/John/Desktop/workspace/miniwinwm/MiniWin/gl\gl.c **** 				else
1858:C:/Users/John/Desktop/workspace/miniwinwm/MiniWin/gl\gl.c **** 				{
1859:C:/Users/John/Desktop/workspace/miniwinwm/MiniWin/gl\gl.c **** 					y++;
 6239                             		.loc 1 1859 7
 6240 0157 DD A5 02                		mov.W	4[r10], r5
 6241 015a 62 15                   		add	#1, r5
 6242 015c D7 A5 02                		mov.W	r5, 4[r10]
1860:C:/Users/John/Desktop/workspace/miniwinwm/MiniWin/gl\gl.c **** 					F += dy2_minus_dx2;
 6243                             		.loc 1 1860 8
 6244 015f DC A4                   		mov.W	[r10], r4
 6245 0161 DD A5 08                		mov.W	16[r10], r5
 6246 0164 4B 45                   		add	r4, r5
 6247 0166 D3 A5                   		mov.W	r5, [r10]
 6248                             	.L353:
1861:C:/Users/John/Desktop/workspace/miniwinwm/MiniWin/gl\gl.c **** 				}
1862:C:/Users/John/Desktop/workspace/miniwinwm/MiniWin/gl\gl.c **** 				x++;
 6249                             		.loc 1 1862 6
 6250 0168 DD A5 01                		mov.W	2[r10], r5
 6251 016b 62 15                   		add	#1, r5
 6252 016d D7 A5 01                		mov.W	r5, 2[r10]
 6253                             	.L347:
1831:C:/Users/John/Desktop/workspace/miniwinwm/MiniWin/gl\gl.c **** 			{
 6254                             		.loc 1 1831 10
 6255 0170 DD A4 01                		mov.W	2[r10], r4
 6256 0173 DD A5 0E                		mov.W	28[r10], r5
 6257 0176 47 54                   		cmp	r5, r4
 6258 0178 2A 05 38 69 FF          		ble	.L354
 6259 017d 38 3B 02                		bra	.L340
 6260                             	.L346:
1863:C:/Users/John/Desktop/workspace/miniwinwm/MiniWin/gl\gl.c **** 			}
1864:C:/Users/John/Desktop/workspace/miniwinwm/MiniWin/gl\gl.c **** 		}
1865:C:/Users/John/Desktop/workspace/miniwinwm/MiniWin/gl\gl.c **** 		else
1866:C:/Users/John/Desktop/workspace/miniwinwm/MiniWin/gl\gl.c **** 		{
1867:C:/Users/John/Desktop/workspace/miniwinwm/MiniWin/gl\gl.c **** 			F = dx2 - dy;
 6261                             		.loc 1 1867 12
 6262 0180 DD A4 07                		mov.W	14[r10], r4
 6263 0183 DD A5 04                		mov.W	8[r10], r5
 6264 0186 FF 05 54                		sub	r5, r4, r5
 6265                             		.loc 1 1867 6
 6266 0189 D3 A5                   		mov.W	r5, [r10]
1868:C:/Users/John/Desktop/workspace/miniwinwm/MiniWin/gl\gl.c **** 			y = p1y;
 6267                             		.loc 1 1868 6
 6268 018b DD A5 0D                		mov.W	26[r10], r5
 6269 018e D7 A5 02                		mov.W	r5, 4[r10]
1869:C:/Users/John/Desktop/workspace/miniwinwm/MiniWin/gl\gl.c **** 			x = p1x;
 6270                             		.loc 1 1869 6
 6271 0191 DD A5 0C                		mov.W	24[r10], r5
 6272 0194 D7 A5 01                		mov.W	r5, 2[r10]
1870:C:/Users/John/Desktop/workspace/miniwinwm/MiniWin/gl\gl.c **** 			while (y <= p2y)
 6273                             		.loc 1 1870 10
 6274 0197 38 91 00                		bra	.L355
 6275                             	.L362:
1871:C:/Users/John/Desktop/workspace/miniwinwm/MiniWin/gl\gl.c **** 			{
1872:C:/Users/John/Desktop/workspace/miniwinwm/MiniWin/gl\gl.c **** 				if (gc.line == MW_GL_SOLID_LINE)
 6276                             		.loc 1 1872 11
 6277 019a FB 52 00 00 00 00       		mov.L	#_gc, r5
 6278 01a0 A8 DD                   		mov.L	12[r5], r5
 6279                             		.loc 1 1872 8
 6280 01a2 77 05 FF FF 00          		cmp	#0xffff, r5
 6281 01a7 21 11                   		bne	.L356
1873:C:/Users/John/Desktop/workspace/miniwinwm/MiniWin/gl\gl.c **** 				{
1874:C:/Users/John/Desktop/workspace/miniwinwm/MiniWin/gl\gl.c **** 					mw_gl_fg_pixel(draw_info, x, y);
 6282                             		.loc 1 1874 6
 6283 01a9 DD A3 02                		mov.W	4[r10], r3
 6284 01ac DD A2 01                		mov.W	2[r10], r2
 6285 01af ED A1 05                		mov.L	20[r10], r1
 6286 01b2 05 00 00 00             		bsr	_mw_gl_fg_pixel
 6287 01b6 2E 47                   		bra	.L357
 6288                             	.L356:
1875:C:/Users/John/Desktop/workspace/miniwinwm/MiniWin/gl\gl.c **** 				}
1876:C:/Users/John/Desktop/workspace/miniwinwm/MiniWin/gl\gl.c **** 				else
1877:C:/Users/John/Desktop/workspace/miniwinwm/MiniWin/gl\gl.c **** 				{
1878:C:/Users/John/Desktop/workspace/miniwinwm/MiniWin/gl\gl.c **** 					if (((uint16_t)gc.line & mask) == mask)
 6289                             		.loc 1 1878 23
 6290 01b8 FB 52 00 00 00 00       		mov.L	#_gc, r5
 6291 01be A8 DD                   		mov.L	12[r5], r5
 6292                             		.loc 1 1878 37
 6293 01c0 DD A4 03                		mov.W	6[r10], r4
 6294 01c3 53 45                   		and	r4, r5
 6295                             		.loc 1 1878 9
 6296 01c5 5D A4 03                		movu.W	6[r10], r4
 6297 01c8 5F 55                   		movu.W	r5, r5
 6298 01ca 47 54                   		cmp	r5, r4
 6299 01cc 21 11                   		bne	.L358
1879:C:/Users/John/Desktop/workspace/miniwinwm/MiniWin/gl\gl.c **** 					{
1880:C:/Users/John/Desktop/workspace/miniwinwm/MiniWin/gl\gl.c **** 						mw_gl_fg_pixel(draw_info, x, y);
 6300                             		.loc 1 1880 7
 6301 01ce DD A3 02                		mov.W	4[r10], r3
 6302 01d1 DD A2 01                		mov.W	2[r10], r2
 6303 01d4 ED A1 05                		mov.L	20[r10], r1
 6304 01d7 05 00 00 00             		bsr	_mw_gl_fg_pixel
 6305 01db 2E 0F                   		bra	.L359
 6306                             	.L358:
1881:C:/Users/John/Desktop/workspace/miniwinwm/MiniWin/gl\gl.c **** 					}
1882:C:/Users/John/Desktop/workspace/miniwinwm/MiniWin/gl\gl.c **** 					else
1883:C:/Users/John/Desktop/workspace/miniwinwm/MiniWin/gl\gl.c **** 					{
1884:C:/Users/John/Desktop/workspace/miniwinwm/MiniWin/gl\gl.c **** 						mw_gl_bg_pixel(draw_info, x, y);
 6307                             		.loc 1 1884 7
 6308 01dd DD A3 02                		mov.W	4[r10], r3
 6309 01e0 DD A2 01                		mov.W	2[r10], r2
 6310 01e3 ED A1 05                		mov.L	20[r10], r1
 6311 01e6 05 00 00 00             		bsr	_mw_gl_bg_pixel
 6312                             	.L359:
1885:C:/Users/John/Desktop/workspace/miniwinwm/MiniWin/gl\gl.c **** 					}
1886:C:/Users/John/Desktop/workspace/miniwinwm/MiniWin/gl\gl.c **** 					mask >>= 1U;
 6313                             		.loc 1 1886 11
 6314 01ea 5D A5 03                		movu.W	6[r10], r5
 6315 01ed 68 15                   		shlr	#1, r5
 6316 01ef D7 A5 03                		mov.W	r5, 6[r10]
1887:C:/Users/John/Desktop/workspace/miniwinwm/MiniWin/gl\gl.c **** 					if (mask == 0U)
 6317                             		.loc 1 1887 9
 6318 01f2 5D A5 03                		movu.W	6[r10], r5
 6319 01f5 61 05                   		cmp	#0, r5
 6320 01f7 1E                      		bne	.L357
1888:C:/Users/John/Desktop/workspace/miniwinwm/MiniWin/gl\gl.c **** 					{
1889:C:/Users/John/Desktop/workspace/miniwinwm/MiniWin/gl\gl.c **** 						mask = 0x8000U;
 6321                             		.loc 1 1889 12
 6322 01f8 F9 A9 03 00 80          		mov.W	#-32768, 6[r10]
 6323                             	.L357:
1890:C:/Users/John/Desktop/workspace/miniwinwm/MiniWin/gl\gl.c **** 					}
1891:C:/Users/John/Desktop/workspace/miniwinwm/MiniWin/gl\gl.c **** 				}
1892:C:/Users/John/Desktop/workspace/miniwinwm/MiniWin/gl\gl.c **** 				if (F <= 0)
 6324                             		.loc 1 1892 8
 6325 01fd DC A5                   		mov.W	[r10], r5
 6326 01ff 61 05                   		cmp	#0, r5
 6327 0201 2A 0D                   		bgt	.L360
1893:C:/Users/John/Desktop/workspace/miniwinwm/MiniWin/gl\gl.c **** 				{
1894:C:/Users/John/Desktop/workspace/miniwinwm/MiniWin/gl\gl.c **** 					F += dx2;
 6328                             		.loc 1 1894 8
 6329 0203 DC A4                   		mov.W	[r10], r4
 6330 0205 DD A5 07                		mov.W	14[r10], r5
 6331 0208 4B 45                   		add	r4, r5
 6332 020a D3 A5                   		mov.W	r5, [r10]
 6333 020c 2E 14                   		bra	.L361
 6334                             	.L360:
1895:C:/Users/John/Desktop/workspace/miniwinwm/MiniWin/gl\gl.c **** 				}
1896:C:/Users/John/Desktop/workspace/miniwinwm/MiniWin/gl\gl.c **** 				else
1897:C:/Users/John/Desktop/workspace/miniwinwm/MiniWin/gl\gl.c **** 				{
1898:C:/Users/John/Desktop/workspace/miniwinwm/MiniWin/gl\gl.c **** 					x++;
 6335                             		.loc 1 1898 7
 6336 020e DD A5 01                		mov.W	2[r10], r5
 6337 0211 62 15                   		add	#1, r5
 6338 0213 D7 A5 01                		mov.W	r5, 2[r10]
1899:C:/Users/John/Desktop/workspace/miniwinwm/MiniWin/gl\gl.c **** 					F -= dy2_minus_dx2;
 6339                             		.loc 1 1899 8
 6340 0216 DC A4                   		mov.W	[r10], r4
 6341 0218 DD A5 08                		mov.W	16[r10], r5
 6342 021b FF 05 54                		sub	r5, r4, r5
 6343 021e D3 A5                   		mov.W	r5, [r10]
 6344                             	.L361:
1900:C:/Users/John/Desktop/workspace/miniwinwm/MiniWin/gl\gl.c **** 				}
1901:C:/Users/John/Desktop/workspace/miniwinwm/MiniWin/gl\gl.c **** 			y++;
 6345                             		.loc 1 1901 5
 6346 0220 DD A5 02                		mov.W	4[r10], r5
 6347 0223 62 15                   		add	#1, r5
 6348 0225 D7 A5 02                		mov.W	r5, 4[r10]
 6349                             	.L355:
1870:C:/Users/John/Desktop/workspace/miniwinwm/MiniWin/gl\gl.c **** 			{
 6350                             		.loc 1 1870 10
 6351 0228 DD A4 02                		mov.W	4[r10], r4
 6352 022b DC 65                   		mov.W	[r6], r5
 6353 022d 47 54                   		cmp	r5, r4
 6354 022f 2A 05 38 69 FF          		ble	.L362
 6355 0234 38 84 01                		bra	.L340
 6356                             	.L345:
1902:C:/Users/John/Desktop/workspace/miniwinwm/MiniWin/gl\gl.c **** 			}
1903:C:/Users/John/Desktop/workspace/miniwinwm/MiniWin/gl\gl.c **** 		}
1904:C:/Users/John/Desktop/workspace/miniwinwm/MiniWin/gl\gl.c **** 	}
1905:C:/Users/John/Desktop/workspace/miniwinwm/MiniWin/gl\gl.c **** 	else
1906:C:/Users/John/Desktop/workspace/miniwinwm/MiniWin/gl\gl.c **** 	{
1907:C:/Users/John/Desktop/workspace/miniwinwm/MiniWin/gl\gl.c **** 		if (dx >= -dy)
 6357                             		.loc 1 1907 10
 6358 0237 DD A4 05                		mov.W	10[r10], r4
 6359                             		.loc 1 1907 13
 6360 023a DD A5 04                		mov.W	8[r10], r5
 6361 023d 7E 15                   		neg	r5
 6362                             		.loc 1 1907 6
 6363 023f 47 54                   		cmp	r5, r4
 6364 0241 28 05 38 C0 00          		blt	.L363
1908:C:/Users/John/Desktop/workspace/miniwinwm/MiniWin/gl\gl.c **** 		{
1909:C:/Users/John/Desktop/workspace/miniwinwm/MiniWin/gl\gl.c **** 			F = -dy2 - dx;
 6365                             		.loc 1 1909 13
 6366 0246 DD A5 06                		mov.W	12[r10], r5
 6367 0249 7E 15                   		neg	r5
 6368 024b DF 54                   		mov.W	r5, r4
 6369 024d DD A5 05                		mov.W	10[r10], r5
 6370 0250 FF 05 54                		sub	r5, r4, r5
 6371                             		.loc 1 1909 6
 6372 0253 D3 A5                   		mov.W	r5, [r10]
1910:C:/Users/John/Desktop/workspace/miniwinwm/MiniWin/gl\gl.c **** 			x = p1x;
 6373                             		.loc 1 1910 6
 6374 0255 DD A5 0C                		mov.W	24[r10], r5
 6375 0258 D7 A5 01                		mov.W	r5, 2[r10]
1911:C:/Users/John/Desktop/workspace/miniwinwm/MiniWin/gl\gl.c **** 			y = p1y;
 6376                             		.loc 1 1911 6
 6377 025b DD A5 0D                		mov.W	26[r10], r5
 6378 025e D7 A5 02                		mov.W	r5, 4[r10]
1912:C:/Users/John/Desktop/workspace/miniwinwm/MiniWin/gl\gl.c **** 			while (x <= p2x)
 6379                             		.loc 1 1912 10
 6380 0261 38 92 00                		bra	.L364
 6381                             	.L371:
1913:C:/Users/John/Desktop/workspace/miniwinwm/MiniWin/gl\gl.c **** 			{
1914:C:/Users/John/Desktop/workspace/miniwinwm/MiniWin/gl\gl.c **** 				if (gc.line == MW_GL_SOLID_LINE)
 6382                             		.loc 1 1914 11
 6383 0264 FB 52 00 00 00 00       		mov.L	#_gc, r5
 6384 026a A8 DD                   		mov.L	12[r5], r5
 6385                             		.loc 1 1914 8
 6386 026c 77 05 FF FF 00          		cmp	#0xffff, r5
 6387 0271 21 11                   		bne	.L365
1915:C:/Users/John/Desktop/workspace/miniwinwm/MiniWin/gl\gl.c **** 				{
1916:C:/Users/John/Desktop/workspace/miniwinwm/MiniWin/gl\gl.c **** 					mw_gl_fg_pixel(draw_info, x, y);
 6388                             		.loc 1 1916 6
 6389 0273 DD A3 02                		mov.W	4[r10], r3
 6390 0276 DD A2 01                		mov.W	2[r10], r2
 6391 0279 ED A1 05                		mov.L	20[r10], r1
 6392 027c 05 00 00 00             		bsr	_mw_gl_fg_pixel
 6393 0280 2E 47                   		bra	.L366
 6394                             	.L365:
1917:C:/Users/John/Desktop/workspace/miniwinwm/MiniWin/gl\gl.c **** 				}
1918:C:/Users/John/Desktop/workspace/miniwinwm/MiniWin/gl\gl.c **** 				else
1919:C:/Users/John/Desktop/workspace/miniwinwm/MiniWin/gl\gl.c **** 				{
1920:C:/Users/John/Desktop/workspace/miniwinwm/MiniWin/gl\gl.c **** 					if (((uint16_t)gc.line & mask) == mask)
 6395                             		.loc 1 1920 23
 6396 0282 FB 52 00 00 00 00       		mov.L	#_gc, r5
 6397 0288 A8 DD                   		mov.L	12[r5], r5
 6398                             		.loc 1 1920 37
 6399 028a DD A4 03                		mov.W	6[r10], r4
 6400 028d 53 45                   		and	r4, r5
 6401                             		.loc 1 1920 9
 6402 028f 5D A4 03                		movu.W	6[r10], r4
 6403 0292 5F 55                   		movu.W	r5, r5
 6404 0294 47 54                   		cmp	r5, r4
 6405 0296 21 11                   		bne	.L367
1921:C:/Users/John/Desktop/workspace/miniwinwm/MiniWin/gl\gl.c **** 					{
1922:C:/Users/John/Desktop/workspace/miniwinwm/MiniWin/gl\gl.c **** 						mw_gl_fg_pixel(draw_info, x, y);
 6406                             		.loc 1 1922 7
 6407 0298 DD A3 02                		mov.W	4[r10], r3
 6408 029b DD A2 01                		mov.W	2[r10], r2
 6409 029e ED A1 05                		mov.L	20[r10], r1
 6410 02a1 05 00 00 00             		bsr	_mw_gl_fg_pixel
 6411 02a5 2E 0F                   		bra	.L368
 6412                             	.L367:
1923:C:/Users/John/Desktop/workspace/miniwinwm/MiniWin/gl\gl.c **** 					}
1924:C:/Users/John/Desktop/workspace/miniwinwm/MiniWin/gl\gl.c **** 					else
1925:C:/Users/John/Desktop/workspace/miniwinwm/MiniWin/gl\gl.c **** 					{
1926:C:/Users/John/Desktop/workspace/miniwinwm/MiniWin/gl\gl.c **** 						mw_gl_bg_pixel(draw_info, x, y);
 6413                             		.loc 1 1926 7
 6414 02a7 DD A3 02                		mov.W	4[r10], r3
 6415 02aa DD A2 01                		mov.W	2[r10], r2
 6416 02ad ED A1 05                		mov.L	20[r10], r1
 6417 02b0 05 00 00 00             		bsr	_mw_gl_bg_pixel
 6418                             	.L368:
1927:C:/Users/John/Desktop/workspace/miniwinwm/MiniWin/gl\gl.c **** 					}
1928:C:/Users/John/Desktop/workspace/miniwinwm/MiniWin/gl\gl.c **** 					mask >>= 1U;
 6419                             		.loc 1 1928 11
 6420 02b4 5D A5 03                		movu.W	6[r10], r5
 6421 02b7 68 15                   		shlr	#1, r5
 6422 02b9 D7 A5 03                		mov.W	r5, 6[r10]
1929:C:/Users/John/Desktop/workspace/miniwinwm/MiniWin/gl\gl.c **** 					if (mask == 0U)
 6423                             		.loc 1 1929 9
 6424 02bc 5D A5 03                		movu.W	6[r10], r5
 6425 02bf 61 05                   		cmp	#0, r5
 6426 02c1 1E                      		bne	.L366
1930:C:/Users/John/Desktop/workspace/miniwinwm/MiniWin/gl\gl.c **** 					{
1931:C:/Users/John/Desktop/workspace/miniwinwm/MiniWin/gl\gl.c **** 						mask = 0x8000U;
 6427                             		.loc 1 1931 12
 6428 02c2 F9 A9 03 00 80          		mov.W	#-32768, 6[r10]
 6429                             	.L366:
1932:C:/Users/John/Desktop/workspace/miniwinwm/MiniWin/gl\gl.c **** 					}
1933:C:/Users/John/Desktop/workspace/miniwinwm/MiniWin/gl\gl.c **** 				}
1934:C:/Users/John/Desktop/workspace/miniwinwm/MiniWin/gl\gl.c **** 				if (F <= 0)
 6430                             		.loc 1 1934 8
 6431 02c7 DC A5                   		mov.W	[r10], r5
 6432 02c9 61 05                   		cmp	#0, r5
 6433 02cb 2A 0E                   		bgt	.L369
1935:C:/Users/John/Desktop/workspace/miniwinwm/MiniWin/gl\gl.c **** 				{
1936:C:/Users/John/Desktop/workspace/miniwinwm/MiniWin/gl\gl.c **** 					F -= dy2;
 6434                             		.loc 1 1936 8
 6435 02cd DC A4                   		mov.W	[r10], r4
 6436 02cf DD A5 06                		mov.W	12[r10], r5
 6437 02d2 FF 05 54                		sub	r5, r4, r5
 6438 02d5 D3 A5                   		mov.W	r5, [r10]
 6439 02d7 2E 14                   		bra	.L370
 6440                             	.L369:
1937:C:/Users/John/Desktop/workspace/miniwinwm/MiniWin/gl\gl.c **** 				}
1938:C:/Users/John/Desktop/workspace/miniwinwm/MiniWin/gl\gl.c **** 				else
1939:C:/Users/John/Desktop/workspace/miniwinwm/MiniWin/gl\gl.c **** 				{
1940:C:/Users/John/Desktop/workspace/miniwinwm/MiniWin/gl\gl.c **** 					y--;
 6441                             		.loc 1 1940 7
 6442 02d9 DD A5 02                		mov.W	4[r10], r5
 6443 02dc 60 15                   		sub	#1, r5
 6444 02de D7 A5 02                		mov.W	r5, 4[r10]
1941:C:/Users/John/Desktop/workspace/miniwinwm/MiniWin/gl\gl.c **** 					F -= dy2_plus_dx2;
 6445                             		.loc 1 1941 8
 6446 02e1 DC A4                   		mov.W	[r10], r4
 6447 02e3 DD A5 09                		mov.W	18[r10], r5
 6448 02e6 FF 05 54                		sub	r5, r4, r5
 6449 02e9 D3 A5                   		mov.W	r5, [r10]
 6450                             	.L370:
1942:C:/Users/John/Desktop/workspace/miniwinwm/MiniWin/gl\gl.c **** 				}
1943:C:/Users/John/Desktop/workspace/miniwinwm/MiniWin/gl\gl.c **** 				x++;
 6451                             		.loc 1 1943 6
 6452 02eb DD A5 01                		mov.W	2[r10], r5
 6453 02ee 62 15                   		add	#1, r5
 6454 02f0 D7 A5 01                		mov.W	r5, 2[r10]
 6455                             	.L364:
1912:C:/Users/John/Desktop/workspace/miniwinwm/MiniWin/gl\gl.c **** 			{
 6456                             		.loc 1 1912 10
 6457 02f3 DD A4 01                		mov.W	2[r10], r4
 6458 02f6 DD A5 0E                		mov.W	28[r10], r5
 6459 02f9 47 54                   		cmp	r5, r4
 6460 02fb 2A 05 38 67 FF          		ble	.L371
 6461 0300 38 B8 00                		bra	.L340
 6462                             	.L363:
1944:C:/Users/John/Desktop/workspace/miniwinwm/MiniWin/gl\gl.c **** 			}
1945:C:/Users/John/Desktop/workspace/miniwinwm/MiniWin/gl\gl.c **** 		}
1946:C:/Users/John/Desktop/workspace/miniwinwm/MiniWin/gl\gl.c **** 		else
1947:C:/Users/John/Desktop/workspace/miniwinwm/MiniWin/gl\gl.c **** 		{
1948:C:/Users/John/Desktop/workspace/miniwinwm/MiniWin/gl\gl.c **** 			F = dx2 + dy;
 6463                             		.loc 1 1948 12
 6464 0303 DD A4 07                		mov.W	14[r10], r4
 6465 0306 DD A5 04                		mov.W	8[r10], r5
 6466 0309 4B 45                   		add	r4, r5
 6467                             		.loc 1 1948 6
 6468 030b D3 A5                   		mov.W	r5, [r10]
1949:C:/Users/John/Desktop/workspace/miniwinwm/MiniWin/gl\gl.c **** 			y = p1y;
 6469                             		.loc 1 1949 6
 6470 030d DD A5 0D                		mov.W	26[r10], r5
 6471 0310 D7 A5 02                		mov.W	r5, 4[r10]
1950:C:/Users/John/Desktop/workspace/miniwinwm/MiniWin/gl\gl.c **** 			x = p1x;
 6472                             		.loc 1 1950 6
 6473 0313 DD A5 0C                		mov.W	24[r10], r5
 6474 0316 D7 A5 01                		mov.W	r5, 2[r10]
1951:C:/Users/John/Desktop/workspace/miniwinwm/MiniWin/gl\gl.c **** 			while (y >= p2y)
 6475                             		.loc 1 1951 10
 6476 0319 38 90 00                		bra	.L372
 6477                             	.L379:
1952:C:/Users/John/Desktop/workspace/miniwinwm/MiniWin/gl\gl.c **** 			{
1953:C:/Users/John/Desktop/workspace/miniwinwm/MiniWin/gl\gl.c **** 				if (gc.line == MW_GL_SOLID_LINE)
 6478                             		.loc 1 1953 11
 6479 031c FB 52 00 00 00 00       		mov.L	#_gc, r5
 6480 0322 A8 DD                   		mov.L	12[r5], r5
 6481                             		.loc 1 1953 8
 6482 0324 77 05 FF FF 00          		cmp	#0xffff, r5
 6483 0329 21 11                   		bne	.L373
1954:C:/Users/John/Desktop/workspace/miniwinwm/MiniWin/gl\gl.c **** 				{
1955:C:/Users/John/Desktop/workspace/miniwinwm/MiniWin/gl\gl.c **** 					mw_gl_fg_pixel(draw_info, x, y);
 6484                             		.loc 1 1955 6
 6485 032b DD A3 02                		mov.W	4[r10], r3
 6486 032e DD A2 01                		mov.W	2[r10], r2
 6487 0331 ED A1 05                		mov.L	20[r10], r1
 6488 0334 05 00 00 00             		bsr	_mw_gl_fg_pixel
 6489 0338 2E 47                   		bra	.L374
 6490                             	.L373:
1956:C:/Users/John/Desktop/workspace/miniwinwm/MiniWin/gl\gl.c **** 				}
1957:C:/Users/John/Desktop/workspace/miniwinwm/MiniWin/gl\gl.c **** 				else
1958:C:/Users/John/Desktop/workspace/miniwinwm/MiniWin/gl\gl.c **** 				{
1959:C:/Users/John/Desktop/workspace/miniwinwm/MiniWin/gl\gl.c **** 					if (((uint16_t)gc.line & mask) == mask)
 6491                             		.loc 1 1959 23
 6492 033a FB 52 00 00 00 00       		mov.L	#_gc, r5
 6493 0340 A8 DD                   		mov.L	12[r5], r5
 6494                             		.loc 1 1959 37
 6495 0342 DD A4 03                		mov.W	6[r10], r4
 6496 0345 53 45                   		and	r4, r5
 6497                             		.loc 1 1959 9
 6498 0347 5D A4 03                		movu.W	6[r10], r4
 6499 034a 5F 55                   		movu.W	r5, r5
 6500 034c 47 54                   		cmp	r5, r4
 6501 034e 21 11                   		bne	.L375
1960:C:/Users/John/Desktop/workspace/miniwinwm/MiniWin/gl\gl.c **** 					{
1961:C:/Users/John/Desktop/workspace/miniwinwm/MiniWin/gl\gl.c **** 						mw_gl_fg_pixel(draw_info, x, y);
 6502                             		.loc 1 1961 7
 6503 0350 DD A3 02                		mov.W	4[r10], r3
 6504 0353 DD A2 01                		mov.W	2[r10], r2
 6505 0356 ED A1 05                		mov.L	20[r10], r1
 6506 0359 05 00 00 00             		bsr	_mw_gl_fg_pixel
 6507 035d 2E 0F                   		bra	.L376
 6508                             	.L375:
1962:C:/Users/John/Desktop/workspace/miniwinwm/MiniWin/gl\gl.c **** 					}
1963:C:/Users/John/Desktop/workspace/miniwinwm/MiniWin/gl\gl.c **** 					else
1964:C:/Users/John/Desktop/workspace/miniwinwm/MiniWin/gl\gl.c **** 					{
1965:C:/Users/John/Desktop/workspace/miniwinwm/MiniWin/gl\gl.c **** 						mw_gl_bg_pixel(draw_info, x, y);
 6509                             		.loc 1 1965 7
 6510 035f DD A3 02                		mov.W	4[r10], r3
 6511 0362 DD A2 01                		mov.W	2[r10], r2
 6512 0365 ED A1 05                		mov.L	20[r10], r1
 6513 0368 05 00 00 00             		bsr	_mw_gl_bg_pixel
 6514                             	.L376:
1966:C:/Users/John/Desktop/workspace/miniwinwm/MiniWin/gl\gl.c **** 					}
1967:C:/Users/John/Desktop/workspace/miniwinwm/MiniWin/gl\gl.c **** 					mask >>= 1U;
 6515                             		.loc 1 1967 11
 6516 036c 5D A5 03                		movu.W	6[r10], r5
 6517 036f 68 15                   		shlr	#1, r5
 6518 0371 D7 A5 03                		mov.W	r5, 6[r10]
1968:C:/Users/John/Desktop/workspace/miniwinwm/MiniWin/gl\gl.c **** 					if (mask == 0U)
 6519                             		.loc 1 1968 9
 6520 0374 5D A5 03                		movu.W	6[r10], r5
 6521 0377 61 05                   		cmp	#0, r5
 6522 0379 1E                      		bne	.L374
1969:C:/Users/John/Desktop/workspace/miniwinwm/MiniWin/gl\gl.c **** 					{
1970:C:/Users/John/Desktop/workspace/miniwinwm/MiniWin/gl\gl.c **** 						mask = 0x8000U;
 6523                             		.loc 1 1970 12
 6524 037a F9 A9 03 00 80          		mov.W	#-32768, 6[r10]
 6525                             	.L374:
1971:C:/Users/John/Desktop/workspace/miniwinwm/MiniWin/gl\gl.c **** 					}
1972:C:/Users/John/Desktop/workspace/miniwinwm/MiniWin/gl\gl.c **** 				}
1973:C:/Users/John/Desktop/workspace/miniwinwm/MiniWin/gl\gl.c **** 				if (F <= 0)
 6526                             		.loc 1 1973 8
 6527 037f DC A5                   		mov.W	[r10], r5
 6528 0381 61 05                   		cmp	#0, r5
 6529 0383 2A 0D                   		bgt	.L377
1974:C:/Users/John/Desktop/workspace/miniwinwm/MiniWin/gl\gl.c **** 				{
1975:C:/Users/John/Desktop/workspace/miniwinwm/MiniWin/gl\gl.c **** 					F += dx2;
 6530                             		.loc 1 1975 8
 6531 0385 DC A4                   		mov.W	[r10], r4
 6532 0387 DD A5 07                		mov.W	14[r10], r5
 6533 038a 4B 45                   		add	r4, r5
 6534 038c D3 A5                   		mov.W	r5, [r10]
 6535 038e 2E 13                   		bra	.L378
 6536                             	.L377:
1976:C:/Users/John/Desktop/workspace/miniwinwm/MiniWin/gl\gl.c **** 				}
1977:C:/Users/John/Desktop/workspace/miniwinwm/MiniWin/gl\gl.c **** 				else
1978:C:/Users/John/Desktop/workspace/miniwinwm/MiniWin/gl\gl.c **** 				{
1979:C:/Users/John/Desktop/workspace/miniwinwm/MiniWin/gl\gl.c **** 					x++;
 6537                             		.loc 1 1979 7
 6538 0390 DD A5 01                		mov.W	2[r10], r5
 6539 0393 62 15                   		add	#1, r5
 6540 0395 D7 A5 01                		mov.W	r5, 2[r10]
1980:C:/Users/John/Desktop/workspace/miniwinwm/MiniWin/gl\gl.c **** 					F += dy2_plus_dx2;
 6541                             		.loc 1 1980 8
 6542 0398 DC A4                   		mov.W	[r10], r4
 6543 039a DD A5 09                		mov.W	18[r10], r5
 6544 039d 4B 45                   		add	r4, r5
 6545 039f D3 A5                   		mov.W	r5, [r10]
 6546                             	.L378:
1981:C:/Users/John/Desktop/workspace/miniwinwm/MiniWin/gl\gl.c **** 				}
1982:C:/Users/John/Desktop/workspace/miniwinwm/MiniWin/gl\gl.c **** 				y--;
 6547                             		.loc 1 1982 6
 6548 03a1 DD A5 02                		mov.W	4[r10], r5
 6549 03a4 60 15                   		sub	#1, r5
 6550 03a6 D7 A5 02                		mov.W	r5, 4[r10]
 6551                             	.L372:
1951:C:/Users/John/Desktop/workspace/miniwinwm/MiniWin/gl\gl.c **** 			{
 6552                             		.loc 1 1951 10
 6553 03a9 DD A4 02                		mov.W	4[r10], r4
 6554 03ac DC 65                   		mov.W	[r6], r5
 6555 03ae 47 54                   		cmp	r5, r4
 6556 03b0 29 05 38 6A FF          		bge	.L379
 6557 03b5 2E 03                   		bra	.L340
 6558                             	.L380:
1803:C:/Users/John/Desktop/workspace/miniwinwm/MiniWin/gl\gl.c **** 	}
 6559                             		.loc 1 1803 3
 6560 03b7 03                      		nop
 6561                             		.balign 8,3,2
 6562                             	.L340:
1983:C:/Users/John/Desktop/workspace/miniwinwm/MiniWin/gl\gl.c **** 			}
1984:C:/Users/John/Desktop/workspace/miniwinwm/MiniWin/gl\gl.c **** 		}
1985:C:/Users/John/Desktop/workspace/miniwinwm/MiniWin/gl\gl.c **** 	}
1986:C:/Users/John/Desktop/workspace/miniwinwm/MiniWin/gl\gl.c **** }
 6563                             		.loc 1 1986 1
 6564 03b8 71 00 24                		add	#36, r0
 6565 03bb 7E B6                   		pop	r6
 6566 03bd 7E BA                   		pop	r10
 6567 03bf 02                      		rts
 6568                             	.LFE39:
 6570                             		.section	.text.mw_gl_rectangle,"ax",@progbits
 6571                             		.global	_mw_gl_rectangle
 6573                             	_mw_gl_rectangle:
 6574                             	.LFB40:
1987:C:/Users/John/Desktop/workspace/miniwinwm/MiniWin/gl\gl.c **** 
1988:C:/Users/John/Desktop/workspace/miniwinwm/MiniWin/gl\gl.c **** void mw_gl_rectangle(const mw_gl_draw_info_t *draw_info, int16_t x_start, int16_t y_start, int16_t 
1989:C:/Users/John/Desktop/workspace/miniwinwm/MiniWin/gl\gl.c **** {
 6575                             		.loc 1 1989 1
 6576 0000 7E AA                   		push.l	r10
 6577                             	.LCFI99:
 6578 0002 7E A6                   		push.l	r6
 6579                             	.LCFI100:
 6580 0004 71 0A EC                		add	#-20, r0, r10
 6581                             	.LCFI101:
 6582 0007 71 A0 F8                		add	#-8, r10, r0
 6583                             	.LCFI102:
 6584 000a 75 46 20                		mov.L	#32, r6
 6585 000d 4B A6                   		add	r10, r6
 6586 000f E7 A1 01                		mov.L	r1, 4[r10]
 6587 0012 D7 A2 04                		mov.W	r2, 8[r10]
 6588 0015 D7 A3 05                		mov.W	r3, 10[r10]
 6589 0018 D7 A4 06                		mov.W	r4, 12[r10]
1990:C:/Users/John/Desktop/workspace/miniwinwm/MiniWin/gl\gl.c **** 	int16_t x;
1991:C:/Users/John/Desktop/workspace/miniwinwm/MiniWin/gl\gl.c **** 	int16_t y;
1992:C:/Users/John/Desktop/workspace/miniwinwm/MiniWin/gl\gl.c **** 
1993:C:/Users/John/Desktop/workspace/miniwinwm/MiniWin/gl\gl.c **** 	if (draw_info == NULL)
 6590                             		.loc 1 1993 5
 6591 001b ED A5 01                		mov.L	4[r10], r5
 6592 001e 61 05                   		cmp	#0, r5
 6593 0020 21 1B                   		bne	.L382
1994:C:/Users/John/Desktop/workspace/miniwinwm/MiniWin/gl\gl.c **** 	{
1995:C:/Users/John/Desktop/workspace/miniwinwm/MiniWin/gl\gl.c **** 		MW_ASSERT((bool)false, "Null pointer argument");
 6594                             		.loc 1 1995 3
 6595 0022 FB 42 00 00 00 00       		mov.L	#.LC0, r4
 6596 0028 FB 3A CB 07             		mov.L	#0x7cb, r3
 6597 002c FB 22 00 00 00 00       		mov.L	#___func__.3457, r2
 6598 0032 66 01                   		mov	#0, r1
 6599 0034 05 00 00 00             		bsr	_mw_debug_print_assert
1996:C:/Users/John/Desktop/workspace/miniwinwm/MiniWin/gl\gl.c **** 		return;
 6600                             		.loc 1 1996 3
 6601 0038 38 10 02                		bra	.L381
 6602                             	.L382:
1997:C:/Users/John/Desktop/workspace/miniwinwm/MiniWin/gl\gl.c **** 	}
1998:C:/Users/John/Desktop/workspace/miniwinwm/MiniWin/gl\gl.c **** 
1999:C:/Users/John/Desktop/workspace/miniwinwm/MiniWin/gl\gl.c **** 	if (gc.fill == MW_GL_NO_FILL)
 6603                             		.loc 1 1999 8
 6604 003b FB 52 00 00 00 00       		mov.L	#_gc, r5
 6605 0041 AB 5D                   		mov.L	52[r5], r5
 6606                             		.loc 1 1999 5
 6607 0043 61 05                   		cmp	#0, r5
 6608 0045 21 78                   		bne	.L384
2000:C:/Users/John/Desktop/workspace/miniwinwm/MiniWin/gl\gl.c **** 	{
2001:C:/Users/John/Desktop/workspace/miniwinwm/MiniWin/gl\gl.c **** 		mw_gl_hline(draw_info, x_start, x_start + width - 1, y_start);
 6609                             		.loc 1 2001 43
 6610 0047 DD A4 04                		mov.W	8[r10], r4
 6611 004a DD A5 06                		mov.W	12[r10], r5
 6612 004d 4B 45                   		add	r4, r5
 6613                             		.loc 1 2001 51
 6614 004f 60 15                   		sub	#1, r5
 6615                             		.loc 1 2001 3
 6616 0051 DD A4 05                		mov.W	10[r10], r4
 6617 0054 DF 53                   		mov.W	r5, r3
 6618 0056 DD A2 04                		mov.W	8[r10], r2
 6619 0059 ED A1 01                		mov.L	4[r10], r1
 6620 005c 05 00 00 00             		bsr	_mw_gl_hline
2002:C:/Users/John/Desktop/workspace/miniwinwm/MiniWin/gl\gl.c **** 		mw_gl_hline(draw_info, x_start, x_start + width - 1, y_start + height - 1);
 6621                             		.loc 1 2002 43
 6622 0060 DD A4 04                		mov.W	8[r10], r4
 6623 0063 DD A5 06                		mov.W	12[r10], r5
 6624 0066 4B 45                   		add	r4, r5
 6625                             		.loc 1 2002 51
 6626 0068 60 15                   		sub	#1, r5
 6627                             		.loc 1 2002 3
 6628 006a DF 53                   		mov.W	r5, r3
 6629                             		.loc 1 2002 64
 6630 006c DD A4 05                		mov.W	10[r10], r4
 6631 006f DC 65                   		mov.W	[r6], r5
 6632 0071 4B 45                   		add	r4, r5
 6633                             		.loc 1 2002 73
 6634 0073 60 15                   		sub	#1, r5
 6635                             		.loc 1 2002 3
 6636 0075 DF 54                   		mov.W	r5, r4
 6637 0077 DD A2 04                		mov.W	8[r10], r2
 6638 007a ED A1 01                		mov.L	4[r10], r1
 6639 007d 05 00 00 00             		bsr	_mw_gl_hline
2003:C:/Users/John/Desktop/workspace/miniwinwm/MiniWin/gl\gl.c **** 		mw_gl_vline(draw_info, x_start, y_start, y_start + height - 1);
 6640                             		.loc 1 2003 52
 6641 0081 DD A4 05                		mov.W	10[r10], r4
 6642 0084 DC 65                   		mov.W	[r6], r5
 6643 0086 4B 45                   		add	r4, r5
 6644                             		.loc 1 2003 61
 6645 0088 60 15                   		sub	#1, r5
 6646                             		.loc 1 2003 3
 6647 008a DF 54                   		mov.W	r5, r4
 6648 008c DD A3 05                		mov.W	10[r10], r3
 6649 008f DD A2 04                		mov.W	8[r10], r2
 6650 0092 ED A1 01                		mov.L	4[r10], r1
 6651 0095 05 00 00 00             		bsr	_mw_gl_vline
2004:C:/Users/John/Desktop/workspace/miniwinwm/MiniWin/gl\gl.c **** 		mw_gl_vline(draw_info, x_start + width - 1, y_start, y_start + height - 1);
 6652                             		.loc 1 2004 34
 6653 0099 DD A4 04                		mov.W	8[r10], r4
 6654 009c DD A5 06                		mov.W	12[r10], r5
 6655 009f 4B 45                   		add	r4, r5
 6656                             		.loc 1 2004 42
 6657 00a1 60 15                   		sub	#1, r5
 6658                             		.loc 1 2004 3
 6659 00a3 DF 52                   		mov.W	r5, r2
 6660                             		.loc 1 2004 64
 6661 00a5 DD A4 05                		mov.W	10[r10], r4
 6662 00a8 DC 65                   		mov.W	[r6], r5
 6663 00aa 4B 45                   		add	r4, r5
 6664                             		.loc 1 2004 73
 6665 00ac 60 15                   		sub	#1, r5
 6666                             		.loc 1 2004 3
 6667 00ae DF 54                   		mov.W	r5, r4
 6668 00b0 DD A3 05                		mov.W	10[r10], r3
 6669 00b3 ED A1 01                		mov.L	4[r10], r1
 6670 00b6 05 00 00 00             		bsr	_mw_gl_vline
 6671 00ba 38 8E 01                		bra	.L381
 6672                             	.L384:
2005:C:/Users/John/Desktop/workspace/miniwinwm/MiniWin/gl\gl.c **** 	}
2006:C:/Users/John/Desktop/workspace/miniwinwm/MiniWin/gl\gl.c **** 	else
2007:C:/Users/John/Desktop/workspace/miniwinwm/MiniWin/gl\gl.c **** 	{
2008:C:/Users/John/Desktop/workspace/miniwinwm/MiniWin/gl\gl.c **** 		/* fill */
2009:C:/Users/John/Desktop/workspace/miniwinwm/MiniWin/gl\gl.c **** 		if (gc.border == MW_GL_BORDER_ON)
 6673                             		.loc 1 2009 9
 6674 00bd FB 52 00 00 00 00       		mov.L	#_gc, r5
 6675 00c3 AB 55                   		mov.L	48[r5], r5
 6676                             		.loc 1 2009 6
 6677 00c5 61 15                   		cmp	#1, r5
 6678 00c7 3B 09 01                		bne	.L385
2010:C:/Users/John/Desktop/workspace/miniwinwm/MiniWin/gl\gl.c **** 		{
2011:C:/Users/John/Desktop/workspace/miniwinwm/MiniWin/gl\gl.c **** 			/* border on */
2012:C:/Users/John/Desktop/workspace/miniwinwm/MiniWin/gl\gl.c **** 			mw_gl_hline(draw_info, x_start, x_start + width - 1, y_start);
 6679                             		.loc 1 2012 44
 6680 00ca DD A4 04                		mov.W	8[r10], r4
 6681 00cd DD A5 06                		mov.W	12[r10], r5
 6682 00d0 4B 45                   		add	r4, r5
 6683                             		.loc 1 2012 52
 6684 00d2 60 15                   		sub	#1, r5
 6685                             		.loc 1 2012 4
 6686 00d4 DD A4 05                		mov.W	10[r10], r4
 6687 00d7 DF 53                   		mov.W	r5, r3
 6688 00d9 DD A2 04                		mov.W	8[r10], r2
 6689 00dc ED A1 01                		mov.L	4[r10], r1
 6690 00df 05 00 00 00             		bsr	_mw_gl_hline
2013:C:/Users/John/Desktop/workspace/miniwinwm/MiniWin/gl\gl.c **** 			mw_gl_hline(draw_info, x_start, x_start + width - 1, y_start + height - 1);
 6691                             		.loc 1 2013 44
 6692 00e3 DD A4 04                		mov.W	8[r10], r4
 6693 00e6 DD A5 06                		mov.W	12[r10], r5
 6694 00e9 4B 45                   		add	r4, r5
 6695                             		.loc 1 2013 52
 6696 00eb 60 15                   		sub	#1, r5
 6697                             		.loc 1 2013 4
 6698 00ed DF 53                   		mov.W	r5, r3
 6699                             		.loc 1 2013 65
 6700 00ef DD A4 05                		mov.W	10[r10], r4
 6701 00f2 DC 65                   		mov.W	[r6], r5
 6702 00f4 4B 45                   		add	r4, r5
 6703                             		.loc 1 2013 74
 6704 00f6 60 15                   		sub	#1, r5
 6705                             		.loc 1 2013 4
 6706 00f8 DF 54                   		mov.W	r5, r4
 6707 00fa DD A2 04                		mov.W	8[r10], r2
 6708 00fd ED A1 01                		mov.L	4[r10], r1
 6709 0100 05 00 00 00             		bsr	_mw_gl_hline
2014:C:/Users/John/Desktop/workspace/miniwinwm/MiniWin/gl\gl.c **** 			mw_gl_vline(draw_info, x_start, y_start, y_start + height - 1);
 6710                             		.loc 1 2014 53
 6711 0104 DD A4 05                		mov.W	10[r10], r4
 6712 0107 DC 65                   		mov.W	[r6], r5
 6713 0109 4B 45                   		add	r4, r5
 6714                             		.loc 1 2014 62
 6715 010b 60 15                   		sub	#1, r5
 6716                             		.loc 1 2014 4
 6717 010d DF 54                   		mov.W	r5, r4
 6718 010f DD A3 05                		mov.W	10[r10], r3
 6719 0112 DD A2 04                		mov.W	8[r10], r2
 6720 0115 ED A1 01                		mov.L	4[r10], r1
 6721 0118 05 00 00 00             		bsr	_mw_gl_vline
2015:C:/Users/John/Desktop/workspace/miniwinwm/MiniWin/gl\gl.c **** 			mw_gl_vline(draw_info, x_start + width - 1, y_start, y_start + height - 1);
 6722                             		.loc 1 2015 35
 6723 011c DD A4 04                		mov.W	8[r10], r4
 6724 011f DD A5 06                		mov.W	12[r10], r5
 6725 0122 4B 45                   		add	r4, r5
 6726                             		.loc 1 2015 43
 6727 0124 60 15                   		sub	#1, r5
 6728                             		.loc 1 2015 4
 6729 0126 DF 52                   		mov.W	r5, r2
 6730                             		.loc 1 2015 65
 6731 0128 DD A4 05                		mov.W	10[r10], r4
 6732 012b DC 65                   		mov.W	[r6], r5
 6733 012d 4B 45                   		add	r4, r5
 6734                             		.loc 1 2015 74
 6735 012f 60 15                   		sub	#1, r5
 6736                             		.loc 1 2015 4
 6737 0131 DF 54                   		mov.W	r5, r4
 6738 0133 DD A3 05                		mov.W	10[r10], r3
 6739 0136 ED A1 01                		mov.L	4[r10], r1
 6740 0139 05 00 00 00             		bsr	_mw_gl_vline
2016:C:/Users/John/Desktop/workspace/miniwinwm/MiniWin/gl\gl.c **** 
2017:C:/Users/John/Desktop/workspace/miniwinwm/MiniWin/gl\gl.c **** 			if (!gc.pattern_set)
 6741                             		.loc 1 2017 11
 6742 013d FB 52 00 00 00 00       		mov.L	#_gc, r5
 6743 0143 CD 55 38                		mov.B	56[r5], r5
 6744                             		.loc 1 2017 8
 6745 0146 FD 74 D5 01             		xor	#1, r5
 6746                             		.loc 1 2017 7
 6747 014a 5B 55                   		movu.B	r5, r5
 6748 014c 61 05                   		cmp	#0, r5
 6749 014e 20 33                   		beq	.L386
2018:C:/Users/John/Desktop/workspace/miniwinwm/MiniWin/gl\gl.c **** 			{
2019:C:/Users/John/Desktop/workspace/miniwinwm/MiniWin/gl\gl.c **** 				/* no pattern */
2020:C:/Users/John/Desktop/workspace/miniwinwm/MiniWin/gl\gl.c **** 				filled_rectangle(draw_info, x_start + 1, y_start + 1, width - 2, height - 2, gc.solid_fill_colo
 6750                             		.loc 1 2020 41
 6751 0150 DD A5 04                		mov.W	8[r10], r5
 6752 0153 62 15                   		add	#1, r5
 6753                             		.loc 1 2020 5
 6754 0155 DF 52                   		mov.W	r5, r2
 6755                             		.loc 1 2020 54
 6756 0157 DD A5 05                		mov.W	10[r10], r5
 6757 015a 62 15                   		add	#1, r5
 6758                             		.loc 1 2020 5
 6759 015c DF 53                   		mov.W	r5, r3
 6760                             		.loc 1 2020 65
 6761 015e DD A5 06                		mov.W	12[r10], r5
 6762 0161 60 25                   		sub	#2, r5
 6763                             		.loc 1 2020 5
 6764 0163 DF 54                   		mov.W	r5, r4
 6765                             		.loc 1 2020 77
 6766 0165 DC 65                   		mov.W	[r6], r5
 6767 0167 60 25                   		sub	#2, r5
 6768                             		.loc 1 2020 5
 6769 0169 DF 51                   		mov.W	r5, r1
 6770 016b FB 52 00 00 00 00       		mov.L	#_gc, r5
 6771 0171 A8 D5                   		mov.L	8[r5], r5
 6772 0173 A0 0D                   		mov.L	r5, 4[r0]
 6773 0175 D3 01                   		mov.W	r1, [r0]
 6774 0177 ED A1 01                		mov.L	4[r10], r1
 6775 017a 05 00 00 00             		bsr	_filled_rectangle
 6776 017e 38 CA 00                		bra	.L381
 6777                             	.L386:
2021:C:/Users/John/Desktop/workspace/miniwinwm/MiniWin/gl\gl.c **** 			}
2022:C:/Users/John/Desktop/workspace/miniwinwm/MiniWin/gl\gl.c **** 			else
2023:C:/Users/John/Desktop/workspace/miniwinwm/MiniWin/gl\gl.c **** 			{
2024:C:/Users/John/Desktop/workspace/miniwinwm/MiniWin/gl\gl.c **** 				/* pattern */
2025:C:/Users/John/Desktop/workspace/miniwinwm/MiniWin/gl\gl.c **** 				for (x = x_start + 1; x < x_start + width - 1; x++)
 6778                             		.loc 1 2025 22
 6779 0181 DD A5 04                		mov.W	8[r10], r5
 6780 0184 62 15                   		add	#1, r5
 6781                             		.loc 1 2025 12
 6782 0186 D3 A5                   		mov.W	r5, [r10]
 6783                             		.loc 1 2025 5
 6784 0188 2E 36                   		bra	.L387
 6785                             	.L390:
2026:C:/Users/John/Desktop/workspace/miniwinwm/MiniWin/gl\gl.c **** 				{
2027:C:/Users/John/Desktop/workspace/miniwinwm/MiniWin/gl\gl.c **** 					for (y = y_start + 1; y < y_start + height - 1; y++)
 6786                             		.loc 1 2027 23
 6787 018a DD A5 05                		mov.W	10[r10], r5
 6788 018d 62 15                   		add	#1, r5
 6789                             		.loc 1 2027 13
 6790 018f D7 A5 01                		mov.W	r5, 2[r10]
 6791                             		.loc 1 2027 6
 6792 0192 2E 16                   		bra	.L388
 6793                             	.L389:
2028:C:/Users/John/Desktop/workspace/miniwinwm/MiniWin/gl\gl.c **** 					{
2029:C:/Users/John/Desktop/workspace/miniwinwm/MiniWin/gl\gl.c **** 						mw_gl_solid_fill_pixel(draw_info, x, y);
 6794                             		.loc 1 2029 7 discriminator 3
 6795 0194 DD A3 01                		mov.W	2[r10], r3
 6796 0197 DC A2                   		mov.W	[r10], r2
 6797 0199 ED A1 01                		mov.L	4[r10], r1
 6798 019c 05 00 00 00             		bsr	_mw_gl_solid_fill_pixel
2027:C:/Users/John/Desktop/workspace/miniwinwm/MiniWin/gl\gl.c **** 					{
 6799                             		.loc 1 2027 55 discriminator 3
 6800 01a0 DD A5 01                		mov.W	2[r10], r5
 6801 01a3 62 15                   		add	#1, r5
 6802 01a5 D7 A5 01                		mov.W	r5, 2[r10]
 6803                             	.L388:
2027:C:/Users/John/Desktop/workspace/miniwinwm/MiniWin/gl\gl.c **** 					{
 6804                             		.loc 1 2027 30 discriminator 1
 6805 01a8 DD A4 01                		mov.W	2[r10], r4
2027:C:/Users/John/Desktop/workspace/miniwinwm/MiniWin/gl\gl.c **** 					{
 6806                             		.loc 1 2027 40 discriminator 1
 6807 01ab DD A3 05                		mov.W	10[r10], r3
 6808 01ae DC 65                   		mov.W	[r6], r5
 6809 01b0 4B 35                   		add	r3, r5
2027:C:/Users/John/Desktop/workspace/miniwinwm/MiniWin/gl\gl.c **** 					{
 6810                             		.loc 1 2027 49 discriminator 1
 6811 01b2 60 15                   		sub	#1, r5
2027:C:/Users/John/Desktop/workspace/miniwinwm/MiniWin/gl\gl.c **** 					{
 6812                             		.loc 1 2027 6 discriminator 1
 6813 01b4 47 54                   		cmp	r5, r4
 6814 01b6 29 DE                   		blt	.L389
2025:C:/Users/John/Desktop/workspace/miniwinwm/MiniWin/gl\gl.c **** 				{
 6815                             		.loc 1 2025 53 discriminator 2
 6816 01b8 DC A5                   		mov.W	[r10], r5
 6817 01ba 62 15                   		add	#1, r5
 6818 01bc D3 A5                   		mov.W	r5, [r10]
 6819                             	.L387:
2025:C:/Users/John/Desktop/workspace/miniwinwm/MiniWin/gl\gl.c **** 				{
 6820                             		.loc 1 2025 29 discriminator 1
 6821 01be DC A4                   		mov.W	[r10], r4
2025:C:/Users/John/Desktop/workspace/miniwinwm/MiniWin/gl\gl.c **** 				{
 6822                             		.loc 1 2025 39 discriminator 1
 6823 01c0 DD A3 04                		mov.W	8[r10], r3
 6824 01c3 DD A5 06                		mov.W	12[r10], r5
 6825 01c6 4B 35                   		add	r3, r5
2025:C:/Users/John/Desktop/workspace/miniwinwm/MiniWin/gl\gl.c **** 				{
 6826                             		.loc 1 2025 47 discriminator 1
 6827 01c8 60 15                   		sub	#1, r5
2025:C:/Users/John/Desktop/workspace/miniwinwm/MiniWin/gl\gl.c **** 				{
 6828                             		.loc 1 2025 5 discriminator 1
 6829 01ca 47 54                   		cmp	r5, r4
 6830 01cc 29 BE                   		blt	.L390
 6831 01ce 2E 7A                   		bra	.L381
 6832                             	.L385:
2030:C:/Users/John/Desktop/workspace/miniwinwm/MiniWin/gl\gl.c **** 					}
2031:C:/Users/John/Desktop/workspace/miniwinwm/MiniWin/gl\gl.c **** 				}
2032:C:/Users/John/Desktop/workspace/miniwinwm/MiniWin/gl\gl.c **** 			}
2033:C:/Users/John/Desktop/workspace/miniwinwm/MiniWin/gl\gl.c **** 		}
2034:C:/Users/John/Desktop/workspace/miniwinwm/MiniWin/gl\gl.c **** 		else
2035:C:/Users/John/Desktop/workspace/miniwinwm/MiniWin/gl\gl.c **** 		{
2036:C:/Users/John/Desktop/workspace/miniwinwm/MiniWin/gl\gl.c **** 			/* border off */
2037:C:/Users/John/Desktop/workspace/miniwinwm/MiniWin/gl\gl.c **** 			if (!gc.pattern_set)
 6833                             		.loc 1 2037 11
 6834 01d0 FB 52 00 00 00 00       		mov.L	#_gc, r5
 6835 01d6 CD 55 38                		mov.B	56[r5], r5
 6836                             		.loc 1 2037 8
 6837 01d9 FD 74 D5 01             		xor	#1, r5
 6838                             		.loc 1 2037 7
 6839 01dd 5B 55                   		movu.B	r5, r5
 6840 01df 61 05                   		cmp	#0, r5
 6841 01e1 20 22                   		beq	.L391
2038:C:/Users/John/Desktop/workspace/miniwinwm/MiniWin/gl\gl.c **** 			{
2039:C:/Users/John/Desktop/workspace/miniwinwm/MiniWin/gl\gl.c **** 				/* no pattern */
2040:C:/Users/John/Desktop/workspace/miniwinwm/MiniWin/gl\gl.c **** 				filled_rectangle(draw_info, x_start, y_start, width, height, gc.solid_fill_colour);
 6842                             		.loc 1 2040 5
 6843 01e3 FB 52 00 00 00 00       		mov.L	#_gc, r5
 6844 01e9 A8 D5                   		mov.L	8[r5], r5
 6845 01eb A0 0D                   		mov.L	r5, 4[r0]
 6846 01ed DC 65                   		mov.W	[r6], r5
 6847 01ef D3 05                   		mov.W	r5, [r0]
 6848 01f1 DD A4 06                		mov.W	12[r10], r4
 6849 01f4 DD A3 05                		mov.W	10[r10], r3
 6850 01f7 DD A2 04                		mov.W	8[r10], r2
 6851 01fa ED A1 01                		mov.L	4[r10], r1
 6852 01fd 05 00 00 00             		bsr	_filled_rectangle
 6853 0201 2E 47                   		bra	.L381
 6854                             	.L391:
2041:C:/Users/John/Desktop/workspace/miniwinwm/MiniWin/gl\gl.c **** 			}
2042:C:/Users/John/Desktop/workspace/miniwinwm/MiniWin/gl\gl.c **** 			else
2043:C:/Users/John/Desktop/workspace/miniwinwm/MiniWin/gl\gl.c **** 			{
2044:C:/Users/John/Desktop/workspace/miniwinwm/MiniWin/gl\gl.c **** 				/* pattern */
2045:C:/Users/John/Desktop/workspace/miniwinwm/MiniWin/gl\gl.c **** 				for (x = x_start; x < x_start + width; x++)
 6855                             		.loc 1 2045 12
 6856 0203 DD A5 04                		mov.W	8[r10], r5
 6857 0206 D3 A5                   		mov.W	r5, [r10]
 6858                             		.loc 1 2045 5
 6859 0208 2E 32                   		bra	.L392
 6860                             	.L395:
2046:C:/Users/John/Desktop/workspace/miniwinwm/MiniWin/gl\gl.c **** 				{
2047:C:/Users/John/Desktop/workspace/miniwinwm/MiniWin/gl\gl.c **** 					for (y = y_start; y < y_start + height; y++)
 6861                             		.loc 1 2047 13
 6862 020a DD A5 05                		mov.W	10[r10], r5
 6863 020d D7 A5 01                		mov.W	r5, 2[r10]
 6864                             		.loc 1 2047 6
 6865 0210 2E 16                   		bra	.L393
 6866                             	.L394:
2048:C:/Users/John/Desktop/workspace/miniwinwm/MiniWin/gl\gl.c **** 					{
2049:C:/Users/John/Desktop/workspace/miniwinwm/MiniWin/gl\gl.c **** 						mw_gl_solid_fill_pixel(draw_info, x, y);
 6867                             		.loc 1 2049 7 discriminator 3
 6868 0212 DD A3 01                		mov.W	2[r10], r3
 6869 0215 DC A2                   		mov.W	[r10], r2
 6870 0217 ED A1 01                		mov.L	4[r10], r1
 6871 021a 05 00 00 00             		bsr	_mw_gl_solid_fill_pixel
2047:C:/Users/John/Desktop/workspace/miniwinwm/MiniWin/gl\gl.c **** 					{
 6872                             		.loc 1 2047 47 discriminator 3
 6873 021e DD A5 01                		mov.W	2[r10], r5
 6874 0221 62 15                   		add	#1, r5
 6875 0223 D7 A5 01                		mov.W	r5, 2[r10]
 6876                             	.L393:
2047:C:/Users/John/Desktop/workspace/miniwinwm/MiniWin/gl\gl.c **** 					{
 6877                             		.loc 1 2047 26 discriminator 1
 6878 0226 DD A4 01                		mov.W	2[r10], r4
2047:C:/Users/John/Desktop/workspace/miniwinwm/MiniWin/gl\gl.c **** 					{
 6879                             		.loc 1 2047 36 discriminator 1
 6880 0229 DD A3 05                		mov.W	10[r10], r3
 6881 022c DC 65                   		mov.W	[r6], r5
 6882 022e 4B 35                   		add	r3, r5
2047:C:/Users/John/Desktop/workspace/miniwinwm/MiniWin/gl\gl.c **** 					{
 6883                             		.loc 1 2047 6 discriminator 1
 6884 0230 47 54                   		cmp	r5, r4
 6885 0232 29 E0                   		blt	.L394
2045:C:/Users/John/Desktop/workspace/miniwinwm/MiniWin/gl\gl.c **** 				{
 6886                             		.loc 1 2045 45 discriminator 2
 6887 0234 DC A5                   		mov.W	[r10], r5
 6888 0236 62 15                   		add	#1, r5
 6889 0238 D3 A5                   		mov.W	r5, [r10]
 6890                             	.L392:
2045:C:/Users/John/Desktop/workspace/miniwinwm/MiniWin/gl\gl.c **** 				{
 6891                             		.loc 1 2045 25 discriminator 1
 6892 023a DC A4                   		mov.W	[r10], r4
2045:C:/Users/John/Desktop/workspace/miniwinwm/MiniWin/gl\gl.c **** 				{
 6893                             		.loc 1 2045 35 discriminator 1
 6894 023c DD A3 04                		mov.W	8[r10], r3
 6895 023f DD A5 06                		mov.W	12[r10], r5
 6896 0242 4B 35                   		add	r3, r5
2045:C:/Users/John/Desktop/workspace/miniwinwm/MiniWin/gl\gl.c **** 				{
 6897                             		.loc 1 2045 5 discriminator 1
 6898 0244 47 54                   		cmp	r5, r4
 6899 0246 29 C4                   		blt	.L395
 6900                             		.balign 8,3,2
 6901                             	.L381:
2050:C:/Users/John/Desktop/workspace/miniwinwm/MiniWin/gl\gl.c **** 					}
2051:C:/Users/John/Desktop/workspace/miniwinwm/MiniWin/gl\gl.c **** 				}
2052:C:/Users/John/Desktop/workspace/miniwinwm/MiniWin/gl\gl.c **** 			}
2053:C:/Users/John/Desktop/workspace/miniwinwm/MiniWin/gl\gl.c **** 		}
2054:C:/Users/John/Desktop/workspace/miniwinwm/MiniWin/gl\gl.c **** 	}
2055:C:/Users/John/Desktop/workspace/miniwinwm/MiniWin/gl\gl.c **** }
 6902                             		.loc 1 2055 1
 6903 0248 71 00 1C                		add	#28, r0
 6904 024b 7E B6                   		pop	r6
 6905 024d 7E BA                   		pop	r10
 6906 024f 02                      		rts
 6907                             	.LFE40:
 6909                             		.section	.text.mw_gl_character,"ax",@progbits
 6910                             		.global	_mw_gl_character
 6912                             	_mw_gl_character:
 6913                             	.LFB41:
2056:C:/Users/John/Desktop/workspace/miniwinwm/MiniWin/gl\gl.c **** 
2057:C:/Users/John/Desktop/workspace/miniwinwm/MiniWin/gl\gl.c **** void mw_gl_character(const mw_gl_draw_info_t *draw_info, int16_t x, int16_t y, char c)
2058:C:/Users/John/Desktop/workspace/miniwinwm/MiniWin/gl\gl.c **** {
 6914                             		.loc 1 2058 1
 6915 0000 7E AA                   		push.l	r10
 6916                             	.LCFI103:
 6917 0002 71 0A F0                		add	#-16, r0, r10
 6918                             	.LCFI104:
 6919 0005 EF A0                   		mov.L	r10, r0
 6920 0007 E7 A1 01                		mov.L	r1, 4[r10]
 6921 000a D7 A2 04                		mov.W	r2, 8[r10]
 6922 000d D7 A3 05                		mov.W	r3, 10[r10]
 6923 0010 C7 A4 0C                		mov.B	r4, 12[r10]
2059:C:/Users/John/Desktop/workspace/miniwinwm/MiniWin/gl\gl.c **** 	char character_buffer[2];
2060:C:/Users/John/Desktop/workspace/miniwinwm/MiniWin/gl\gl.c **** 
2061:C:/Users/John/Desktop/workspace/miniwinwm/MiniWin/gl\gl.c **** 	if (draw_info == NULL)
 6924                             		.loc 1 2061 5
 6925 0013 ED A5 01                		mov.L	4[r10], r5
 6926 0016 61 05                   		cmp	#0, r5
 6927 0018 21 1B                   		bne	.L397
2062:C:/Users/John/Desktop/workspace/miniwinwm/MiniWin/gl\gl.c **** 	{
2063:C:/Users/John/Desktop/workspace/miniwinwm/MiniWin/gl\gl.c **** 		MW_ASSERT((bool)false, "Null pointer argument");
 6928                             		.loc 1 2063 3
 6929 001a FB 42 00 00 00 00       		mov.L	#.LC0, r4
 6930 0020 FB 3A 0F 08             		mov.L	#0x80f, r3
 6931 0024 FB 22 00 00 00 00       		mov.L	#___func__.3477, r2
 6932 002a 66 01                   		mov	#0, r1
 6933 002c 05 00 00 00             		bsr	_mw_debug_print_assert
2064:C:/Users/John/Desktop/workspace/miniwinwm/MiniWin/gl\gl.c **** 		return;
 6934                             		.loc 1 2064 3
 6935 0030 38 BC 00                		bra	.L396
 6936                             	.L397:
2065:C:/Users/John/Desktop/workspace/miniwinwm/MiniWin/gl\gl.c **** 	}
2066:C:/Users/John/Desktop/workspace/miniwinwm/MiniWin/gl\gl.c **** 
2067:C:/Users/John/Desktop/workspace/miniwinwm/MiniWin/gl\gl.c **** 	/* do not attempt to draw control characters */
2068:C:/Users/John/Desktop/workspace/miniwinwm/MiniWin/gl\gl.c **** 	if (c < ' ')
 6937                             		.loc 1 2068 5
 6938 0033 59 A5 0C                		movu.B	12[r10], r5
 6939 0036 75 55 1F                		cmp	#31, r5
 6940 0039 24 05 38 B0 00          		bleu	.L410
2069:C:/Users/John/Desktop/workspace/miniwinwm/MiniWin/gl\gl.c **** 	{
2070:C:/Users/John/Desktop/workspace/miniwinwm/MiniWin/gl\gl.c **** 		return;
2071:C:/Users/John/Desktop/workspace/miniwinwm/MiniWin/gl\gl.c **** 	}
2072:C:/Users/John/Desktop/workspace/miniwinwm/MiniWin/gl\gl.c **** 
2073:C:/Users/John/Desktop/workspace/miniwinwm/MiniWin/gl\gl.c **** 	/* replace other non-ascii characters with a '*' */
2074:C:/Users/John/Desktop/workspace/miniwinwm/MiniWin/gl\gl.c **** 	if ((unsigned char)c > (unsigned char)'~')
 6941                             		.loc 1 2074 5
 6942 003e 59 A5 0C                		movu.B	12[r10], r5
 6943 0041 75 55 7E                		cmp	#0x7e, r5
 6944 0044 25 06                   		bleu	.L400
2075:C:/Users/John/Desktop/workspace/miniwinwm/MiniWin/gl\gl.c **** 	{
2076:C:/Users/John/Desktop/workspace/miniwinwm/MiniWin/gl\gl.c **** 		c = '*';
 6945                             		.loc 1 2076 5
 6946 0046 F9 A4 0C 2A             		mov.B	#42, 12[r10]
 6947                             	.L400:
2077:C:/Users/John/Desktop/workspace/miniwinwm/MiniWin/gl\gl.c **** 	}
2078:C:/Users/John/Desktop/workspace/miniwinwm/MiniWin/gl\gl.c **** 
2079:C:/Users/John/Desktop/workspace/miniwinwm/MiniWin/gl\gl.c **** 	/* check for proportional title font as handled differently */
2080:C:/Users/John/Desktop/workspace/miniwinwm/MiniWin/gl\gl.c **** 	if (gc.font == MW_GL_TITLE_FONT)
 6948                             		.loc 1 2080 8
 6949 004a FB 52 00 00 00 00       		mov.L	#_gc, r5
 6950 0050 AC 55                   		mov.L	64[r5], r5
 6951                             		.loc 1 2080 5
 6952 0052 61 55                   		cmp	#5, r5
 6953 0054 21 1C                   		bne	.L401
2081:C:/Users/John/Desktop/workspace/miniwinwm/MiniWin/gl\gl.c **** 	{
2082:C:/Users/John/Desktop/workspace/miniwinwm/MiniWin/gl\gl.c **** 		character_buffer[0] = c;
 6954                             		.loc 1 2082 23
 6955 0056 CD A5 0C                		mov.B	12[r10], r5
 6956 0059 C3 A5                   		mov.B	r5, [r10]
2083:C:/Users/John/Desktop/workspace/miniwinwm/MiniWin/gl\gl.c **** 		character_buffer[1] = '\0';
 6957                             		.loc 1 2083 23
 6958 005b F9 A4 01 00             		mov.B	#0, 1[r10]
2084:C:/Users/John/Desktop/workspace/miniwinwm/MiniWin/gl\gl.c **** 		title_font_string(draw_info, x, y, character_buffer);
 6959                             		.loc 1 2084 3
 6960 005f EF A4                   		mov.L	r10, r4
 6961 0061 DD A3 05                		mov.W	10[r10], r3
 6962 0064 DD A2 04                		mov.W	8[r10], r2
 6963 0067 ED A1 01                		mov.L	4[r10], r1
 6964 006a 05 00 00 00             		bsr	_title_font_string
2085:C:/Users/John/Desktop/workspace/miniwinwm/MiniWin/gl\gl.c **** 		return;
 6965                             		.loc 1 2085 3
 6966 006e 2E 7E                   		bra	.L396
 6967                             	.L401:
2086:C:/Users/John/Desktop/workspace/miniwinwm/MiniWin/gl\gl.c **** 	}
2087:C:/Users/John/Desktop/workspace/miniwinwm/MiniWin/gl\gl.c **** 
2088:C:/Users/John/Desktop/workspace/miniwinwm/MiniWin/gl\gl.c **** 	switch(gc.text_rotation)
 6968                             		.loc 1 2088 11
 6969 0070 FB 52 00 00 00 00       		mov.L	#_gc, r5
 6970 0076 AC 5D                   		mov.L	68[r5], r5
 6971                             		.loc 1 2088 2
 6972 0078 61 15                   		cmp	#1, r5
 6973 007a 20 22                   		beq	.L402
 6974 007c 61 05                   		cmp	#0, r5
 6975 007e 20 0C                   		beq	.L403
 6976 0080 61 25                   		cmp	#2, r5
 6977 0082 20 2C                   		beq	.L404
 6978 0084 61 35                   		cmp	#3, r5
 6979 0086 20 3A                   		beq	.L405
 6980 0088 2E 4A                   		bra	.L409
 6981                             	.L403:
2089:C:/Users/John/Desktop/workspace/miniwinwm/MiniWin/gl\gl.c **** 	{
2090:C:/Users/John/Desktop/workspace/miniwinwm/MiniWin/gl\gl.c **** 	case MW_GL_TEXT_ROTATION_0:
2091:C:/Users/John/Desktop/workspace/miniwinwm/MiniWin/gl\gl.c **** 		draw_character_0_degrees(draw_info, x, y, c);
 6982                             		.loc 1 2091 3
 6983 008a CD A4 0C                		mov.B	12[r10], r4
 6984 008d DD A3 05                		mov.W	10[r10], r3
 6985 0090 DD A2 04                		mov.W	8[r10], r2
 6986 0093 ED A1 01                		mov.L	4[r10], r1
 6987 0096 05 00 00 00             		bsr	_draw_character_0_degrees
2092:C:/Users/John/Desktop/workspace/miniwinwm/MiniWin/gl\gl.c **** 		break;
 6988                             		.loc 1 2092 3
 6989 009a 2E 52                   		bra	.L396
 6990                             	.L402:
2093:C:/Users/John/Desktop/workspace/miniwinwm/MiniWin/gl\gl.c **** 
2094:C:/Users/John/Desktop/workspace/miniwinwm/MiniWin/gl\gl.c **** 	case MW_GL_TEXT_ROTATION_90:
2095:C:/Users/John/Desktop/workspace/miniwinwm/MiniWin/gl\gl.c **** 		draw_character_90_degrees(draw_info, x, y, c);
 6991                             		.loc 1 2095 3
 6992 009c CD A4 0C                		mov.B	12[r10], r4
 6993 009f DD A3 05                		mov.W	10[r10], r3
 6994 00a2 DD A2 04                		mov.W	8[r10], r2
 6995 00a5 ED A1 01                		mov.L	4[r10], r1
 6996 00a8 05 00 00 00             		bsr	_draw_character_90_degrees
2096:C:/Users/John/Desktop/workspace/miniwinwm/MiniWin/gl\gl.c **** 		break;
 6997                             		.loc 1 2096 3
 6998 00ac 2E 40                   		bra	.L396
 6999                             	.L404:
2097:C:/Users/John/Desktop/workspace/miniwinwm/MiniWin/gl\gl.c **** 
2098:C:/Users/John/Desktop/workspace/miniwinwm/MiniWin/gl\gl.c **** 	case MW_GL_TEXT_ROTATION_180:
2099:C:/Users/John/Desktop/workspace/miniwinwm/MiniWin/gl\gl.c **** 		draw_character_180_degrees(draw_info, x, y, c);
 7000                             		.loc 1 2099 3
 7001 00ae CD A4 0C                		mov.B	12[r10], r4
 7002 00b1 DD A3 05                		mov.W	10[r10], r3
 7003 00b4 DD A2 04                		mov.W	8[r10], r2
 7004 00b7 ED A1 01                		mov.L	4[r10], r1
 7005 00ba 05 00 00 00             		bsr	_draw_character_180_degrees
2100:C:/Users/John/Desktop/workspace/miniwinwm/MiniWin/gl\gl.c **** 		break;
 7006                             		.loc 1 2100 3
 7007 00be 2E 2E                   		bra	.L396
 7008                             	.L405:
2101:C:/Users/John/Desktop/workspace/miniwinwm/MiniWin/gl\gl.c **** 
2102:C:/Users/John/Desktop/workspace/miniwinwm/MiniWin/gl\gl.c **** 	case MW_GL_TEXT_ROTATION_270:
2103:C:/Users/John/Desktop/workspace/miniwinwm/MiniWin/gl\gl.c **** 		draw_character_270_degrees(draw_info, x, y, c);
 7009                             		.loc 1 2103 3
 7010 00c0 CD A4 0C                		mov.B	12[r10], r4
 7011 00c3 DD A3 05                		mov.W	10[r10], r3
 7012 00c6 DD A2 04                		mov.W	8[r10], r2
 7013 00c9 ED A1 01                		mov.L	4[r10], r1
 7014 00cc 05 00 00 00             		bsr	_draw_character_270_degrees
2104:C:/Users/John/Desktop/workspace/miniwinwm/MiniWin/gl\gl.c **** 		break;
 7015                             		.loc 1 2104 3
 7016 00d0 2E 1C                   		bra	.L396
 7017                             	.L409:
2105:C:/Users/John/Desktop/workspace/miniwinwm/MiniWin/gl\gl.c **** 
2106:C:/Users/John/Desktop/workspace/miniwinwm/MiniWin/gl\gl.c **** 	default:
2107:C:/Users/John/Desktop/workspace/miniwinwm/MiniWin/gl\gl.c **** 		MW_ASSERT((bool)false, "Unknown text rotation");
 7018                             		.loc 1 2107 3
 7019 00d2 FB 42 5C 00 00 00       		mov.L	#.LC3, r4
 7020 00d8 FB 3A 3B 08             		mov.L	#0x83b, r3
 7021 00dc FB 22 00 00 00 00       		mov.L	#___func__.3477, r2
 7022 00e2 66 01                   		mov	#0, r1
 7023 00e4 05 00 00 00             		bsr	_mw_debug_print_assert
2108:C:/Users/John/Desktop/workspace/miniwinwm/MiniWin/gl\gl.c **** 		break;
 7024                             		.loc 1 2108 3
 7025 00e8 03                      		nop
 7026 00e9 2E 03                   		bra	.L396
 7027                             	.L410:
2070:C:/Users/John/Desktop/workspace/miniwinwm/MiniWin/gl\gl.c **** 	}
 7028                             		.loc 1 2070 3
 7029 00eb 03                      		nop
 7030                             		.balign 8,3,2
 7031                             	.L396:
2109:C:/Users/John/Desktop/workspace/miniwinwm/MiniWin/gl\gl.c **** 	}
2110:C:/Users/John/Desktop/workspace/miniwinwm/MiniWin/gl\gl.c **** }
 7032                             		.loc 1 2110 1
 7033 00ec 3F AA 05                		rtsd	#20, r10-r10
 7034                             	.LFE41:
 7036 00ef 03                      		.section	.text.mw_gl_string,"ax",@progbits
 7037                             		.global	_mw_gl_string
 7039                             	_mw_gl_string:
 7040                             	.LFB42:
2111:C:/Users/John/Desktop/workspace/miniwinwm/MiniWin/gl\gl.c **** 
2112:C:/Users/John/Desktop/workspace/miniwinwm/MiniWin/gl\gl.c **** void mw_gl_string(const mw_gl_draw_info_t *draw_info, int16_t x, int16_t y, const char *s)
2113:C:/Users/John/Desktop/workspace/miniwinwm/MiniWin/gl\gl.c **** {
 7041                             		.loc 1 2113 1
 7042 0000 6E 6B                   		pushm	r6-r11
 7043                             	.LCFI105:
 7044 0002 71 0A EC                		add	#-20, r0, r10
 7045                             	.LCFI106:
 7046 0005 EF A0                   		mov.L	r10, r0
 7047 0007 E7 A1 02                		mov.L	r1, 8[r10]
 7048 000a D7 A2 06                		mov.W	r2, 12[r10]
 7049 000d D7 A3 07                		mov.W	r3, 14[r10]
 7050 0010 E7 A4 04                		mov.L	r4, 16[r10]
2114:C:/Users/John/Desktop/workspace/miniwinwm/MiniWin/gl\gl.c **** 	size_t c;
2115:C:/Users/John/Desktop/workspace/miniwinwm/MiniWin/gl\gl.c **** 	size_t length;
2116:C:/Users/John/Desktop/workspace/miniwinwm/MiniWin/gl\gl.c **** 
2117:C:/Users/John/Desktop/workspace/miniwinwm/MiniWin/gl\gl.c **** 	if (draw_info == NULL || s == NULL)
 7051                             		.loc 1 2117 5
 7052 0013 ED A5 02                		mov.L	8[r10], r5
 7053 0016 61 05                   		cmp	#0, r5
 7054 0018 10                      		beq	.L412
 7055                             		.loc 1 2117 24 discriminator 1
 7056 0019 ED A5 04                		mov.L	16[r10], r5
 7057 001c 61 05                   		cmp	#0, r5
 7058 001e 21 1B                   		bne	.L413
 7059                             	.L412:
2118:C:/Users/John/Desktop/workspace/miniwinwm/MiniWin/gl\gl.c **** 	{
2119:C:/Users/John/Desktop/workspace/miniwinwm/MiniWin/gl\gl.c **** 		MW_ASSERT((bool)false, "Null pointer argument");
 7060                             		.loc 1 2119 3
 7061 0020 FB 42 00 00 00 00       		mov.L	#.LC0, r4
 7062 0026 FB 3A 47 08             		mov.L	#0x847, r3
 7063 002a FB 22 00 00 00 00       		mov.L	#___func__.3492, r2
 7064 0030 66 01                   		mov	#0, r1
 7065 0032 05 00 00 00             		bsr	_mw_debug_print_assert
2120:C:/Users/John/Desktop/workspace/miniwinwm/MiniWin/gl\gl.c **** 		return;
 7066                             		.loc 1 2120 3
 7067 0036 38 32 01                		bra	.L411
 7068                             	.L413:
2121:C:/Users/John/Desktop/workspace/miniwinwm/MiniWin/gl\gl.c **** 	}
2122:C:/Users/John/Desktop/workspace/miniwinwm/MiniWin/gl\gl.c **** 
2123:C:/Users/John/Desktop/workspace/miniwinwm/MiniWin/gl\gl.c **** 	/* check for title font as that's done elsewhere */
2124:C:/Users/John/Desktop/workspace/miniwinwm/MiniWin/gl\gl.c **** 	if (gc.font == MW_GL_TITLE_FONT)
 7069                             		.loc 1 2124 8
 7070 0039 FB 52 00 00 00 00       		mov.L	#_gc, r5
 7071 003f AC 55                   		mov.L	64[r5], r5
 7072                             		.loc 1 2124 5
 7073 0041 61 55                   		cmp	#5, r5
 7074 0043 21 15                   		bne	.L415
2125:C:/Users/John/Desktop/workspace/miniwinwm/MiniWin/gl\gl.c **** 	{
2126:C:/Users/John/Desktop/workspace/miniwinwm/MiniWin/gl\gl.c **** 		title_font_string(draw_info, x, y, s);
 7075                             		.loc 1 2126 3
 7076 0045 ED A4 04                		mov.L	16[r10], r4
 7077 0048 DD A3 07                		mov.W	14[r10], r3
 7078 004b DD A2 06                		mov.W	12[r10], r2
 7079 004e ED A1 02                		mov.L	8[r10], r1
 7080 0051 05 00 00 00             		bsr	_title_font_string
2127:C:/Users/John/Desktop/workspace/miniwinwm/MiniWin/gl\gl.c **** 		return;
 7081                             		.loc 1 2127 3
 7082 0055 38 13 01                		bra	.L411
 7083                             	.L415:
2128:C:/Users/John/Desktop/workspace/miniwinwm/MiniWin/gl\gl.c **** 	}
2129:C:/Users/John/Desktop/workspace/miniwinwm/MiniWin/gl\gl.c **** 
2130:C:/Users/John/Desktop/workspace/miniwinwm/MiniWin/gl\gl.c **** 	length = strlen(s);
 7084                             		.loc 1 2130 11
 7085 0058 ED A1 04                		mov.L	16[r10], r1
 7086 005b 05 00 00 00             		bsr	_strlen
 7087 005f E7 A1 01                		mov.L	r1, 4[r10]
2131:C:/Users/John/Desktop/workspace/miniwinwm/MiniWin/gl\gl.c **** 	for (c = (size_t)0; c < length; c++)
 7088                             		.loc 1 2131 9
 7089 0062 F8 A6 00                		mov.L	#0, [r10]
 7090                             		.loc 1 2131 2
 7091 0065 38 F7 00                		bra	.L416
 7092                             	.L423:
2132:C:/Users/John/Desktop/workspace/miniwinwm/MiniWin/gl\gl.c **** 	{
2133:C:/Users/John/Desktop/workspace/miniwinwm/MiniWin/gl\gl.c **** 		switch (gc.text_rotation)
 7093                             		.loc 1 2133 13
 7094 0068 FB 52 00 00 00 00       		mov.L	#_gc, r5
 7095 006e AC 5D                   		mov.L	68[r5], r5
 7096                             		.loc 1 2133 3
 7097 0070 61 15                   		cmp	#1, r5
 7098 0072 20 42                   		beq	.L417
 7099 0074 61 05                   		cmp	#0, r5
 7100 0076 20 0E                   		beq	.L418
 7101 0078 61 25                   		cmp	#2, r5
 7102 007a 20 69                   		beq	.L419
 7103 007c 61 35                   		cmp	#3, r5
 7104 007e 3A 93 00                		beq	.L420
 7105 0081 38 BE 00                		bra	.L424
 7106                             	.L418:
2134:C:/Users/John/Desktop/workspace/miniwinwm/MiniWin/gl\gl.c **** 		{
2135:C:/Users/John/Desktop/workspace/miniwinwm/MiniWin/gl\gl.c **** 		case MW_GL_TEXT_ROTATION_0:
2136:C:/Users/John/Desktop/workspace/miniwinwm/MiniWin/gl\gl.c **** 			mw_gl_character(draw_info, x + (int16_t)c * (mw_gl_get_font_width() + 1), y, s[c]);
 7107                             		.loc 1 2136 33
 7108 0084 EC A5                   		mov.L	[r10], r5
 7109 0086 DF 56                   		mov.W	r5, r6
 7110                             		.loc 1 2136 49
 7111 0088 05 00 00 00             		bsr	_mw_gl_get_font_width
 7112 008c EF 15                   		mov.L	r1, r5
 7113 008e DF 55                   		mov.W	r5, r5
 7114                             		.loc 1 2136 72
 7115 0090 62 15                   		add	#1, r5
 7116                             		.loc 1 2136 33
 7117 0092 4F 65                   		mul	r6, r5
 7118 0094 DF 54                   		mov.W	r5, r4
 7119 0096 DD A5 06                		mov.W	12[r10], r5
 7120 0099 4B 45                   		add	r4, r5
 7121                             		.loc 1 2136 4
 7122 009b DF 52                   		mov.W	r5, r2
 7123                             		.loc 1 2136 82
 7124 009d ED A5 04                		mov.L	16[r10], r5
 7125 00a0 06 88 A5                		add	[r10].L, r5
 7126                             		.loc 1 2136 4
 7127 00a3 CC 55                   		mov.B	[r5], r5
 7128 00a5 CF 54                   		mov.B	r5, r4
 7129 00a7 DD A3 07                		mov.W	14[r10], r3
 7130 00aa ED A1 02                		mov.L	8[r10], r1
 7131 00ad 05 00 00 00             		bsr	_mw_gl_character
2137:C:/Users/John/Desktop/workspace/miniwinwm/MiniWin/gl\gl.c **** 			break;
 7132                             		.loc 1 2137 4
 7133 00b1 38 A5 00                		bra	.L422
 7134                             	.L417:
2138:C:/Users/John/Desktop/workspace/miniwinwm/MiniWin/gl\gl.c **** 
2139:C:/Users/John/Desktop/workspace/miniwinwm/MiniWin/gl\gl.c **** 		case MW_GL_TEXT_ROTATION_90:
2140:C:/Users/John/Desktop/workspace/miniwinwm/MiniWin/gl\gl.c **** 			mw_gl_character(draw_info, x, y + (int16_t)c * (mw_gl_get_font_width() + 1), s[c]);
 7135                             		.loc 1 2140 36
 7136 00b4 EC A5                   		mov.L	[r10], r5
 7137 00b6 DF 56                   		mov.W	r5, r6
 7138                             		.loc 1 2140 52
 7139 00b8 05 00 00 00             		bsr	_mw_gl_get_font_width
 7140 00bc EF 15                   		mov.L	r1, r5
 7141 00be DF 55                   		mov.W	r5, r5
 7142                             		.loc 1 2140 75
 7143 00c0 62 15                   		add	#1, r5
 7144                             		.loc 1 2140 36
 7145 00c2 4F 65                   		mul	r6, r5
 7146 00c4 DF 54                   		mov.W	r5, r4
 7147 00c6 DD A5 07                		mov.W	14[r10], r5
 7148 00c9 4B 45                   		add	r4, r5
 7149                             		.loc 1 2140 4
 7150 00cb DF 53                   		mov.W	r5, r3
 7151                             		.loc 1 2140 82
 7152 00cd ED A5 04                		mov.L	16[r10], r5
 7153 00d0 06 88 A5                		add	[r10].L, r5
 7154                             		.loc 1 2140 4
 7155 00d3 CC 55                   		mov.B	[r5], r5
 7156 00d5 CF 54                   		mov.B	r5, r4
 7157 00d7 DD A2 06                		mov.W	12[r10], r2
 7158 00da ED A1 02                		mov.L	8[r10], r1
 7159 00dd 05 00 00 00             		bsr	_mw_gl_character
2141:C:/Users/John/Desktop/workspace/miniwinwm/MiniWin/gl\gl.c **** 			break;
 7160                             		.loc 1 2141 4
 7161 00e1 2E 75                   		bra	.L422
 7162                             	.L419:
2142:C:/Users/John/Desktop/workspace/miniwinwm/MiniWin/gl\gl.c **** 
2143:C:/Users/John/Desktop/workspace/miniwinwm/MiniWin/gl\gl.c **** 		case MW_GL_TEXT_ROTATION_180:
2144:C:/Users/John/Desktop/workspace/miniwinwm/MiniWin/gl\gl.c **** 			mw_gl_character(draw_info, x - (int16_t)c * (mw_gl_get_font_width() + 1), y, s[c]);
 7163                             		.loc 1 2144 33
 7164 00e3 DD A6 06                		mov.W	12[r10], r6
 7165 00e6 EC A5                   		mov.L	[r10], r5
 7166 00e8 DF 5B                   		mov.W	r5, r11
 7167                             		.loc 1 2144 49
 7168 00ea 05 00 00 00             		bsr	_mw_gl_get_font_width
 7169 00ee EF 15                   		mov.L	r1, r5
 7170 00f0 DF 55                   		mov.W	r5, r5
 7171                             		.loc 1 2144 72
 7172 00f2 62 15                   		add	#1, r5
 7173                             		.loc 1 2144 33
 7174 00f4 4F B5                   		mul	r11, r5
 7175 00f6 FF 05 56                		sub	r5, r6, r5
 7176                             		.loc 1 2144 4
 7177 00f9 DF 52                   		mov.W	r5, r2
 7178                             		.loc 1 2144 82
 7179 00fb ED A5 04                		mov.L	16[r10], r5
 7180 00fe 06 88 A5                		add	[r10].L, r5
 7181                             		.loc 1 2144 4
 7182 0101 CC 55                   		mov.B	[r5], r5
 7183 0103 CF 54                   		mov.B	r5, r4
 7184 0105 DD A3 07                		mov.W	14[r10], r3
 7185 0108 ED A1 02                		mov.L	8[r10], r1
 7186 010b 05 00 00 00             		bsr	_mw_gl_character
2145:C:/Users/John/Desktop/workspace/miniwinwm/MiniWin/gl\gl.c **** 			break;
 7187                             		.loc 1 2145 4
 7188 010f 2E 47                   		bra	.L422
 7189                             	.L420:
2146:C:/Users/John/Desktop/workspace/miniwinwm/MiniWin/gl\gl.c **** 
2147:C:/Users/John/Desktop/workspace/miniwinwm/MiniWin/gl\gl.c **** 		case MW_GL_TEXT_ROTATION_270:
2148:C:/Users/John/Desktop/workspace/miniwinwm/MiniWin/gl\gl.c **** 			mw_gl_character(draw_info, x, y - (int16_t)c * (mw_gl_get_font_width() + 1), s[c]);
 7190                             		.loc 1 2148 36
 7191 0111 DD A6 07                		mov.W	14[r10], r6
 7192 0114 EC A5                   		mov.L	[r10], r5
 7193 0116 DF 5B                   		mov.W	r5, r11
 7194                             		.loc 1 2148 52
 7195 0118 05 00 00 00             		bsr	_mw_gl_get_font_width
 7196 011c EF 15                   		mov.L	r1, r5
 7197 011e DF 55                   		mov.W	r5, r5
 7198                             		.loc 1 2148 75
 7199 0120 62 15                   		add	#1, r5
 7200                             		.loc 1 2148 36
 7201 0122 4F B5                   		mul	r11, r5
 7202 0124 FF 05 56                		sub	r5, r6, r5
 7203                             		.loc 1 2148 4
 7204 0127 DF 53                   		mov.W	r5, r3
 7205                             		.loc 1 2148 82
 7206 0129 ED A5 04                		mov.L	16[r10], r5
 7207 012c 06 88 A5                		add	[r10].L, r5
 7208                             		.loc 1 2148 4
 7209 012f CC 55                   		mov.B	[r5], r5
 7210 0131 CF 54                   		mov.B	r5, r4
 7211 0133 DD A2 06                		mov.W	12[r10], r2
 7212 0136 ED A1 02                		mov.L	8[r10], r1
 7213 0139 05 00 00 00             		bsr	_mw_gl_character
2149:C:/Users/John/Desktop/workspace/miniwinwm/MiniWin/gl\gl.c **** 			break;
 7214                             		.loc 1 2149 4
 7215 013d 2E 19                   		bra	.L422
 7216                             	.L424:
2150:C:/Users/John/Desktop/workspace/miniwinwm/MiniWin/gl\gl.c **** 
2151:C:/Users/John/Desktop/workspace/miniwinwm/MiniWin/gl\gl.c **** 		default:
2152:C:/Users/John/Desktop/workspace/miniwinwm/MiniWin/gl\gl.c **** 			MW_ASSERT((bool)false, "Unknown text rotation");
 7217                             		.loc 1 2152 4
 7218 013f FB 42 5C 00 00 00       		mov.L	#.LC3, r4
 7219 0145 FB 3A 68 08             		mov.L	#0x868, r3
 7220 0149 FB 22 00 00 00 00       		mov.L	#___func__.3492, r2
 7221 014f 66 01                   		mov	#0, r1
 7222 0151 05 00 00 00             		bsr	_mw_debug_print_assert
2153:C:/Users/John/Desktop/workspace/miniwinwm/MiniWin/gl\gl.c **** 			break;
 7223                             		.loc 1 2153 4
 7224 0155 03                      		nop
 7225                             		.balign 8,3,1
 7226                             	.L422:
2131:C:/Users/John/Desktop/workspace/miniwinwm/MiniWin/gl\gl.c **** 	{
 7227                             		.loc 1 2131 35 discriminator 2
 7228 0156 EC A5                   		mov.L	[r10], r5
 7229 0158 62 15                   		add	#1, r5
 7230 015a E3 A5                   		mov.L	r5, [r10]
 7231                             	.L416:
2131:C:/Users/John/Desktop/workspace/miniwinwm/MiniWin/gl\gl.c **** 	{
 7232                             		.loc 1 2131 2 discriminator 1
 7233 015c EC A4                   		mov.L	[r10], r4
 7234 015e ED A5 01                		mov.L	4[r10], r5
 7235 0161 47 54                   		cmp	r5, r4
 7236 0163 22 05 38 03 FF          		bltu	.L423
 7237                             	.L411:
2154:C:/Users/John/Desktop/workspace/miniwinwm/MiniWin/gl\gl.c **** 		}
2155:C:/Users/John/Desktop/workspace/miniwinwm/MiniWin/gl\gl.c **** 	}
2156:C:/Users/John/Desktop/workspace/miniwinwm/MiniWin/gl\gl.c **** }
 7238                             		.loc 1 2156 1
 7239 0168 3F 6B 0B                		rtsd	#44, r6-r11
 7240                             	.LFE42:
 7242 016b 77 10 01 00 00          		.section	.text.mw_gl_get_string_width_pixels,"ax",@progbits
 7243                             		.global	_mw_gl_get_string_width_pixels
 7245                             	_mw_gl_get_string_width_pixels:
 7246                             	.LFB43:
2157:C:/Users/John/Desktop/workspace/miniwinwm/MiniWin/gl\gl.c **** 
2158:C:/Users/John/Desktop/workspace/miniwinwm/MiniWin/gl\gl.c **** int16_t mw_gl_get_string_width_pixels(const char *s)
2159:C:/Users/John/Desktop/workspace/miniwinwm/MiniWin/gl\gl.c **** {
 7247                             		.loc 1 2159 1
 7248 0000 7E AA                   		push.l	r10
 7249                             	.LCFI107:
 7250 0002 7E A6                   		push.l	r6
 7251                             	.LCFI108:
 7252 0004 71 0A F8                		add	#-8, r0, r10
 7253                             	.LCFI109:
 7254 0007 EF A0                   		mov.L	r10, r0
 7255 0009 E7 A1 01                		mov.L	r1, 4[r10]
2160:C:/Users/John/Desktop/workspace/miniwinwm/MiniWin/gl\gl.c **** 	uint8_t i;
2161:C:/Users/John/Desktop/workspace/miniwinwm/MiniWin/gl\gl.c **** 	int16_t width = 0;
 7256                             		.loc 1 2161 10
 7257 000c F9 A5 01 00             		mov.W	#0, 2[r10]
2162:C:/Users/John/Desktop/workspace/miniwinwm/MiniWin/gl\gl.c **** 
2163:C:/Users/John/Desktop/workspace/miniwinwm/MiniWin/gl\gl.c **** 	if (s == NULL)
 7258                             		.loc 1 2163 5
 7259 0010 ED A5 01                		mov.L	4[r10], r5
 7260 0013 61 05                   		cmp	#0, r5
 7261 0015 21 1D                   		bne	.L426
2164:C:/Users/John/Desktop/workspace/miniwinwm/MiniWin/gl\gl.c **** 	{
2165:C:/Users/John/Desktop/workspace/miniwinwm/MiniWin/gl\gl.c **** 		MW_ASSERT((bool)false, "Null pointer argument");
 7262                             		.loc 1 2165 3
 7263 0017 FB 42 00 00 00 00       		mov.L	#.LC0, r4
 7264 001d FB 3A 75 08             		mov.L	#0x875, r3
 7265 0021 FB 22 00 00 00 00       		mov.L	#___func__.3507, r2
 7266 0027 66 01                   		mov	#0, r1
 7267 0029 05 00 00 00             		bsr	_mw_debug_print_assert
2166:C:/Users/John/Desktop/workspace/miniwinwm/MiniWin/gl\gl.c **** 		return (0);
 7268                             		.loc 1 2166 10
 7269 002d 66 05                   		mov	#0, r5
 7270 002f 38 83 00                		bra	.L427
 7271                             	.L426:
2167:C:/Users/John/Desktop/workspace/miniwinwm/MiniWin/gl\gl.c **** 	}
2168:C:/Users/John/Desktop/workspace/miniwinwm/MiniWin/gl\gl.c **** 
2169:C:/Users/John/Desktop/workspace/miniwinwm/MiniWin/gl\gl.c **** 	if (gc.font == MW_GL_TITLE_FONT)
 7272                             		.loc 1 2169 8
 7273 0032 FB 52 00 00 00 00       		mov.L	#_gc, r5
 7274 0038 AC 55                   		mov.L	64[r5], r5
 7275                             		.loc 1 2169 5
 7276 003a 61 55                   		cmp	#5, r5
 7277 003c 21 59                   		bne	.L428
2170:C:/Users/John/Desktop/workspace/miniwinwm/MiniWin/gl\gl.c **** 	{
2171:C:/Users/John/Desktop/workspace/miniwinwm/MiniWin/gl\gl.c **** 		for (i = 0U; i < strlen(s); i++)
 7278                             		.loc 1 2171 10
 7279 003e F8 A4 00                		mov.B	#0, [r10]
 7280                             		.loc 1 2171 3
 7281 0041 2E 43                   		bra	.L429
 7282                             	.L430:
2172:C:/Users/John/Desktop/workspace/miniwinwm/MiniWin/gl\gl.c **** 		{
2173:C:/Users/John/Desktop/workspace/miniwinwm/MiniWin/gl\gl.c **** 			width += (int16_t)mw_title_font_positions[s[i] - ' ' + 1] - (int16_t)mw_title_font_positions[s[i
 7283                             		.loc 1 2173 47 discriminator 3
 7284 0043 58 A5                   		movu.B	[r10], r5
 7285 0045 ED A4 01                		mov.L	4[r10], r4
 7286 0048 4B 45                   		add	r4, r5
 7287 004a CC 55                   		mov.B	[r5], r5
 7288 004c 5B 55                   		movu.B	r5, r5
 7289                             		.loc 1 2173 57 discriminator 3
 7290 004e 71 55 E1                		add	#-31, r5
 7291                             		.loc 1 2173 45 discriminator 3
 7292 0051 FB 42 00 00 00 00       		mov.L	#_mw_title_font_positions, r4
 7293 0057 FE 55 44                		mov.W	[r5,r4], r4
 7294                             		.loc 1 2173 98 discriminator 3
 7295 005a 58 A5                   		movu.B	[r10], r5
 7296 005c ED A3 01                		mov.L	4[r10], r3
 7297 005f 4B 35                   		add	r3, r5
 7298 0061 CC 55                   		mov.B	[r5], r5
 7299 0063 5B 55                   		movu.B	r5, r5
 7300                             		.loc 1 2173 102 discriminator 3
 7301 0065 71 55 E0                		add	#-32, r5
 7302                             		.loc 1 2173 96 discriminator 3
 7303 0068 FB 32 00 00 00 00       		mov.L	#_mw_title_font_positions, r3
 7304 006e FE 55 35                		mov.W	[r5,r3], r5
 7305                             		.loc 1 2173 62 discriminator 3
 7306 0071 FF 05 54                		sub	r5, r4, r5
 7307 0074 DF 54                   		mov.W	r5, r4
 7308                             		.loc 1 2173 10 discriminator 3
 7309 0076 DD A5 01                		mov.W	2[r10], r5
 7310 0079 4B 45                   		add	r4, r5
 7311 007b D7 A5 01                		mov.W	r5, 2[r10]
2171:C:/Users/John/Desktop/workspace/miniwinwm/MiniWin/gl\gl.c **** 		{
 7312                             		.loc 1 2171 32 discriminator 3
 7313 007e CC A5                   		mov.B	[r10], r5
 7314 0080 62 15                   		add	#1, r5
 7315 0082 C3 A5                   		mov.B	r5, [r10]
 7316                             	.L429:
2171:C:/Users/John/Desktop/workspace/miniwinwm/MiniWin/gl\gl.c **** 		{
 7317                             		.loc 1 2171 18 discriminator 1
 7318 0084 58 A6                   		movu.B	[r10], r6
2171:C:/Users/John/Desktop/workspace/miniwinwm/MiniWin/gl\gl.c **** 		{
 7319                             		.loc 1 2171 20 discriminator 1
 7320 0086 ED A1 01                		mov.L	4[r10], r1
 7321 0089 05 00 00 00             		bsr	_strlen
 7322 008d EF 15                   		mov.L	r1, r5
2171:C:/Users/John/Desktop/workspace/miniwinwm/MiniWin/gl\gl.c **** 		{
 7323                             		.loc 1 2171 3 discriminator 1
 7324 008f 47 56                   		cmp	r5, r6
 7325 0091 23 B2                   		bltu	.L430
 7326 0093 2E 1C                   		bra	.L431
 7327                             	.L428:
2174:C:/Users/John/Desktop/workspace/miniwinwm/MiniWin/gl\gl.c **** 		}
2175:C:/Users/John/Desktop/workspace/miniwinwm/MiniWin/gl\gl.c **** 	}
2176:C:/Users/John/Desktop/workspace/miniwinwm/MiniWin/gl\gl.c **** 	else
2177:C:/Users/John/Desktop/workspace/miniwinwm/MiniWin/gl\gl.c **** 	{
2178:C:/Users/John/Desktop/workspace/miniwinwm/MiniWin/gl\gl.c **** 		width = (int16_t)strlen(s) * (mw_gl_get_font_width() + 1);
 7328                             		.loc 1 2178 20
 7329 0095 ED A1 01                		mov.L	4[r10], r1
 7330 0098 05 00 00 00             		bsr	_strlen
 7331 009c EF 15                   		mov.L	r1, r5
 7332                             		.loc 1 2178 9
 7333 009e DF 56                   		mov.W	r5, r6
 7334                             		.loc 1 2178 33
 7335 00a0 05 00 00 00             		bsr	_mw_gl_get_font_width
 7336 00a4 EF 15                   		mov.L	r1, r5
 7337 00a6 DF 55                   		mov.W	r5, r5
 7338                             		.loc 1 2178 56
 7339 00a8 62 15                   		add	#1, r5
 7340                             		.loc 1 2178 9
 7341 00aa 4F 65                   		mul	r6, r5
 7342 00ac D7 A5 01                		mov.W	r5, 2[r10]
 7343                             	.L431:
2179:C:/Users/John/Desktop/workspace/miniwinwm/MiniWin/gl\gl.c **** 	}
2180:C:/Users/John/Desktop/workspace/miniwinwm/MiniWin/gl\gl.c **** 
2181:C:/Users/John/Desktop/workspace/miniwinwm/MiniWin/gl\gl.c **** 	return (width);
 7344                             		.loc 1 2181 9
 7345 00af DD A5 01                		mov.W	2[r10], r5
 7346                             	.L427:
 7347 00b2 DF 55                   		mov.W	r5, r5
2182:C:/Users/John/Desktop/workspace/miniwinwm/MiniWin/gl\gl.c **** }
 7348                             		.loc 1 2182 1
 7349 00b4 EF 51                   		mov.L	r5, r1
 7350 00b6 62 80                   		add	#8, r0
 7351 00b8 7E B6                   		pop	r6
 7352 00ba 7E BA                   		pop	r10
 7353 00bc 02                      		rts
 7354                             	.LFE43:
 7356                             		.section	.text.mw_gl_largest_string_width,"ax",@progbits
 7357                             		.global	_mw_gl_largest_string_width
 7359                             	_mw_gl_largest_string_width:
 7360                             	.LFB44:
2183:C:/Users/John/Desktop/workspace/miniwinwm/MiniWin/gl\gl.c **** 
2184:C:/Users/John/Desktop/workspace/miniwinwm/MiniWin/gl\gl.c **** int16_t mw_gl_largest_string_width(const char **s, uint16_t count)
2185:C:/Users/John/Desktop/workspace/miniwinwm/MiniWin/gl\gl.c **** {
 7361                             		.loc 1 2185 1
 7362 0000 7E AA                   		push.l	r10
 7363                             	.LCFI110:
 7364 0002 71 0A F0                		add	#-16, r0, r10
 7365                             	.LCFI111:
 7366 0005 EF A0                   		mov.L	r10, r0
 7367 0007 E7 A1 02                		mov.L	r1, 8[r10]
 7368 000a D7 A2 06                		mov.W	r2, 12[r10]
2186:C:/Users/John/Desktop/workspace/miniwinwm/MiniWin/gl\gl.c **** 	uint16_t i;
2187:C:/Users/John/Desktop/workspace/miniwinwm/MiniWin/gl\gl.c **** 	int16_t largest_width = 0;
 7369                             		.loc 1 2187 10
 7370 000d F9 A5 01 00             		mov.W	#0, 2[r10]
2188:C:/Users/John/Desktop/workspace/miniwinwm/MiniWin/gl\gl.c **** 	int16_t width;
2189:C:/Users/John/Desktop/workspace/miniwinwm/MiniWin/gl\gl.c **** 
2190:C:/Users/John/Desktop/workspace/miniwinwm/MiniWin/gl\gl.c **** 	if (s == NULL || *s == NULL)
 7371                             		.loc 1 2190 5
 7372 0011 ED A5 02                		mov.L	8[r10], r5
 7373 0014 61 05                   		cmp	#0, r5
 7374 0016 12                      		beq	.L433
 7375                             		.loc 1 2190 19 discriminator 1
 7376 0017 ED A5 02                		mov.L	8[r10], r5
 7377 001a EC 55                   		mov.L	[r5], r5
 7378                             		.loc 1 2190 16 discriminator 1
 7379 001c 61 05                   		cmp	#0, r5
 7380 001e 21 1C                   		bne	.L434
 7381                             	.L433:
2191:C:/Users/John/Desktop/workspace/miniwinwm/MiniWin/gl\gl.c **** 	{
2192:C:/Users/John/Desktop/workspace/miniwinwm/MiniWin/gl\gl.c **** 		MW_ASSERT((bool)false, "Null pointer argument");
 7382                             		.loc 1 2192 3
 7383 0020 FB 42 00 00 00 00       		mov.L	#.LC0, r4
 7384 0026 FB 3A 90 08             		mov.L	#0x890, r3
 7385 002a FB 22 00 00 00 00       		mov.L	#___func__.3518, r2
 7386 0030 66 01                   		mov	#0, r1
 7387 0032 05 00 00 00             		bsr	_mw_debug_print_assert
2193:C:/Users/John/Desktop/workspace/miniwinwm/MiniWin/gl\gl.c **** 		return (0);
 7388                             		.loc 1 2193 10
 7389 0036 66 05                   		mov	#0, r5
 7390 0038 2E 3F                   		bra	.L435
 7391                             	.L434:
2194:C:/Users/John/Desktop/workspace/miniwinwm/MiniWin/gl\gl.c **** 	}
2195:C:/Users/John/Desktop/workspace/miniwinwm/MiniWin/gl\gl.c **** 
2196:C:/Users/John/Desktop/workspace/miniwinwm/MiniWin/gl\gl.c **** 	for (i = 0; i < count; i++)
 7392                             		.loc 1 2196 9
 7393 003a F8 A5 00                		mov.W	#0, [r10]
 7394                             		.loc 1 2196 2
 7395 003d 2E 2E                   		bra	.L436
 7396                             	.L438:
2197:C:/Users/John/Desktop/workspace/miniwinwm/MiniWin/gl\gl.c **** 	{
2198:C:/Users/John/Desktop/workspace/miniwinwm/MiniWin/gl\gl.c **** 		width = mw_gl_get_string_width_pixels(s[i]);
 7397                             		.loc 1 2198 42
 7398 003f 5C A5                   		movu.W	[r10], r5
 7399 0041 6C 25                   		shll	#2, r5
 7400 0043 ED A4 02                		mov.L	8[r10], r4
 7401 0046 4B 45                   		add	r4, r5
 7402                             		.loc 1 2198 11
 7403 0048 EC 55                   		mov.L	[r5], r5
 7404 004a EF 51                   		mov.L	r5, r1
 7405 004c 05 00 00 00             		bsr	_mw_gl_get_string_width_pixels
 7406 0050 EF 15                   		mov.L	r1, r5
 7407 0052 D7 A5 02                		mov.W	r5, 4[r10]
2199:C:/Users/John/Desktop/workspace/miniwinwm/MiniWin/gl\gl.c **** 		if (width > largest_width)
 7408                             		.loc 1 2199 6
 7409 0055 DD A4 02                		mov.W	4[r10], r4
 7410 0058 DD A5 01                		mov.W	2[r10], r5
 7411 005b 47 54                   		cmp	r5, r4
 7412 005d 2B 08                   		ble	.L437
2200:C:/Users/John/Desktop/workspace/miniwinwm/MiniWin/gl\gl.c **** 		{
2201:C:/Users/John/Desktop/workspace/miniwinwm/MiniWin/gl\gl.c **** 			largest_width = width;
 7413                             		.loc 1 2201 18
 7414 005f DD A5 02                		mov.W	4[r10], r5
 7415 0062 D7 A5 01                		mov.W	r5, 2[r10]
 7416                             	.L437:
2196:C:/Users/John/Desktop/workspace/miniwinwm/MiniWin/gl\gl.c **** 	{
 7417                             		.loc 1 2196 26 discriminator 2
 7418 0065 DC A5                   		mov.W	[r10], r5
 7419 0067 62 15                   		add	#1, r5
 7420 0069 D3 A5                   		mov.W	r5, [r10]
 7421                             	.L436:
2196:C:/Users/John/Desktop/workspace/miniwinwm/MiniWin/gl\gl.c **** 	{
 7422                             		.loc 1 2196 2 discriminator 1
 7423 006b 5C A4                   		movu.W	[r10], r4
 7424 006d 5D A5 06                		movu.W	12[r10], r5
 7425 0070 47 54                   		cmp	r5, r4
 7426 0072 23 CD                   		bltu	.L438
2202:C:/Users/John/Desktop/workspace/miniwinwm/MiniWin/gl\gl.c **** 		}
2203:C:/Users/John/Desktop/workspace/miniwinwm/MiniWin/gl\gl.c **** 	}
2204:C:/Users/John/Desktop/workspace/miniwinwm/MiniWin/gl\gl.c **** 
2205:C:/Users/John/Desktop/workspace/miniwinwm/MiniWin/gl\gl.c **** 	return (largest_width);
 7427                             		.loc 1 2205 9
 7428 0074 DD A5 01                		mov.W	2[r10], r5
 7429                             	.L435:
 7430 0077 DF 55                   		mov.W	r5, r5
2206:C:/Users/John/Desktop/workspace/miniwinwm/MiniWin/gl\gl.c **** }
 7431                             		.loc 1 2206 1
 7432 0079 EF 51                   		mov.L	r5, r1
 7433 007b 3F AA 05                		rtsd	#20, r10-r10
 7434                             	.LFE44:
 7436                             		.section	.text.mw_gl_circle,"ax",@progbits
 7437                             		.global	_mw_gl_circle
 7439                             	_mw_gl_circle:
 7440                             	.LFB45:
2207:C:/Users/John/Desktop/workspace/miniwinwm/MiniWin/gl\gl.c **** 
2208:C:/Users/John/Desktop/workspace/miniwinwm/MiniWin/gl\gl.c **** void mw_gl_circle(const mw_gl_draw_info_t *draw_info, int16_t x, int16_t y, int16_t radius)
2209:C:/Users/John/Desktop/workspace/miniwinwm/MiniWin/gl\gl.c **** {
 7441                             		.loc 1 2209 1
 7442 0000 7E AA                   		push.l	r10
 7443                             	.LCFI112:
 7444 0002 71 0A F0                		add	#-16, r0, r10
 7445                             	.LCFI113:
 7446 0005 71 A0 FC                		add	#-4, r10, r0
 7447                             	.LCFI114:
 7448 0008 E7 A1 01                		mov.L	r1, 4[r10]
 7449 000b D7 A2 04                		mov.W	r2, 8[r10]
 7450 000e D7 A3 05                		mov.W	r3, 10[r10]
 7451 0011 D7 A4 06                		mov.W	r4, 12[r10]
2210:C:/Users/John/Desktop/workspace/miniwinwm/MiniWin/gl\gl.c **** 	bool outline_required = true;
 7452                             		.loc 1 2210 7
 7453 0014 F8 A4 01                		mov.B	#1, [r10]
2211:C:/Users/John/Desktop/workspace/miniwinwm/MiniWin/gl\gl.c **** 
2212:C:/Users/John/Desktop/workspace/miniwinwm/MiniWin/gl\gl.c **** 	if (draw_info == NULL)
 7454                             		.loc 1 2212 5
 7455 0017 ED A5 01                		mov.L	4[r10], r5
 7456 001a 61 05                   		cmp	#0, r5
 7457 001c 21 1A                   		bne	.L440
2213:C:/Users/John/Desktop/workspace/miniwinwm/MiniWin/gl\gl.c **** 	{
2214:C:/Users/John/Desktop/workspace/miniwinwm/MiniWin/gl\gl.c **** 		MW_ASSERT((bool)false, "Null pointer argument");
 7458                             		.loc 1 2214 3
 7459 001e FB 42 00 00 00 00       		mov.L	#.LC0, r4
 7460 0024 FB 3A A6 08             		mov.L	#0x8a6, r3
 7461 0028 FB 22 00 00 00 00       		mov.L	#___func__.3529, r2
 7462 002e 66 01                   		mov	#0, r1
 7463 0030 05 00 00 00             		bsr	_mw_debug_print_assert
2215:C:/Users/John/Desktop/workspace/miniwinwm/MiniWin/gl\gl.c **** 		return;
 7464                             		.loc 1 2215 3
 7465 0034 2E 6C                   		bra	.L439
 7466                             	.L440:
2216:C:/Users/John/Desktop/workspace/miniwinwm/MiniWin/gl\gl.c **** 	}
2217:C:/Users/John/Desktop/workspace/miniwinwm/MiniWin/gl\gl.c **** 
2218:C:/Users/John/Desktop/workspace/miniwinwm/MiniWin/gl\gl.c **** 	if (gc.fill == MW_GL_FILL)
 7467                             		.loc 1 2218 8
 7468 0036 FB 52 00 00 00 00       		mov.L	#_gc, r5
 7469 003c AB 5D                   		mov.L	52[r5], r5
 7470                             		.loc 1 2218 5
 7471 003e 61 15                   		cmp	#1, r5
 7472 0040 21 20                   		bne	.L442
2219:C:/Users/John/Desktop/workspace/miniwinwm/MiniWin/gl\gl.c **** 	{
2220:C:/Users/John/Desktop/workspace/miniwinwm/MiniWin/gl\gl.c **** 		filled_circle(draw_info, x, y, radius);
 7473                             		.loc 1 2220 3
 7474 0042 DD A4 06                		mov.W	12[r10], r4
 7475 0045 DD A3 05                		mov.W	10[r10], r3
 7476 0048 DD A2 04                		mov.W	8[r10], r2
 7477 004b ED A1 01                		mov.L	4[r10], r1
 7478 004e 05 00 00 00             		bsr	_filled_circle
2221:C:/Users/John/Desktop/workspace/miniwinwm/MiniWin/gl\gl.c **** 		if (gc.border == MW_GL_BORDER_OFF)
 7479                             		.loc 1 2221 9
 7480 0052 FB 52 00 00 00 00       		mov.L	#_gc, r5
 7481 0058 AB 55                   		mov.L	48[r5], r5
 7482                             		.loc 1 2221 6
 7483 005a 61 05                   		cmp	#0, r5
 7484 005c 1C                      		bne	.L442
2222:C:/Users/John/Desktop/workspace/miniwinwm/MiniWin/gl\gl.c **** 		{
2223:C:/Users/John/Desktop/workspace/miniwinwm/MiniWin/gl\gl.c **** 			outline_required = false;
 7485                             		.loc 1 2223 21
 7486 005d F8 A4 00                		mov.B	#0, [r10]
 7487                             	.L442:
2224:C:/Users/John/Desktop/workspace/miniwinwm/MiniWin/gl\gl.c **** 		}
2225:C:/Users/John/Desktop/workspace/miniwinwm/MiniWin/gl\gl.c **** 	}
2226:C:/Users/John/Desktop/workspace/miniwinwm/MiniWin/gl\gl.c **** 
2227:C:/Users/John/Desktop/workspace/miniwinwm/MiniWin/gl\gl.c **** 	if (outline_required)
 7488                             		.loc 1 2227 5
 7489 0060 58 A5                   		movu.B	[r10], r5
 7490 0062 61 05                   		cmp	#0, r5
 7491 0064 20 3C                   		beq	.L439
2228:C:/Users/John/Desktop/workspace/miniwinwm/MiniWin/gl\gl.c **** 	{
2229:C:/Users/John/Desktop/workspace/miniwinwm/MiniWin/gl\gl.c **** 		if (gc.line == MW_GL_SOLID_LINE)
 7492                             		.loc 1 2229 9
 7493 0066 FB 52 00 00 00 00       		mov.L	#_gc, r5
 7494 006c A8 DD                   		mov.L	12[r5], r5
 7495                             		.loc 1 2229 6
 7496 006e 77 05 FF FF 00          		cmp	#0xffff, r5
 7497 0073 21 14                   		bne	.L443
2230:C:/Users/John/Desktop/workspace/miniwinwm/MiniWin/gl\gl.c **** 		{
2231:C:/Users/John/Desktop/workspace/miniwinwm/MiniWin/gl\gl.c **** 			circle_bres(draw_info, x, y, radius);
 7498                             		.loc 1 2231 4
 7499 0075 DD A4 06                		mov.W	12[r10], r4
 7500 0078 DD A3 05                		mov.W	10[r10], r3
 7501 007b DD A2 04                		mov.W	8[r10], r2
 7502 007e ED A1 01                		mov.L	4[r10], r1
 7503 0081 05 00 00 00             		bsr	_circle_bres
 7504 0085 2E 1B                   		bra	.L439
 7505                             	.L443:
2232:C:/Users/John/Desktop/workspace/miniwinwm/MiniWin/gl\gl.c **** 		}
2233:C:/Users/John/Desktop/workspace/miniwinwm/MiniWin/gl\gl.c **** 		else
2234:C:/Users/John/Desktop/workspace/miniwinwm/MiniWin/gl\gl.c **** 		{
2235:C:/Users/John/Desktop/workspace/miniwinwm/MiniWin/gl\gl.c **** 			mw_gl_arc(draw_info, x, y, radius, 0, 360);
 7506                             		.loc 1 2235 4
 7507 0087 F9 09 01 68 01          		mov.W	#0x168, 2[r0]
 7508 008c F8 05 00                		mov.W	#0, [r0]
 7509 008f DD A4 06                		mov.W	12[r10], r4
 7510 0092 DD A3 05                		mov.W	10[r10], r3
 7511 0095 DD A2 04                		mov.W	8[r10], r2
 7512 0098 ED A1 01                		mov.L	4[r10], r1
 7513 009b 05 00 00 00             		bsr	_mw_gl_arc
 7514 009f 03                      		.balign 8,3,2
 7515                             	.L439:
2236:C:/Users/John/Desktop/workspace/miniwinwm/MiniWin/gl\gl.c **** 		}
2237:C:/Users/John/Desktop/workspace/miniwinwm/MiniWin/gl\gl.c **** 	}
2238:C:/Users/John/Desktop/workspace/miniwinwm/MiniWin/gl\gl.c **** }
 7516                             		.loc 1 2238 1
 7517 00a0 3F AA 06                		rtsd	#24, r10-r10
 7518                             	.LFE45:
 7520 00a3 77 10 01 00 00          		.section	.text.mw_gl_poly,"ax",@progbits
 7521                             		.global	_mw_gl_poly
 7523                             	_mw_gl_poly:
 7524                             	.LFB46:
2239:C:/Users/John/Desktop/workspace/miniwinwm/MiniWin/gl\gl.c **** 
2240:C:/Users/John/Desktop/workspace/miniwinwm/MiniWin/gl\gl.c **** void mw_gl_poly(const mw_gl_draw_info_t *draw_info, uint8_t poly_corners, const int16_t *poly_x, co
2241:C:/Users/John/Desktop/workspace/miniwinwm/MiniWin/gl\gl.c **** {
 7525                             		.loc 1 2241 1
 7526 0000 7E AA                   		push.l	r10
 7527                             	.LCFI115:
 7528 0002 7E A6                   		push.l	r6
 7529                             	.LCFI116:
 7530 0004 71 0A E8                		add	#-24, r0, r10
 7531                             	.LCFI117:
 7532 0007 71 A0 FC                		add	#-4, r10, r0
 7533                             	.LCFI118:
 7534 000a 75 46 24                		mov.L	#36, r6
 7535 000d 4B A6                   		add	r10, r6
 7536 000f E7 A1 01                		mov.L	r1, 4[r10]
 7537 0012 C7 A2 08                		mov.B	r2, 8[r10]
 7538 0015 E7 A3 03                		mov.L	r3, 12[r10]
 7539 0018 E7 A4 04                		mov.L	r4, 16[r10]
2242:C:/Users/John/Desktop/workspace/miniwinwm/MiniWin/gl\gl.c **** 	uint8_t i;
2243:C:/Users/John/Desktop/workspace/miniwinwm/MiniWin/gl\gl.c **** 	bool draw_outline = true;
 7540                             		.loc 1 2243 7
 7541 001b F9 A4 01 01             		mov.B	#1, 1[r10]
2244:C:/Users/John/Desktop/workspace/miniwinwm/MiniWin/gl\gl.c **** 
2245:C:/Users/John/Desktop/workspace/miniwinwm/MiniWin/gl\gl.c **** 	if (draw_info == NULL || poly_x == NULL || poly_y == NULL)
 7542                             		.loc 1 2245 5
 7543 001f ED A5 01                		mov.L	4[r10], r5
 7544 0022 61 05                   		cmp	#0, r5
 7545 0024 20 0F                   		beq	.L445
 7546                             		.loc 1 2245 24 discriminator 1
 7547 0026 ED A5 03                		mov.L	12[r10], r5
 7548 0029 61 05                   		cmp	#0, r5
 7549 002b 10                      		beq	.L445
 7550                             		.loc 1 2245 42 discriminator 2
 7551 002c ED A5 04                		mov.L	16[r10], r5
 7552 002f 61 05                   		cmp	#0, r5
 7553 0031 21 1B                   		bne	.L446
 7554                             	.L445:
2246:C:/Users/John/Desktop/workspace/miniwinwm/MiniWin/gl\gl.c **** 	{
2247:C:/Users/John/Desktop/workspace/miniwinwm/MiniWin/gl\gl.c **** 		MW_ASSERT((bool)false, "Null pointer argument");
 7555                             		.loc 1 2247 3
 7556 0033 FB 42 00 00 00 00       		mov.L	#.LC0, r4
 7557 0039 FB 3A C7 08             		mov.L	#0x8c7, r3
 7558 003d FB 22 00 00 00 00       		mov.L	#___func__.3540, r2
 7559 0043 66 01                   		mov	#0, r1
 7560 0045 05 00 00 00             		bsr	_mw_debug_print_assert
2248:C:/Users/John/Desktop/workspace/miniwinwm/MiniWin/gl\gl.c **** 		return;
 7561                             		.loc 1 2248 3
 7562 0049 38 FF 00                		bra	.L444
 7563                             	.L446:
2249:C:/Users/John/Desktop/workspace/miniwinwm/MiniWin/gl\gl.c **** 	}
2250:C:/Users/John/Desktop/workspace/miniwinwm/MiniWin/gl\gl.c **** 
2251:C:/Users/John/Desktop/workspace/miniwinwm/MiniWin/gl\gl.c **** 	if (gc.fill == MW_GL_FILL && poly_corners > 2U)
 7564                             		.loc 1 2251 8
 7565 004c FB 52 00 00 00 00       		mov.L	#_gc, r5
 7566 0052 AB 5D                   		mov.L	52[r5], r5
 7567                             		.loc 1 2251 5
 7568 0054 61 15                   		cmp	#1, r5
 7569 0056 21 32                   		bne	.L448
 7570                             		.loc 1 2251 28 discriminator 1
 7571 0058 59 A5 08                		movu.B	8[r10], r5
 7572 005b 61 25                   		cmp	#2, r5
 7573 005d 25 2B                   		bleu	.L448
2252:C:/Users/John/Desktop/workspace/miniwinwm/MiniWin/gl\gl.c **** 	{
2253:C:/Users/John/Desktop/workspace/miniwinwm/MiniWin/gl\gl.c **** 		filled_poly(draw_info, poly_corners, poly_x, poly_y, x_offset, y_offset);
 7574                             		.loc 1 2253 3
 7575 005f 59 A5 08                		movu.B	8[r10], r5
 7576 0062 98 6C                   		mov.W	2[r6], r4
 7577 0064 90 0C                   		mov.W	r4, 2[r0]
 7578 0066 DC 64                   		mov.W	[r6], r4
 7579 0068 D3 04                   		mov.W	r4, [r0]
 7580 006a ED A4 04                		mov.L	16[r10], r4
 7581 006d ED A3 03                		mov.L	12[r10], r3
 7582 0070 DF 52                   		mov.W	r5, r2
 7583 0072 ED A1 01                		mov.L	4[r10], r1
 7584 0075 05 00 00 00             		bsr	_filled_poly
2254:C:/Users/John/Desktop/workspace/miniwinwm/MiniWin/gl\gl.c **** 		if (gc.border == MW_GL_BORDER_OFF)
 7585                             		.loc 1 2254 9
 7586 0079 FB 52 00 00 00 00       		mov.L	#_gc, r5
 7587 007f AB 55                   		mov.L	48[r5], r5
 7588                             		.loc 1 2254 6
 7589 0081 61 05                   		cmp	#0, r5
 7590 0083 1D                      		bne	.L448
2255:C:/Users/John/Desktop/workspace/miniwinwm/MiniWin/gl\gl.c **** 		{
2256:C:/Users/John/Desktop/workspace/miniwinwm/MiniWin/gl\gl.c **** 			draw_outline = false;
 7591                             		.loc 1 2256 17
 7592 0084 F9 A4 01 00             		mov.B	#0, 1[r10]
 7593                             		.balign 8,3,3
 7594                             	.L448:
2257:C:/Users/John/Desktop/workspace/miniwinwm/MiniWin/gl\gl.c **** 		}
2258:C:/Users/John/Desktop/workspace/miniwinwm/MiniWin/gl\gl.c **** 	}
2259:C:/Users/John/Desktop/workspace/miniwinwm/MiniWin/gl\gl.c **** 
2260:C:/Users/John/Desktop/workspace/miniwinwm/MiniWin/gl\gl.c **** 	if (draw_outline)
 7595                             		.loc 1 2260 5
 7596 0088 59 A5 01                		movu.B	1[r10], r5
 7597 008b 61 05                   		cmp	#0, r5
 7598 008d 3A BB 00                		beq	.L444
2261:C:/Users/John/Desktop/workspace/miniwinwm/MiniWin/gl\gl.c **** 	{
2262:C:/Users/John/Desktop/workspace/miniwinwm/MiniWin/gl\gl.c **** 		for (i = 0U; i < poly_corners - 1U; i++)
 7599                             		.loc 1 2262 10
 7600 0090 F8 A4 00                		mov.B	#0, [r10]
 7601                             		.loc 1 2262 3
 7602 0093 2E 61                   		bra	.L449
 7603                             	.L450:
2263:C:/Users/John/Desktop/workspace/miniwinwm/MiniWin/gl\gl.c **** 		{
2264:C:/Users/John/Desktop/workspace/miniwinwm/MiniWin/gl\gl.c **** 			mw_gl_line(draw_info, poly_x[i] + x_offset, poly_y[i] + y_offset, poly_x[i + 1U] + x_offset, pol
 7604                             		.loc 1 2264 32 discriminator 3
 7605 0095 58 A5                   		movu.B	[r10], r5
 7606 0097 4B 55                   		add	r5, r5
 7607 0099 ED A4 03                		mov.L	12[r10], r4
 7608 009c 4B 45                   		add	r4, r5
 7609 009e DC 55                   		mov.W	[r5], r5
 7610 00a0 DF 54                   		mov.W	r5, r4
 7611                             		.loc 1 2264 36 discriminator 3
 7612 00a2 DC 65                   		mov.W	[r6], r5
 7613 00a4 4B 45                   		add	r4, r5
 7614                             		.loc 1 2264 4 discriminator 3
 7615 00a6 DF 52                   		mov.W	r5, r2
 7616                             		.loc 1 2264 54 discriminator 3
 7617 00a8 58 A5                   		movu.B	[r10], r5
 7618 00aa 4B 55                   		add	r5, r5
 7619 00ac ED A4 04                		mov.L	16[r10], r4
 7620 00af 4B 45                   		add	r4, r5
 7621 00b1 DC 55                   		mov.W	[r5], r5
 7622 00b3 DF 54                   		mov.W	r5, r4
 7623                             		.loc 1 2264 58 discriminator 3
 7624 00b5 98 6D                   		mov.W	2[r6], r5
 7625 00b7 4B 45                   		add	r4, r5
 7626                             		.loc 1 2264 4 discriminator 3
 7627 00b9 DF 53                   		mov.W	r5, r3
 7628                             		.loc 1 2264 76 discriminator 3
 7629 00bb 58 A5                   		movu.B	[r10], r5
 7630 00bd 62 15                   		add	#1, r5
 7631 00bf 4B 55                   		add	r5, r5
 7632 00c1 ED A4 03                		mov.L	12[r10], r4
 7633 00c4 4B 45                   		add	r4, r5
 7634 00c6 DC 55                   		mov.W	[r5], r5
 7635 00c8 DF 54                   		mov.W	r5, r4
 7636                             		.loc 1 2264 85 discriminator 3
 7637 00ca DC 65                   		mov.W	[r6], r5
 7638 00cc 4B 45                   		add	r4, r5
 7639                             		.loc 1 2264 4 discriminator 3
 7640 00ce DF 51                   		mov.W	r5, r1
 7641                             		.loc 1 2264 103 discriminator 3
 7642 00d0 58 A5                   		movu.B	[r10], r5
 7643 00d2 62 15                   		add	#1, r5
 7644 00d4 4B 55                   		add	r5, r5
 7645 00d6 ED A4 04                		mov.L	16[r10], r4
 7646 00d9 4B 45                   		add	r4, r5
 7647 00db DC 55                   		mov.W	[r5], r5
 7648 00dd DF 54                   		mov.W	r5, r4
 7649                             		.loc 1 2264 112 discriminator 3
 7650 00df 98 6D                   		mov.W	2[r6], r5
 7651 00e1 4B 45                   		add	r4, r5
 7652                             		.loc 1 2264 4 discriminator 3
 7653 00e3 D3 05                   		mov.W	r5, [r0]
 7654 00e5 DF 14                   		mov.W	r1, r4
 7655 00e7 ED A1 01                		mov.L	4[r10], r1
 7656 00ea 05 00 00 00             		bsr	_mw_gl_line
2262:C:/Users/John/Desktop/workspace/miniwinwm/MiniWin/gl\gl.c **** 		{
 7657                             		.loc 1 2262 40 discriminator 3
 7658 00ee CC A5                   		mov.B	[r10], r5
 7659 00f0 62 15                   		add	#1, r5
 7660 00f2 C3 A5                   		mov.B	r5, [r10]
 7661                             	.L449:
2262:C:/Users/John/Desktop/workspace/miniwinwm/MiniWin/gl\gl.c **** 		{
 7662                             		.loc 1 2262 18 discriminator 1
 7663 00f4 58 A4                   		movu.B	[r10], r4
2262:C:/Users/John/Desktop/workspace/miniwinwm/MiniWin/gl\gl.c **** 		{
 7664                             		.loc 1 2262 33 discriminator 1
 7665 00f6 59 A5 08                		movu.B	8[r10], r5
 7666 00f9 60 15                   		sub	#1, r5
2262:C:/Users/John/Desktop/workspace/miniwinwm/MiniWin/gl\gl.c **** 		{
 7667                             		.loc 1 2262 3 discriminator 1
 7668 00fb 47 54                   		cmp	r5, r4
 7669 00fd 23 98                   		bltu	.L450
2265:C:/Users/John/Desktop/workspace/miniwinwm/MiniWin/gl\gl.c **** 		}
2266:C:/Users/John/Desktop/workspace/miniwinwm/MiniWin/gl\gl.c **** 		mw_gl_line(draw_info, poly_x[i] + x_offset, poly_y[i] + y_offset, poly_x[0] + x_offset, poly_y[0]
 7670                             		.loc 1 2266 31
 7671 00ff 58 A5                   		movu.B	[r10], r5
 7672 0101 4B 55                   		add	r5, r5
 7673 0103 ED A4 03                		mov.L	12[r10], r4
 7674 0106 4B 45                   		add	r4, r5
 7675 0108 DC 55                   		mov.W	[r5], r5
 7676 010a DF 54                   		mov.W	r5, r4
 7677                             		.loc 1 2266 35
 7678 010c DC 65                   		mov.W	[r6], r5
 7679 010e 4B 45                   		add	r4, r5
 7680                             		.loc 1 2266 3
 7681 0110 DF 52                   		mov.W	r5, r2
 7682                             		.loc 1 2266 53
 7683 0112 58 A5                   		movu.B	[r10], r5
 7684 0114 4B 55                   		add	r5, r5
 7685 0116 ED A4 04                		mov.L	16[r10], r4
 7686 0119 4B 45                   		add	r4, r5
 7687 011b DC 55                   		mov.W	[r5], r5
 7688 011d DF 54                   		mov.W	r5, r4
 7689                             		.loc 1 2266 57
 7690 011f 98 6D                   		mov.W	2[r6], r5
 7691 0121 4B 45                   		add	r4, r5
 7692                             		.loc 1 2266 3
 7693 0123 DF 53                   		mov.W	r5, r3
 7694                             		.loc 1 2266 75
 7695 0125 ED A5 03                		mov.L	12[r10], r5
 7696 0128 DC 55                   		mov.W	[r5], r5
 7697 012a DF 54                   		mov.W	r5, r4
 7698                             		.loc 1 2266 79
 7699 012c DC 65                   		mov.W	[r6], r5
 7700 012e 4B 45                   		add	r4, r5
 7701                             		.loc 1 2266 3
 7702 0130 DF 51                   		mov.W	r5, r1
 7703                             		.loc 1 2266 97
 7704 0132 ED A5 04                		mov.L	16[r10], r5
 7705 0135 DC 55                   		mov.W	[r5], r5
 7706 0137 DF 54                   		mov.W	r5, r4
 7707                             		.loc 1 2266 101
 7708 0139 98 6D                   		mov.W	2[r6], r5
 7709 013b 4B 45                   		add	r4, r5
 7710                             		.loc 1 2266 3
 7711 013d D3 05                   		mov.W	r5, [r0]
 7712 013f DF 14                   		mov.W	r1, r4
 7713 0141 ED A1 01                		mov.L	4[r10], r1
 7714 0144 05 00 00 00             		bsr	_mw_gl_line
 7715                             	.L444:
2267:C:/Users/John/Desktop/workspace/miniwinwm/MiniWin/gl\gl.c **** 	}
2268:C:/Users/John/Desktop/workspace/miniwinwm/MiniWin/gl\gl.c **** }
 7716                             		.loc 1 2268 1
 7717 0148 71 00 1C                		add	#28, r0
 7718 014b 7E B6                   		pop	r6
 7719 014d 7E BA                   		pop	r10
 7720 014f 02                      		rts
 7721                             	.LFE46:
 7723                             		.section	.text.mw_gl_rotate_shape,"ax",@progbits
 7724                             		.global	_mw_gl_rotate_shape
 7726                             	_mw_gl_rotate_shape:
 7727                             	.LFB47:
2269:C:/Users/John/Desktop/workspace/miniwinwm/MiniWin/gl\gl.c **** 
2270:C:/Users/John/Desktop/workspace/miniwinwm/MiniWin/gl\gl.c **** void mw_gl_rotate_shape(uint8_t poly_corners, int16_t *poly_x, int16_t *poly_y, int16_t angle_degre
2271:C:/Users/John/Desktop/workspace/miniwinwm/MiniWin/gl\gl.c **** {
 7728                             		.loc 1 2271 1
 7729 0000 6E 6B                   		pushm	r6-r11
 7730                             	.LCFI119:
 7731 0002 71 0A E8                		add	#-24, r0, r10
 7732                             	.LCFI120:
 7733 0005 EF A0                   		mov.L	r10, r0
 7734 0007 C7 A1 0C                		mov.B	r1, 12[r10]
 7735 000a E7 A2 04                		mov.L	r2, 16[r10]
 7736 000d E7 A3 05                		mov.L	r3, 20[r10]
 7737 0010 D7 A4 07                		mov.W	r4, 14[r10]
2272:C:/Users/John/Desktop/workspace/miniwinwm/MiniWin/gl\gl.c **** 	uint8_t i;
2273:C:/Users/John/Desktop/workspace/miniwinwm/MiniWin/gl\gl.c **** 	int16_t x;
2274:C:/Users/John/Desktop/workspace/miniwinwm/MiniWin/gl\gl.c **** 	float angle_rads;
2275:C:/Users/John/Desktop/workspace/miniwinwm/MiniWin/gl\gl.c **** 
2276:C:/Users/John/Desktop/workspace/miniwinwm/MiniWin/gl\gl.c **** 	if (poly_x == NULL || poly_y == NULL)
 7738                             		.loc 1 2276 5
 7739 0013 ED A5 04                		mov.L	16[r10], r5
 7740 0016 61 05                   		cmp	#0, r5
 7741 0018 10                      		beq	.L452
 7742                             		.loc 1 2276 21 discriminator 1
 7743 0019 ED A5 05                		mov.L	20[r10], r5
 7744 001c 61 05                   		cmp	#0, r5
 7745 001e 21 1B                   		bne	.L453
 7746                             	.L452:
2277:C:/Users/John/Desktop/workspace/miniwinwm/MiniWin/gl\gl.c **** 	{
2278:C:/Users/John/Desktop/workspace/miniwinwm/MiniWin/gl\gl.c **** 		MW_ASSERT((bool)false, "Null pointer argument");
 7747                             		.loc 1 2278 3
 7748 0020 FB 42 00 00 00 00       		mov.L	#.LC0, r4
 7749 0026 FB 3A E6 08             		mov.L	#0x8e6, r3
 7750 002a FB 22 00 00 00 00       		mov.L	#___func__.3553, r2
 7751 0030 66 01                   		mov	#0, r1
 7752 0032 05 00 00 00             		bsr	_mw_debug_print_assert
2279:C:/Users/John/Desktop/workspace/miniwinwm/MiniWin/gl\gl.c **** 		return;
 7753                             		.loc 1 2279 3
 7754 0036 38 D3 00                		bra	.L451
 7755                             	.L453:
2280:C:/Users/John/Desktop/workspace/miniwinwm/MiniWin/gl\gl.c **** 	}
2281:C:/Users/John/Desktop/workspace/miniwinwm/MiniWin/gl\gl.c **** 
2282:C:/Users/John/Desktop/workspace/miniwinwm/MiniWin/gl\gl.c **** 	angle_rads = (float)angle_degrees / DEGREES_IN_RAD;
 7756                             		.loc 1 2282 15
 7757 0039 DD A5 07                		mov.W	14[r10], r5
 7758 003c FC 47 55                		itof	r5, r5
 7759                             		.loc 1 2282 13
 7760 003f FD 72 45 E0 2E 65 42    		fdiv	#0x42652ee0, r5
 7761 0046 E7 A5 01                		mov.L	r5, 4[r10]
2283:C:/Users/John/Desktop/workspace/miniwinwm/MiniWin/gl\gl.c **** 	for (i = 0U; i < poly_corners; i++)
 7762                             		.loc 1 2283 9
 7763 0049 F8 A4 00                		mov.B	#0, [r10]
 7764                             		.loc 1 2283 2
 7765 004c 38 B1 00                		bra	.L455
 7766                             	.L456:
2284:C:/Users/John/Desktop/workspace/miniwinwm/MiniWin/gl\gl.c **** 	{
2285:C:/Users/John/Desktop/workspace/miniwinwm/MiniWin/gl\gl.c **** 		x = (int16_t)roundf(((float)poly_x[i] * cosf(angle_rads) - (float)poly_y[i] * sinf(angle_rads)));
 7767                             		.loc 1 2285 37 discriminator 3
 7768 004f 58 A5                   		movu.B	[r10], r5
 7769 0051 4B 55                   		add	r5, r5
 7770 0053 ED A4 04                		mov.L	16[r10], r4
 7771 0056 4B 45                   		add	r4, r5
 7772 0058 DC 55                   		mov.W	[r5], r5
 7773                             		.loc 1 2285 24 discriminator 3
 7774 005a DF 55                   		mov.W	r5, r5
 7775 005c FC 47 56                		itof	r5, r6
 7776                             		.loc 1 2285 43 discriminator 3
 7777 005f ED A1 01                		mov.L	4[r10], r1
 7778 0062 05 00 00 00             		bsr	_cosf
 7779 0066 EF 15                   		mov.L	r1, r5
 7780                             		.loc 1 2285 41 discriminator 3
 7781 0068 FC 8F 56                		fmul	r5, r6
 7782                             		.loc 1 2285 75 discriminator 3
 7783 006b 58 A5                   		movu.B	[r10], r5
 7784 006d 4B 55                   		add	r5, r5
 7785 006f ED A4 05                		mov.L	20[r10], r4
 7786 0072 4B 45                   		add	r4, r5
 7787 0074 DC 55                   		mov.W	[r5], r5
 7788                             		.loc 1 2285 62 discriminator 3
 7789 0076 DF 55                   		mov.W	r5, r5
 7790 0078 FC 47 5B                		itof	r5, r11
 7791                             		.loc 1 2285 81 discriminator 3
 7792 007b ED A1 01                		mov.L	4[r10], r1
 7793 007e 05 00 00 00             		bsr	_sinf
 7794 0082 EF 15                   		mov.L	r1, r5
 7795                             		.loc 1 2285 79 discriminator 3
 7796 0084 FC 8F B5                		fmul	r11, r5
 7797                             		.loc 1 2285 16 discriminator 3
 7798 0087 FF 85 56                		fsub	r5, r6, r5
 7799 008a EF 51                   		mov.L	r5, r1
 7800 008c 05 00 00 00             		bsr	_roundf
 7801 0090 EF 15                   		mov.L	r1, r5
 7802                             		.loc 1 2285 5 discriminator 3
 7803 0092 FC 97 55                		ftoi	r5, r5
 7804 0095 D7 A5 04                		mov.W	r5, 8[r10]
2286:C:/Users/John/Desktop/workspace/miniwinwm/MiniWin/gl\gl.c **** 		poly_y[i] = (int16_t)roundf(((float)poly_x[i] * sinf(angle_rads) + (float)poly_y[i] * cosf(angle_
 7805                             		.loc 1 2286 45 discriminator 3
 7806 0098 58 A5                   		movu.B	[r10], r5
 7807 009a 4B 55                   		add	r5, r5
 7808 009c ED A4 04                		mov.L	16[r10], r4
 7809 009f 4B 45                   		add	r4, r5
 7810 00a1 DC 55                   		mov.W	[r5], r5
 7811                             		.loc 1 2286 32 discriminator 3
 7812 00a3 DF 55                   		mov.W	r5, r5
 7813 00a5 FC 47 56                		itof	r5, r6
 7814                             		.loc 1 2286 51 discriminator 3
 7815 00a8 ED A1 01                		mov.L	4[r10], r1
 7816 00ab 05 00 00 00             		bsr	_sinf
 7817 00af EF 15                   		mov.L	r1, r5
 7818                             		.loc 1 2286 49 discriminator 3
 7819 00b1 FC 8F 56                		fmul	r5, r6
 7820                             		.loc 1 2286 83 discriminator 3
 7821 00b4 58 A5                   		movu.B	[r10], r5
 7822 00b6 4B 55                   		add	r5, r5
 7823 00b8 ED A4 05                		mov.L	20[r10], r4
 7824 00bb 4B 45                   		add	r4, r5
 7825 00bd DC 55                   		mov.W	[r5], r5
 7826                             		.loc 1 2286 70 discriminator 3
 7827 00bf DF 55                   		mov.W	r5, r5
 7828 00c1 FC 47 5B                		itof	r5, r11
 7829                             		.loc 1 2286 89 discriminator 3
 7830 00c4 ED A1 01                		mov.L	4[r10], r1
 7831 00c7 05 00 00 00             		bsr	_cosf
 7832 00cb EF 15                   		mov.L	r1, r5
 7833                             		.loc 1 2286 87 discriminator 3
 7834 00cd FC 8F B5                		fmul	r11, r5
 7835                             		.loc 1 2286 24 discriminator 3
 7836 00d0 FC 8B 65                		fadd	r6, r5
 7837 00d3 EF 51                   		mov.L	r5, r1
 7838 00d5 05 00 00 00             		bsr	_roundf
 7839 00d9 EF 14                   		mov.L	r1, r4
 7840                             		.loc 1 2286 9 discriminator 3
 7841 00db 58 A5                   		movu.B	[r10], r5
 7842 00dd 4B 55                   		add	r5, r5
 7843 00df ED A3 05                		mov.L	20[r10], r3
 7844 00e2 4B 35                   		add	r3, r5
 7845                             		.loc 1 2286 15 discriminator 3
 7846 00e4 FC 97 44                		ftoi	r4, r4
 7847                             		.loc 1 2286 13 discriminator 3
 7848 00e7 D3 54                   		mov.W	r4, [r5]
2287:C:/Users/John/Desktop/workspace/miniwinwm/MiniWin/gl\gl.c **** 		poly_x[i] = x;
 7849                             		.loc 1 2287 9 discriminator 3
 7850 00e9 58 A5                   		movu.B	[r10], r5
 7851 00eb 4B 55                   		add	r5, r5
 7852 00ed ED A4 04                		mov.L	16[r10], r4
 7853 00f0 4B 45                   		add	r4, r5
 7854                             		.loc 1 2287 13 discriminator 3
 7855 00f2 DD A4 04                		mov.W	8[r10], r4
 7856 00f5 D3 54                   		mov.W	r4, [r5]
2283:C:/Users/John/Desktop/workspace/miniwinwm/MiniWin/gl\gl.c **** 	{
 7857                             		.loc 1 2283 34 discriminator 3
 7858 00f7 CC A5                   		mov.B	[r10], r5
 7859 00f9 62 15                   		add	#1, r5
 7860 00fb C3 A5                   		mov.B	r5, [r10]
 7861                             	.L455:
2283:C:/Users/John/Desktop/workspace/miniwinwm/MiniWin/gl\gl.c **** 	{
 7862                             		.loc 1 2283 2 discriminator 1
 7863 00fd 58 A4                   		movu.B	[r10], r4
 7864 00ff 59 A5 0C                		movu.B	12[r10], r5
 7865 0102 47 54                   		cmp	r5, r4
 7866 0104 22 05 38 49 FF          		bltu	.L456
 7867                             	.L451:
2288:C:/Users/John/Desktop/workspace/miniwinwm/MiniWin/gl\gl.c **** 	}
2289:C:/Users/John/Desktop/workspace/miniwinwm/MiniWin/gl\gl.c **** }
 7868                             		.loc 1 2289 1
 7869 0109 3F 6B 0C                		rtsd	#48, r6-r11
 7870                             	.LFE47:
 7872                             		.section	.text.mw_gl_scale_shape,"ax",@progbits
 7873                             		.global	_mw_gl_scale_shape
 7875                             	_mw_gl_scale_shape:
 7876                             	.LFB48:
2290:C:/Users/John/Desktop/workspace/miniwinwm/MiniWin/gl\gl.c **** 
2291:C:/Users/John/Desktop/workspace/miniwinwm/MiniWin/gl\gl.c **** void mw_gl_scale_shape(uint8_t poly_corners, int16_t *poly_x, int16_t *poly_y, int16_t scale_x, int
2292:C:/Users/John/Desktop/workspace/miniwinwm/MiniWin/gl\gl.c **** {
 7877                             		.loc 1 2292 1
 7878 0000 6E 6B                   		pushm	r6-r11
 7879                             	.LCFI121:
 7880 0002 71 0A EC                		add	#-20, r0, r10
 7881                             	.LCFI122:
 7882 0005 EF A0                   		mov.L	r10, r0
 7883 0007 75 4B 30                		mov.L	#48, r11
 7884 000a 4B AB                   		add	r10, r11
 7885 000c C7 A1 04                		mov.B	r1, 4[r10]
 7886 000f E7 A2 02                		mov.L	r2, 8[r10]
 7887 0012 E7 A3 03                		mov.L	r3, 12[r10]
 7888 0015 D7 A4 03                		mov.W	r4, 6[r10]
2293:C:/Users/John/Desktop/workspace/miniwinwm/MiniWin/gl\gl.c **** 	uint8_t i;
2294:C:/Users/John/Desktop/workspace/miniwinwm/MiniWin/gl\gl.c **** 
2295:C:/Users/John/Desktop/workspace/miniwinwm/MiniWin/gl\gl.c **** 	if (poly_x == NULL || poly_y == NULL)
 7889                             		.loc 1 2295 5
 7890 0018 ED A5 02                		mov.L	8[r10], r5
 7891 001b 61 05                   		cmp	#0, r5
 7892 001d 10                      		beq	.L458
 7893                             		.loc 1 2295 21 discriminator 1
 7894 001e ED A5 03                		mov.L	12[r10], r5
 7895 0021 61 05                   		cmp	#0, r5
 7896 0023 21 1A                   		bne	.L459
 7897                             	.L458:
2296:C:/Users/John/Desktop/workspace/miniwinwm/MiniWin/gl\gl.c **** 	{
2297:C:/Users/John/Desktop/workspace/miniwinwm/MiniWin/gl\gl.c **** 		MW_ASSERT((bool)false, "Null pointer argument");
 7898                             		.loc 1 2297 3
 7899 0025 FB 42 00 00 00 00       		mov.L	#.LC0, r4
 7900 002b FB 3A F9 08             		mov.L	#0x8f9, r3
 7901 002f FB 22 00 00 00 00       		mov.L	#___func__.3565, r2
 7902 0035 66 01                   		mov	#0, r1
 7903 0037 05 00 00 00             		bsr	_mw_debug_print_assert
2298:C:/Users/John/Desktop/workspace/miniwinwm/MiniWin/gl\gl.c **** 		return;
 7904                             		.loc 1 2298 3
 7905 003b 2E 7D                   		bra	.L457
 7906                             	.L459:
2299:C:/Users/John/Desktop/workspace/miniwinwm/MiniWin/gl\gl.c **** 	}
2300:C:/Users/John/Desktop/workspace/miniwinwm/MiniWin/gl\gl.c **** 
2301:C:/Users/John/Desktop/workspace/miniwinwm/MiniWin/gl\gl.c **** 	for (i = 0U; i < poly_corners; i++)
 7907                             		.loc 1 2301 9
 7908 003d F8 A4 00                		mov.B	#0, [r10]
 7909                             		.loc 1 2301 2
 7910 0040 2E 6F                   		bra	.L461
 7911                             	.L462:
2302:C:/Users/John/Desktop/workspace/miniwinwm/MiniWin/gl\gl.c **** 	{
2303:C:/Users/John/Desktop/workspace/miniwinwm/MiniWin/gl\gl.c **** 		poly_x[i] = poly_x[i] * scale_x / 10;
 7912                             		.loc 1 2303 21 discriminator 3
 7913 0042 58 A5                   		movu.B	[r10], r5
 7914 0044 4B 55                   		add	r5, r5
 7915 0046 ED A4 02                		mov.L	8[r10], r4
 7916 0049 4B 45                   		add	r4, r5
 7917 004b DC 55                   		mov.W	[r5], r5
 7918 004d DF 54                   		mov.W	r5, r4
 7919                             		.loc 1 2303 25 discriminator 3
 7920 004f DD A5 03                		mov.W	6[r10], r5
 7921 0052 4F 54                   		mul	r5, r4
 7922                             		.loc 1 2303 35 discriminator 3
 7923 0054 FB 72 67 66 66 66       		mov.L	#0x66666667, r7
 7924 005a FC 1B 47                		emul	r4, r7
 7925 005d EF 75                   		mov.L	r7, r5
 7926 005f EF 86                   		mov.L	r8, r6
 7927 0061 FD A2 63                		shar	#2, r6, r3
 7928 0064 FD BF 45                		shar	#31, r4, r5
 7929 0067 43 53                   		sub	r5, r3
 7930                             		.loc 1 2303 9 discriminator 3
 7931 0069 58 A5                   		movu.B	[r10], r5
 7932 006b 4B 55                   		add	r5, r5
 7933 006d ED A4 02                		mov.L	8[r10], r4
 7934 0070 4B 45                   		add	r4, r5
 7935                             		.loc 1 2303 13 discriminator 3
 7936 0072 DF 34                   		mov.W	r3, r4
 7937 0074 D3 54                   		mov.W	r4, [r5]
2304:C:/Users/John/Desktop/workspace/miniwinwm/MiniWin/gl\gl.c **** 		poly_y[i] = poly_y[i] * scale_y / 10;
 7938                             		.loc 1 2304 21 discriminator 3
 7939 0076 58 A5                   		movu.B	[r10], r5
 7940 0078 4B 55                   		add	r5, r5
 7941 007a ED A4 03                		mov.L	12[r10], r4
 7942 007d 4B 45                   		add	r4, r5
 7943 007f DC 55                   		mov.W	[r5], r5
 7944 0081 DF 54                   		mov.W	r5, r4
 7945                             		.loc 1 2304 25 discriminator 3
 7946 0083 DC B5                   		mov.W	[r11], r5
 7947 0085 4F 54                   		mul	r5, r4
 7948                             		.loc 1 2304 35 discriminator 3
 7949 0087 FB 72 67 66 66 66       		mov.L	#0x66666667, r7
 7950 008d FC 1B 47                		emul	r4, r7
 7951 0090 EF 75                   		mov.L	r7, r5
 7952 0092 EF 86                   		mov.L	r8, r6
 7953 0094 FD A2 63                		shar	#2, r6, r3
 7954 0097 FD BF 45                		shar	#31, r4, r5
 7955 009a 43 53                   		sub	r5, r3
 7956                             		.loc 1 2304 9 discriminator 3
 7957 009c 58 A5                   		movu.B	[r10], r5
 7958 009e 4B 55                   		add	r5, r5
 7959 00a0 ED A4 03                		mov.L	12[r10], r4
 7960 00a3 4B 45                   		add	r4, r5
 7961                             		.loc 1 2304 13 discriminator 3
 7962 00a5 DF 34                   		mov.W	r3, r4
 7963 00a7 D3 54                   		mov.W	r4, [r5]
2301:C:/Users/John/Desktop/workspace/miniwinwm/MiniWin/gl\gl.c **** 	{
 7964                             		.loc 1 2301 34 discriminator 3
 7965 00a9 CC A5                   		mov.B	[r10], r5
 7966 00ab 62 15                   		add	#1, r5
 7967 00ad C3 A5                   		mov.B	r5, [r10]
 7968                             	.L461:
2301:C:/Users/John/Desktop/workspace/miniwinwm/MiniWin/gl\gl.c **** 	{
 7969                             		.loc 1 2301 2 discriminator 1
 7970 00af 58 A4                   		movu.B	[r10], r4
 7971 00b1 59 A5 04                		movu.B	4[r10], r5
 7972 00b4 47 54                   		cmp	r5, r4
 7973 00b6 23 8C                   		bltu	.L462
 7974                             	.L457:
2305:C:/Users/John/Desktop/workspace/miniwinwm/MiniWin/gl\gl.c **** 	}
2306:C:/Users/John/Desktop/workspace/miniwinwm/MiniWin/gl\gl.c **** }
 7975                             		.loc 1 2306 1
 7976 00b8 3F 6B 0B                		rtsd	#44, r6-r11
 7977                             	.LFE48:
 7979                             		.section	.text.mw_gl_arc,"ax",@progbits
 7980                             		.global	_mw_gl_arc
 7982                             	_mw_gl_arc:
 7983                             	.LFB49:
2307:C:/Users/John/Desktop/workspace/miniwinwm/MiniWin/gl\gl.c **** 
2308:C:/Users/John/Desktop/workspace/miniwinwm/MiniWin/gl\gl.c **** void mw_gl_arc(const mw_gl_draw_info_t *draw_info, int16_t centre_x, int16_t centre_y, int16_t radi
2309:C:/Users/John/Desktop/workspace/miniwinwm/MiniWin/gl\gl.c **** {
 7984                             		.loc 1 2309 1
 7985 0000 6E 6A                   		pushm	r6-r10
 7986                             	.LCFI123:
 7987 0002 71 0A D4                		add	#-44, r0, r10
 7988                             	.LCFI124:
 7989 0005 71 A0 FC                		add	#-4, r10, r0
 7990                             	.LCFI125:
 7991 0008 75 46 44                		mov.L	#0x44, r6
 7992 000b 4B A6                   		add	r10, r6
 7993 000d E7 A1 07                		mov.L	r1, 28[r10]
 7994 0010 D7 A2 10                		mov.W	r2, 32[r10]
 7995 0013 D7 A3 11                		mov.W	r3, 34[r10]
 7996 0016 D7 A4 12                		mov.W	r4, 36[r10]
2310:C:/Users/John/Desktop/workspace/miniwinwm/MiniWin/gl\gl.c **** 	float angle;
2311:C:/Users/John/Desktop/workspace/miniwinwm/MiniWin/gl\gl.c **** 	float angle_step;
2312:C:/Users/John/Desktop/workspace/miniwinwm/MiniWin/gl\gl.c **** 	float start_angle_rads;
2313:C:/Users/John/Desktop/workspace/miniwinwm/MiniWin/gl\gl.c **** 	float end_angle_rads;
2314:C:/Users/John/Desktop/workspace/miniwinwm/MiniWin/gl\gl.c **** 	int16_t x;
2315:C:/Users/John/Desktop/workspace/miniwinwm/MiniWin/gl\gl.c **** 	int16_t y;
2316:C:/Users/John/Desktop/workspace/miniwinwm/MiniWin/gl\gl.c **** 	uint16_t mask = 0x8000U;
 7997                             		.loc 1 2316 11
 7998 0019 F9 A9 02 00 80          		mov.W	#-32768, 4[r10]
2317:C:/Users/John/Desktop/workspace/miniwinwm/MiniWin/gl\gl.c **** 	float temp_float;
2318:C:/Users/John/Desktop/workspace/miniwinwm/MiniWin/gl\gl.c **** 
2319:C:/Users/John/Desktop/workspace/miniwinwm/MiniWin/gl\gl.c **** 	if (draw_info == NULL)
 7999                             		.loc 1 2319 5
 8000 001e ED A5 07                		mov.L	28[r10], r5
 8001 0021 61 05                   		cmp	#0, r5
 8002 0023 21 1B                   		bne	.L464
2320:C:/Users/John/Desktop/workspace/miniwinwm/MiniWin/gl\gl.c **** 	{
2321:C:/Users/John/Desktop/workspace/miniwinwm/MiniWin/gl\gl.c **** 		MW_ASSERT((bool)false, "Null pointer argument");
 8003                             		.loc 1 2321 3
 8004 0025 FB 42 00 00 00 00       		mov.L	#.LC0, r4
 8005 002b FB 3A 11 09             		mov.L	#0x911, r3
 8006 002f FB 22 00 00 00 00       		mov.L	#___func__.3585, r2
 8007 0035 66 01                   		mov	#0, r1
 8008 0037 05 00 00 00             		bsr	_mw_debug_print_assert
2322:C:/Users/John/Desktop/workspace/miniwinwm/MiniWin/gl\gl.c **** 		return;
 8009                             		.loc 1 2322 3
 8010 003b 38 71 01                		bra	.L463
 8011                             	.L464:
2323:C:/Users/John/Desktop/workspace/miniwinwm/MiniWin/gl\gl.c **** 	}
2324:C:/Users/John/Desktop/workspace/miniwinwm/MiniWin/gl\gl.c **** 
2325:C:/Users/John/Desktop/workspace/miniwinwm/MiniWin/gl\gl.c **** 	if (start_angle > 360 || end_angle > 360 || radius == 0 || start_angle == end_angle)
 8012                             		.loc 1 2325 5
 8013 003e DC 65                   		mov.W	[r6], r5
 8014 0040 76 05 68 01             		cmp	#0x168, r5
 8015 0044 2B 05 38 65 01          		bgt	.L475
 8016                             		.loc 1 2325 24 discriminator 1
 8017 0049 98 6D                   		mov.W	2[r6], r5
 8018 004b 76 05 68 01             		cmp	#0x168, r5
 8019 004f 2B 05 38 5A 01          		bgt	.L475
 8020                             		.loc 1 2325 43 discriminator 2
 8021 0054 DD A5 12                		mov.W	36[r10], r5
 8022 0057 61 05                   		cmp	#0, r5
 8023 0059 3A 52 01                		beq	.L475
 8024                             		.loc 1 2325 58 discriminator 3
 8025 005c DC 64                   		mov.W	[r6], r4
 8026 005e 98 6D                   		mov.W	2[r6], r5
 8027 0060 47 54                   		cmp	r5, r4
 8028 0062 3A 49 01                		beq	.L475
2326:C:/Users/John/Desktop/workspace/miniwinwm/MiniWin/gl\gl.c **** 	{
2327:C:/Users/John/Desktop/workspace/miniwinwm/MiniWin/gl\gl.c **** 		return;
2328:C:/Users/John/Desktop/workspace/miniwinwm/MiniWin/gl\gl.c **** 	}
2329:C:/Users/John/Desktop/workspace/miniwinwm/MiniWin/gl\gl.c **** 
2330:C:/Users/John/Desktop/workspace/miniwinwm/MiniWin/gl\gl.c **** 	angle_step = 1.0f / (float)radius;
 8029                             		.loc 1 2330 22
 8030 0065 DD A5 12                		mov.W	36[r10], r5
 8031 0068 FC 47 55                		itof	r5, r5
 8032                             		.loc 1 2330 13
 8033 006b FB 42 00 00 80 3F       		mov.L	#0x3f800000, r4
 8034 0071 EF 47                   		mov.L	r4, r7
 8035 0073 FC 93 57                		fdiv	r5, r7
 8036 0076 EF 75                   		mov.L	r7, r5
 8037 0078 E7 A5 02                		mov.L	r5, 8[r10]
2331:C:/Users/John/Desktop/workspace/miniwinwm/MiniWin/gl\gl.c **** 
2332:C:/Users/John/Desktop/workspace/miniwinwm/MiniWin/gl\gl.c **** 	if (end_angle < start_angle)
 8038                             		.loc 1 2332 5
 8039 007b 98 6C                   		mov.W	2[r6], r4
 8040 007d DC 65                   		mov.W	[r6], r5
 8041 007f 47 54                   		cmp	r5, r4
 8042 0081 28 35                   		bge	.L468
2333:C:/Users/John/Desktop/workspace/miniwinwm/MiniWin/gl\gl.c **** 	{
2334:C:/Users/John/Desktop/workspace/miniwinwm/MiniWin/gl\gl.c **** 		mw_gl_arc(draw_info, centre_x, centre_y, radius, 0, end_angle);
 8043                             		.loc 1 2334 3
 8044 0083 98 6D                   		mov.W	2[r6], r5
 8045 0085 90 0D                   		mov.W	r5, 2[r0]
 8046 0087 F8 05 00                		mov.W	#0, [r0]
 8047 008a DD A4 12                		mov.W	36[r10], r4
 8048 008d DD A3 11                		mov.W	34[r10], r3
 8049 0090 DD A2 10                		mov.W	32[r10], r2
 8050 0093 ED A1 07                		mov.L	28[r10], r1
 8051 0096 05 00 00 00             		bsr	_mw_gl_arc
2335:C:/Users/John/Desktop/workspace/miniwinwm/MiniWin/gl\gl.c **** 		mw_gl_arc(draw_info, centre_x, centre_y, radius, start_angle, 360);
 8052                             		.loc 1 2335 3
 8053 009a F9 09 01 68 01          		mov.W	#0x168, 2[r0]
 8054 009f DC 65                   		mov.W	[r6], r5
 8055 00a1 D3 05                   		mov.W	r5, [r0]
 8056 00a3 DD A4 12                		mov.W	36[r10], r4
 8057 00a6 DD A3 11                		mov.W	34[r10], r3
 8058 00a9 DD A2 10                		mov.W	32[r10], r2
 8059 00ac ED A1 07                		mov.L	28[r10], r1
 8060 00af 05 00 00 00             		bsr	_mw_gl_arc
2336:C:/Users/John/Desktop/workspace/miniwinwm/MiniWin/gl\gl.c **** 		return;
 8061                             		.loc 1 2336 3
 8062 00b3 38 F9 00                		bra	.L463
 8063                             	.L468:
2337:C:/Users/John/Desktop/workspace/miniwinwm/MiniWin/gl\gl.c **** 	}
2338:C:/Users/John/Desktop/workspace/miniwinwm/MiniWin/gl\gl.c **** 
2339:C:/Users/John/Desktop/workspace/miniwinwm/MiniWin/gl\gl.c **** 	if (gc.line == MW_GL_SOLID_LINE)
 8064                             		.loc 1 2339 8
 8065 00b6 FB 52 00 00 00 00       		mov.L	#_gc, r5
 8066 00bc A8 DD                   		mov.L	12[r5], r5
 8067                             		.loc 1 2339 5
 8068 00be 77 05 FF FF 00          		cmp	#0xffff, r5
 8069 00c3 21 1D                   		bne	.L469
2340:C:/Users/John/Desktop/workspace/miniwinwm/MiniWin/gl\gl.c **** 	{
2341:C:/Users/John/Desktop/workspace/miniwinwm/MiniWin/gl\gl.c **** 		arc_bres(draw_info, centre_x, centre_y, radius, start_angle, end_angle);
 8070                             		.loc 1 2341 3
 8071 00c5 98 6D                   		mov.W	2[r6], r5
 8072 00c7 90 0D                   		mov.W	r5, 2[r0]
 8073 00c9 DC 65                   		mov.W	[r6], r5
 8074 00cb D3 05                   		mov.W	r5, [r0]
 8075 00cd DD A4 12                		mov.W	36[r10], r4
 8076 00d0 DD A3 11                		mov.W	34[r10], r3
 8077 00d3 DD A2 10                		mov.W	32[r10], r2
 8078 00d6 ED A1 07                		mov.L	28[r10], r1
 8079 00d9 05 00 00 00             		bsr	_arc_bres
2342:C:/Users/John/Desktop/workspace/miniwinwm/MiniWin/gl\gl.c **** 		return;
 8080                             		.loc 1 2342 3
 8081 00dd 38 CF 00                		bra	.L463
 8082                             	.L469:
2343:C:/Users/John/Desktop/workspace/miniwinwm/MiniWin/gl\gl.c **** 	}
2344:C:/Users/John/Desktop/workspace/miniwinwm/MiniWin/gl\gl.c **** 
2345:C:/Users/John/Desktop/workspace/miniwinwm/MiniWin/gl\gl.c **** 	start_angle_rads = (float)start_angle / DEGREES_IN_RAD;
 8083                             		.loc 1 2345 21
 8084 00e0 DC 65                   		mov.W	[r6], r5
 8085 00e2 FC 47 55                		itof	r5, r5
 8086                             		.loc 1 2345 19
 8087 00e5 FD 72 45 E0 2E 65 42    		fdiv	#0x42652ee0, r5
 8088 00ec E7 A5 03                		mov.L	r5, 12[r10]
2346:C:/Users/John/Desktop/workspace/miniwinwm/MiniWin/gl\gl.c **** 	end_angle_rads = (float)end_angle / DEGREES_IN_RAD;
 8089                             		.loc 1 2346 19
 8090 00ef 98 6D                   		mov.W	2[r6], r5
 8091 00f1 FC 47 55                		itof	r5, r5
 8092                             		.loc 1 2346 17
 8093 00f4 FD 72 45 E0 2E 65 42    		fdiv	#0x42652ee0, r5
 8094 00fb E7 A5 04                		mov.L	r5, 16[r10]
2347:C:/Users/John/Desktop/workspace/miniwinwm/MiniWin/gl\gl.c **** 	for (angle = (float)start_angle_rads; angle <= (float)end_angle_rads; angle += angle_step)
 8095                             		.loc 1 2347 13
 8096 00fe ED A5 03                		mov.L	12[r10], r5
 8097 0101 E3 A5                   		mov.L	r5, [r10]
 8098                             		.loc 1 2347 2
 8099 0103 38 99 00                		bra	.L470
 8100                             	.L474:
2348:C:/Users/John/Desktop/workspace/miniwinwm/MiniWin/gl\gl.c **** 	{
2349:C:/Users/John/Desktop/workspace/miniwinwm/MiniWin/gl\gl.c **** 		temp_float = (float)radius * sinf(angle);
 8101                             		.loc 1 2349 16
 8102 0106 DD A5 12                		mov.W	36[r10], r5
 8103 0109 FC 47 56                		itof	r5, r6
 8104                             		.loc 1 2349 32
 8105 010c EC A1                   		mov.L	[r10], r1
 8106 010e 05 00 00 00             		bsr	_sinf
 8107 0112 EF 15                   		mov.L	r1, r5
 8108                             		.loc 1 2349 14
 8109 0114 FC 8F 65                		fmul	r6, r5
 8110 0117 E7 A5 05                		mov.L	r5, 20[r10]
2350:C:/Users/John/Desktop/workspace/miniwinwm/MiniWin/gl\gl.c **** 		x = centre_x + (int16_t)temp_float;
 8111                             		.loc 1 2350 18
 8112 011a ED A5 05                		mov.L	20[r10], r5
 8113 011d FC 97 55                		ftoi	r5, r5
 8114 0120 DF 54                   		mov.W	r5, r4
 8115                             		.loc 1 2350 16
 8116 0122 DD A5 10                		mov.W	32[r10], r5
 8117 0125 4B 45                   		add	r4, r5
 8118                             		.loc 1 2350 5
 8119 0127 D7 A5 0C                		mov.W	r5, 24[r10]
2351:C:/Users/John/Desktop/workspace/miniwinwm/MiniWin/gl\gl.c **** 		temp_float = (float)radius * cosf(angle);
 8120                             		.loc 1 2351 16
 8121 012a DD A5 12                		mov.W	36[r10], r5
 8122 012d FC 47 56                		itof	r5, r6
 8123                             		.loc 1 2351 32
 8124 0130 EC A1                   		mov.L	[r10], r1
 8125 0132 05 00 00 00             		bsr	_cosf
 8126 0136 EF 15                   		mov.L	r1, r5
 8127                             		.loc 1 2351 14
 8128 0138 FC 8F 65                		fmul	r6, r5
 8129 013b E7 A5 05                		mov.L	r5, 20[r10]
2352:C:/Users/John/Desktop/workspace/miniwinwm/MiniWin/gl\gl.c **** 		y = centre_y - (int16_t)temp_float;
 8130                             		.loc 1 2352 16
 8131 013e DD A4 11                		mov.W	34[r10], r4
 8132                             		.loc 1 2352 18
 8133 0141 ED A5 05                		mov.L	20[r10], r5
 8134 0144 FC 97 55                		ftoi	r5, r5
 8135                             		.loc 1 2352 16
 8136 0147 FF 05 54                		sub	r5, r4, r5
 8137                             		.loc 1 2352 5
 8138 014a D7 A5 0D                		mov.W	r5, 26[r10]
2353:C:/Users/John/Desktop/workspace/miniwinwm/MiniWin/gl\gl.c **** 		if (((uint16_t)gc.line & mask) == mask)
 8139                             		.loc 1 2353 20
 8140 014d FB 52 00 00 00 00       		mov.L	#_gc, r5
 8141 0153 A8 DD                   		mov.L	12[r5], r5
 8142                             		.loc 1 2353 34
 8143 0155 DD A4 02                		mov.W	4[r10], r4
 8144 0158 53 45                   		and	r4, r5
 8145                             		.loc 1 2353 6
 8146 015a 5D A4 02                		movu.W	4[r10], r4
 8147 015d 5F 55                   		movu.W	r5, r5
 8148 015f 47 54                   		cmp	r5, r4
 8149 0161 21 11                   		bne	.L471
2354:C:/Users/John/Desktop/workspace/miniwinwm/MiniWin/gl\gl.c **** 		{
2355:C:/Users/John/Desktop/workspace/miniwinwm/MiniWin/gl\gl.c **** 			mw_gl_fg_pixel(draw_info, x, y);
 8150                             		.loc 1 2355 4
 8151 0163 DD A3 0D                		mov.W	26[r10], r3
 8152 0166 DD A2 0C                		mov.W	24[r10], r2
 8153 0169 ED A1 07                		mov.L	28[r10], r1
 8154 016c 05 00 00 00             		bsr	_mw_gl_fg_pixel
 8155 0170 2E 0F                   		bra	.L472
 8156                             	.L471:
2356:C:/Users/John/Desktop/workspace/miniwinwm/MiniWin/gl\gl.c **** 		}
2357:C:/Users/John/Desktop/workspace/miniwinwm/MiniWin/gl\gl.c **** 		else
2358:C:/Users/John/Desktop/workspace/miniwinwm/MiniWin/gl\gl.c **** 		{
2359:C:/Users/John/Desktop/workspace/miniwinwm/MiniWin/gl\gl.c **** 			mw_gl_bg_pixel(draw_info, x, y);
 8157                             		.loc 1 2359 4
 8158 0172 DD A3 0D                		mov.W	26[r10], r3
 8159 0175 DD A2 0C                		mov.W	24[r10], r2
 8160 0178 ED A1 07                		mov.L	28[r10], r1
 8161 017b 05 00 00 00             		bsr	_mw_gl_bg_pixel
 8162                             	.L472:
2360:C:/Users/John/Desktop/workspace/miniwinwm/MiniWin/gl\gl.c **** 		}
2361:C:/Users/John/Desktop/workspace/miniwinwm/MiniWin/gl\gl.c **** 		mask >>= 1U;
 8163                             		.loc 1 2361 8
 8164 017f 5D A5 02                		movu.W	4[r10], r5
 8165 0182 68 15                   		shlr	#1, r5
 8166 0184 D7 A5 02                		mov.W	r5, 4[r10]
2362:C:/Users/John/Desktop/workspace/miniwinwm/MiniWin/gl\gl.c **** 		if (mask == 0x0000U)
 8167                             		.loc 1 2362 6
 8168 0187 5D A5 02                		movu.W	4[r10], r5
 8169 018a 61 05                   		cmp	#0, r5
 8170 018c 1E                      		bne	.L473
2363:C:/Users/John/Desktop/workspace/miniwinwm/MiniWin/gl\gl.c **** 		{
2364:C:/Users/John/Desktop/workspace/miniwinwm/MiniWin/gl\gl.c **** 			mask = 0x8000U;
 8171                             		.loc 1 2364 9
 8172 018d F9 A9 02 00 80          		mov.W	#-32768, 4[r10]
 8173                             	.L473:
2347:C:/Users/John/Desktop/workspace/miniwinwm/MiniWin/gl\gl.c **** 	{
 8174                             		.loc 1 2347 78 discriminator 2
 8175 0192 EC A4                   		mov.L	[r10], r4
 8176 0194 ED A5 02                		mov.L	8[r10], r5
 8177 0197 FC 8B 45                		fadd	r4, r5
 8178 019a E3 A5                   		mov.L	r5, [r10]
 8179                             	.L470:
2347:C:/Users/John/Desktop/workspace/miniwinwm/MiniWin/gl\gl.c **** 	{
 8180                             		.loc 1 2347 2 discriminator 1
 8181 019c ED A4 04                		mov.L	16[r10], r4
 8182 019f EC A5                   		mov.L	[r10], r5
 8183 01a1 FC 87 54                		fcmp	r5, r4
 8184 01a4 27 05 38 60 FF          		bpz	.L474
 8185 01a9 2E 03                   		bra	.L463
 8186                             	.L475:
2327:C:/Users/John/Desktop/workspace/miniwinwm/MiniWin/gl\gl.c **** 	}
 8187                             		.loc 1 2327 3
 8188 01ab 03                      		nop
 8189                             		.balign 8,3,2
 8190                             	.L463:
2365:C:/Users/John/Desktop/workspace/miniwinwm/MiniWin/gl\gl.c **** 		}
2366:C:/Users/John/Desktop/workspace/miniwinwm/MiniWin/gl\gl.c **** 	}
2367:C:/Users/John/Desktop/workspace/miniwinwm/MiniWin/gl\gl.c **** }
 8191                             		.loc 1 2367 1
 8192 01ac 3F 6A 11                		rtsd	#68, r6-r10
 8193                             	.LFE49:
 8195 01af 03                      		.section	.text.mw_gl_rounded_rectangle,"ax",@progbits
 8196                             		.global	_mw_gl_rounded_rectangle
 8198                             	_mw_gl_rounded_rectangle:
 8199                             	.LFB50:
2368:C:/Users/John/Desktop/workspace/miniwinwm/MiniWin/gl\gl.c **** 
2369:C:/Users/John/Desktop/workspace/miniwinwm/MiniWin/gl\gl.c **** void mw_gl_rounded_rectangle(const mw_gl_draw_info_t *draw_info, int16_t x, int16_t y, int16_t widt
2370:C:/Users/John/Desktop/workspace/miniwinwm/MiniWin/gl\gl.c **** {
 8200                             		.loc 1 2370 1
 8201 0000 7E AA                   		push.l	r10
 8202                             	.LCFI126:
 8203 0002 7E A6                   		push.l	r6
 8204                             	.LCFI127:
 8205 0004 71 0A E8                		add	#-24, r0, r10
 8206                             	.LCFI128:
 8207 0007 71 A0 FC                		add	#-4, r10, r0
 8208                             	.LCFI129:
 8209 000a 75 46 24                		mov.L	#36, r6
 8210 000d 4B A6                   		add	r10, r6
 8211 000f E7 A1 02                		mov.L	r1, 8[r10]
 8212 0012 D7 A2 06                		mov.W	r2, 12[r10]
 8213 0015 D7 A3 07                		mov.W	r3, 14[r10]
 8214 0018 D7 A4 08                		mov.W	r4, 16[r10]
2371:C:/Users/John/Desktop/workspace/miniwinwm/MiniWin/gl\gl.c **** 	bool outline_required = true;
 8215                             		.loc 1 2371 7
 8216 001b F8 A4 01                		mov.B	#1, [r10]
2372:C:/Users/John/Desktop/workspace/miniwinwm/MiniWin/gl\gl.c **** 	mw_gl_border_t border_old;
2373:C:/Users/John/Desktop/workspace/miniwinwm/MiniWin/gl\gl.c **** 
2374:C:/Users/John/Desktop/workspace/miniwinwm/MiniWin/gl\gl.c **** 	if (draw_info == NULL)
 8217                             		.loc 1 2374 5
 8218 001e ED A5 02                		mov.L	8[r10], r5
 8219 0021 61 05                   		cmp	#0, r5
 8220 0023 21 1B                   		bne	.L477
2375:C:/Users/John/Desktop/workspace/miniwinwm/MiniWin/gl\gl.c **** 	{
2376:C:/Users/John/Desktop/workspace/miniwinwm/MiniWin/gl\gl.c **** 		MW_ASSERT((bool)false, "Null pointer argument");
 8221                             		.loc 1 2376 3
 8222 0025 FB 42 00 00 00 00       		mov.L	#.LC0, r4
 8223 002b FB 3A 48 09             		mov.L	#0x948, r3
 8224 002f FB 22 00 00 00 00       		mov.L	#___func__.3599, r2
 8225 0035 66 01                   		mov	#0, r1
 8226 0037 05 00 00 00             		bsr	_mw_debug_print_assert
2377:C:/Users/John/Desktop/workspace/miniwinwm/MiniWin/gl\gl.c **** 		return;
 8227                             		.loc 1 2377 3
 8228 003b 38 E2 02                		bra	.L476
 8229                             	.L477:
2378:C:/Users/John/Desktop/workspace/miniwinwm/MiniWin/gl\gl.c **** 	}
2379:C:/Users/John/Desktop/workspace/miniwinwm/MiniWin/gl\gl.c **** 
2380:C:/Users/John/Desktop/workspace/miniwinwm/MiniWin/gl\gl.c **** 	if (width < corner_radius * 2 || height < corner_radius * 2)
 8230                             		.loc 1 2380 12
 8231 003e DD A4 08                		mov.W	16[r10], r4
 8232                             		.loc 1 2380 28
 8233 0041 98 6D                   		mov.W	2[r6], r5
 8234 0043 4B 55                   		add	r5, r5
 8235                             		.loc 1 2380 5
 8236 0045 47 54                   		cmp	r5, r4
 8237 0047 28 05 38 D3 02          		blt	.L482
 8238                             		.loc 1 2380 42 discriminator 1
 8239 004c DC 64                   		mov.W	[r6], r4
 8240                             		.loc 1 2380 58 discriminator 1
 8241 004e 98 6D                   		mov.W	2[r6], r5
 8242 0050 4B 55                   		add	r5, r5
 8243                             		.loc 1 2380 32 discriminator 1
 8244 0052 47 54                   		cmp	r5, r4
 8245 0054 28 05 38 C6 02          		blt	.L482
2381:C:/Users/John/Desktop/workspace/miniwinwm/MiniWin/gl\gl.c **** 	{
2382:C:/Users/John/Desktop/workspace/miniwinwm/MiniWin/gl\gl.c **** 		return;
2383:C:/Users/John/Desktop/workspace/miniwinwm/MiniWin/gl\gl.c **** 	}
2384:C:/Users/John/Desktop/workspace/miniwinwm/MiniWin/gl\gl.c **** 
2385:C:/Users/John/Desktop/workspace/miniwinwm/MiniWin/gl\gl.c **** 	if (gc.fill == MW_GL_FILL)
 8246                             		.loc 1 2385 8
 8247 0059 FB 52 00 00 00 00       		mov.L	#_gc, r5
 8248 005f AB 5D                   		mov.L	52[r5], r5
 8249                             		.loc 1 2385 5
 8250 0061 61 15                   		cmp	#1, r5
 8251 0063 3B 59 01                		bne	.L481
2386:C:/Users/John/Desktop/workspace/miniwinwm/MiniWin/gl\gl.c **** 	{
2387:C:/Users/John/Desktop/workspace/miniwinwm/MiniWin/gl\gl.c **** 		border_old = gc.border;
 8252                             		.loc 1 2387 14
 8253 0066 FB 52 00 00 00 00       		mov.L	#_gc, r5
 8254 006c AB 55                   		mov.L	48[r5], r5
 8255 006e E7 A5 01                		mov.L	r5, 4[r10]
2388:C:/Users/John/Desktop/workspace/miniwinwm/MiniWin/gl\gl.c **** 		gc.border = MW_GL_BORDER_OFF;
 8256                             		.loc 1 2388 13
 8257 0071 FB 52 00 00 00 00       		mov.L	#_gc, r5
 8258 0077 3E 5C 00                		mov.L	#0, 48[r5]
2389:C:/Users/John/Desktop/workspace/miniwinwm/MiniWin/gl\gl.c **** 		mw_gl_rectangle(draw_info, x + corner_radius, y, width - (2 * corner_radius), height);
 8259                             		.loc 1 2389 32
 8260 007a DD A4 06                		mov.W	12[r10], r4
 8261 007d 98 6D                   		mov.W	2[r6], r5
 8262 007f 4B 45                   		add	r4, r5
 8263                             		.loc 1 2389 3
 8264 0081 DF 52                   		mov.W	r5, r2
 8265                             		.loc 1 2389 58
 8266 0083 DD A4 08                		mov.W	16[r10], r4
 8267                             		.loc 1 2389 63
 8268 0086 98 6D                   		mov.W	2[r6], r5
 8269 0088 4B 55                   		add	r5, r5
 8270                             		.loc 1 2389 58
 8271 008a FF 05 54                		sub	r5, r4, r5
 8272                             		.loc 1 2389 3
 8273 008d DC 64                   		mov.W	[r6], r4
 8274 008f D3 04                   		mov.W	r4, [r0]
 8275 0091 DF 54                   		mov.W	r5, r4
 8276 0093 DD A3 07                		mov.W	14[r10], r3
 8277 0096 ED A1 02                		mov.L	8[r10], r1
 8278 0099 05 00 00 00             		bsr	_mw_gl_rectangle
2390:C:/Users/John/Desktop/workspace/miniwinwm/MiniWin/gl\gl.c **** 		mw_gl_rectangle(draw_info, x, y + corner_radius, corner_radius, height - (2 * corner_radius));
 8279                             		.loc 1 2390 35
 8280 009d DD A4 07                		mov.W	14[r10], r4
 8281 00a0 98 6D                   		mov.W	2[r6], r5
 8282 00a2 4B 45                   		add	r4, r5
 8283                             		.loc 1 2390 3
 8284 00a4 DF 53                   		mov.W	r5, r3
 8285                             		.loc 1 2390 74
 8286 00a6 DC 64                   		mov.W	[r6], r4
 8287                             		.loc 1 2390 79
 8288 00a8 98 6D                   		mov.W	2[r6], r5
 8289 00aa 4B 55                   		add	r5, r5
 8290                             		.loc 1 2390 74
 8291 00ac FF 05 54                		sub	r5, r4, r5
 8292                             		.loc 1 2390 3
 8293 00af D3 05                   		mov.W	r5, [r0]
 8294 00b1 98 6C                   		mov.W	2[r6], r4
 8295 00b3 DD A2 06                		mov.W	12[r10], r2
 8296 00b6 ED A1 02                		mov.L	8[r10], r1
 8297 00b9 05 00 00 00             		bsr	_mw_gl_rectangle
2391:C:/Users/John/Desktop/workspace/miniwinwm/MiniWin/gl\gl.c **** 		mw_gl_rectangle(draw_info, x + width - corner_radius, y + corner_radius, corner_radius, height - 
 8298                             		.loc 1 2391 32
 8299 00bd DD A4 06                		mov.W	12[r10], r4
 8300 00c0 DD A5 08                		mov.W	16[r10], r5
 8301 00c3 4B 45                   		add	r4, r5
 8302 00c5 DF 54                   		mov.W	r5, r4
 8303                             		.loc 1 2391 40
 8304 00c7 98 6D                   		mov.W	2[r6], r5
 8305 00c9 FF 05 54                		sub	r5, r4, r5
 8306                             		.loc 1 2391 3
 8307 00cc DF 52                   		mov.W	r5, r2
 8308                             		.loc 1 2391 59
 8309 00ce DD A4 07                		mov.W	14[r10], r4
 8310 00d1 98 6D                   		mov.W	2[r6], r5
 8311 00d3 4B 45                   		add	r4, r5
 8312                             		.loc 1 2391 3
 8313 00d5 DF 53                   		mov.W	r5, r3
 8314                             		.loc 1 2391 98
 8315 00d7 DC 64                   		mov.W	[r6], r4
 8316                             		.loc 1 2391 103
 8317 00d9 98 6D                   		mov.W	2[r6], r5
 8318 00db 4B 55                   		add	r5, r5
 8319                             		.loc 1 2391 98
 8320 00dd FF 05 54                		sub	r5, r4, r5
 8321                             		.loc 1 2391 3
 8322 00e0 D3 05                   		mov.W	r5, [r0]
 8323 00e2 98 6C                   		mov.W	2[r6], r4
 8324 00e4 ED A1 02                		mov.L	8[r10], r1
 8325 00e7 05 00 00 00             		bsr	_mw_gl_rectangle
2392:C:/Users/John/Desktop/workspace/miniwinwm/MiniWin/gl\gl.c **** 		mw_gl_segment(draw_info, x + corner_radius, y + corner_radius, corner_radius + 1, 270, 360);
 8326                             		.loc 1 2392 30
 8327 00eb DD A4 06                		mov.W	12[r10], r4
 8328 00ee 98 6D                   		mov.W	2[r6], r5
 8329 00f0 4B 45                   		add	r4, r5
 8330                             		.loc 1 2392 3
 8331 00f2 DF 52                   		mov.W	r5, r2
 8332                             		.loc 1 2392 49
 8333 00f4 DD A4 07                		mov.W	14[r10], r4
 8334 00f7 98 6D                   		mov.W	2[r6], r5
 8335 00f9 4B 45                   		add	r4, r5
 8336                             		.loc 1 2392 3
 8337 00fb DF 53                   		mov.W	r5, r3
 8338                             		.loc 1 2392 80
 8339 00fd 98 6D                   		mov.W	2[r6], r5
 8340 00ff 62 15                   		add	#1, r5
 8341                             		.loc 1 2392 3
 8342 0101 F9 09 01 68 01          		mov.W	#0x168, 2[r0]
 8343 0106 F8 09 0E 01             		mov.W	#0x10e, [r0]
 8344 010a DF 54                   		mov.W	r5, r4
 8345 010c ED A1 02                		mov.L	8[r10], r1
 8346 010f 05 00 00 00             		bsr	_mw_gl_segment
2393:C:/Users/John/Desktop/workspace/miniwinwm/MiniWin/gl\gl.c **** 		mw_gl_segment(draw_info, x + width - corner_radius - 1, y + corner_radius, corner_radius + 1, 0, 
 8347                             		.loc 1 2393 30
 8348 0113 DD A4 06                		mov.W	12[r10], r4
 8349 0116 DD A5 08                		mov.W	16[r10], r5
 8350 0119 4B 45                   		add	r4, r5
 8351 011b DF 54                   		mov.W	r5, r4
 8352                             		.loc 1 2393 38
 8353 011d 98 6D                   		mov.W	2[r6], r5
 8354 011f FF 05 54                		sub	r5, r4, r5
 8355                             		.loc 1 2393 54
 8356 0122 60 15                   		sub	#1, r5
 8357                             		.loc 1 2393 3
 8358 0124 DF 52                   		mov.W	r5, r2
 8359                             		.loc 1 2393 61
 8360 0126 DD A4 07                		mov.W	14[r10], r4
 8361 0129 98 6D                   		mov.W	2[r6], r5
 8362 012b 4B 45                   		add	r4, r5
 8363                             		.loc 1 2393 3
 8364 012d DF 53                   		mov.W	r5, r3
 8365                             		.loc 1 2393 92
 8366 012f 98 6D                   		mov.W	2[r6], r5
 8367 0131 62 15                   		add	#1, r5
 8368                             		.loc 1 2393 3
 8369 0133 3D 01 5A                		mov.W	#0x5a, 2[r0]
 8370 0136 F8 05 00                		mov.W	#0, [r0]
 8371 0139 DF 54                   		mov.W	r5, r4
 8372 013b ED A1 02                		mov.L	8[r10], r1
 8373 013e 05 00 00 00             		bsr	_mw_gl_segment
2394:C:/Users/John/Desktop/workspace/miniwinwm/MiniWin/gl\gl.c **** 		mw_gl_segment(draw_info, x + corner_radius, y + height - corner_radius - 1, corner_radius, 180, 2
 8374                             		.loc 1 2394 30
 8375 0142 DD A4 06                		mov.W	12[r10], r4
 8376 0145 98 6D                   		mov.W	2[r6], r5
 8377 0147 4B 45                   		add	r4, r5
 8378                             		.loc 1 2394 3
 8379 0149 DF 52                   		mov.W	r5, r2
 8380                             		.loc 1 2394 49
 8381 014b DD A4 07                		mov.W	14[r10], r4
 8382 014e DC 65                   		mov.W	[r6], r5
 8383 0150 4B 45                   		add	r4, r5
 8384 0152 DF 54                   		mov.W	r5, r4
 8385                             		.loc 1 2394 58
 8386 0154 98 6D                   		mov.W	2[r6], r5
 8387 0156 FF 05 54                		sub	r5, r4, r5
 8388                             		.loc 1 2394 74
 8389 0159 60 15                   		sub	#1, r5
 8390                             		.loc 1 2394 3
 8391 015b F9 09 01 0E 01          		mov.W	#0x10e, 2[r0]
 8392 0160 F8 09 B4 00             		mov.W	#0xb4, [r0]
 8393 0164 98 6C                   		mov.W	2[r6], r4
 8394 0166 DF 53                   		mov.W	r5, r3
 8395 0168 ED A1 02                		mov.L	8[r10], r1
 8396 016b 05 00 00 00             		bsr	_mw_gl_segment
2395:C:/Users/John/Desktop/workspace/miniwinwm/MiniWin/gl\gl.c **** 		mw_gl_segment(draw_info, x + width - corner_radius - 1, y + height - corner_radius - 1, corner_ra
 8397                             		.loc 1 2395 30
 8398 016f DD A4 06                		mov.W	12[r10], r4
 8399 0172 DD A5 08                		mov.W	16[r10], r5
 8400 0175 4B 45                   		add	r4, r5
 8401 0177 DF 54                   		mov.W	r5, r4
 8402                             		.loc 1 2395 38
 8403 0179 98 6D                   		mov.W	2[r6], r5
 8404 017b FF 05 54                		sub	r5, r4, r5
 8405                             		.loc 1 2395 54
 8406 017e 60 15                   		sub	#1, r5
 8407                             		.loc 1 2395 3
 8408 0180 DF 52                   		mov.W	r5, r2
 8409                             		.loc 1 2395 61
 8410 0182 DD A4 07                		mov.W	14[r10], r4
 8411 0185 DC 65                   		mov.W	[r6], r5
 8412 0187 4B 45                   		add	r4, r5
 8413 0189 DF 54                   		mov.W	r5, r4
 8414                             		.loc 1 2395 70
 8415 018b 98 6D                   		mov.W	2[r6], r5
 8416 018d FF 05 54                		sub	r5, r4, r5
 8417                             		.loc 1 2395 86
 8418 0190 60 15                   		sub	#1, r5
 8419                             		.loc 1 2395 3
 8420 0192 3D 01 B4                		mov.W	#0xb4, 2[r0]
 8421 0195 F8 05 5A                		mov.W	#0x5a, [r0]
 8422 0198 98 6C                   		mov.W	2[r6], r4
 8423 019a DF 53                   		mov.W	r5, r3
 8424 019c ED A1 02                		mov.L	8[r10], r1
 8425 019f 05 00 00 00             		bsr	_mw_gl_segment
2396:C:/Users/John/Desktop/workspace/miniwinwm/MiniWin/gl\gl.c **** 		gc.border = border_old;
 8426                             		.loc 1 2396 13
 8427 01a3 FB 52 00 00 00 00       		mov.L	#_gc, r5
 8428 01a9 ED A4 01                		mov.L	4[r10], r4
 8429 01ac A3 54                   		mov.L	r4, 48[r5]
2397:C:/Users/John/Desktop/workspace/miniwinwm/MiniWin/gl\gl.c **** 
2398:C:/Users/John/Desktop/workspace/miniwinwm/MiniWin/gl\gl.c **** 		if (gc.border == MW_GL_BORDER_OFF)
 8430                             		.loc 1 2398 9
 8431 01ae FB 52 00 00 00 00       		mov.L	#_gc, r5
 8432 01b4 AB 55                   		mov.L	48[r5], r5
 8433                             		.loc 1 2398 6
 8434 01b6 61 05                   		cmp	#0, r5
 8435 01b8 1C                      		bne	.L481
2399:C:/Users/John/Desktop/workspace/miniwinwm/MiniWin/gl\gl.c **** 		{
2400:C:/Users/John/Desktop/workspace/miniwinwm/MiniWin/gl\gl.c **** 			outline_required = false;
 8436                             		.loc 1 2400 21
 8437 01b9 F8 A4 00                		mov.B	#0, [r10]
 8438                             	.L481:
2401:C:/Users/John/Desktop/workspace/miniwinwm/MiniWin/gl\gl.c **** 		}
2402:C:/Users/John/Desktop/workspace/miniwinwm/MiniWin/gl\gl.c **** 	}
2403:C:/Users/John/Desktop/workspace/miniwinwm/MiniWin/gl\gl.c **** 
2404:C:/Users/John/Desktop/workspace/miniwinwm/MiniWin/gl\gl.c **** 	if (outline_required)
 8439                             		.loc 1 2404 5
 8440 01bc 58 A5                   		movu.B	[r10], r5
 8441 01be 61 05                   		cmp	#0, r5
 8442 01c0 3A 5D 01                		beq	.L476
2405:C:/Users/John/Desktop/workspace/miniwinwm/MiniWin/gl\gl.c **** 	{
2406:C:/Users/John/Desktop/workspace/miniwinwm/MiniWin/gl\gl.c **** 		mw_gl_hline(draw_info, x + corner_radius, x + width - 1 - corner_radius, y);
 8443                             		.loc 1 2406 28
 8444 01c3 DD A4 06                		mov.W	12[r10], r4
 8445 01c6 98 6D                   		mov.W	2[r6], r5
 8446 01c8 4B 45                   		add	r4, r5
 8447                             		.loc 1 2406 3
 8448 01ca DF 52                   		mov.W	r5, r2
 8449                             		.loc 1 2406 47
 8450 01cc DD A4 06                		mov.W	12[r10], r4
 8451 01cf DD A5 08                		mov.W	16[r10], r5
 8452 01d2 4B 45                   		add	r4, r5
 8453 01d4 DF 54                   		mov.W	r5, r4
 8454                             		.loc 1 2406 59
 8455 01d6 98 6D                   		mov.W	2[r6], r5
 8456 01d8 FF 05 54                		sub	r5, r4, r5
 8457 01db 60 15                   		sub	#1, r5
 8458                             		.loc 1 2406 3
 8459 01dd DD A4 07                		mov.W	14[r10], r4
 8460 01e0 DF 53                   		mov.W	r5, r3
 8461 01e2 ED A1 02                		mov.L	8[r10], r1
 8462 01e5 05 00 00 00             		bsr	_mw_gl_hline
2407:C:/Users/John/Desktop/workspace/miniwinwm/MiniWin/gl\gl.c **** 		mw_gl_hline(draw_info, x + corner_radius, x + width - 1 - corner_radius, y + height - 1);
 8463                             		.loc 1 2407 28
 8464 01e9 DD A4 06                		mov.W	12[r10], r4
 8465 01ec 98 6D                   		mov.W	2[r6], r5
 8466 01ee 4B 45                   		add	r4, r5
 8467                             		.loc 1 2407 3
 8468 01f0 DF 52                   		mov.W	r5, r2
 8469                             		.loc 1 2407 47
 8470 01f2 DD A4 06                		mov.W	12[r10], r4
 8471 01f5 DD A5 08                		mov.W	16[r10], r5
 8472 01f8 4B 45                   		add	r4, r5
 8473 01fa DF 54                   		mov.W	r5, r4
 8474                             		.loc 1 2407 59
 8475 01fc 98 6D                   		mov.W	2[r6], r5
 8476 01fe FF 05 54                		sub	r5, r4, r5
 8477 0201 60 15                   		sub	#1, r5
 8478                             		.loc 1 2407 3
 8479 0203 DF 53                   		mov.W	r5, r3
 8480                             		.loc 1 2407 78
 8481 0205 DD A4 07                		mov.W	14[r10], r4
 8482 0208 DC 65                   		mov.W	[r6], r5
 8483 020a 4B 45                   		add	r4, r5
 8484                             		.loc 1 2407 87
 8485 020c 60 15                   		sub	#1, r5
 8486                             		.loc 1 2407 3
 8487 020e DF 54                   		mov.W	r5, r4
 8488 0210 ED A1 02                		mov.L	8[r10], r1
 8489 0213 05 00 00 00             		bsr	_mw_gl_hline
2408:C:/Users/John/Desktop/workspace/miniwinwm/MiniWin/gl\gl.c **** 		mw_gl_vline(draw_info, x, y + corner_radius, y + height - 1 - corner_radius);
 8490                             		.loc 1 2408 31
 8491 0217 DD A4 07                		mov.W	14[r10], r4
 8492 021a 98 6D                   		mov.W	2[r6], r5
 8493 021c 4B 45                   		add	r4, r5
 8494                             		.loc 1 2408 3
 8495 021e DF 53                   		mov.W	r5, r3
 8496                             		.loc 1 2408 50
 8497 0220 DD A4 07                		mov.W	14[r10], r4
 8498 0223 DC 65                   		mov.W	[r6], r5
 8499 0225 4B 45                   		add	r4, r5
 8500 0227 DF 54                   		mov.W	r5, r4
 8501                             		.loc 1 2408 63
 8502 0229 98 6D                   		mov.W	2[r6], r5
 8503 022b FF 05 54                		sub	r5, r4, r5
 8504 022e 60 15                   		sub	#1, r5
 8505                             		.loc 1 2408 3
 8506 0230 DF 54                   		mov.W	r5, r4
 8507 0232 DD A2 06                		mov.W	12[r10], r2
 8508 0235 ED A1 02                		mov.L	8[r10], r1
 8509 0238 05 00 00 00             		bsr	_mw_gl_vline
2409:C:/Users/John/Desktop/workspace/miniwinwm/MiniWin/gl\gl.c **** 		mw_gl_vline(draw_info, x + width - 1, y + corner_radius, y + height - 1 - corner_radius);
 8510                             		.loc 1 2409 28
 8511 023c DD A4 06                		mov.W	12[r10], r4
 8512 023f DD A5 08                		mov.W	16[r10], r5
 8513 0242 4B 45                   		add	r4, r5
 8514                             		.loc 1 2409 36
 8515 0244 60 15                   		sub	#1, r5
 8516                             		.loc 1 2409 3
 8517 0246 DF 52                   		mov.W	r5, r2
 8518                             		.loc 1 2409 43
 8519 0248 DD A4 07                		mov.W	14[r10], r4
 8520 024b 98 6D                   		mov.W	2[r6], r5
 8521 024d 4B 45                   		add	r4, r5
 8522                             		.loc 1 2409 3
 8523 024f DF 53                   		mov.W	r5, r3
 8524                             		.loc 1 2409 62
 8525 0251 DD A4 07                		mov.W	14[r10], r4
 8526 0254 DC 65                   		mov.W	[r6], r5
 8527 0256 4B 45                   		add	r4, r5
 8528 0258 DF 54                   		mov.W	r5, r4
 8529                             		.loc 1 2409 75
 8530 025a 98 6D                   		mov.W	2[r6], r5
 8531 025c FF 05 54                		sub	r5, r4, r5
 8532 025f 60 15                   		sub	#1, r5
 8533                             		.loc 1 2409 3
 8534 0261 DF 54                   		mov.W	r5, r4
 8535 0263 ED A1 02                		mov.L	8[r10], r1
 8536 0266 05 00 00 00             		bsr	_mw_gl_vline
2410:C:/Users/John/Desktop/workspace/miniwinwm/MiniWin/gl\gl.c **** 		mw_gl_arc(draw_info, x + corner_radius, y + corner_radius, corner_radius, 270, 360);
 8537                             		.loc 1 2410 26
 8538 026a DD A4 06                		mov.W	12[r10], r4
 8539 026d 98 6D                   		mov.W	2[r6], r5
 8540 026f 4B 45                   		add	r4, r5
 8541                             		.loc 1 2410 3
 8542 0271 DF 52                   		mov.W	r5, r2
 8543                             		.loc 1 2410 45
 8544 0273 DD A4 07                		mov.W	14[r10], r4
 8545 0276 98 6D                   		mov.W	2[r6], r5
 8546 0278 4B 45                   		add	r4, r5
 8547                             		.loc 1 2410 3
 8548 027a F9 09 01 68 01          		mov.W	#0x168, 2[r0]
 8549 027f F8 09 0E 01             		mov.W	#0x10e, [r0]
 8550 0283 98 6C                   		mov.W	2[r6], r4
 8551 0285 DF 53                   		mov.W	r5, r3
 8552 0287 ED A1 02                		mov.L	8[r10], r1
 8553 028a 05 00 00 00             		bsr	_mw_gl_arc
2411:C:/Users/John/Desktop/workspace/miniwinwm/MiniWin/gl\gl.c **** 		mw_gl_arc(draw_info, x + width - corner_radius - 1, y + corner_radius, corner_radius, 0, 90);
 8554                             		.loc 1 2411 26
 8555 028e DD A4 06                		mov.W	12[r10], r4
 8556 0291 DD A5 08                		mov.W	16[r10], r5
 8557 0294 4B 45                   		add	r4, r5
 8558 0296 DF 54                   		mov.W	r5, r4
 8559                             		.loc 1 2411 34
 8560 0298 98 6D                   		mov.W	2[r6], r5
 8561 029a FF 05 54                		sub	r5, r4, r5
 8562                             		.loc 1 2411 50
 8563 029d 60 15                   		sub	#1, r5
 8564                             		.loc 1 2411 3
 8565 029f DF 52                   		mov.W	r5, r2
 8566                             		.loc 1 2411 57
 8567 02a1 DD A4 07                		mov.W	14[r10], r4
 8568 02a4 98 6D                   		mov.W	2[r6], r5
 8569 02a6 4B 45                   		add	r4, r5
 8570                             		.loc 1 2411 3
 8571 02a8 3D 01 5A                		mov.W	#0x5a, 2[r0]
 8572 02ab F8 05 00                		mov.W	#0, [r0]
 8573 02ae 98 6C                   		mov.W	2[r6], r4
 8574 02b0 DF 53                   		mov.W	r5, r3
 8575 02b2 ED A1 02                		mov.L	8[r10], r1
 8576 02b5 05 00 00 00             		bsr	_mw_gl_arc
2412:C:/Users/John/Desktop/workspace/miniwinwm/MiniWin/gl\gl.c **** 		mw_gl_arc(draw_info, x + corner_radius, y + height - corner_radius - 1, corner_radius, 180, 270);
 8577                             		.loc 1 2412 26
 8578 02b9 DD A4 06                		mov.W	12[r10], r4
 8579 02bc 98 6D                   		mov.W	2[r6], r5
 8580 02be 4B 45                   		add	r4, r5
 8581                             		.loc 1 2412 3
 8582 02c0 DF 52                   		mov.W	r5, r2
 8583                             		.loc 1 2412 45
 8584 02c2 DD A4 07                		mov.W	14[r10], r4
 8585 02c5 DC 65                   		mov.W	[r6], r5
 8586 02c7 4B 45                   		add	r4, r5
 8587 02c9 DF 54                   		mov.W	r5, r4
 8588                             		.loc 1 2412 54
 8589 02cb 98 6D                   		mov.W	2[r6], r5
 8590 02cd FF 05 54                		sub	r5, r4, r5
 8591                             		.loc 1 2412 70
 8592 02d0 60 15                   		sub	#1, r5
 8593                             		.loc 1 2412 3
 8594 02d2 F9 09 01 0E 01          		mov.W	#0x10e, 2[r0]
 8595 02d7 F8 09 B4 00             		mov.W	#0xb4, [r0]
 8596 02db 98 6C                   		mov.W	2[r6], r4
 8597 02dd DF 53                   		mov.W	r5, r3
 8598 02df ED A1 02                		mov.L	8[r10], r1
 8599 02e2 05 00 00 00             		bsr	_mw_gl_arc
2413:C:/Users/John/Desktop/workspace/miniwinwm/MiniWin/gl\gl.c **** 		mw_gl_arc(draw_info, x + width - corner_radius - 1, y + height - corner_radius - 1, corner_radius
 8600                             		.loc 1 2413 26
 8601 02e6 DD A4 06                		mov.W	12[r10], r4
 8602 02e9 DD A5 08                		mov.W	16[r10], r5
 8603 02ec 4B 45                   		add	r4, r5
 8604 02ee DF 54                   		mov.W	r5, r4
 8605                             		.loc 1 2413 34
 8606 02f0 98 6D                   		mov.W	2[r6], r5
 8607 02f2 FF 05 54                		sub	r5, r4, r5
 8608                             		.loc 1 2413 50
 8609 02f5 60 15                   		sub	#1, r5
 8610                             		.loc 1 2413 3
 8611 02f7 DF 52                   		mov.W	r5, r2
 8612                             		.loc 1 2413 57
 8613 02f9 DD A4 07                		mov.W	14[r10], r4
 8614 02fc DC 65                   		mov.W	[r6], r5
 8615 02fe 4B 45                   		add	r4, r5
 8616 0300 DF 54                   		mov.W	r5, r4
 8617                             		.loc 1 2413 66
 8618 0302 98 6D                   		mov.W	2[r6], r5
 8619 0304 FF 05 54                		sub	r5, r4, r5
 8620                             		.loc 1 2413 82
 8621 0307 60 15                   		sub	#1, r5
 8622                             		.loc 1 2413 3
 8623 0309 3D 01 B4                		mov.W	#0xb4, 2[r0]
 8624 030c F8 05 5A                		mov.W	#0x5a, [r0]
 8625 030f 98 6C                   		mov.W	2[r6], r4
 8626 0311 DF 53                   		mov.W	r5, r3
 8627 0313 ED A1 02                		mov.L	8[r10], r1
 8628 0316 05 00 00 00             		bsr	_mw_gl_arc
 8629 031a 2E 03                   		bra	.L476
 8630                             	.L482:
2382:C:/Users/John/Desktop/workspace/miniwinwm/MiniWin/gl\gl.c **** 	}
 8631                             		.loc 1 2382 3
 8632 031c 03                      		nop
 8633                             		.balign 8,3,2
 8634                             	.L476:
2414:C:/Users/John/Desktop/workspace/miniwinwm/MiniWin/gl\gl.c **** 	}
2415:C:/Users/John/Desktop/workspace/miniwinwm/MiniWin/gl\gl.c **** }
 8635                             		.loc 1 2415 1
 8636 031d 71 00 1C                		add	#28, r0
 8637 0320 7E B6                   		pop	r6
 8638 0322 7E BA                   		pop	r10
 8639 0324 02                      		rts
 8640                             	.LFE50:
 8642 0325 FC 13 00                		.section	.text.mw_gl_segment,"ax",@progbits
 8643                             		.global	_mw_gl_segment
 8645                             	_mw_gl_segment:
 8646                             	.LFB51:
2416:C:/Users/John/Desktop/workspace/miniwinwm/MiniWin/gl\gl.c **** 
2417:C:/Users/John/Desktop/workspace/miniwinwm/MiniWin/gl\gl.c **** void mw_gl_segment(const mw_gl_draw_info_t *draw_info, int16_t centre_x, int16_t centre_y, int16_t 
2418:C:/Users/John/Desktop/workspace/miniwinwm/MiniWin/gl\gl.c **** {
 8647                             		.loc 1 2418 1
 8648 0000 7E AA                   		push.l	r10
 8649                             	.LCFI130:
 8650 0002 7E A6                   		push.l	r6
 8651                             	.LCFI131:
 8652 0004 71 0A E4                		add	#-28, r0, r10
 8653                             	.LCFI132:
 8654 0007 71 A0 F8                		add	#-8, r10, r0
 8655                             	.LCFI133:
 8656 000a 75 46 28                		mov.L	#40, r6
 8657 000d 4B A6                   		add	r10, r6
 8658 000f E7 A1 03                		mov.L	r1, 12[r10]
 8659 0012 D7 A2 08                		mov.W	r2, 16[r10]
 8660 0015 D7 A3 09                		mov.W	r3, 18[r10]
 8661 0018 D7 A4 0A                		mov.W	r4, 20[r10]
2419:C:/Users/John/Desktop/workspace/miniwinwm/MiniWin/gl\gl.c **** 	bool outline_required = true;
 8662                             		.loc 1 2419 7
 8663 001b F8 A4 01                		mov.B	#1, [r10]
2420:C:/Users/John/Desktop/workspace/miniwinwm/MiniWin/gl\gl.c **** 	float temp_float_1;
2421:C:/Users/John/Desktop/workspace/miniwinwm/MiniWin/gl\gl.c **** 	float temp_float_2;
2422:C:/Users/John/Desktop/workspace/miniwinwm/MiniWin/gl\gl.c **** 
2423:C:/Users/John/Desktop/workspace/miniwinwm/MiniWin/gl\gl.c **** 	if (draw_info == NULL)
 8664                             		.loc 1 2423 5
 8665 001e ED A5 03                		mov.L	12[r10], r5
 8666 0021 61 05                   		cmp	#0, r5
 8667 0023 21 1B                   		bne	.L484
2424:C:/Users/John/Desktop/workspace/miniwinwm/MiniWin/gl\gl.c **** 	{
2425:C:/Users/John/Desktop/workspace/miniwinwm/MiniWin/gl\gl.c **** 		MW_ASSERT((bool)false, "Null pointer argument");
 8668                             		.loc 1 2425 3
 8669 0025 FB 42 00 00 00 00       		mov.L	#.LC0, r4
 8670 002b FB 3A 79 09             		mov.L	#0x979, r3
 8671 002f FB 22 00 00 00 00       		mov.L	#___func__.3611, r2
 8672 0035 66 01                   		mov	#0, r1
 8673 0037 05 00 00 00             		bsr	_mw_debug_print_assert
2426:C:/Users/John/Desktop/workspace/miniwinwm/MiniWin/gl\gl.c **** 		return;
 8674                             		.loc 1 2426 3
 8675 003b 38 2F 01                		bra	.L483
 8676                             	.L484:
2427:C:/Users/John/Desktop/workspace/miniwinwm/MiniWin/gl\gl.c **** 	}
2428:C:/Users/John/Desktop/workspace/miniwinwm/MiniWin/gl\gl.c **** 
2429:C:/Users/John/Desktop/workspace/miniwinwm/MiniWin/gl\gl.c **** 	if (gc.fill == MW_GL_FILL)
 8677                             		.loc 1 2429 8
 8678 003e FB 52 00 00 00 00       		mov.L	#_gc, r5
 8679 0044 AB 5D                   		mov.L	52[r5], r5
 8680                             		.loc 1 2429 5
 8681 0046 61 15                   		cmp	#1, r5
 8682 0048 21 2B                   		bne	.L486
2430:C:/Users/John/Desktop/workspace/miniwinwm/MiniWin/gl\gl.c **** 	{
2431:C:/Users/John/Desktop/workspace/miniwinwm/MiniWin/gl\gl.c **** 		filled_segment(draw_info, centre_x, centre_y, radius, start_angle, end_angle, MW_GL_SEGMENT_FILL_
 8683                             		.loc 1 2431 3
 8684 004a 3D 02 03                		mov.W	#3, 4[r0]
 8685 004d 98 6D                   		mov.W	2[r6], r5
 8686 004f 90 0D                   		mov.W	r5, 2[r0]
 8687 0051 DC 65                   		mov.W	[r6], r5
 8688 0053 D3 05                   		mov.W	r5, [r0]
 8689 0055 DD A4 0A                		mov.W	20[r10], r4
 8690 0058 DD A3 09                		mov.W	18[r10], r3
 8691 005b DD A2 08                		mov.W	16[r10], r2
 8692 005e ED A1 03                		mov.L	12[r10], r1
 8693 0061 05 00 00 00             		bsr	_filled_segment
2432:C:/Users/John/Desktop/workspace/miniwinwm/MiniWin/gl\gl.c **** 		if (gc.border == MW_GL_BORDER_OFF)
 8694                             		.loc 1 2432 9
 8695 0065 FB 52 00 00 00 00       		mov.L	#_gc, r5
 8696 006b AB 55                   		mov.L	48[r5], r5
 8697                             		.loc 1 2432 6
 8698 006d 61 05                   		cmp	#0, r5
 8699 006f 1C                      		bne	.L486
2433:C:/Users/John/Desktop/workspace/miniwinwm/MiniWin/gl\gl.c **** 		{
2434:C:/Users/John/Desktop/workspace/miniwinwm/MiniWin/gl\gl.c **** 			outline_required = false;
 8700                             		.loc 1 2434 21
 8701 0070 F8 A4 00                		mov.B	#0, [r10]
 8702                             	.L486:
2435:C:/Users/John/Desktop/workspace/miniwinwm/MiniWin/gl\gl.c **** 		}
2436:C:/Users/John/Desktop/workspace/miniwinwm/MiniWin/gl\gl.c **** 	}
2437:C:/Users/John/Desktop/workspace/miniwinwm/MiniWin/gl\gl.c **** 
2438:C:/Users/John/Desktop/workspace/miniwinwm/MiniWin/gl\gl.c **** 	if (outline_required)
 8703                             		.loc 1 2438 5
 8704 0073 58 A5                   		movu.B	[r10], r5
 8705 0075 61 05                   		cmp	#0, r5
 8706 0077 3A F3 00                		beq	.L483
2439:C:/Users/John/Desktop/workspace/miniwinwm/MiniWin/gl\gl.c **** 	{
2440:C:/Users/John/Desktop/workspace/miniwinwm/MiniWin/gl\gl.c **** 		temp_float_1 = sinf((float)start_angle / DEGREES_IN_RAD) * (float)radius;
 8707                             		.loc 1 2440 23
 8708 007a DC 65                   		mov.W	[r6], r5
 8709 007c FC 47 55                		itof	r5, r5
 8710                             		.loc 1 2440 18
 8711 007f FD 72 45 E0 2E 65 42    		fdiv	#0x42652ee0, r5
 8712 0086 EF 51                   		mov.L	r5, r1
 8713 0088 05 00 00 00             		bsr	_sinf
 8714 008c EF 14                   		mov.L	r1, r4
 8715                             		.loc 1 2440 62
 8716 008e DD A5 0A                		mov.W	20[r10], r5
 8717 0091 FC 47 55                		itof	r5, r5
 8718                             		.loc 1 2440 16
 8719 0094 FC 8F 45                		fmul	r4, r5
 8720 0097 E7 A5 01                		mov.L	r5, 4[r10]
2441:C:/Users/John/Desktop/workspace/miniwinwm/MiniWin/gl\gl.c **** 		temp_float_2 = cosf((float)start_angle / DEGREES_IN_RAD) * (float)radius;
 8721                             		.loc 1 2441 23
 8722 009a DC 65                   		mov.W	[r6], r5
 8723 009c FC 47 55                		itof	r5, r5
 8724                             		.loc 1 2441 18
 8725 009f FD 72 45 E0 2E 65 42    		fdiv	#0x42652ee0, r5
 8726 00a6 EF 51                   		mov.L	r5, r1
 8727 00a8 05 00 00 00             		bsr	_cosf
 8728 00ac EF 14                   		mov.L	r1, r4
 8729                             		.loc 1 2441 62
 8730 00ae DD A5 0A                		mov.W	20[r10], r5
 8731 00b1 FC 47 55                		itof	r5, r5
 8732                             		.loc 1 2441 16
 8733 00b4 FC 8F 45                		fmul	r4, r5
 8734 00b7 E7 A5 02                		mov.L	r5, 8[r10]
2442:C:/Users/John/Desktop/workspace/miniwinwm/MiniWin/gl\gl.c **** 
2443:C:/Users/John/Desktop/workspace/miniwinwm/MiniWin/gl\gl.c **** 		mw_gl_line(draw_info,
2444:C:/Users/John/Desktop/workspace/miniwinwm/MiniWin/gl\gl.c **** 				centre_x,
2445:C:/Users/John/Desktop/workspace/miniwinwm/MiniWin/gl\gl.c **** 				centre_y,
2446:C:/Users/John/Desktop/workspace/miniwinwm/MiniWin/gl\gl.c **** 				centre_x + (int16_t)temp_float_1,
 8735                             		.loc 1 2446 16
 8736 00ba ED A5 01                		mov.L	4[r10], r5
 8737 00bd FC 97 55                		ftoi	r5, r5
 8738 00c0 DF 54                   		mov.W	r5, r4
 8739                             		.loc 1 2446 14
 8740 00c2 DD A5 08                		mov.W	16[r10], r5
 8741 00c5 4B 45                   		add	r4, r5
2443:C:/Users/John/Desktop/workspace/miniwinwm/MiniWin/gl\gl.c **** 				centre_x,
 8742                             		.loc 1 2443 3
 8743 00c7 DF 53                   		mov.W	r5, r3
2447:C:/Users/John/Desktop/workspace/miniwinwm/MiniWin/gl\gl.c **** 				centre_y - (int16_t)temp_float_2);
 8744                             		.loc 1 2447 14
 8745 00c9 DD A4 09                		mov.W	18[r10], r4
 8746                             		.loc 1 2447 16
 8747 00cc ED A5 02                		mov.L	8[r10], r5
 8748 00cf FC 97 55                		ftoi	r5, r5
 8749                             		.loc 1 2447 14
 8750 00d2 FF 05 54                		sub	r5, r4, r5
2443:C:/Users/John/Desktop/workspace/miniwinwm/MiniWin/gl\gl.c **** 				centre_x,
 8751                             		.loc 1 2443 3
 8752 00d5 D3 05                   		mov.W	r5, [r0]
 8753 00d7 DF 34                   		mov.W	r3, r4
 8754 00d9 DD A3 09                		mov.W	18[r10], r3
 8755 00dc DD A2 08                		mov.W	16[r10], r2
 8756 00df ED A1 03                		mov.L	12[r10], r1
 8757 00e2 05 00 00 00             		bsr	_mw_gl_line
2448:C:/Users/John/Desktop/workspace/miniwinwm/MiniWin/gl\gl.c **** 
2449:C:/Users/John/Desktop/workspace/miniwinwm/MiniWin/gl\gl.c **** 		temp_float_1 = sinf((float)end_angle / DEGREES_IN_RAD) * (float)radius;
 8758                             		.loc 1 2449 23
 8759 00e6 98 6D                   		mov.W	2[r6], r5
 8760 00e8 FC 47 55                		itof	r5, r5
 8761                             		.loc 1 2449 18
 8762 00eb FD 72 45 E0 2E 65 42    		fdiv	#0x42652ee0, r5
 8763 00f2 EF 51                   		mov.L	r5, r1
 8764 00f4 05 00 00 00             		bsr	_sinf
 8765 00f8 EF 14                   		mov.L	r1, r4
 8766                             		.loc 1 2449 60
 8767 00fa DD A5 0A                		mov.W	20[r10], r5
 8768 00fd FC 47 55                		itof	r5, r5
 8769                             		.loc 1 2449 16
 8770 0100 FC 8F 45                		fmul	r4, r5
 8771 0103 E7 A5 01                		mov.L	r5, 4[r10]
2450:C:/Users/John/Desktop/workspace/miniwinwm/MiniWin/gl\gl.c **** 		temp_float_2 = cosf((float)end_angle / DEGREES_IN_RAD) * (float)radius;
 8772                             		.loc 1 2450 23
 8773 0106 98 6D                   		mov.W	2[r6], r5
 8774 0108 FC 47 55                		itof	r5, r5
 8775                             		.loc 1 2450 18
 8776 010b FD 72 45 E0 2E 65 42    		fdiv	#0x42652ee0, r5
 8777 0112 EF 51                   		mov.L	r5, r1
 8778 0114 05 00 00 00             		bsr	_cosf
 8779 0118 EF 14                   		mov.L	r1, r4
 8780                             		.loc 1 2450 60
 8781 011a DD A5 0A                		mov.W	20[r10], r5
 8782 011d FC 47 55                		itof	r5, r5
 8783                             		.loc 1 2450 16
 8784 0120 FC 8F 45                		fmul	r4, r5
 8785 0123 E7 A5 02                		mov.L	r5, 8[r10]
2451:C:/Users/John/Desktop/workspace/miniwinwm/MiniWin/gl\gl.c **** 
2452:C:/Users/John/Desktop/workspace/miniwinwm/MiniWin/gl\gl.c **** 		mw_gl_line(draw_info,
2453:C:/Users/John/Desktop/workspace/miniwinwm/MiniWin/gl\gl.c **** 				centre_x,
2454:C:/Users/John/Desktop/workspace/miniwinwm/MiniWin/gl\gl.c **** 				centre_y,
2455:C:/Users/John/Desktop/workspace/miniwinwm/MiniWin/gl\gl.c **** 				centre_x + (int16_t)temp_float_1,
 8786                             		.loc 1 2455 16
 8787 0126 ED A5 01                		mov.L	4[r10], r5
 8788 0129 FC 97 55                		ftoi	r5, r5
 8789 012c DF 54                   		mov.W	r5, r4
 8790                             		.loc 1 2455 14
 8791 012e DD A5 08                		mov.W	16[r10], r5
 8792 0131 4B 45                   		add	r4, r5
2452:C:/Users/John/Desktop/workspace/miniwinwm/MiniWin/gl\gl.c **** 				centre_x,
 8793                             		.loc 1 2452 3
 8794 0133 DF 53                   		mov.W	r5, r3
2456:C:/Users/John/Desktop/workspace/miniwinwm/MiniWin/gl\gl.c **** 				centre_y - (int16_t)temp_float_2);
 8795                             		.loc 1 2456 14
 8796 0135 DD A4 09                		mov.W	18[r10], r4
 8797                             		.loc 1 2456 16
 8798 0138 ED A5 02                		mov.L	8[r10], r5
 8799 013b FC 97 55                		ftoi	r5, r5
 8800                             		.loc 1 2456 14
 8801 013e FF 05 54                		sub	r5, r4, r5
2452:C:/Users/John/Desktop/workspace/miniwinwm/MiniWin/gl\gl.c **** 				centre_x,
 8802                             		.loc 1 2452 3
 8803 0141 D3 05                   		mov.W	r5, [r0]
 8804 0143 DF 34                   		mov.W	r3, r4
 8805 0145 DD A3 09                		mov.W	18[r10], r3
 8806 0148 DD A2 08                		mov.W	16[r10], r2
 8807 014b ED A1 03                		mov.L	12[r10], r1
 8808 014e 05 00 00 00             		bsr	_mw_gl_line
2457:C:/Users/John/Desktop/workspace/miniwinwm/MiniWin/gl\gl.c **** 
2458:C:/Users/John/Desktop/workspace/miniwinwm/MiniWin/gl\gl.c **** 		mw_gl_arc(draw_info, centre_x, centre_y, radius, start_angle, end_angle);
 8809                             		.loc 1 2458 3
 8810 0152 98 6D                   		mov.W	2[r6], r5
 8811 0154 90 0D                   		mov.W	r5, 2[r0]
 8812 0156 DC 65                   		mov.W	[r6], r5
 8813 0158 D3 05                   		mov.W	r5, [r0]
 8814 015a DD A4 0A                		mov.W	20[r10], r4
 8815 015d DD A3 09                		mov.W	18[r10], r3
 8816 0160 DD A2 08                		mov.W	16[r10], r2
 8817 0163 ED A1 03                		mov.L	12[r10], r1
 8818 0166 05 00 00 00             		bsr	_mw_gl_arc
 8819                             	.L483:
2459:C:/Users/John/Desktop/workspace/miniwinwm/MiniWin/gl\gl.c **** 	}
2460:C:/Users/John/Desktop/workspace/miniwinwm/MiniWin/gl\gl.c **** }
 8820                             		.loc 1 2460 1
 8821 016a 71 00 24                		add	#36, r0
 8822 016d 7E B6                   		pop	r6
 8823 016f 7E BA                   		pop	r10
 8824 0171 02                      		rts
 8825                             	.LFE51:
 8827                             		.section	.text.mw_gl_monochrome_bitmap,"ax",@progbits
 8828                             		.global	_mw_gl_monochrome_bitmap
 8830                             	_mw_gl_monochrome_bitmap:
 8831                             	.LFB52:
2461:C:/Users/John/Desktop/workspace/miniwinwm/MiniWin/gl\gl.c **** 
2462:C:/Users/John/Desktop/workspace/miniwinwm/MiniWin/gl\gl.c **** void mw_gl_monochrome_bitmap(const mw_gl_draw_info_t *draw_info,
2463:C:/Users/John/Desktop/workspace/miniwinwm/MiniWin/gl\gl.c **** 		int16_t start_x,
2464:C:/Users/John/Desktop/workspace/miniwinwm/MiniWin/gl\gl.c **** 		int16_t start_y,
2465:C:/Users/John/Desktop/workspace/miniwinwm/MiniWin/gl\gl.c **** 		uint16_t image_data_width_pixels,
2466:C:/Users/John/Desktop/workspace/miniwinwm/MiniWin/gl\gl.c **** 		uint16_t image_data_height_pixels,
2467:C:/Users/John/Desktop/workspace/miniwinwm/MiniWin/gl\gl.c **** 		const uint8_t *image_data)
2468:C:/Users/John/Desktop/workspace/miniwinwm/MiniWin/gl\gl.c **** {
 8832                             		.loc 1 2468 1
 8833 0000 6E 6C                   		pushm	r6-r12
 8834                             	.LCFI134:
 8835 0002 71 0A E0                		add	#-32, r0, r10
 8836                             	.LCFI135:
 8837 0005 71 A0 EC                		add	#-20, r10, r0
 8838                             	.LCFI136:
 8839 0008 75 46 40                		mov.L	#0x40, r6
 8840 000b 4B A6                   		add	r10, r6
 8841 000d E7 A1 03                		mov.L	r1, 12[r10]
 8842 0010 D7 A2 08                		mov.W	r2, 16[r10]
 8843 0013 D7 A3 09                		mov.W	r3, 18[r10]
 8844 0016 D7 A4 0A                		mov.W	r4, 20[r10]
2469:C:/Users/John/Desktop/workspace/miniwinwm/MiniWin/gl\gl.c **** 	int16_t x;
2470:C:/Users/John/Desktop/workspace/miniwinwm/MiniWin/gl\gl.c **** 	int16_t y;
2471:C:/Users/John/Desktop/workspace/miniwinwm/MiniWin/gl\gl.c **** 	uint8_t a;
2472:C:/Users/John/Desktop/workspace/miniwinwm/MiniWin/gl\gl.c **** 	bool colour;
2473:C:/Users/John/Desktop/workspace/miniwinwm/MiniWin/gl\gl.c **** 	uint8_t image_byte;
2474:C:/Users/John/Desktop/workspace/miniwinwm/MiniWin/gl\gl.c **** 	uint8_t mask;
2475:C:/Users/John/Desktop/workspace/miniwinwm/MiniWin/gl\gl.c **** 	uint16_t array_width;
2476:C:/Users/John/Desktop/workspace/miniwinwm/MiniWin/gl\gl.c **** 
2477:C:/Users/John/Desktop/workspace/miniwinwm/MiniWin/gl\gl.c **** 	if (draw_info == NULL || image_data == NULL)
 8845                             		.loc 1 2477 5
 8846 0019 ED A5 03                		mov.L	12[r10], r5
 8847 001c 61 05                   		cmp	#0, r5
 8848 001e 17                      		beq	.L488
 8849                             		.loc 1 2477 24 discriminator 1
 8850 001f A8 6D                   		mov.L	4[r6], r5
 8851 0021 61 05                   		cmp	#0, r5
 8852 0023 21 1B                   		bne	.L489
 8853                             	.L488:
2478:C:/Users/John/Desktop/workspace/miniwinwm/MiniWin/gl\gl.c **** 	{
2479:C:/Users/John/Desktop/workspace/miniwinwm/MiniWin/gl\gl.c **** 		MW_ASSERT((bool)false, "Null pointer argument");
 8854                             		.loc 1 2479 3
 8855 0025 FB 42 00 00 00 00       		mov.L	#.LC0, r4
 8856 002b FB 3A AF 09             		mov.L	#0x9af, r3
 8857 002f FB 22 00 00 00 00       		mov.L	#___func__.3627, r2
 8858 0035 66 01                   		mov	#0, r1
 8859 0037 05 00 00 00             		bsr	_mw_debug_print_assert
2480:C:/Users/John/Desktop/workspace/miniwinwm/MiniWin/gl\gl.c **** 		return;
 8860                             		.loc 1 2480 3
 8861 003b 38 CE 01                		bra	.L487
 8862                             	.L489:
2481:C:/Users/John/Desktop/workspace/miniwinwm/MiniWin/gl\gl.c **** 	}
2482:C:/Users/John/Desktop/workspace/miniwinwm/MiniWin/gl\gl.c **** 
2483:C:/Users/John/Desktop/workspace/miniwinwm/MiniWin/gl\gl.c **** 	/* check for off window starting point */
2484:C:/Users/John/Desktop/workspace/miniwinwm/MiniWin/gl\gl.c **** 	if (start_x > draw_info->clip_rect.x + draw_info->clip_rect.width ||
 8863                             		.loc 1 2484 14
 8864 003e DD A4 08                		mov.W	16[r10], r4
 8865                             		.loc 1 2484 36
 8866 0041 ED A5 03                		mov.L	12[r10], r5
 8867 0044 98 D5                   		mov.W	4[r5], r5
 8868 0046 DF 53                   		mov.W	r5, r3
 8869                             		.loc 1 2484 61
 8870 0048 ED A5 03                		mov.L	12[r10], r5
 8871 004b 99 55                   		mov.W	8[r5], r5
 8872 004d DF 55                   		mov.W	r5, r5
 8873                             		.loc 1 2484 39
 8874 004f 4B 35                   		add	r3, r5
 8875                             		.loc 1 2484 5
 8876 0051 47 54                   		cmp	r5, r4
 8877 0053 2B 05 38 B0 01          		bgt	.L506
2485:C:/Users/John/Desktop/workspace/miniwinwm/MiniWin/gl\gl.c **** 			start_y > draw_info->clip_rect.y + draw_info->clip_rect.height)
 8878                             		.loc 1 2485 12 discriminator 1
 8879 0058 DD A4 09                		mov.W	18[r10], r4
 8880                             		.loc 1 2485 34 discriminator 1
 8881 005b ED A5 03                		mov.L	12[r10], r5
 8882 005e 98 DD                   		mov.W	6[r5], r5
 8883 0060 DF 53                   		mov.W	r5, r3
 8884                             		.loc 1 2485 59 discriminator 1
 8885 0062 ED A5 03                		mov.L	12[r10], r5
 8886 0065 99 5D                   		mov.W	10[r5], r5
 8887 0067 DF 55                   		mov.W	r5, r5
 8888                             		.loc 1 2485 37 discriminator 1
 8889 0069 4B 35                   		add	r3, r5
2484:C:/Users/John/Desktop/workspace/miniwinwm/MiniWin/gl\gl.c **** 			start_y > draw_info->clip_rect.y + draw_info->clip_rect.height)
 8890                             		.loc 1 2484 68 discriminator 1
 8891 006b 47 54                   		cmp	r5, r4
 8892 006d 2B 05 38 96 01          		bgt	.L506
2486:C:/Users/John/Desktop/workspace/miniwinwm/MiniWin/gl\gl.c **** 	{
2487:C:/Users/John/Desktop/workspace/miniwinwm/MiniWin/gl\gl.c **** 		return;
2488:C:/Users/John/Desktop/workspace/miniwinwm/MiniWin/gl\gl.c **** 	}
2489:C:/Users/John/Desktop/workspace/miniwinwm/MiniWin/gl\gl.c **** 
2490:C:/Users/John/Desktop/workspace/miniwinwm/MiniWin/gl\gl.c **** 	/* check for being completely off window */
2491:C:/Users/John/Desktop/workspace/miniwinwm/MiniWin/gl\gl.c **** 	if (start_x + (int16_t)image_data_width_pixels <= draw_info->clip_rect.x ||
 8893                             		.loc 1 2491 14
 8894 0072 DD A4 08                		mov.W	16[r10], r4
 8895                             		.loc 1 2491 16
 8896 0075 DD A5 0A                		mov.W	20[r10], r5
 8897 0078 DF 55                   		mov.W	r5, r5
 8898                             		.loc 1 2491 14
 8899 007a 4B 54                   		add	r5, r4
 8900                             		.loc 1 2491 72
 8901 007c ED A5 03                		mov.L	12[r10], r5
 8902 007f 98 D5                   		mov.W	4[r5], r5
 8903 0081 DF 55                   		mov.W	r5, r5
 8904                             		.loc 1 2491 5
 8905 0083 47 54                   		cmp	r5, r4
 8906 0085 2A 05 38 81 01          		ble	.L507
2492:C:/Users/John/Desktop/workspace/miniwinwm/MiniWin/gl\gl.c **** 			start_y + (int16_t)image_data_height_pixels <= draw_info->clip_rect.y)
 8907                             		.loc 1 2492 12 discriminator 1
 8908 008a DD A4 09                		mov.W	18[r10], r4
 8909                             		.loc 1 2492 14 discriminator 1
 8910 008d DC 65                   		mov.W	[r6], r5
 8911 008f DF 55                   		mov.W	r5, r5
 8912                             		.loc 1 2492 12 discriminator 1
 8913 0091 4B 54                   		add	r5, r4
 8914                             		.loc 1 2492 71 discriminator 1
 8915 0093 ED A5 03                		mov.L	12[r10], r5
 8916 0096 98 DD                   		mov.W	6[r5], r5
 8917 0098 DF 55                   		mov.W	r5, r5
2491:C:/Users/John/Desktop/workspace/miniwinwm/MiniWin/gl\gl.c **** 			start_y + (int16_t)image_data_height_pixels <= draw_info->clip_rect.y)
 8918                             		.loc 1 2491 75 discriminator 1
 8919 009a 47 54                   		cmp	r5, r4
 8920 009c 2A 05 38 6A 01          		ble	.L507
2493:C:/Users/John/Desktop/workspace/miniwinwm/MiniWin/gl\gl.c **** 	{
2494:C:/Users/John/Desktop/workspace/miniwinwm/MiniWin/gl\gl.c **** 		return;
2495:C:/Users/John/Desktop/workspace/miniwinwm/MiniWin/gl\gl.c **** 	}
2496:C:/Users/John/Desktop/workspace/miniwinwm/MiniWin/gl\gl.c **** 
2497:C:/Users/John/Desktop/workspace/miniwinwm/MiniWin/gl\gl.c **** 	if (gc.bg_transparent == MW_GL_BG_TRANSPARENT)
 8921                             		.loc 1 2497 8
 8922 00a1 FB 52 00 00 00 00       		mov.L	#_gc, r5
 8923 00a7 AB DD                   		mov.L	60[r5], r5
 8924                             		.loc 1 2497 5
 8925 00a9 61 05                   		cmp	#0, r5
 8926 00ab 3B E3 00                		bne	.L495
2498:C:/Users/John/Desktop/workspace/miniwinwm/MiniWin/gl\gl.c **** 	{
2499:C:/Users/John/Desktop/workspace/miniwinwm/MiniWin/gl\gl.c **** 		array_width = image_data_width_pixels / 8U;
 8927                             		.loc 1 2499 15
 8928 00ae 5D A5 0A                		movu.W	20[r10], r5
 8929 00b1 68 35                   		shlr	#3, r5
 8930 00b3 D7 A5 03                		mov.W	r5, 6[r10]
2500:C:/Users/John/Desktop/workspace/miniwinwm/MiniWin/gl\gl.c **** 		if (image_data_width_pixels % 8U > 0U)
 8931                             		.loc 1 2500 36
 8932 00b6 DD A5 0A                		mov.W	20[r10], r5
 8933 00b9 64 75                   		and	#7, r5
 8934                             		.loc 1 2500 6
 8935 00bb 5F 55                   		movu.W	r5, r5
 8936 00bd 61 05                   		cmp	#0, r5
 8937 00bf 11                      		beq	.L496
2501:C:/Users/John/Desktop/workspace/miniwinwm/MiniWin/gl\gl.c **** 		{
2502:C:/Users/John/Desktop/workspace/miniwinwm/MiniWin/gl\gl.c **** 			array_width++;
 8938                             		.loc 1 2502 15
 8939 00c0 DD A5 03                		mov.W	6[r10], r5
 8940 00c3 62 15                   		add	#1, r5
 8941 00c5 D7 A5 03                		mov.W	r5, 6[r10]
 8942                             	.L496:
2503:C:/Users/John/Desktop/workspace/miniwinwm/MiniWin/gl\gl.c **** 		}
2504:C:/Users/John/Desktop/workspace/miniwinwm/MiniWin/gl\gl.c **** 
2505:C:/Users/John/Desktop/workspace/miniwinwm/MiniWin/gl\gl.c **** 		for (y = 0; y < (int16_t)image_data_height_pixels; y++)
 8943                             		.loc 1 2505 10
 8944 00c8 F9 A5 01 00             		mov.W	#0, 2[r10]
 8945                             		.loc 1 2505 3
 8946 00cc 38 B2 00                		bra	.L497
 8947                             	.L505:
2506:C:/Users/John/Desktop/workspace/miniwinwm/MiniWin/gl\gl.c **** 		{
2507:C:/Users/John/Desktop/workspace/miniwinwm/MiniWin/gl\gl.c **** 			for (a = 0; a < array_width; a++)
 8948                             		.loc 1 2507 11
 8949 00cf F9 A4 04 00             		mov.B	#0, 4[r10]
 8950                             		.loc 1 2507 4
 8951 00d3 38 94 00                		bra	.L498
 8952                             	.L504:
2508:C:/Users/John/Desktop/workspace/miniwinwm/MiniWin/gl\gl.c **** 			{
2509:C:/Users/John/Desktop/workspace/miniwinwm/MiniWin/gl\gl.c **** 				image_byte = image_data[y * (int16_t)array_width + (int16_t)a];
 8953                             		.loc 1 2509 31
 8954 00d6 DD A4 01                		mov.W	2[r10], r4
 8955                             		.loc 1 2509 33
 8956 00d9 DD A5 03                		mov.W	6[r10], r5
 8957 00dc DF 55                   		mov.W	r5, r5
 8958                             		.loc 1 2509 31
 8959 00de 4F 54                   		mul	r5, r4
 8960                             		.loc 1 2509 56
 8961 00e0 59 A5 04                		movu.B	4[r10], r5
 8962                             		.loc 1 2509 54
 8963 00e3 4B 45                   		add	r4, r5
 8964                             		.loc 1 2509 28
 8965 00e5 A8 6C                   		mov.L	4[r6], r4
 8966 00e7 4B 45                   		add	r4, r5
 8967                             		.loc 1 2509 16
 8968 00e9 CC 55                   		mov.B	[r5], r5
 8969 00eb C7 A5 08                		mov.B	r5, 8[r10]
2510:C:/Users/John/Desktop/workspace/miniwinwm/MiniWin/gl\gl.c **** 				mask = 0x80U;
 8970                             		.loc 1 2510 10
 8971 00ee F9 A4 05 80             		mov.B	#-128, 5[r10]
2511:C:/Users/John/Desktop/workspace/miniwinwm/MiniWin/gl\gl.c **** 				for (x = 0; x < 8; x++)
 8972                             		.loc 1 2511 12
 8973 00f2 F8 A5 00                		mov.W	#0, [r10]
 8974                             		.loc 1 2511 5
 8975 00f5 2E 61                   		bra	.L499
 8976                             	.L503:
2512:C:/Users/John/Desktop/workspace/miniwinwm/MiniWin/gl\gl.c **** 				{
2513:C:/Users/John/Desktop/workspace/miniwinwm/MiniWin/gl\gl.c **** 					if ((int16_t)a * 8 + x == (int16_t)image_data_width_pixels)
 8977                             		.loc 1 2513 10
 8978 00f7 59 A5 04                		movu.B	4[r10], r5
 8979                             		.loc 1 2513 21
 8980 00fa FD C3 54                		shll	#3, r5, r4
 8981                             		.loc 1 2513 25
 8982 00fd DC A5                   		mov.W	[r10], r5
 8983 00ff 4B 54                   		add	r5, r4
 8984                             		.loc 1 2513 32
 8985 0101 DD A5 0A                		mov.W	20[r10], r5
 8986 0104 DF 55                   		mov.W	r5, r5
 8987                             		.loc 1 2513 9
 8988 0106 47 54                   		cmp	r5, r4
 8989 0108 20 56                   		beq	.L508
2514:C:/Users/John/Desktop/workspace/miniwinwm/MiniWin/gl\gl.c **** 					{
2515:C:/Users/John/Desktop/workspace/miniwinwm/MiniWin/gl\gl.c **** 						break;
2516:C:/Users/John/Desktop/workspace/miniwinwm/MiniWin/gl\gl.c **** 					}
2517:C:/Users/John/Desktop/workspace/miniwinwm/MiniWin/gl\gl.c **** 					colour = (image_byte & mask) == 0U;
 8990                             		.loc 1 2517 35
 8991 010a CD A4 08                		mov.B	8[r10], r4
 8992 010d CD A5 05                		mov.B	5[r10], r5
 8993 0110 53 45                   		and	r4, r5
 8994                             		.loc 1 2517 13
 8995 0112 5B 55                   		movu.B	r5, r5
 8996 0114 61 05                   		cmp	#0, r5
 8997 0116 FC DB 50                		sceq.L	r5
 8998 0119 C7 A5 09                		mov.B	r5, 9[r10]
2518:C:/Users/John/Desktop/workspace/miniwinwm/MiniWin/gl\gl.c **** 					if (colour == true)
 8999                             		.loc 1 2518 9
 9000 011c 59 A5 09                		movu.B	9[r10], r5
 9001 011f 61 05                   		cmp	#0, r5
 9002 0121 20 27                   		beq	.L502
2519:C:/Users/John/Desktop/workspace/miniwinwm/MiniWin/gl\gl.c **** 					{
2520:C:/Users/John/Desktop/workspace/miniwinwm/MiniWin/gl\gl.c **** 						mw_gl_fg_pixel(draw_info, (int16_t)a * 8 + x + start_x, y + start_y);
 9003                             		.loc 1 2520 48
 9004 0123 59 A5 04                		movu.B	4[r10], r5
 9005 0126 6C 35                   		shll	#3, r5
 9006 0128 DF 54                   		mov.W	r5, r4
 9007 012a DC A5                   		mov.W	[r10], r5
 9008 012c 4B 45                   		add	r4, r5
 9009 012e DF 54                   		mov.W	r5, r4
 9010                             		.loc 1 2520 52
 9011 0130 DD A5 08                		mov.W	16[r10], r5
 9012 0133 4B 45                   		add	r4, r5
 9013                             		.loc 1 2520 7
 9014 0135 DF 52                   		mov.W	r5, r2
 9015                             		.loc 1 2520 65
 9016 0137 DD A4 01                		mov.W	2[r10], r4
 9017 013a DD A5 09                		mov.W	18[r10], r5
 9018 013d 4B 45                   		add	r4, r5
 9019                             		.loc 1 2520 7
 9020 013f DF 53                   		mov.W	r5, r3
 9021 0141 ED A1 03                		mov.L	12[r10], r1
 9022 0144 05 00 00 00             		bsr	_mw_gl_fg_pixel
 9023                             	.L502:
2521:C:/Users/John/Desktop/workspace/miniwinwm/MiniWin/gl\gl.c **** 					}
2522:C:/Users/John/Desktop/workspace/miniwinwm/MiniWin/gl\gl.c **** 					mask >>= 1U;
 9024                             		.loc 1 2522 11 discriminator 2
 9025 0148 59 A5 05                		movu.B	5[r10], r5
 9026 014b 68 15                   		shlr	#1, r5
 9027 014d C7 A5 05                		mov.B	r5, 5[r10]
2511:C:/Users/John/Desktop/workspace/miniwinwm/MiniWin/gl\gl.c **** 				{
 9028                             		.loc 1 2511 25 discriminator 2
 9029 0150 DC A5                   		mov.W	[r10], r5
 9030 0152 62 15                   		add	#1, r5
 9031 0154 D3 A5                   		mov.W	r5, [r10]
 9032                             	.L499:
2511:C:/Users/John/Desktop/workspace/miniwinwm/MiniWin/gl\gl.c **** 				{
 9033                             		.loc 1 2511 5 discriminator 1
 9034 0156 DC A5                   		mov.W	[r10], r5
 9035 0158 61 75                   		cmp	#7, r5
 9036 015a 2B 9D                   		ble	.L503
 9037 015c 2E 03                   		bra	.L501
 9038                             	.L508:
2515:C:/Users/John/Desktop/workspace/miniwinwm/MiniWin/gl\gl.c **** 					}
 9039                             		.loc 1 2515 7
 9040 015e 03                      		nop
 9041                             	.L501:
2507:C:/Users/John/Desktop/workspace/miniwinwm/MiniWin/gl\gl.c **** 			{
 9042                             		.loc 1 2507 34 discriminator 2
 9043 015f CD A5 04                		mov.B	4[r10], r5
 9044 0162 62 15                   		add	#1, r5
 9045 0164 C7 A5 04                		mov.B	r5, 4[r10]
 9046                             	.L498:
2507:C:/Users/John/Desktop/workspace/miniwinwm/MiniWin/gl\gl.c **** 			{
 9047                             		.loc 1 2507 18 discriminator 1
 9048 0167 59 A5 04                		movu.B	4[r10], r5
2507:C:/Users/John/Desktop/workspace/miniwinwm/MiniWin/gl\gl.c **** 			{
 9049                             		.loc 1 2507 4 discriminator 1
 9050 016a 5D A4 03                		movu.W	6[r10], r4
 9051 016d 5F 55                   		movu.W	r5, r5
 9052 016f 47 54                   		cmp	r5, r4
 9053 0171 25 05 38 63 FF          		bgtu	.L504
2505:C:/Users/John/Desktop/workspace/miniwinwm/MiniWin/gl\gl.c **** 		{
 9054                             		.loc 1 2505 55 discriminator 2
 9055 0176 DD A5 01                		mov.W	2[r10], r5
 9056 0179 62 15                   		add	#1, r5
 9057 017b D7 A5 01                		mov.W	r5, 2[r10]
 9058                             	.L497:
2505:C:/Users/John/Desktop/workspace/miniwinwm/MiniWin/gl\gl.c **** 		{
 9059                             		.loc 1 2505 17 discriminator 1
 9060 017e DC 65                   		mov.W	[r6], r5
2505:C:/Users/John/Desktop/workspace/miniwinwm/MiniWin/gl\gl.c **** 		{
 9061                             		.loc 1 2505 3 discriminator 1
 9062 0180 DD A4 01                		mov.W	2[r10], r4
 9063 0183 DF 55                   		mov.W	r5, r5
 9064 0185 47 54                   		cmp	r5, r4
 9065 0187 28 05 38 46 FF          		blt	.L505
 9066 018c 2E 7D                   		bra	.L487
 9067                             	.L495:
2523:C:/Users/John/Desktop/workspace/miniwinwm/MiniWin/gl\gl.c **** 				}
2524:C:/Users/John/Desktop/workspace/miniwinwm/MiniWin/gl\gl.c **** 			}
2525:C:/Users/John/Desktop/workspace/miniwinwm/MiniWin/gl\gl.c **** 		}
2526:C:/Users/John/Desktop/workspace/miniwinwm/MiniWin/gl\gl.c **** 	}
2527:C:/Users/John/Desktop/workspace/miniwinwm/MiniWin/gl\gl.c **** 	else
2528:C:/Users/John/Desktop/workspace/miniwinwm/MiniWin/gl\gl.c **** 	{
2529:C:/Users/John/Desktop/workspace/miniwinwm/MiniWin/gl\gl.c **** 		mw_hal_lcd_monochrome_bitmap_clip(draw_info->origin_x + start_x,
 9068                             		.loc 1 2529 46
 9069 018e ED A5 03                		mov.L	12[r10], r5
 9070 0191 DC 55                   		mov.W	[r5], r5
 9071 0193 DF 54                   		mov.W	r5, r4
 9072                             		.loc 1 2529 57
 9073 0195 DD A5 08                		mov.W	16[r10], r5
 9074 0198 4B 45                   		add	r4, r5
 9075                             		.loc 1 2529 3
 9076 019a DF 51                   		mov.W	r5, r1
2530:C:/Users/John/Desktop/workspace/miniwinwm/MiniWin/gl\gl.c **** 				draw_info->origin_y + start_y,
 9077                             		.loc 1 2530 14
 9078 019c ED A5 03                		mov.L	12[r10], r5
 9079 019f 98 5D                   		mov.W	2[r5], r5
 9080 01a1 DF 54                   		mov.W	r5, r4
 9081                             		.loc 1 2530 25
 9082 01a3 DD A5 09                		mov.W	18[r10], r5
 9083 01a6 4B 45                   		add	r4, r5
2529:C:/Users/John/Desktop/workspace/miniwinwm/MiniWin/gl\gl.c **** 				draw_info->origin_y + start_y,
 9084                             		.loc 1 2529 3
 9085 01a8 DF 52                   		mov.W	r5, r2
2531:C:/Users/John/Desktop/workspace/miniwinwm/MiniWin/gl\gl.c **** 				image_data_width_pixels,
2532:C:/Users/John/Desktop/workspace/miniwinwm/MiniWin/gl\gl.c **** 				image_data_height_pixels,
2533:C:/Users/John/Desktop/workspace/miniwinwm/MiniWin/gl\gl.c **** 				draw_info->origin_x + draw_info->clip_rect.x,
 9086                             		.loc 1 2533 14
 9087 01aa ED A5 03                		mov.L	12[r10], r5
 9088 01ad DC 55                   		mov.W	[r5], r5
 9089 01af DF 54                   		mov.W	r5, r4
 9090                             		.loc 1 2533 47
 9091 01b1 ED A5 03                		mov.L	12[r10], r5
 9092 01b4 98 D5                   		mov.W	4[r5], r5
 9093                             		.loc 1 2533 25
 9094 01b6 4B 45                   		add	r4, r5
2529:C:/Users/John/Desktop/workspace/miniwinwm/MiniWin/gl\gl.c **** 				draw_info->origin_y + start_y,
 9095                             		.loc 1 2529 3
 9096 01b8 DF 53                   		mov.W	r5, r3
2534:C:/Users/John/Desktop/workspace/miniwinwm/MiniWin/gl\gl.c **** 				draw_info->origin_y + draw_info->clip_rect.y,
 9097                             		.loc 1 2534 14
 9098 01ba ED A5 03                		mov.L	12[r10], r5
 9099 01bd 98 5D                   		mov.W	2[r5], r5
 9100 01bf DF 54                   		mov.W	r5, r4
 9101                             		.loc 1 2534 47
 9102 01c1 ED A5 03                		mov.L	12[r10], r5
 9103 01c4 98 DD                   		mov.W	6[r5], r5
 9104                             		.loc 1 2534 25
 9105 01c6 4B 45                   		add	r4, r5
2529:C:/Users/John/Desktop/workspace/miniwinwm/MiniWin/gl\gl.c **** 				draw_info->origin_y + start_y,
 9106                             		.loc 1 2529 3
 9107 01c8 DF 54                   		mov.W	r5, r4
 9108 01ca ED A5 03                		mov.L	12[r10], r5
 9109 01cd DD 5B 04                		mov.W	8[r5], r11
 9110 01d0 ED A5 03                		mov.L	12[r10], r5
 9111 01d3 DD 5C 05                		mov.W	10[r5], r12
 9112 01d6 FB 52 00 00 00 00       		mov.L	#_gc, r5
 9113 01dc EC 59                   		mov.L	[r5], r9
 9114 01de FB 52 00 00 00 00       		mov.L	#_gc, r5
 9115 01e4 A8 5D                   		mov.L	4[r5], r5
 9116 01e6 ED 68 01                		mov.L	4[r6], r8
 9117 01e9 E7 08 04                		mov.L	r8, 16[r0]
 9118 01ec A0 8D                   		mov.L	r5, 12[r0]
 9119 01ee E7 09 02                		mov.L	r9, 8[r0]
 9120 01f1 D7 0C 03                		mov.W	r12, 6[r0]
 9121 01f4 D7 0B 02                		mov.W	r11, 4[r0]
 9122 01f7 90 0C                   		mov.W	r4, 2[r0]
 9123 01f9 D3 03                   		mov.W	r3, [r0]
 9124 01fb DC 64                   		mov.W	[r6], r4
 9125 01fd DD A3 0A                		mov.W	20[r10], r3
 9126 0200 05 00 00 00             		bsr	_mw_hal_lcd_monochrome_bitmap_clip
 9127 0204 0D                      		bra	.L487
 9128                             	.L506:
2487:C:/Users/John/Desktop/workspace/miniwinwm/MiniWin/gl\gl.c **** 	}
 9129                             		.loc 1 2487 3
 9130 0205 03                      		nop
 9131 0206 2E 03                   		bra	.L487
 9132                             	.L507:
2494:C:/Users/John/Desktop/workspace/miniwinwm/MiniWin/gl\gl.c **** 	}
 9133                             		.loc 1 2494 3
 9134 0208 03                      		nop
 9135                             		.balign 8,3,2
 9136                             	.L487:
2535:C:/Users/John/Desktop/workspace/miniwinwm/MiniWin/gl\gl.c **** 				draw_info->clip_rect.width,
2536:C:/Users/John/Desktop/workspace/miniwinwm/MiniWin/gl\gl.c **** 				draw_info->clip_rect.height,
2537:C:/Users/John/Desktop/workspace/miniwinwm/MiniWin/gl\gl.c **** 				gc.fg_colour,
2538:C:/Users/John/Desktop/workspace/miniwinwm/MiniWin/gl\gl.c **** 				gc.bg_colour,
2539:C:/Users/John/Desktop/workspace/miniwinwm/MiniWin/gl\gl.c **** 				image_data);
2540:C:/Users/John/Desktop/workspace/miniwinwm/MiniWin/gl\gl.c **** 	}
2541:C:/Users/John/Desktop/workspace/miniwinwm/MiniWin/gl\gl.c **** }
 9137                             		.loc 1 2541 1
 9138 0209 3F 6C 14                		rtsd	#80, r6-r12
 9139                             	.LFE52:
 9141 020c 76 10 01 00             		.section	.text.mw_gl_colour_bitmap,"ax",@progbits
 9142                             		.global	_mw_gl_colour_bitmap
 9144                             	_mw_gl_colour_bitmap:
 9145                             	.LFB53:
2542:C:/Users/John/Desktop/workspace/miniwinwm/MiniWin/gl\gl.c **** 
2543:C:/Users/John/Desktop/workspace/miniwinwm/MiniWin/gl\gl.c **** void mw_gl_colour_bitmap(const mw_gl_draw_info_t *draw_info,
2544:C:/Users/John/Desktop/workspace/miniwinwm/MiniWin/gl\gl.c **** 		int16_t start_x,
2545:C:/Users/John/Desktop/workspace/miniwinwm/MiniWin/gl\gl.c **** 		int16_t start_y,
2546:C:/Users/John/Desktop/workspace/miniwinwm/MiniWin/gl\gl.c **** 		uint16_t image_data_width_pixels,
2547:C:/Users/John/Desktop/workspace/miniwinwm/MiniWin/gl\gl.c **** 		uint16_t image_data_height_pixels,
2548:C:/Users/John/Desktop/workspace/miniwinwm/MiniWin/gl\gl.c **** 		const uint8_t *image_data)
2549:C:/Users/John/Desktop/workspace/miniwinwm/MiniWin/gl\gl.c **** {
 9146                             		.loc 1 2549 1
 9147 0000 6E 6C                   		pushm	r6-r12
 9148                             	.LCFI137:
 9149 0002 71 0A EC                		add	#-20, r0, r10
 9150                             	.LCFI138:
 9151 0005 71 A0 F4                		add	#-12, r10, r0
 9152                             	.LCFI139:
 9153 0008 75 45 34                		mov.L	#52, r5
 9154 000b 4B A5                   		add	r10, r5
 9155 000d E3 A1                   		mov.L	r1, [r10]
 9156 000f D7 A2 02                		mov.W	r2, 4[r10]
 9157 0012 D7 A3 03                		mov.W	r3, 6[r10]
 9158 0015 D7 A4 04                		mov.W	r4, 8[r10]
2550:C:/Users/John/Desktop/workspace/miniwinwm/MiniWin/gl\gl.c **** 	if (draw_info == NULL || image_data == NULL)
 9159                             		.loc 1 2550 5
 9160 0018 EC A4                   		mov.L	[r10], r4
 9161 001a 61 04                   		cmp	#0, r4
 9162 001c 17                      		beq	.L510
 9163                             		.loc 1 2550 24 discriminator 1
 9164 001d A8 5C                   		mov.L	4[r5], r4
 9165 001f 61 04                   		cmp	#0, r4
 9166 0021 21 1B                   		bne	.L511
 9167                             	.L510:
2551:C:/Users/John/Desktop/workspace/miniwinwm/MiniWin/gl\gl.c **** 	{
2552:C:/Users/John/Desktop/workspace/miniwinwm/MiniWin/gl\gl.c **** 		MW_ASSERT((bool)false, "Null pointer argument");
 9168                             		.loc 1 2552 3
 9169 0023 FB 42 00 00 00 00       		mov.L	#.LC0, r4
 9170 0029 FB 3A F8 09             		mov.L	#0x9f8, r3
 9171 002d FB 22 00 00 00 00       		mov.L	#___func__.3645, r2
 9172 0033 66 01                   		mov	#0, r1
 9173 0035 05 00 00 00             		bsr	_mw_debug_print_assert
2553:C:/Users/John/Desktop/workspace/miniwinwm/MiniWin/gl\gl.c **** 		return;
 9174                             		.loc 1 2553 3
 9175 0039 38 B7 00                		bra	.L509
 9176                             	.L511:
2554:C:/Users/John/Desktop/workspace/miniwinwm/MiniWin/gl\gl.c **** 	}
2555:C:/Users/John/Desktop/workspace/miniwinwm/MiniWin/gl\gl.c **** 
2556:C:/Users/John/Desktop/workspace/miniwinwm/MiniWin/gl\gl.c **** 	/* check for left edge being to right of clip rect or top edge being below clip rect*/
2557:C:/Users/John/Desktop/workspace/miniwinwm/MiniWin/gl\gl.c **** 	if (start_x > draw_info->clip_rect.x + draw_info->clip_rect.width ||
 9177                             		.loc 1 2557 14
 9178 003c DD A3 02                		mov.W	4[r10], r3
 9179                             		.loc 1 2557 36
 9180 003f EC A4                   		mov.L	[r10], r4
 9181 0041 98 C4                   		mov.W	4[r4], r4
 9182 0043 DF 42                   		mov.W	r4, r2
 9183                             		.loc 1 2557 61
 9184 0045 EC A4                   		mov.L	[r10], r4
 9185 0047 99 44                   		mov.W	8[r4], r4
 9186 0049 DF 44                   		mov.W	r4, r4
 9187                             		.loc 1 2557 39
 9188 004b 4B 24                   		add	r2, r4
 9189                             		.loc 1 2557 5
 9190 004d 47 43                   		cmp	r4, r3
 9191 004f 2B 05 38 9A 00          		bgt	.L517
2558:C:/Users/John/Desktop/workspace/miniwinwm/MiniWin/gl\gl.c **** 			start_y > draw_info->clip_rect.y + draw_info->clip_rect.height)
 9192                             		.loc 1 2558 12 discriminator 1
 9193 0054 DD A3 03                		mov.W	6[r10], r3
 9194                             		.loc 1 2558 34 discriminator 1
 9195 0057 EC A4                   		mov.L	[r10], r4
 9196 0059 98 CC                   		mov.W	6[r4], r4
 9197 005b DF 42                   		mov.W	r4, r2
 9198                             		.loc 1 2558 59 discriminator 1
 9199 005d EC A4                   		mov.L	[r10], r4
 9200 005f 99 4C                   		mov.W	10[r4], r4
 9201 0061 DF 44                   		mov.W	r4, r4
 9202                             		.loc 1 2558 37 discriminator 1
 9203 0063 4B 24                   		add	r2, r4
2557:C:/Users/John/Desktop/workspace/miniwinwm/MiniWin/gl\gl.c **** 			start_y > draw_info->clip_rect.y + draw_info->clip_rect.height)
 9204                             		.loc 1 2557 68 discriminator 1
 9205 0065 47 43                   		cmp	r4, r3
 9206 0067 2B 05 38 82 00          		bgt	.L517
2559:C:/Users/John/Desktop/workspace/miniwinwm/MiniWin/gl\gl.c **** 	{
2560:C:/Users/John/Desktop/workspace/miniwinwm/MiniWin/gl\gl.c **** 		return;
2561:C:/Users/John/Desktop/workspace/miniwinwm/MiniWin/gl\gl.c **** 	}
2562:C:/Users/John/Desktop/workspace/miniwinwm/MiniWin/gl\gl.c **** 
2563:C:/Users/John/Desktop/workspace/miniwinwm/MiniWin/gl\gl.c **** 	/* check for right edge being to left of clip rect or bottom edge being above rect */
2564:C:/Users/John/Desktop/workspace/miniwinwm/MiniWin/gl\gl.c **** 	if (start_x + (int16_t)image_data_width_pixels - 1 < draw_info->clip_rect.x ||
 9207                             		.loc 1 2564 14
 9208 006c DD A3 02                		mov.W	4[r10], r3
 9209                             		.loc 1 2564 16
 9210 006f DD A4 04                		mov.W	8[r10], r4
 9211 0072 DF 44                   		mov.W	r4, r4
 9212                             		.loc 1 2564 14
 9213 0074 4B 43                   		add	r4, r3
 9214                             		.loc 1 2564 75
 9215 0076 EC A4                   		mov.L	[r10], r4
 9216 0078 98 C4                   		mov.W	4[r4], r4
 9217 007a DF 44                   		mov.W	r4, r4
 9218                             		.loc 1 2564 5
 9219 007c 47 43                   		cmp	r4, r3
 9220 007e 2B 6F                   		ble	.L518
2565:C:/Users/John/Desktop/workspace/miniwinwm/MiniWin/gl\gl.c **** 			start_y + (int16_t)image_data_height_pixels - 1 < draw_info->clip_rect.y)
 9221                             		.loc 1 2565 12 discriminator 1
 9222 0080 DD A3 03                		mov.W	6[r10], r3
 9223                             		.loc 1 2565 14 discriminator 1
 9224 0083 DC 54                   		mov.W	[r5], r4
 9225 0085 DF 44                   		mov.W	r4, r4
 9226                             		.loc 1 2565 12 discriminator 1
 9227 0087 4B 43                   		add	r4, r3
 9228                             		.loc 1 2565 74 discriminator 1
 9229 0089 EC A4                   		mov.L	[r10], r4
 9230 008b 98 CC                   		mov.W	6[r4], r4
 9231 008d DF 44                   		mov.W	r4, r4
2564:C:/Users/John/Desktop/workspace/miniwinwm/MiniWin/gl\gl.c **** 			start_y + (int16_t)image_data_height_pixels - 1 < draw_info->clip_rect.y)
 9232                             		.loc 1 2564 78 discriminator 1
 9233 008f 47 43                   		cmp	r4, r3
 9234 0091 2B 5C                   		ble	.L518
2566:C:/Users/John/Desktop/workspace/miniwinwm/MiniWin/gl\gl.c **** 	{
2567:C:/Users/John/Desktop/workspace/miniwinwm/MiniWin/gl\gl.c **** 		return;
2568:C:/Users/John/Desktop/workspace/miniwinwm/MiniWin/gl\gl.c **** 	}
2569:C:/Users/John/Desktop/workspace/miniwinwm/MiniWin/gl\gl.c **** 
2570:C:/Users/John/Desktop/workspace/miniwinwm/MiniWin/gl\gl.c **** 	mw_hal_lcd_colour_bitmap_clip(draw_info->origin_x + start_x,
 9235                             		.loc 1 2570 41
 9236 0093 EC A4                   		mov.L	[r10], r4
 9237 0095 DC 44                   		mov.W	[r4], r4
 9238 0097 DF 43                   		mov.W	r4, r3
 9239                             		.loc 1 2570 52
 9240 0099 DD A4 02                		mov.W	4[r10], r4
 9241 009c 4B 34                   		add	r3, r4
 9242                             		.loc 1 2570 2
 9243 009e DF 41                   		mov.W	r4, r1
2571:C:/Users/John/Desktop/workspace/miniwinwm/MiniWin/gl\gl.c **** 			draw_info->origin_y + start_y,
 9244                             		.loc 1 2571 13
 9245 00a0 EC A4                   		mov.L	[r10], r4
 9246 00a2 98 4C                   		mov.W	2[r4], r4
 9247 00a4 DF 43                   		mov.W	r4, r3
 9248                             		.loc 1 2571 24
 9249 00a6 DD A4 03                		mov.W	6[r10], r4
 9250 00a9 4B 34                   		add	r3, r4
2570:C:/Users/John/Desktop/workspace/miniwinwm/MiniWin/gl\gl.c **** 			draw_info->origin_y + start_y,
 9251                             		.loc 1 2570 2
 9252 00ab DF 42                   		mov.W	r4, r2
2572:C:/Users/John/Desktop/workspace/miniwinwm/MiniWin/gl\gl.c **** 			image_data_width_pixels,
2573:C:/Users/John/Desktop/workspace/miniwinwm/MiniWin/gl\gl.c **** 			image_data_height_pixels,
2574:C:/Users/John/Desktop/workspace/miniwinwm/MiniWin/gl\gl.c **** 			draw_info->origin_x + draw_info->clip_rect.x,
 9253                             		.loc 1 2574 13
 9254 00ad EC A4                   		mov.L	[r10], r4
 9255 00af DC 44                   		mov.W	[r4], r4
 9256 00b1 DF 43                   		mov.W	r4, r3
 9257                             		.loc 1 2574 46
 9258 00b3 EC A4                   		mov.L	[r10], r4
 9259 00b5 98 C4                   		mov.W	4[r4], r4
 9260                             		.loc 1 2574 24
 9261 00b7 4B 34                   		add	r3, r4
2570:C:/Users/John/Desktop/workspace/miniwinwm/MiniWin/gl\gl.c **** 			draw_info->origin_y + start_y,
 9262                             		.loc 1 2570 2
 9263 00b9 DF 46                   		mov.W	r4, r6
2575:C:/Users/John/Desktop/workspace/miniwinwm/MiniWin/gl\gl.c **** 			draw_info->origin_y + draw_info->clip_rect.y,
 9264                             		.loc 1 2575 13
 9265 00bb EC A4                   		mov.L	[r10], r4
 9266 00bd 98 4C                   		mov.W	2[r4], r4
 9267 00bf DF 43                   		mov.W	r4, r3
 9268                             		.loc 1 2575 46
 9269 00c1 EC A4                   		mov.L	[r10], r4
 9270 00c3 98 CC                   		mov.W	6[r4], r4
 9271                             		.loc 1 2575 24
 9272 00c5 4B 34                   		add	r3, r4
2570:C:/Users/John/Desktop/workspace/miniwinwm/MiniWin/gl\gl.c **** 			draw_info->origin_y + start_y,
 9273                             		.loc 1 2570 2
 9274 00c7 DF 43                   		mov.W	r4, r3
 9275 00c9 EC A4                   		mov.L	[r10], r4
 9276 00cb DD 4B 04                		mov.W	8[r4], r11
 9277 00ce EC A4                   		mov.L	[r10], r4
 9278 00d0 99 4C                   		mov.W	10[r4], r4
 9279 00d2 ED 5C 01                		mov.L	4[r5], r12
 9280 00d5 E7 0C 02                		mov.L	r12, 8[r0]
 9281 00d8 90 8C                   		mov.W	r4, 6[r0]
 9282 00da D7 0B 02                		mov.W	r11, 4[r0]
 9283 00dd 90 0B                   		mov.W	r3, 2[r0]
 9284 00df D3 06                   		mov.W	r6, [r0]
 9285 00e1 DC 54                   		mov.W	[r5], r4
 9286 00e3 DD A3 04                		mov.W	8[r10], r3
 9287 00e6 05 00 00 00             		bsr	_mw_hal_lcd_colour_bitmap_clip
 9288 00ea 0E                      		bra	.L509
 9289                             	.L517:
2560:C:/Users/John/Desktop/workspace/miniwinwm/MiniWin/gl\gl.c **** 	}
 9290                             		.loc 1 2560 3
 9291 00eb 03                      		nop
 9292 00ec 0C                      		bra	.L509
 9293                             	.L518:
2567:C:/Users/John/Desktop/workspace/miniwinwm/MiniWin/gl\gl.c **** 	}
 9294                             		.loc 1 2567 3
 9295 00ed 03                      		nop
 9296 00ee EF 00                   		.balign 8,3,2
 9297                             	.L509:
2576:C:/Users/John/Desktop/workspace/miniwinwm/MiniWin/gl\gl.c **** 			draw_info->clip_rect.width,
2577:C:/Users/John/Desktop/workspace/miniwinwm/MiniWin/gl\gl.c **** 			draw_info->clip_rect.height,
2578:C:/Users/John/Desktop/workspace/miniwinwm/MiniWin/gl\gl.c **** 			image_data);
2579:C:/Users/John/Desktop/workspace/miniwinwm/MiniWin/gl\gl.c **** }
 9298                             		.loc 1 2579 1
 9299 00f0 3F 6C 0F                		rtsd	#60, r6-r12
 9300                             	.LFE53:
 9302 00f3 77 10 01 00 00          		.section	.text.mw_gl_tt_render_text,"ax",@progbits
 9303                             		.global	_mw_gl_tt_render_text
 9305                             	_mw_gl_tt_render_text:
 9306                             	.LFB54:
2580:C:/Users/John/Desktop/workspace/miniwinwm/MiniWin/gl\gl.c **** 
2581:C:/Users/John/Desktop/workspace/miniwinwm/MiniWin/gl\gl.c **** void mw_gl_tt_render_text(const mw_gl_draw_info_t *draw_info,
2582:C:/Users/John/Desktop/workspace/miniwinwm/MiniWin/gl\gl.c **** 		mw_util_rect_t *text_rect,
2583:C:/Users/John/Desktop/workspace/miniwinwm/MiniWin/gl\gl.c **** 		mw_gl_tt_font_justification_t justification,
2584:C:/Users/John/Desktop/workspace/miniwinwm/MiniWin/gl\gl.c **** 		const struct mf_rlefont_s *rle_font,
2585:C:/Users/John/Desktop/workspace/miniwinwm/MiniWin/gl\gl.c **** 		const char *tt_text,
2586:C:/Users/John/Desktop/workspace/miniwinwm/MiniWin/gl\gl.c **** 		int16_t vert_scroll_pixels)
2587:C:/Users/John/Desktop/workspace/miniwinwm/MiniWin/gl\gl.c **** {
 9307                             		.loc 1 2587 1
 9308 0000 7E AA                   		push.l	r10
 9309                             	.LCFI140:
 9310 0002 7E A6                   		push.l	r6
 9311                             	.LCFI141:
 9312 0004 71 0A C4                		add	#-60, r0, r10
 9313                             	.LCFI142:
 9314 0007 71 A0 FC                		add	#-4, r10, r0
 9315                             	.LCFI143:
 9316 000a 75 46 48                		mov.L	#0x48, r6
 9317 000d 4B A6                   		add	r10, r6
 9318 000f E7 A1 09                		mov.L	r1, 36[r10]
 9319 0012 E7 A2 0A                		mov.L	r2, 40[r10]
 9320 0015 E7 A3 0B                		mov.L	r3, 44[r10]
 9321 0018 E7 A4 0C                		mov.L	r4, 48[r10]
2588:C:/Users/John/Desktop/workspace/miniwinwm/MiniWin/gl\gl.c **** 	tt_font_state_t tt_font_state;
2589:C:/Users/John/Desktop/workspace/miniwinwm/MiniWin/gl\gl.c **** 	mw_hal_lcd_colour_t temp_lcd_colour;
2590:C:/Users/John/Desktop/workspace/miniwinwm/MiniWin/gl\gl.c **** 
2591:C:/Users/John/Desktop/workspace/miniwinwm/MiniWin/gl\gl.c **** 	/* check parameters */
2592:C:/Users/John/Desktop/workspace/miniwinwm/MiniWin/gl\gl.c **** 	if (draw_info == NULL || rle_font == NULL || tt_text == NULL || text_rect == NULL)
 9322                             		.loc 1 2592 5
 9323 001b ED A5 09                		mov.L	36[r10], r5
 9324 001e 61 05                   		cmp	#0, r5
 9325 0020 20 18                   		beq	.L520
 9326                             		.loc 1 2592 24 discriminator 1
 9327 0022 ED A5 0C                		mov.L	48[r10], r5
 9328 0025 61 05                   		cmp	#0, r5
 9329 0027 20 11                   		beq	.L520
 9330                             		.loc 1 2592 44 discriminator 2
 9331 0029 EC 65                   		mov.L	[r6], r5
 9332 002b 61 05                   		cmp	#0, r5
 9333 002d 20 0B                   		beq	.L520
 9334                             		.loc 1 2592 63 discriminator 3
 9335 002f ED A5 0A                		mov.L	40[r10], r5
 9336 0032 61 05                   		cmp	#0, r5
 9337 0034 21 1D                   		bne	.L521
 9338 0036 EF 00                   		.balign 8,3,5
 9339                             	.L520:
2593:C:/Users/John/Desktop/workspace/miniwinwm/MiniWin/gl\gl.c **** 	{
2594:C:/Users/John/Desktop/workspace/miniwinwm/MiniWin/gl\gl.c **** 		MW_ASSERT((bool)false, "Null pointer argument");
 9340                             		.loc 1 2594 3
 9341 0038 FB 42 00 00 00 00       		mov.L	#.LC0, r4
 9342 003e FB 3A 22 0A             		mov.L	#0xa22, r3
 9343 0042 FB 22 00 00 00 00       		mov.L	#___func__.3656, r2
 9344 0048 66 01                   		mov	#0, r1
 9345 004a 05 00 00 00             		bsr	_mw_debug_print_assert
 9346 004e 38 F9 00                		bra	.L519
 9347                             	.L521:
2595:C:/Users/John/Desktop/workspace/miniwinwm/MiniWin/gl\gl.c **** 		return;
2596:C:/Users/John/Desktop/workspace/miniwinwm/MiniWin/gl\gl.c **** 	}
2597:C:/Users/John/Desktop/workspace/miniwinwm/MiniWin/gl\gl.c **** 
2598:C:/Users/John/Desktop/workspace/miniwinwm/MiniWin/gl\gl.c **** 	/* set up tt font rendering state from parameters */
2599:C:/Users/John/Desktop/workspace/miniwinwm/MiniWin/gl\gl.c **** 	tt_font_state.font = &rle_font->font;
 9348                             		.loc 1 2599 23
 9349 0051 ED A5 0C                		mov.L	48[r10], r5
 9350                             		.loc 1 2599 21
 9351 0054 E7 A5 02                		mov.L	r5, 8[r10]
2600:C:/Users/John/Desktop/workspace/miniwinwm/MiniWin/gl\gl.c **** 	tt_font_state.draw_info = draw_info;
 9352                             		.loc 1 2600 26
 9353 0057 ED A5 09                		mov.L	36[r10], r5
 9354 005a E7 A5 01                		mov.L	r5, 4[r10]
2601:C:/Users/John/Desktop/workspace/miniwinwm/MiniWin/gl\gl.c **** 	(void)memcpy((&tt_font_state.bounding_box), (text_rect), (sizeof(mw_util_rect_t)));
 9355                             		.loc 1 2601 8
 9356 005d 71 A5 04                		add	#4, r10, r5
 9357 0060 62 85                   		add	#8, r5
 9358 0062 66 83                   		mov.L	#8, r3
 9359 0064 ED A2 0A                		mov.L	40[r10], r2
 9360 0067 EF 51                   		mov.L	r5, r1
 9361 0069 05 00 00 00             		bsr	_memcpy
2602:C:/Users/John/Desktop/workspace/miniwinwm/MiniWin/gl\gl.c **** 	tt_font_state.bottom = text_rect->y + text_rect->height;
 9362                             		.loc 1 2602 34
 9363 006d ED A5 0A                		mov.L	40[r10], r5
 9364 0070 98 5D                   		mov.W	2[r5], r5
 9365 0072 DF 54                   		mov.W	r5, r4
 9366                             		.loc 1 2602 49
 9367 0074 ED A5 0A                		mov.L	40[r10], r5
 9368 0077 98 DD                   		mov.W	6[r5], r5
 9369                             		.loc 1 2602 38
 9370 0079 4B 45                   		add	r4, r5
 9371                             		.loc 1 2602 23
 9372 007b D7 A5 0A                		mov.W	r5, 20[r10]
2603:C:/Users/John/Desktop/workspace/miniwinwm/MiniWin/gl\gl.c **** 	tt_font_state.justification = justification;
 9373                             		.loc 1 2603 30
 9374 007e ED A5 0B                		mov.L	44[r10], r5
 9375 0081 E7 A5 07                		mov.L	r5, 28[r10]
2604:C:/Users/John/Desktop/workspace/miniwinwm/MiniWin/gl\gl.c **** 	tt_font_state.vert_scroll_pixels = vert_scroll_pixels;
 9376                             		.loc 1 2604 35
 9377 0084 98 E5                   		mov.W	4[r6], r5
 9378 0086 D7 A5 11                		mov.W	r5, 34[r10]
2605:C:/Users/John/Desktop/workspace/miniwinwm/MiniWin/gl\gl.c **** 
2606:C:/Users/John/Desktop/workspace/miniwinwm/MiniWin/gl\gl.c **** 	/* set up alpha blending values */
2607:C:/Users/John/Desktop/workspace/miniwinwm/MiniWin/gl\gl.c **** 	if ((rle_font->font.flags & MF_FONT_FLAG_BW) == 0U)
 9379                             		.loc 1 2607 21
 9380 0089 ED A5 0C                		mov.L	48[r10], r5
 9381 008c 8B DD                   		mov.B	15[r5], r5
 9382                             		.loc 1 2607 28
 9383 008e 5B 55                   		movu.B	r5, r5
 9384 0090 64 25                   		and	#2, r5
 9385                             		.loc 1 2607 5
 9386 0092 61 05                   		cmp	#0, r5
 9387 0094 21 7C                   		bne	.L523
2608:C:/Users/John/Desktop/workspace/miniwinwm/MiniWin/gl\gl.c **** 	{
2609:C:/Users/John/Desktop/workspace/miniwinwm/MiniWin/gl\gl.c **** 		temp_lcd_colour = (gc.fg_colour & 0xff0000U) >> 16U;
 9388                             		.loc 1 2609 24
 9389 0096 FB 52 00 00 00 00       		mov.L	#_gc, r5
 9390 009c EC 55                   		mov.L	[r5], r5
 9391                             		.loc 1 2609 48
 9392 009e 69 05                   		shlr	#16, r5
 9393                             		.loc 1 2609 19
 9394 00a0 76 25 FF 00             		and	#0xff, r5
 9395 00a4 E3 A5                   		mov.L	r5, [r10]
2610:C:/Users/John/Desktop/workspace/miniwinwm/MiniWin/gl\gl.c **** 		tt_font_state.fg_red = (uint8_t)temp_lcd_colour;
 9396                             		.loc 1 2610 26
 9397 00a6 EC A5                   		mov.L	[r10], r5
 9398                             		.loc 1 2610 24
 9399 00a8 C7 A5 16                		mov.B	r5, 22[r10]
2611:C:/Users/John/Desktop/workspace/miniwinwm/MiniWin/gl\gl.c **** 		temp_lcd_colour = (gc.fg_colour & 0xff00U) >> 8U;
 9400                             		.loc 1 2611 24
 9401 00ab FB 52 00 00 00 00       		mov.L	#_gc, r5
 9402 00b1 EC 55                   		mov.L	[r5], r5
 9403                             		.loc 1 2611 46
 9404 00b3 68 85                   		shlr	#8, r5
 9405                             		.loc 1 2611 19
 9406 00b5 76 25 FF 00             		and	#0xff, r5
 9407 00b9 E3 A5                   		mov.L	r5, [r10]
2612:C:/Users/John/Desktop/workspace/miniwinwm/MiniWin/gl\gl.c **** 		tt_font_state.fg_green = (uint8_t)temp_lcd_colour;
 9408                             		.loc 1 2612 28
 9409 00bb EC A5                   		mov.L	[r10], r5
 9410                             		.loc 1 2612 26
 9411 00bd C7 A5 17                		mov.B	r5, 23[r10]
2613:C:/Users/John/Desktop/workspace/miniwinwm/MiniWin/gl\gl.c **** 		temp_lcd_colour = gc.fg_colour & 0xffU;
 9412                             		.loc 1 2613 23
 9413 00c0 FB 52 00 00 00 00       		mov.L	#_gc, r5
 9414 00c6 EC 55                   		mov.L	[r5], r5
 9415                             		.loc 1 2613 19
 9416 00c8 76 25 FF 00             		and	#0xff, r5
 9417 00cc E3 A5                   		mov.L	r5, [r10]
2614:C:/Users/John/Desktop/workspace/miniwinwm/MiniWin/gl\gl.c **** 		tt_font_state.fg_blue = (uint8_t)temp_lcd_colour;
 9418                             		.loc 1 2614 27
 9419 00ce EC A5                   		mov.L	[r10], r5
 9420                             		.loc 1 2614 25
 9421 00d0 C7 A5 18                		mov.B	r5, 24[r10]
2615:C:/Users/John/Desktop/workspace/miniwinwm/MiniWin/gl\gl.c **** 		temp_lcd_colour = (gc.bg_colour & 0xff0000U) >> 16U;
 9422                             		.loc 1 2615 24
 9423 00d3 FB 52 00 00 00 00       		mov.L	#_gc, r5
 9424 00d9 A8 5D                   		mov.L	4[r5], r5
 9425                             		.loc 1 2615 48
 9426 00db 69 05                   		shlr	#16, r5
 9427                             		.loc 1 2615 19
 9428 00dd 76 25 FF 00             		and	#0xff, r5
 9429 00e1 E3 A5                   		mov.L	r5, [r10]
2616:C:/Users/John/Desktop/workspace/miniwinwm/MiniWin/gl\gl.c **** 		tt_font_state.bg_red = (uint8_t)temp_lcd_colour;
 9430                             		.loc 1 2616 26
 9431 00e3 EC A5                   		mov.L	[r10], r5
 9432                             		.loc 1 2616 24
 9433 00e5 C7 A5 19                		mov.B	r5, 25[r10]
2617:C:/Users/John/Desktop/workspace/miniwinwm/MiniWin/gl\gl.c **** 		temp_lcd_colour = (gc.bg_colour & 0xff00U) >> 8U;
 9434                             		.loc 1 2617 24
 9435 00e8 FB 52 00 00 00 00       		mov.L	#_gc, r5
 9436 00ee A8 5D                   		mov.L	4[r5], r5
 9437                             		.loc 1 2617 46
 9438 00f0 68 85                   		shlr	#8, r5
 9439                             		.loc 1 2617 19
 9440 00f2 76 25 FF 00             		and	#0xff, r5
 9441 00f6 E3 A5                   		mov.L	r5, [r10]
2618:C:/Users/John/Desktop/workspace/miniwinwm/MiniWin/gl\gl.c **** 		tt_font_state.bg_green = (uint8_t)temp_lcd_colour;
 9442                             		.loc 1 2618 28
 9443 00f8 EC A5                   		mov.L	[r10], r5
 9444                             		.loc 1 2618 26
 9445 00fa C7 A5 1A                		mov.B	r5, 26[r10]
2619:C:/Users/John/Desktop/workspace/miniwinwm/MiniWin/gl\gl.c **** 		temp_lcd_colour = gc.bg_colour & 0xffU;
 9446                             		.loc 1 2619 23
 9447 00fd FB 52 00 00 00 00       		mov.L	#_gc, r5
 9448 0103 A8 5D                   		mov.L	4[r5], r5
 9449                             		.loc 1 2619 19
 9450 0105 76 25 FF 00             		and	#0xff, r5
 9451 0109 E3 A5                   		mov.L	r5, [r10]
2620:C:/Users/John/Desktop/workspace/miniwinwm/MiniWin/gl\gl.c **** 		tt_font_state.bg_blue = (uint8_t)temp_lcd_colour;
 9452                             		.loc 1 2620 27
 9453 010b EC A5                   		mov.L	[r10], r5
 9454                             		.loc 1 2620 25
 9455 010d C7 A5 1B                		mov.B	r5, 27[r10]
 9456                             	.L523:
2621:C:/Users/John/Desktop/workspace/miniwinwm/MiniWin/gl\gl.c **** 	}
2622:C:/Users/John/Desktop/workspace/miniwinwm/MiniWin/gl\gl.c **** 
2623:C:/Users/John/Desktop/workspace/miniwinwm/MiniWin/gl\gl.c **** 	/* set up gc for drawing background in line draw callback */
2624:C:/Users/John/Desktop/workspace/miniwinwm/MiniWin/gl\gl.c **** 	mw_gl_set_solid_fill_colour(gc.bg_colour);
 9457                             		.loc 1 2624 2
 9458 0110 FB 52 00 00 00 00       		mov.L	#_gc, r5
 9459 0116 A8 5D                   		mov.L	4[r5], r5
 9460 0118 EF 51                   		mov.L	r5, r1
 9461 011a 05 00 00 00             		bsr	_mw_gl_set_solid_fill_colour
2625:C:/Users/John/Desktop/workspace/miniwinwm/MiniWin/gl\gl.c **** 	mw_gl_clear_pattern();
 9462                             		.loc 1 2625 2
 9463 011e 05 00 00 00             		bsr	_mw_gl_clear_pattern
2626:C:/Users/John/Desktop/workspace/miniwinwm/MiniWin/gl\gl.c **** 	mw_gl_set_fill(MW_GL_FILL);
 9464                             		.loc 1 2626 2
 9465 0122 66 11                   		mov.L	#1, r1
 9466 0124 05 00 00 00             		bsr	_mw_gl_set_fill
2627:C:/Users/John/Desktop/workspace/miniwinwm/MiniWin/gl\gl.c **** 	mw_gl_set_border(MW_GL_BORDER_OFF);
 9467                             		.loc 1 2627 2
 9468 0128 66 01                   		mov.L	#0, r1
 9469 012a 05 00 00 00             		bsr	_mw_gl_set_border
2628:C:/Users/John/Desktop/workspace/miniwinwm/MiniWin/gl\gl.c **** 
2629:C:/Users/John/Desktop/workspace/miniwinwm/MiniWin/gl\gl.c **** 	/* render tt text */
2630:C:/Users/John/Desktop/workspace/miniwinwm/MiniWin/gl\gl.c **** 	mf_wordwrap(tt_font_state.font,
 9470                             		.loc 1 2630 2
 9471 012e ED A1 02                		mov.L	8[r10], r1
 9472 0131 ED A5 0A                		mov.L	40[r10], r5
 9473 0134 98 D2                   		mov.W	4[r5], r2
 9474 0136 71 A5 04                		add	#4, r10, r5
 9475 0139 E3 05                   		mov.L	r5, [r0]
 9476 013b FB 42 00 00 00 00       		mov.L	#_tt_line_callback, r4
 9477 0141 EC 63                   		mov.L	[r6], r3
 9478 0143 05 00 00 00             		bsr	_mf_wordwrap
 9479                             	.L519:
2631:C:/Users/John/Desktop/workspace/miniwinwm/MiniWin/gl\gl.c **** 			text_rect->width,
2632:C:/Users/John/Desktop/workspace/miniwinwm/MiniWin/gl\gl.c **** 			tt_text,
2633:C:/Users/John/Desktop/workspace/miniwinwm/MiniWin/gl\gl.c **** 			tt_line_callback,
2634:C:/Users/John/Desktop/workspace/miniwinwm/MiniWin/gl\gl.c **** 			&tt_font_state);
2635:C:/Users/John/Desktop/workspace/miniwinwm/MiniWin/gl\gl.c **** }
 9480                             		.loc 1 2635 1
 9481 0147 71 00 40                		add	#0x40, r0
 9482 014a 7E B6                   		pop	r6
 9483 014c 7E BA                   		pop	r10
 9484 014e 02                      		rts
 9485                             	.LFE54:
 9487 014f 03                      		.section	.text.mw_gl_tt_get_render_text_lines,"ax",@progbits
 9488                             		.global	_mw_gl_tt_get_render_text_lines
 9490                             	_mw_gl_tt_get_render_text_lines:
 9491                             	.LFB55:
2636:C:/Users/John/Desktop/workspace/miniwinwm/MiniWin/gl\gl.c **** 
2637:C:/Users/John/Desktop/workspace/miniwinwm/MiniWin/gl\gl.c **** int16_t mw_gl_tt_get_render_text_lines(int16_t width,
2638:C:/Users/John/Desktop/workspace/miniwinwm/MiniWin/gl\gl.c **** 		mw_gl_tt_font_justification_t justification,
2639:C:/Users/John/Desktop/workspace/miniwinwm/MiniWin/gl\gl.c **** 		const struct mf_rlefont_s *rle_font,
2640:C:/Users/John/Desktop/workspace/miniwinwm/MiniWin/gl\gl.c **** 		const char *tt_text)
2641:C:/Users/John/Desktop/workspace/miniwinwm/MiniWin/gl\gl.c **** {
 9492                             		.loc 1 2641 1
 9493 0000 7E AA                   		push.l	r10
 9494                             	.LCFI144:
 9495 0002 71 0A D0                		add	#-48, r0, r10
 9496                             	.LCFI145:
 9497 0005 71 A0 FC                		add	#-4, r10, r0
 9498                             	.LCFI146:
 9499 0008 D7 A1 10                		mov.W	r1, 32[r10]
 9500 000b E7 A2 09                		mov.L	r2, 36[r10]
 9501 000e E7 A3 0A                		mov.L	r3, 40[r10]
 9502 0011 E7 A4 0B                		mov.L	r4, 44[r10]
2642:C:/Users/John/Desktop/workspace/miniwinwm/MiniWin/gl\gl.c **** 	tt_font_state_t tt_font_state;
2643:C:/Users/John/Desktop/workspace/miniwinwm/MiniWin/gl\gl.c **** 
2644:C:/Users/John/Desktop/workspace/miniwinwm/MiniWin/gl\gl.c **** 	/* check parameters */
2645:C:/Users/John/Desktop/workspace/miniwinwm/MiniWin/gl\gl.c **** 	if (rle_font == NULL || tt_text == NULL)
 9503                             		.loc 1 2645 5
 9504 0014 ED A5 0A                		mov.L	40[r10], r5
 9505 0017 61 05                   		cmp	#0, r5
 9506 0019 10                      		beq	.L525
 9507                             		.loc 1 2645 23 discriminator 1
 9508 001a ED A5 0B                		mov.L	44[r10], r5
 9509 001d 61 05                   		cmp	#0, r5
 9510 001f 21 1C                   		bne	.L526
 9511                             	.L525:
2646:C:/Users/John/Desktop/workspace/miniwinwm/MiniWin/gl\gl.c **** 	{
2647:C:/Users/John/Desktop/workspace/miniwinwm/MiniWin/gl\gl.c **** 		MW_ASSERT((bool)false, "Null pointer argument");
 9512                             		.loc 1 2647 3
 9513 0021 FB 42 00 00 00 00       		mov.L	#.LC0, r4
 9514 0027 FB 3A 57 0A             		mov.L	#0xa57, r3
 9515 002b FB 22 00 00 00 00       		mov.L	#___func__.3664, r2
 9516 0031 66 01                   		mov	#0, r1
 9517 0033 05 00 00 00             		bsr	_mw_debug_print_assert
2648:C:/Users/John/Desktop/workspace/miniwinwm/MiniWin/gl\gl.c **** 		return (0);
 9518                             		.loc 1 2648 10
 9519 0037 66 05                   		mov	#0, r5
 9520 0039 2E 73                   		bra	.L529
 9521                             	.L526:
2649:C:/Users/John/Desktop/workspace/miniwinwm/MiniWin/gl\gl.c **** 	}
2650:C:/Users/John/Desktop/workspace/miniwinwm/MiniWin/gl\gl.c **** 
2651:C:/Users/John/Desktop/workspace/miniwinwm/MiniWin/gl\gl.c ****     if (justification != MW_GL_TT_FULLY_JUSTIFIED &&
 9522                             		.loc 1 2651 8
 9523 003b ED A5 09                		mov.L	36[r10], r5
 9524 003e 61 35                   		cmp	#3, r5
 9525 0040 20 31                   		beq	.L528
 9526                             		.loc 1 2651 51 discriminator 1
 9527 0042 ED A5 09                		mov.L	36[r10], r5
 9528 0045 61 05                   		cmp	#0, r5
 9529 0047 20 2A                   		beq	.L528
2652:C:/Users/John/Desktop/workspace/miniwinwm/MiniWin/gl\gl.c ****     		justification != MW_GL_TT_LEFT_JUSTIFIED &&
 9530                             		.loc 1 2652 48
 9531 0049 ED A5 09                		mov.L	36[r10], r5
 9532 004c 61 25                   		cmp	#2, r5
 9533 004e 20 23                   		beq	.L528
2653:C:/Users/John/Desktop/workspace/miniwinwm/MiniWin/gl\gl.c **** 			justification != MW_GL_TT_RIGHT_JUSTIFIED &&
 9534                             		.loc 1 2653 46
 9535 0050 ED A5 09                		mov.L	36[r10], r5
 9536 0053 61 15                   		cmp	#1, r5
 9537 0055 20 1C                   		beq	.L528
2654:C:/Users/John/Desktop/workspace/miniwinwm/MiniWin/gl\gl.c **** 			justification != MW_GL_TT_CENTRE_JUSTIFIED)
2655:C:/Users/John/Desktop/workspace/miniwinwm/MiniWin/gl\gl.c ****     {
2656:C:/Users/John/Desktop/workspace/miniwinwm/MiniWin/gl\gl.c ****     	MW_ASSERT((bool)false, "Invalid justification");
 9538                             		.loc 1 2656 6
 9539 0057 FB 42 74 00 00 00       		mov.L	#.LC4, r4
 9540 005d FB 3A 60 0A             		mov.L	#0xa60, r3
 9541 0061 FB 22 00 00 00 00       		mov.L	#___func__.3664, r2
 9542 0067 66 01                   		mov	#0, r1
 9543 0069 05 00 00 00             		bsr	_mw_debug_print_assert
2657:C:/Users/John/Desktop/workspace/miniwinwm/MiniWin/gl\gl.c ****     	return (0);
 9544                             		.loc 1 2657 13
 9545 006d 66 05                   		mov	#0, r5
 9546 006f 2E 3D                   		bra	.L529
 9547                             	.L528:
2658:C:/Users/John/Desktop/workspace/miniwinwm/MiniWin/gl\gl.c ****     }
2659:C:/Users/John/Desktop/workspace/miniwinwm/MiniWin/gl\gl.c **** 
2660:C:/Users/John/Desktop/workspace/miniwinwm/MiniWin/gl\gl.c **** 	/* set up tt font rendering state from parameters */
2661:C:/Users/John/Desktop/workspace/miniwinwm/MiniWin/gl\gl.c **** 	tt_font_state.font = &rle_font->font;
 9548                             		.loc 1 2661 23
 9549 0071 ED A5 0A                		mov.L	40[r10], r5
 9550                             		.loc 1 2661 21
 9551 0074 E7 A5 01                		mov.L	r5, 4[r10]
2662:C:/Users/John/Desktop/workspace/miniwinwm/MiniWin/gl\gl.c **** 	tt_font_state.bounding_box.width = width;
 9552                             		.loc 1 2662 35
 9553 0077 DD A5 10                		mov.W	32[r10], r5
 9554 007a D7 A5 06                		mov.W	r5, 12[r10]
2663:C:/Users/John/Desktop/workspace/miniwinwm/MiniWin/gl\gl.c **** 	tt_font_state.justification = justification;
 9555                             		.loc 1 2663 30
 9556 007d ED A5 09                		mov.L	36[r10], r5
 9557 0080 E7 A5 06                		mov.L	r5, 24[r10]
2664:C:/Users/John/Desktop/workspace/miniwinwm/MiniWin/gl\gl.c **** 	tt_font_state.rendered_line_count = 0;
 9558                             		.loc 1 2664 36
 9559 0083 F9 A5 0E 00             		mov.W	#0, 28[r10]
2665:C:/Users/John/Desktop/workspace/miniwinwm/MiniWin/gl\gl.c **** 
2666:C:/Users/John/Desktop/workspace/miniwinwm/MiniWin/gl\gl.c **** 	/* dummy render tt text */
2667:C:/Users/John/Desktop/workspace/miniwinwm/MiniWin/gl\gl.c **** 	mf_wordwrap(tt_font_state.font,
 9560                             		.loc 1 2667 2
 9561 0087 ED A5 01                		mov.L	4[r10], r5
 9562 008a E3 0A                   		mov.L	r10, [r0]
 9563 008c FB 42 00 00 00 00       		mov.L	#_tt_dummy_line_callback, r4
 9564 0092 ED A3 0B                		mov.L	44[r10], r3
 9565 0095 DD A2 10                		mov.W	32[r10], r2
 9566 0098 EF 51                   		mov.L	r5, r1
 9567 009a 05 00 00 00             		bsr	_mf_wordwrap
2668:C:/Users/John/Desktop/workspace/miniwinwm/MiniWin/gl\gl.c **** 			width,
2669:C:/Users/John/Desktop/workspace/miniwinwm/MiniWin/gl\gl.c **** 			tt_text,
2670:C:/Users/John/Desktop/workspace/miniwinwm/MiniWin/gl\gl.c **** 			tt_dummy_line_callback,
2671:C:/Users/John/Desktop/workspace/miniwinwm/MiniWin/gl\gl.c **** 			&tt_font_state);
2672:C:/Users/John/Desktop/workspace/miniwinwm/MiniWin/gl\gl.c **** 
2673:C:/Users/John/Desktop/workspace/miniwinwm/MiniWin/gl\gl.c **** 	return (tt_font_state.rendered_line_count * (int16_t)tt_font_state.font->line_height);
 9568                             		.loc 1 2673 23
 9569 009e DD A5 0E                		mov.W	28[r10], r5
 9570                             		.loc 1 2673 44
 9571 00a1 DF 54                   		mov.W	r5, r4
 9572                             		.loc 1 2673 68
 9573 00a3 ED A5 01                		mov.L	4[r10], r5
 9574                             		.loc 1 2673 73
 9575 00a6 8B D5                   		mov.B	14[r5], r5
 9576                             		.loc 1 2673 44
 9577 00a8 5B 55                   		movu.B	r5, r5
 9578 00aa 4F 45                   		mul	r4, r5
 9579                             	.L529:
 9580 00ac DF 55                   		mov.W	r5, r5
2674:C:/Users/John/Desktop/workspace/miniwinwm/MiniWin/gl\gl.c **** }
 9581                             		.loc 1 2674 1 discriminator 1
 9582 00ae EF 51                   		mov.L	r5, r1
 9583 00b0 3F AA 0E                		rtsd	#56, r10-r10
 9584                             	.LFE55:
 9586                             		.section	.rodata.__func__.2965,"a"
 9589                             	___func__.2965:
 9590 0000 70 69 78 65 6C 00       		.string	"pixel"
 9591                             		.section	.rodata.__func__.2977,"a"
 9594                             	___func__.2977:
 9595 0000 66 69 6C 6C 65 64 5F 72 		.string	"filled_rectangle"
 9595      65 63 74 61 6E 67 6C 65 
 9595      00 
 9596                             		.section	.rodata.__func__.2996,"a"
 9599                             	___func__.2996:
 9600 0000 66 69 6C 6C 65 64 5F 70 		.string	"filled_poly"
 9600      6F 6C 79 00 
 9601                             		.section	.rodata.__func__.3026,"a"
 9604                             	___func__.3026:
 9605 0000 61 72 63 5F 62 72 65 73 		.string	"arc_bres"
 9605      00 
 9606                             		.section	.rodata.__func__.3042,"a"
 9609                             	___func__.3042:
 9610 0000 61 72 63 5F 70 6F 69 6E 		.string	"arc_point"
 9610      74 00 
 9611                             		.section	.rodata.__func__.3054,"a"
 9614                             	___func__.3054:
 9615 0000 66 69 6C 6C 65 64 5F 63 		.string	"filled_circle"
 9615      69 72 63 6C 65 00 
 9616                             		.section	.rodata.__func__.3082,"a"
 9619                             	___func__.3082:
 9620 0000 63 69 72 63 6C 65 5F 62 		.string	"circle_bres"
 9620      72 65 73 00 
 9621                             		.section	.rodata.__func__.3102,"a"
 9624                             	___func__.3102:
 9625 0000 66 69 6C 6C 65 64 5F 73 		.string	"filled_segment"
 9625      65 67 6D 65 6E 74 00 
 9626                             		.section	.rodata.__func__.3237,"a"
 9629                             	___func__.3237:
 9630 0000 74 69 74 6C 65 5F 66 6F 		.string	"title_font_string"
 9630      6E 74 5F 73 74 72 69 6E 
 9630      67 00 
 9631                             		.section	.rodata.__func__.3306,"a"
 9634                             	___func__.3306:
 9635 0000 74 74 5F 6C 69 6E 65 5F 		.string	"tt_line_callback"
 9635      63 61 6C 6C 62 61 63 6B 
 9635      00 
 9636                             		.section	.rodata.__func__.3349,"a"
 9639                             	___func__.3349:
 9640 0000 6D 77 5F 67 6C 5F 73 65 		.string	"mw_gl_set_font"
 9640      74 5F 66 6F 6E 74 00 
 9641                             		.section	.rodata.__func__.3379,"a"
 9644                             	___func__.3379:
 9645 0000 6D 77 5F 67 6C 5F 73 6F 		.string	"mw_gl_solid_fill_pixel"
 9645      6C 69 64 5F 66 69 6C 6C 
 9645      5F 70 69 78 65 6C 00 
 9646                             		.section	.rodata.__func__.3385,"a"
 9649                             	___func__.3385:
 9650 0000 6D 77 5F 67 6C 5F 66 67 		.string	"mw_gl_fg_pixel"
 9650      5F 70 69 78 65 6C 00 
 9651                             		.section	.rodata.__func__.3391,"a"
 9654                             	___func__.3391:
 9655 0000 6D 77 5F 67 6C 5F 62 67 		.string	"mw_gl_bg_pixel"
 9655      5F 70 69 78 65 6C 00 
 9656                             		.section	.rodata.__func__.3401,"a"
 9659                             	___func__.3401:
 9660 0000 6D 77 5F 67 6C 5F 68 6C 		.string	"mw_gl_hline"
 9660      69 6E 65 00 
 9661                             		.section	.rodata.__func__.3414,"a"
 9664                             	___func__.3414:
 9665 0000 6D 77 5F 67 6C 5F 76 6C 		.string	"mw_gl_vline"
 9665      69 6E 65 00 
 9666                             		.section	.rodata.__func__.3435,"a"
 9669                             	___func__.3435:
 9670 0000 6D 77 5F 67 6C 5F 6C 69 		.string	"mw_gl_line"
 9670      6E 65 00 
 9671                             		.section	.rodata.__func__.3457,"a"
 9674                             	___func__.3457:
 9675 0000 6D 77 5F 67 6C 5F 72 65 		.string	"mw_gl_rectangle"
 9675      63 74 61 6E 67 6C 65 00 
 9676                             		.section	.rodata.__func__.3477,"a"
 9679                             	___func__.3477:
 9680 0000 6D 77 5F 67 6C 5F 63 68 		.string	"mw_gl_character"
 9680      61 72 61 63 74 65 72 00 
 9681                             		.section	.rodata.__func__.3492,"a"
 9684                             	___func__.3492:
 9685 0000 6D 77 5F 67 6C 5F 73 74 		.string	"mw_gl_string"
 9685      72 69 6E 67 00 
 9686                             		.section	.rodata.__func__.3507,"a"
 9689                             	___func__.3507:
 9690 0000 6D 77 5F 67 6C 5F 67 65 		.string	"mw_gl_get_string_width_pixels"
 9690      74 5F 73 74 72 69 6E 67 
 9690      5F 77 69 64 74 68 5F 70 
 9690      69 78 65 6C 73 00 
 9691                             		.section	.rodata.__func__.3518,"a"
 9694                             	___func__.3518:
 9695 0000 6D 77 5F 67 6C 5F 6C 61 		.string	"mw_gl_largest_string_width"
 9695      72 67 65 73 74 5F 73 74 
 9695      72 69 6E 67 5F 77 69 64 
 9695      74 68 00 
 9696                             		.section	.rodata.__func__.3529,"a"
 9699                             	___func__.3529:
 9700 0000 6D 77 5F 67 6C 5F 63 69 		.string	"mw_gl_circle"
 9700      72 63 6C 65 00 
 9701                             		.section	.rodata.__func__.3540,"a"
 9704                             	___func__.3540:
 9705 0000 6D 77 5F 67 6C 5F 70 6F 		.string	"mw_gl_poly"
 9705      6C 79 00 
 9706                             		.section	.rodata.__func__.3553,"a"
 9709                             	___func__.3553:
 9710 0000 6D 77 5F 67 6C 5F 72 6F 		.string	"mw_gl_rotate_shape"
 9710      74 61 74 65 5F 73 68 61 
 9710      70 65 00 
 9711                             		.section	.rodata.__func__.3565,"a"
 9714                             	___func__.3565:
 9715 0000 6D 77 5F 67 6C 5F 73 63 		.string	"mw_gl_scale_shape"
 9715      61 6C 65 5F 73 68 61 70 
 9715      65 00 
 9716                             		.section	.rodata.__func__.3585,"a"
 9719                             	___func__.3585:
 9720 0000 6D 77 5F 67 6C 5F 61 72 		.string	"mw_gl_arc"
 9720      63 00 
 9721                             		.section	.rodata.__func__.3599,"a"
 9724                             	___func__.3599:
 9725 0000 6D 77 5F 67 6C 5F 72 6F 		.string	"mw_gl_rounded_rectangle"
 9725      75 6E 64 65 64 5F 72 65 
 9725      63 74 61 6E 67 6C 65 00 
 9726                             		.section	.rodata.__func__.3611,"a"
 9729                             	___func__.3611:
 9730 0000 6D 77 5F 67 6C 5F 73 65 		.string	"mw_gl_segment"
 9730      67 6D 65 6E 74 00 
 9731                             		.section	.rodata.__func__.3627,"a"
 9734                             	___func__.3627:
 9735 0000 6D 77 5F 67 6C 5F 6D 6F 		.string	"mw_gl_monochrome_bitmap"
 9735      6E 6F 63 68 72 6F 6D 65 
 9735      5F 62 69 74 6D 61 70 00 
 9736                             		.section	.rodata.__func__.3645,"a"
 9739                             	___func__.3645:
 9740 0000 6D 77 5F 67 6C 5F 63 6F 		.string	"mw_gl_colour_bitmap"
 9740      6C 6F 75 72 5F 62 69 74 
 9740      6D 61 70 00 
 9741                             		.section	.rodata.__func__.3656,"a"
 9744                             	___func__.3656:
 9745 0000 6D 77 5F 67 6C 5F 74 74 		.string	"mw_gl_tt_render_text"
 9745      5F 72 65 6E 64 65 72 5F 
 9745      74 65 78 74 00 
 9746                             		.section	.rodata.__func__.3664,"a"
 9749                             	___func__.3664:
 9750 0000 6D 77 5F 67 6C 5F 74 74 		.string	"mw_gl_tt_get_render_text_lines"
 9750      5F 67 65 74 5F 72 65 6E 
 9750      64 65 72 5F 74 65 78 74 
 9750      5F 6C 69 6E 65 73 00 
 11113                             	.Letext0:
 11114                             		.file 2 "c:\\program files (x86)\\gcc for renesas rx 8.3.0.201904-gnurx-elf\\rx-elf\\rx-elf\\lib\\
 11115                             		.file 3 "c:\\program files (x86)\\gcc for renesas rx 8.3.0.201904-gnurx-elf\\rx-elf\\rx-elf\\rx-el
 11116                             		.file 4 "c:\\program files (x86)\\gcc for renesas rx 8.3.0.201904-gnurx-elf\\rx-elf\\rx-elf\\rx-el
 11117                             		.file 5 "c:\\program files (x86)\\gcc for renesas rx 8.3.0.201904-gnurx-elf\\rx-elf\\rx-elf\\rx-el
 11118                             		.file 6 "c:\\program files (x86)\\gcc for renesas rx 8.3.0.201904-gnurx-elf\\rx-elf\\rx-elf\\rx-el
 11119                             		.file 7 "c:\\program files (x86)\\gcc for renesas rx 8.3.0.201904-gnurx-elf\\rx-elf\\rx-elf\\rx-el
 11120                             		.file 8 "C:\\Users\\John\\Desktop\\workspace\\miniwinwm\\MiniWin/miniwin_utilities.h"
 11121                             		.file 9 "C:\\Users\\John\\Desktop\\workspace\\miniwinwm\\MiniWin/hal/hal_lcd.h"
 11122                             		.file 10 "C:\\Users\\John\\Desktop\\workspace\\miniwinwm\\MiniWin/gl/fonts/bitmapped/fonts.h"
 11123                             		.file 11 "C:\\Users\\John\\Desktop\\workspace\\miniwinwm\\MiniWin/gl/gl.h"
 11124                             		.file 12 "C:\\Users\\John\\Desktop\\workspace\\miniwinwm\\MiniWin/gl/fonts/bitmapped/gl_title_font
 11125                             		.file 13 "C:\\Users\\John\\Desktop\\workspace\\miniwinwm\\MiniWin/gl/fonts/truetype/mcufont/mf_enc
 11126                             		.file 14 "C:\\Users\\John\\Desktop\\workspace\\miniwinwm\\MiniWin/gl/fonts/truetype/mcufont/mf_fon
 11127                             		.file 15 "C:\\Users\\John\\Desktop\\workspace\\miniwinwm\\MiniWin/gl/fonts/truetype/mcufont/mf_rle
 11128                             		.file 16 "C:\\Users\\John\\Desktop\\workspace\\miniwinwm\\MiniWin/gl/fonts/truetype/mcufont/mf_jus
