   1                             		.file	"inthandler.c"
   2                             		.section P,"ax"
   3                             	.Ltext0:
   4                             		.global	_rx_complete_interrupt_flag
   5                             		.section	.bss.rx_complete_interrupt_flag,"aw",@nobits
   8                             	_rx_complete_interrupt_flag:
   9 0000 00                      		.zero	1
  10                             		.global	_tx_complete_interrupt_flag
  11                             		.section	.bss.tx_complete_interrupt_flag,"aw",@nobits
  14                             	_tx_complete_interrupt_flag:
  15 0000 00                      		.zero	1
  16                             		.global	_start_complete_interrupt_flag
  17                             		.section	.bss.start_complete_interrupt_flag,"aw",@nobits
  20                             	_start_complete_interrupt_flag:
  21 0000 00                      		.zero	1
  22                             		.comm	_received_byte,1,1
  23                             		.section	.text.INT_Excep_SuperVisorInst,"ax",@progbits
  24                             		.global	_INT_Excep_SuperVisorInst
  26                             	_INT_Excep_SuperVisorInst:
  27                             	.LFB0:
  28                             		.file 1 "../generate/inthandler.c"
   1:../generate/inthandler.c **** #include <stdint.h>
   2:../generate/inthandler.c **** #include <stdbool.h>
   3:../generate/inthandler.c **** #include <iodefine.h>
   4:../generate/inthandler.c **** #include "interrupt_handlers.h"
   5:../generate/inthandler.c **** 
   6:../generate/inthandler.c **** void mw_hal_timer_fired(void);
   7:../generate/inthandler.c **** 
   8:../generate/inthandler.c **** volatile bool rx_complete_interrupt_flag = false;
   9:../generate/inthandler.c **** volatile bool tx_complete_interrupt_flag = false;
  10:../generate/inthandler.c **** volatile bool start_complete_interrupt_flag = false;
  11:../generate/inthandler.c **** volatile uint8_t received_byte;
  12:../generate/inthandler.c **** 
  13:../generate/inthandler.c **** // Exception(Supervisor Instruction)
  14:../generate/inthandler.c **** void INT_Excep_SuperVisorInst(void){/* brk(){  } */}
  29                             		.loc 1 14 36
  30                             		; Note: Interrupt Handler
  31 0000 7E AA                   		push.l	r10
  32                             	.LCFI0:
  33 0002 EF 0A                   		mov.L	r0, r10
  34                             	.LCFI1:
  35                             		.loc 1 14 1
  36 0004 03                      		nop
  37 0005 7E BA                   		pop	r10
  38 0007 7F 95                   		rte
  39                             	.LFE0:
  41                             		.section	.text.INT_Excep_AccessInst,"ax",@progbits
  42                             		.global	_INT_Excep_AccessInst
  44                             	_INT_Excep_AccessInst:
  45                             	.LFB1:
  15:../generate/inthandler.c **** 
  16:../generate/inthandler.c **** // Exception(Access Instruction)
  17:../generate/inthandler.c **** void INT_Excep_AccessInst(void){/* brk(); */}
  46                             		.loc 1 17 32
  47                             		; Note: Interrupt Handler
  48 0000 7E AA                   		push.l	r10
  49                             	.LCFI2:
  50 0002 EF 0A                   		mov.L	r0, r10
  51                             	.LCFI3:
  52                             		.loc 1 17 1
  53 0004 03                      		nop
  54 0005 7E BA                   		pop	r10
  55 0007 7F 95                   		rte
  56                             	.LFE1:
  58                             		.section	.text.INT_Excep_UndefinedInst,"ax",@progbits
  59                             		.global	_INT_Excep_UndefinedInst
  61                             	_INT_Excep_UndefinedInst:
  62                             	.LFB2:
  18:../generate/inthandler.c **** 
  19:../generate/inthandler.c **** // Exception(Undefined Instruction)
  20:../generate/inthandler.c **** void INT_Excep_UndefinedInst(void){/* brk(){  } */}
  63                             		.loc 1 20 35
  64                             		; Note: Interrupt Handler
  65 0000 7E AA                   		push.l	r10
  66                             	.LCFI4:
  67 0002 EF 0A                   		mov.L	r0, r10
  68                             	.LCFI5:
  69                             		.loc 1 20 1
  70 0004 03                      		nop
  71 0005 7E BA                   		pop	r10
  72 0007 7F 95                   		rte
  73                             	.LFE2:
  75                             		.section	.text.INT_Excep_FloatingPoint,"ax",@progbits
  76                             		.global	_INT_Excep_FloatingPoint
  78                             	_INT_Excep_FloatingPoint:
  79                             	.LFB3:
  21:../generate/inthandler.c **** 
  22:../generate/inthandler.c **** // Exception(Floating Point)
  23:../generate/inthandler.c **** void INT_Excep_FloatingPoint(void){/* brk(){  } */}
  80                             		.loc 1 23 35
  81                             		; Note: Interrupt Handler
  82 0000 7E AA                   		push.l	r10
  83                             	.LCFI6:
  84 0002 EF 0A                   		mov.L	r0, r10
  85                             	.LCFI7:
  86                             		.loc 1 23 1
  87 0004 03                      		nop
  88 0005 7E BA                   		pop	r10
  89 0007 7F 95                   		rte
  90                             	.LFE3:
  92                             		.section	.text.INT_NonMaskableInterrupt,"ax",@progbits
  93                             		.global	_INT_NonMaskableInterrupt
  95                             	_INT_NonMaskableInterrupt:
  96                             	.LFB4:
  24:../generate/inthandler.c **** 
  25:../generate/inthandler.c **** // NMI
  26:../generate/inthandler.c **** void INT_NonMaskableInterrupt(void){/* brk(){  } */}
  97                             		.loc 1 26 36
  98                             		; Note: Interrupt Handler
  99 0000 7E AA                   		push.l	r10
 100                             	.LCFI8:
 101 0002 EF 0A                   		mov.L	r0, r10
 102                             	.LCFI9:
 103                             		.loc 1 26 1
 104 0004 03                      		nop
 105 0005 7E BA                   		pop	r10
 106 0007 7F 95                   		rte
 107                             	.LFE4:
 109                             		.section	.text.Dummy,"ax",@progbits
 110                             		.global	_Dummy
 112                             	_Dummy:
 113                             	.LFB5:
  27:../generate/inthandler.c **** 
  28:../generate/inthandler.c **** // Dummy
  29:../generate/inthandler.c **** void Dummy(void){/* brk(){  } */}
 114                             		.loc 1 29 17
 115                             		; Note: Interrupt Handler
 116 0000 7E AA                   		push.l	r10
 117                             	.LCFI10:
 118 0002 EF 0A                   		mov.L	r0, r10
 119                             	.LCFI11:
 120                             		.loc 1 29 1
 121 0004 03                      		nop
 122 0005 7E BA                   		pop	r10
 123 0007 7F 95                   		rte
 124                             	.LFE5:
 126                             		.section	.text.INT_Excep_BRK,"ax",@progbits
 127                             		.global	_INT_Excep_BRK
 129                             	_INT_Excep_BRK:
 130                             	.LFB6:
  30:../generate/inthandler.c **** 
  31:../generate/inthandler.c **** // BRK
  32:../generate/inthandler.c **** void INT_Excep_BRK(void){/* wait(); */}
 131                             		.loc 1 32 25
 132                             		; Note: Interrupt Handler
 133 0000 7E AA                   		push.l	r10
 134                             	.LCFI12:
 135 0002 EF 0A                   		mov.L	r0, r10
 136                             	.LCFI13:
 137                             		.loc 1 32 1
 138 0004 03                      		nop
 139 0005 7E BA                   		pop	r10
 140 0007 7F 95                   		rte
 141                             	.LFE6:
 143                             		.section	.text.INT_Excep_BSC_BUSERR,"ax",@progbits
 144                             		.global	_INT_Excep_BSC_BUSERR
 146                             	_INT_Excep_BSC_BUSERR:
 147                             	.LFB7:
  33:../generate/inthandler.c **** 
  34:../generate/inthandler.c **** // BSC BUSERR
  35:../generate/inthandler.c **** void INT_Excep_BSC_BUSERR(void){ }
 148                             		.loc 1 35 32
 149                             		; Note: Interrupt Handler
 150 0000 7E AA                   		push.l	r10
 151                             	.LCFI14:
 152 0002 EF 0A                   		mov.L	r0, r10
 153                             	.LCFI15:
 154                             		.loc 1 35 1
 155 0004 03                      		nop
 156 0005 7E BA                   		pop	r10
 157 0007 7F 95                   		rte
 158                             	.LFE7:
 160                             		.section	.text.INT_Excep_RAM_RAMERR,"ax",@progbits
 161                             		.global	_INT_Excep_RAM_RAMERR
 163                             	_INT_Excep_RAM_RAMERR:
 164                             	.LFB8:
  36:../generate/inthandler.c **** 
  37:../generate/inthandler.c **** // RAM RAMERR
  38:../generate/inthandler.c **** void INT_Excep_RAM_RAMERR(void){ }
 165                             		.loc 1 38 32
 166                             		; Note: Interrupt Handler
 167 0000 7E AA                   		push.l	r10
 168                             	.LCFI16:
 169 0002 EF 0A                   		mov.L	r0, r10
 170                             	.LCFI17:
 171                             		.loc 1 38 1
 172 0004 03                      		nop
 173 0005 7E BA                   		pop	r10
 174 0007 7F 95                   		rte
 175                             	.LFE8:
 177                             		.section	.text.INT_Excep_FCU_FIFERR,"ax",@progbits
 178                             		.global	_INT_Excep_FCU_FIFERR
 180                             	_INT_Excep_FCU_FIFERR:
 181                             	.LFB9:
  39:../generate/inthandler.c **** 
  40:../generate/inthandler.c **** // FCU FIFERR
  41:../generate/inthandler.c **** void INT_Excep_FCU_FIFERR(void){ }
 182                             		.loc 1 41 32
 183                             		; Note: Interrupt Handler
 184 0000 7E AA                   		push.l	r10
 185                             	.LCFI18:
 186 0002 EF 0A                   		mov.L	r0, r10
 187                             	.LCFI19:
 188                             		.loc 1 41 1
 189 0004 03                      		nop
 190 0005 7E BA                   		pop	r10
 191 0007 7F 95                   		rte
 192                             	.LFE9:
 194                             		.section	.text.INT_Excep_FCU_FRDYI,"ax",@progbits
 195                             		.global	_INT_Excep_FCU_FRDYI
 197                             	_INT_Excep_FCU_FRDYI:
 198                             	.LFB10:
  42:../generate/inthandler.c **** 
  43:../generate/inthandler.c **** // FCU FRDYI
  44:../generate/inthandler.c **** void INT_Excep_FCU_FRDYI(void){ }
 199                             		.loc 1 44 31
 200                             		; Note: Interrupt Handler
 201 0000 7E AA                   		push.l	r10
 202                             	.LCFI20:
 203 0002 EF 0A                   		mov.L	r0, r10
 204                             	.LCFI21:
 205                             		.loc 1 44 1
 206 0004 03                      		nop
 207 0005 7E BA                   		pop	r10
 208 0007 7F 95                   		rte
 209                             	.LFE10:
 211                             		.section	.text.INT_Excep_ICU_SWINT2,"ax",@progbits
 212                             		.global	_INT_Excep_ICU_SWINT2
 214                             	_INT_Excep_ICU_SWINT2:
 215                             	.LFB11:
  45:../generate/inthandler.c **** 
  46:../generate/inthandler.c **** // ICU SWINT2
  47:../generate/inthandler.c **** void INT_Excep_ICU_SWINT2(void){ }
 216                             		.loc 1 47 32
 217                             		; Note: Interrupt Handler
 218 0000 7E AA                   		push.l	r10
 219                             	.LCFI22:
 220 0002 EF 0A                   		mov.L	r0, r10
 221                             	.LCFI23:
 222                             		.loc 1 47 1
 223 0004 03                      		nop
 224 0005 7E BA                   		pop	r10
 225 0007 7F 95                   		rte
 226                             	.LFE11:
 228                             		.section	.text.INT_Excep_ICU_SWINT,"ax",@progbits
 229                             		.global	_INT_Excep_ICU_SWINT
 231                             	_INT_Excep_ICU_SWINT:
 232                             	.LFB12:
  48:../generate/inthandler.c **** 
  49:../generate/inthandler.c **** // ICU SWINT
  50:../generate/inthandler.c **** void INT_Excep_ICU_SWINT(void){ }
 233                             		.loc 1 50 31
 234                             		; Note: Interrupt Handler
 235 0000 7E AA                   		push.l	r10
 236                             	.LCFI24:
 237 0002 EF 0A                   		mov.L	r0, r10
 238                             	.LCFI25:
 239                             		.loc 1 50 1
 240 0004 03                      		nop
 241 0005 7E BA                   		pop	r10
 242 0007 7F 95                   		rte
 243                             	.LFE12:
 245                             		.section	.text.INT_Excep_CMT0_CMI0,"ax",@progbits
 246                             		.global	_INT_Excep_CMT0_CMI0
 248                             	_INT_Excep_CMT0_CMI0:
 249                             	.LFB13:
  51:../generate/inthandler.c **** 
  52:../generate/inthandler.c **** // CMT0 CMI0
  53:../generate/inthandler.c **** void INT_Excep_CMT0_CMI0(void)
  54:../generate/inthandler.c **** {
 250                             		.loc 1 54 1
 251                             		; Note: Interrupt Handler
 252 0000 6E 1F                   		pushm	r1-r15
 253                             	.LCFI26:
 254 0002 EF 0A                   		mov.L	r0, r10
 255                             	.LCFI27:
  55:../generate/inthandler.c **** 	mw_hal_timer_fired();
 256                             		.loc 1 55 2
 257 0004 05 00 00 00             		bsr	_mw_hal_timer_fired
  56:../generate/inthandler.c **** }
 258                             		.loc 1 56 1
 259 0008 03                      		nop
 260 0009 6F 1F                   		popm	r1-r15
 261 000b 7F 95                   		rte
 262                             	.LFE13:
 264                             		.section	.text.INT_Excep_CMT1_CMI1,"ax",@progbits
 265                             		.global	_INT_Excep_CMT1_CMI1
 267                             	_INT_Excep_CMT1_CMI1:
 268                             	.LFB14:
  57:../generate/inthandler.c **** 
  58:../generate/inthandler.c **** // CMT1 CMI1
  59:../generate/inthandler.c **** void INT_Excep_CMT1_CMI1(void){ }
 269                             		.loc 1 59 31
 270                             		; Note: Interrupt Handler
 271 0000 7E AA                   		push.l	r10
 272                             	.LCFI28:
 273 0002 EF 0A                   		mov.L	r0, r10
 274                             	.LCFI29:
 275                             		.loc 1 59 1
 276 0004 03                      		nop
 277 0005 7E BA                   		pop	r10
 278 0007 7F 95                   		rte
 279                             	.LFE14:
 281                             		.section	.text.INT_Excep_CMTW0_CMWI0,"ax",@progbits
 282                             		.global	_INT_Excep_CMTW0_CMWI0
 284                             	_INT_Excep_CMTW0_CMWI0:
 285                             	.LFB15:
  60:../generate/inthandler.c **** 
  61:../generate/inthandler.c **** // CMTW0 CMWI0
  62:../generate/inthandler.c **** void INT_Excep_CMTW0_CMWI0(void){ }
 286                             		.loc 1 62 33
 287                             		; Note: Interrupt Handler
 288 0000 7E AA                   		push.l	r10
 289                             	.LCFI30:
 290 0002 EF 0A                   		mov.L	r0, r10
 291                             	.LCFI31:
 292                             		.loc 1 62 1
 293 0004 03                      		nop
 294 0005 7E BA                   		pop	r10
 295 0007 7F 95                   		rte
 296                             	.LFE15:
 298                             		.section	.text.INT_Excep_CMTW1_CMWI1,"ax",@progbits
 299                             		.global	_INT_Excep_CMTW1_CMWI1
 301                             	_INT_Excep_CMTW1_CMWI1:
 302                             	.LFB16:
  63:../generate/inthandler.c **** 
  64:../generate/inthandler.c **** // CMTW1 CMWI1
  65:../generate/inthandler.c **** void INT_Excep_CMTW1_CMWI1(void){ }
 303                             		.loc 1 65 33
 304                             		; Note: Interrupt Handler
 305 0000 7E AA                   		push.l	r10
 306                             	.LCFI32:
 307 0002 EF 0A                   		mov.L	r0, r10
 308                             	.LCFI33:
 309                             		.loc 1 65 1
 310 0004 03                      		nop
 311 0005 7E BA                   		pop	r10
 312 0007 7F 95                   		rte
 313                             	.LFE16:
 315                             		.section	.text.INT_Excep_USB0_D0FIFO0,"ax",@progbits
 316                             		.global	_INT_Excep_USB0_D0FIFO0
 318                             	_INT_Excep_USB0_D0FIFO0:
 319                             	.LFB17:
  66:../generate/inthandler.c **** 
  67:../generate/inthandler.c **** // USB0 D0FIFO0
  68:../generate/inthandler.c **** void INT_Excep_USB0_D0FIFO0(void){ }
 320                             		.loc 1 68 34
 321                             		; Note: Interrupt Handler
 322 0000 7E AA                   		push.l	r10
 323                             	.LCFI34:
 324 0002 EF 0A                   		mov.L	r0, r10
 325                             	.LCFI35:
 326                             		.loc 1 68 1
 327 0004 03                      		nop
 328 0005 7E BA                   		pop	r10
 329 0007 7F 95                   		rte
 330                             	.LFE17:
 332                             		.section	.text.INT_Excep_USB0_D1FIFO0,"ax",@progbits
 333                             		.global	_INT_Excep_USB0_D1FIFO0
 335                             	_INT_Excep_USB0_D1FIFO0:
 336                             	.LFB18:
  69:../generate/inthandler.c **** 
  70:../generate/inthandler.c **** // USB0 D1FIFO0
  71:../generate/inthandler.c **** void INT_Excep_USB0_D1FIFO0(void){ }
 337                             		.loc 1 71 34
 338                             		; Note: Interrupt Handler
 339 0000 7E AA                   		push.l	r10
 340                             	.LCFI36:
 341 0002 EF 0A                   		mov.L	r0, r10
 342                             	.LCFI37:
 343                             		.loc 1 71 1
 344 0004 03                      		nop
 345 0005 7E BA                   		pop	r10
 346 0007 7F 95                   		rte
 347                             	.LFE18:
 349                             		.section	.text.INT_Excep_RSPI0_SPRI0,"ax",@progbits
 350                             		.global	_INT_Excep_RSPI0_SPRI0
 352                             	_INT_Excep_RSPI0_SPRI0:
 353                             	.LFB19:
  72:../generate/inthandler.c **** 
  73:../generate/inthandler.c **** // RSPI0 SPRI0
  74:../generate/inthandler.c **** void INT_Excep_RSPI0_SPRI0(void){ }
 354                             		.loc 1 74 33
 355                             		; Note: Interrupt Handler
 356 0000 7E AA                   		push.l	r10
 357                             	.LCFI38:
 358 0002 EF 0A                   		mov.L	r0, r10
 359                             	.LCFI39:
 360                             		.loc 1 74 1
 361 0004 03                      		nop
 362 0005 7E BA                   		pop	r10
 363 0007 7F 95                   		rte
 364                             	.LFE19:
 366                             		.section	.text.INT_Excep_RSPI0_SPTI0,"ax",@progbits
 367                             		.global	_INT_Excep_RSPI0_SPTI0
 369                             	_INT_Excep_RSPI0_SPTI0:
 370                             	.LFB20:
  75:../generate/inthandler.c **** 
  76:../generate/inthandler.c **** // RSPI0 SPTI0
  77:../generate/inthandler.c **** void INT_Excep_RSPI0_SPTI0(void){ }
 371                             		.loc 1 77 33
 372                             		; Note: Interrupt Handler
 373 0000 7E AA                   		push.l	r10
 374                             	.LCFI40:
 375 0002 EF 0A                   		mov.L	r0, r10
 376                             	.LCFI41:
 377                             		.loc 1 77 1
 378 0004 03                      		nop
 379 0005 7E BA                   		pop	r10
 380 0007 7F 95                   		rte
 381                             	.LFE20:
 383                             		.section	.text.INT_Excep_RSPI1_SPRI1,"ax",@progbits
 384                             		.global	_INT_Excep_RSPI1_SPRI1
 386                             	_INT_Excep_RSPI1_SPRI1:
 387                             	.LFB21:
  78:../generate/inthandler.c **** 
  79:../generate/inthandler.c **** // RSPI1 SPRI1
  80:../generate/inthandler.c **** void INT_Excep_RSPI1_SPRI1(void){ }
 388                             		.loc 1 80 33
 389                             		; Note: Interrupt Handler
 390 0000 7E AA                   		push.l	r10
 391                             	.LCFI42:
 392 0002 EF 0A                   		mov.L	r0, r10
 393                             	.LCFI43:
 394                             		.loc 1 80 1
 395 0004 03                      		nop
 396 0005 7E BA                   		pop	r10
 397 0007 7F 95                   		rte
 398                             	.LFE21:
 400                             		.section	.text.INT_Excep_RSPI1_SPTI1,"ax",@progbits
 401                             		.global	_INT_Excep_RSPI1_SPTI1
 403                             	_INT_Excep_RSPI1_SPTI1:
 404                             	.LFB22:
  81:../generate/inthandler.c **** 
  82:../generate/inthandler.c **** // RSPI1 SPTI1
  83:../generate/inthandler.c **** void INT_Excep_RSPI1_SPTI1(void){ }
 405                             		.loc 1 83 33
 406                             		; Note: Interrupt Handler
 407 0000 7E AA                   		push.l	r10
 408                             	.LCFI44:
 409 0002 EF 0A                   		mov.L	r0, r10
 410                             	.LCFI45:
 411                             		.loc 1 83 1
 412 0004 03                      		nop
 413 0005 7E BA                   		pop	r10
 414 0007 7F 95                   		rte
 415                             	.LFE22:
 417                             		.section	.text.INT_Excep_QSPI_SPRI,"ax",@progbits
 418                             		.global	_INT_Excep_QSPI_SPRI
 420                             	_INT_Excep_QSPI_SPRI:
 421                             	.LFB23:
  84:../generate/inthandler.c **** 
  85:../generate/inthandler.c **** // QSPI SPRI
  86:../generate/inthandler.c **** void INT_Excep_QSPI_SPRI(void){ }
 422                             		.loc 1 86 31
 423                             		; Note: Interrupt Handler
 424 0000 7E AA                   		push.l	r10
 425                             	.LCFI46:
 426 0002 EF 0A                   		mov.L	r0, r10
 427                             	.LCFI47:
 428                             		.loc 1 86 1
 429 0004 03                      		nop
 430 0005 7E BA                   		pop	r10
 431 0007 7F 95                   		rte
 432                             	.LFE23:
 434                             		.section	.text.INT_Excep_QSPI_SPTI,"ax",@progbits
 435                             		.global	_INT_Excep_QSPI_SPTI
 437                             	_INT_Excep_QSPI_SPTI:
 438                             	.LFB24:
  87:../generate/inthandler.c **** 
  88:../generate/inthandler.c **** // QSPI SPTI
  89:../generate/inthandler.c **** void INT_Excep_QSPI_SPTI(void){ }
 439                             		.loc 1 89 31
 440                             		; Note: Interrupt Handler
 441 0000 7E AA                   		push.l	r10
 442                             	.LCFI48:
 443 0002 EF 0A                   		mov.L	r0, r10
 444                             	.LCFI49:
 445                             		.loc 1 89 1
 446 0004 03                      		nop
 447 0005 7E BA                   		pop	r10
 448 0007 7F 95                   		rte
 449                             	.LFE24:
 451                             		.section	.text.INT_Excep_SDHI_SBFAI,"ax",@progbits
 452                             		.global	_INT_Excep_SDHI_SBFAI
 454                             	_INT_Excep_SDHI_SBFAI:
 455                             	.LFB25:
  90:../generate/inthandler.c **** 
  91:../generate/inthandler.c **** // SDHI SBFAI
  92:../generate/inthandler.c **** void INT_Excep_SDHI_SBFAI(void){ }
 456                             		.loc 1 92 32
 457                             		; Note: Interrupt Handler
 458 0000 7E AA                   		push.l	r10
 459                             	.LCFI50:
 460 0002 EF 0A                   		mov.L	r0, r10
 461                             	.LCFI51:
 462                             		.loc 1 92 1
 463 0004 03                      		nop
 464 0005 7E BA                   		pop	r10
 465 0007 7F 95                   		rte
 466                             	.LFE25:
 468                             		.section	.text.INT_Excep_MMCIF_MBFAI,"ax",@progbits
 469                             		.global	_INT_Excep_MMCIF_MBFAI
 471                             	_INT_Excep_MMCIF_MBFAI:
 472                             	.LFB26:
  93:../generate/inthandler.c **** 
  94:../generate/inthandler.c **** // MMCIF MBFAI
  95:../generate/inthandler.c **** void INT_Excep_MMCIF_MBFAI(void){ }
 473                             		.loc 1 95 33
 474                             		; Note: Interrupt Handler
 475 0000 7E AA                   		push.l	r10
 476                             	.LCFI52:
 477 0002 EF 0A                   		mov.L	r0, r10
 478                             	.LCFI53:
 479                             		.loc 1 95 1
 480 0004 03                      		nop
 481 0005 7E BA                   		pop	r10
 482 0007 7F 95                   		rte
 483                             	.LFE26:
 485                             		.section	.text.INT_Excep_RIIC0_RXI0,"ax",@progbits
 486                             		.global	_INT_Excep_RIIC0_RXI0
 488                             	_INT_Excep_RIIC0_RXI0:
 489                             	.LFB27:
  96:../generate/inthandler.c **** 
  97:../generate/inthandler.c **** // RIIC0 RXI0
  98:../generate/inthandler.c **** void INT_Excep_RIIC0_RXI0(void){ }
 490                             		.loc 1 98 32
 491                             		; Note: Interrupt Handler
 492 0000 7E AA                   		push.l	r10
 493                             	.LCFI54:
 494 0002 EF 0A                   		mov.L	r0, r10
 495                             	.LCFI55:
 496                             		.loc 1 98 1
 497 0004 03                      		nop
 498 0005 7E BA                   		pop	r10
 499 0007 7F 95                   		rte
 500                             	.LFE27:
 502                             		.section	.text.INT_Excep_RIIC0_TXI0,"ax",@progbits
 503                             		.global	_INT_Excep_RIIC0_TXI0
 505                             	_INT_Excep_RIIC0_TXI0:
 506                             	.LFB28:
  99:../generate/inthandler.c **** 
 100:../generate/inthandler.c **** // RIIC0 TXI0
 101:../generate/inthandler.c **** void INT_Excep_RIIC0_TXI0(void){ }
 507                             		.loc 1 101 32
 508                             		; Note: Interrupt Handler
 509 0000 7E AA                   		push.l	r10
 510                             	.LCFI56:
 511 0002 EF 0A                   		mov.L	r0, r10
 512                             	.LCFI57:
 513                             		.loc 1 101 1
 514 0004 03                      		nop
 515 0005 7E BA                   		pop	r10
 516 0007 7F 95                   		rte
 517                             	.LFE28:
 519                             		.section	.text.INT_Excep_RIIC2_RXI2,"ax",@progbits
 520                             		.global	_INT_Excep_RIIC2_RXI2
 522                             	_INT_Excep_RIIC2_RXI2:
 523                             	.LFB29:
 102:../generate/inthandler.c **** 
 103:../generate/inthandler.c **** // RIIC2 RXI2
 104:../generate/inthandler.c **** void INT_Excep_RIIC2_RXI2(void){ }
 524                             		.loc 1 104 32
 525                             		; Note: Interrupt Handler
 526 0000 7E AA                   		push.l	r10
 527                             	.LCFI58:
 528 0002 EF 0A                   		mov.L	r0, r10
 529                             	.LCFI59:
 530                             		.loc 1 104 1
 531 0004 03                      		nop
 532 0005 7E BA                   		pop	r10
 533 0007 7F 95                   		rte
 534                             	.LFE29:
 536                             		.section	.text.INT_Excep_RIIC2_TXI2,"ax",@progbits
 537                             		.global	_INT_Excep_RIIC2_TXI2
 539                             	_INT_Excep_RIIC2_TXI2:
 540                             	.LFB30:
 105:../generate/inthandler.c **** 
 106:../generate/inthandler.c **** // RIIC2 TXI2
 107:../generate/inthandler.c **** void INT_Excep_RIIC2_TXI2(void){ }
 541                             		.loc 1 107 32
 542                             		; Note: Interrupt Handler
 543 0000 7E AA                   		push.l	r10
 544                             	.LCFI60:
 545 0002 EF 0A                   		mov.L	r0, r10
 546                             	.LCFI61:
 547                             		.loc 1 107 1
 548 0004 03                      		nop
 549 0005 7E BA                   		pop	r10
 550 0007 7F 95                   		rte
 551                             	.LFE30:
 553                             		.section	.text.INT_Excep_SCI0_RXI0,"ax",@progbits
 554                             		.global	_INT_Excep_SCI0_RXI0
 556                             	_INT_Excep_SCI0_RXI0:
 557                             	.LFB31:
 108:../generate/inthandler.c **** 
 109:../generate/inthandler.c **** // SCI0 RXI0
 110:../generate/inthandler.c **** void INT_Excep_SCI0_RXI0(void){ }
 558                             		.loc 1 110 31
 559                             		; Note: Interrupt Handler
 560 0000 7E AA                   		push.l	r10
 561                             	.LCFI62:
 562 0002 EF 0A                   		mov.L	r0, r10
 563                             	.LCFI63:
 564                             		.loc 1 110 1
 565 0004 03                      		nop
 566 0005 7E BA                   		pop	r10
 567 0007 7F 95                   		rte
 568                             	.LFE31:
 570                             		.section	.text.INT_Excep_SCI0_TXI0,"ax",@progbits
 571                             		.global	_INT_Excep_SCI0_TXI0
 573                             	_INT_Excep_SCI0_TXI0:
 574                             	.LFB32:
 111:../generate/inthandler.c **** 
 112:../generate/inthandler.c **** // SCI0 TXI0
 113:../generate/inthandler.c **** void INT_Excep_SCI0_TXI0(void){ }
 575                             		.loc 1 113 31
 576                             		; Note: Interrupt Handler
 577 0000 7E AA                   		push.l	r10
 578                             	.LCFI64:
 579 0002 EF 0A                   		mov.L	r0, r10
 580                             	.LCFI65:
 581                             		.loc 1 113 1
 582 0004 03                      		nop
 583 0005 7E BA                   		pop	r10
 584 0007 7F 95                   		rte
 585                             	.LFE32:
 587                             		.section	.text.INT_Excep_SCI1_RXI1,"ax",@progbits
 588                             		.global	_INT_Excep_SCI1_RXI1
 590                             	_INT_Excep_SCI1_RXI1:
 591                             	.LFB33:
 114:../generate/inthandler.c **** 
 115:../generate/inthandler.c **** // SCI1 RXI1
 116:../generate/inthandler.c **** void INT_Excep_SCI1_RXI1(void){ }
 592                             		.loc 1 116 31
 593                             		; Note: Interrupt Handler
 594 0000 7E AA                   		push.l	r10
 595                             	.LCFI66:
 596 0002 EF 0A                   		mov.L	r0, r10
 597                             	.LCFI67:
 598                             		.loc 1 116 1
 599 0004 03                      		nop
 600 0005 7E BA                   		pop	r10
 601 0007 7F 95                   		rte
 602                             	.LFE33:
 604                             		.section	.text.INT_Excep_SCI1_TXI1,"ax",@progbits
 605                             		.global	_INT_Excep_SCI1_TXI1
 607                             	_INT_Excep_SCI1_TXI1:
 608                             	.LFB34:
 117:../generate/inthandler.c **** 
 118:../generate/inthandler.c **** // SCI1 TXI1
 119:../generate/inthandler.c **** void INT_Excep_SCI1_TXI1(void){ }
 609                             		.loc 1 119 31
 610                             		; Note: Interrupt Handler
 611 0000 7E AA                   		push.l	r10
 612                             	.LCFI68:
 613 0002 EF 0A                   		mov.L	r0, r10
 614                             	.LCFI69:
 615                             		.loc 1 119 1
 616 0004 03                      		nop
 617 0005 7E BA                   		pop	r10
 618 0007 7F 95                   		rte
 619                             	.LFE34:
 621                             		.section	.text.INT_Excep_ICU_IRQ0,"ax",@progbits
 622                             		.global	_INT_Excep_ICU_IRQ0
 624                             	_INT_Excep_ICU_IRQ0:
 625                             	.LFB35:
 120:../generate/inthandler.c **** 
 121:../generate/inthandler.c **** // SCI2 RXI2
 122:../generate/inthandler.c **** // in camlib
 123:../generate/inthandler.c **** //void INT_Excep_SCI2_RXI2(void){ }
 124:../generate/inthandler.c **** 
 125:../generate/inthandler.c **** // SCI2 TXI2
 126:../generate/inthandler.c **** // in camlib
 127:../generate/inthandler.c **** //void INT_Excep_SCI2_TXI2(void){ }
 128:../generate/inthandler.c **** 
 129:../generate/inthandler.c **** // ICU IRQ0
 130:../generate/inthandler.c **** void INT_Excep_ICU_IRQ0(void){ }
 626                             		.loc 1 130 30
 627                             		; Note: Interrupt Handler
 628 0000 7E AA                   		push.l	r10
 629                             	.LCFI70:
 630 0002 EF 0A                   		mov.L	r0, r10
 631                             	.LCFI71:
 632                             		.loc 1 130 1
 633 0004 03                      		nop
 634 0005 7E BA                   		pop	r10
 635 0007 7F 95                   		rte
 636                             	.LFE35:
 638                             		.section	.text.INT_Excep_ICU_IRQ1,"ax",@progbits
 639                             		.global	_INT_Excep_ICU_IRQ1
 641                             	_INT_Excep_ICU_IRQ1:
 642                             	.LFB36:
 131:../generate/inthandler.c **** 
 132:../generate/inthandler.c **** // ICU IRQ1
 133:../generate/inthandler.c **** void INT_Excep_ICU_IRQ1(void){ }
 643                             		.loc 1 133 30
 644                             		; Note: Interrupt Handler
 645 0000 7E AA                   		push.l	r10
 646                             	.LCFI72:
 647 0002 EF 0A                   		mov.L	r0, r10
 648                             	.LCFI73:
 649                             		.loc 1 133 1
 650 0004 03                      		nop
 651 0005 7E BA                   		pop	r10
 652 0007 7F 95                   		rte
 653                             	.LFE36:
 655                             		.section	.text.INT_Excep_ICU_IRQ2,"ax",@progbits
 656                             		.global	_INT_Excep_ICU_IRQ2
 658                             	_INT_Excep_ICU_IRQ2:
 659                             	.LFB37:
 134:../generate/inthandler.c **** 
 135:../generate/inthandler.c **** // ICU IRQ2
 136:../generate/inthandler.c **** void INT_Excep_ICU_IRQ2(void){ }
 660                             		.loc 1 136 30
 661                             		; Note: Interrupt Handler
 662 0000 7E AA                   		push.l	r10
 663                             	.LCFI74:
 664 0002 EF 0A                   		mov.L	r0, r10
 665                             	.LCFI75:
 666                             		.loc 1 136 1
 667 0004 03                      		nop
 668 0005 7E BA                   		pop	r10
 669 0007 7F 95                   		rte
 670                             	.LFE37:
 672                             		.section	.text.INT_Excep_ICU_IRQ3,"ax",@progbits
 673                             		.global	_INT_Excep_ICU_IRQ3
 675                             	_INT_Excep_ICU_IRQ3:
 676                             	.LFB38:
 137:../generate/inthandler.c **** 
 138:../generate/inthandler.c **** // ICU IRQ3
 139:../generate/inthandler.c **** void INT_Excep_ICU_IRQ3(void){ }
 677                             		.loc 1 139 30
 678                             		; Note: Interrupt Handler
 679 0000 7E AA                   		push.l	r10
 680                             	.LCFI76:
 681 0002 EF 0A                   		mov.L	r0, r10
 682                             	.LCFI77:
 683                             		.loc 1 139 1
 684 0004 03                      		nop
 685 0005 7E BA                   		pop	r10
 686 0007 7F 95                   		rte
 687                             	.LFE38:
 689                             		.section	.text.INT_Excep_ICU_IRQ4,"ax",@progbits
 690                             		.global	_INT_Excep_ICU_IRQ4
 692                             	_INT_Excep_ICU_IRQ4:
 693                             	.LFB39:
 140:../generate/inthandler.c **** 
 141:../generate/inthandler.c **** // ICU IRQ4
 142:../generate/inthandler.c **** void INT_Excep_ICU_IRQ4(void){ }
 694                             		.loc 1 142 30
 695                             		; Note: Interrupt Handler
 696 0000 7E AA                   		push.l	r10
 697                             	.LCFI78:
 698 0002 EF 0A                   		mov.L	r0, r10
 699                             	.LCFI79:
 700                             		.loc 1 142 1
 701 0004 03                      		nop
 702 0005 7E BA                   		pop	r10
 703 0007 7F 95                   		rte
 704                             	.LFE39:
 706                             		.section	.text.INT_Excep_ICU_IRQ5,"ax",@progbits
 707                             		.global	_INT_Excep_ICU_IRQ5
 709                             	_INT_Excep_ICU_IRQ5:
 710                             	.LFB40:
 143:../generate/inthandler.c **** 
 144:../generate/inthandler.c **** // ICU IRQ5
 145:../generate/inthandler.c **** void INT_Excep_ICU_IRQ5(void){ }
 711                             		.loc 1 145 30
 712                             		; Note: Interrupt Handler
 713 0000 7E AA                   		push.l	r10
 714                             	.LCFI80:
 715 0002 EF 0A                   		mov.L	r0, r10
 716                             	.LCFI81:
 717                             		.loc 1 145 1
 718 0004 03                      		nop
 719 0005 7E BA                   		pop	r10
 720 0007 7F 95                   		rte
 721                             	.LFE40:
 723                             		.section	.text.INT_Excep_ICU_IRQ6,"ax",@progbits
 724                             		.global	_INT_Excep_ICU_IRQ6
 726                             	_INT_Excep_ICU_IRQ6:
 727                             	.LFB41:
 146:../generate/inthandler.c **** 
 147:../generate/inthandler.c **** // ICU IRQ6
 148:../generate/inthandler.c **** void INT_Excep_ICU_IRQ6(void){ }
 728                             		.loc 1 148 30
 729                             		; Note: Interrupt Handler
 730 0000 7E AA                   		push.l	r10
 731                             	.LCFI82:
 732 0002 EF 0A                   		mov.L	r0, r10
 733                             	.LCFI83:
 734                             		.loc 1 148 1
 735 0004 03                      		nop
 736 0005 7E BA                   		pop	r10
 737 0007 7F 95                   		rte
 738                             	.LFE41:
 740                             		.section	.text.INT_Excep_ICU_IRQ7,"ax",@progbits
 741                             		.global	_INT_Excep_ICU_IRQ7
 743                             	_INT_Excep_ICU_IRQ7:
 744                             	.LFB42:
 149:../generate/inthandler.c **** 
 150:../generate/inthandler.c **** // ICU IRQ7
 151:../generate/inthandler.c **** void INT_Excep_ICU_IRQ7(void){ }
 745                             		.loc 1 151 30
 746                             		; Note: Interrupt Handler
 747 0000 7E AA                   		push.l	r10
 748                             	.LCFI84:
 749 0002 EF 0A                   		mov.L	r0, r10
 750                             	.LCFI85:
 751                             		.loc 1 151 1
 752 0004 03                      		nop
 753 0005 7E BA                   		pop	r10
 754 0007 7F 95                   		rte
 755                             	.LFE42:
 757                             		.section	.text.INT_Excep_ICU_IRQ8,"ax",@progbits
 758                             		.global	_INT_Excep_ICU_IRQ8
 760                             	_INT_Excep_ICU_IRQ8:
 761                             	.LFB43:
 152:../generate/inthandler.c **** 
 153:../generate/inthandler.c **** // ICU IRQ8
 154:../generate/inthandler.c **** void INT_Excep_ICU_IRQ8(void){ }
 762                             		.loc 1 154 30
 763                             		; Note: Interrupt Handler
 764 0000 7E AA                   		push.l	r10
 765                             	.LCFI86:
 766 0002 EF 0A                   		mov.L	r0, r10
 767                             	.LCFI87:
 768                             		.loc 1 154 1
 769 0004 03                      		nop
 770 0005 7E BA                   		pop	r10
 771 0007 7F 95                   		rte
 772                             	.LFE43:
 774                             		.section	.text.INT_Excep_ICU_IRQ9,"ax",@progbits
 775                             		.global	_INT_Excep_ICU_IRQ9
 777                             	_INT_Excep_ICU_IRQ9:
 778                             	.LFB44:
 155:../generate/inthandler.c **** 
 156:../generate/inthandler.c **** // ICU IRQ9
 157:../generate/inthandler.c **** void INT_Excep_ICU_IRQ9(void){ }
 779                             		.loc 1 157 30
 780                             		; Note: Interrupt Handler
 781 0000 7E AA                   		push.l	r10
 782                             	.LCFI88:
 783 0002 EF 0A                   		mov.L	r0, r10
 784                             	.LCFI89:
 785                             		.loc 1 157 1
 786 0004 03                      		nop
 787 0005 7E BA                   		pop	r10
 788 0007 7F 95                   		rte
 789                             	.LFE44:
 791                             		.section	.text.INT_Excep_ICU_IRQ10,"ax",@progbits
 792                             		.global	_INT_Excep_ICU_IRQ10
 794                             	_INT_Excep_ICU_IRQ10:
 795                             	.LFB45:
 158:../generate/inthandler.c **** 
 159:../generate/inthandler.c **** // ICU IRQ10
 160:../generate/inthandler.c **** void INT_Excep_ICU_IRQ10(void){ }
 796                             		.loc 1 160 31
 797                             		; Note: Interrupt Handler
 798 0000 7E AA                   		push.l	r10
 799                             	.LCFI90:
 800 0002 EF 0A                   		mov.L	r0, r10
 801                             	.LCFI91:
 802                             		.loc 1 160 1
 803 0004 03                      		nop
 804 0005 7E BA                   		pop	r10
 805 0007 7F 95                   		rte
 806                             	.LFE45:
 808                             		.section	.text.INT_Excep_ICU_IRQ11,"ax",@progbits
 809                             		.global	_INT_Excep_ICU_IRQ11
 811                             	_INT_Excep_ICU_IRQ11:
 812                             	.LFB46:
 161:../generate/inthandler.c **** 
 162:../generate/inthandler.c **** // ICU IRQ11
 163:../generate/inthandler.c **** void INT_Excep_ICU_IRQ11(void){ }
 813                             		.loc 1 163 31
 814                             		; Note: Interrupt Handler
 815 0000 7E AA                   		push.l	r10
 816                             	.LCFI92:
 817 0002 EF 0A                   		mov.L	r0, r10
 818                             	.LCFI93:
 819                             		.loc 1 163 1
 820 0004 03                      		nop
 821 0005 7E BA                   		pop	r10
 822 0007 7F 95                   		rte
 823                             	.LFE46:
 825                             		.section	.text.INT_Excep_ICU_IRQ12,"ax",@progbits
 826                             		.global	_INT_Excep_ICU_IRQ12
 828                             	_INT_Excep_ICU_IRQ12:
 829                             	.LFB47:
 164:../generate/inthandler.c **** 
 165:../generate/inthandler.c **** // ICU IRQ12
 166:../generate/inthandler.c **** void INT_Excep_ICU_IRQ12(void){ }
 830                             		.loc 1 166 31
 831                             		; Note: Interrupt Handler
 832 0000 7E AA                   		push.l	r10
 833                             	.LCFI94:
 834 0002 EF 0A                   		mov.L	r0, r10
 835                             	.LCFI95:
 836                             		.loc 1 166 1
 837 0004 03                      		nop
 838 0005 7E BA                   		pop	r10
 839 0007 7F 95                   		rte
 840                             	.LFE47:
 842                             		.section	.text.INT_Excep_ICU_IRQ13,"ax",@progbits
 843                             		.global	_INT_Excep_ICU_IRQ13
 845                             	_INT_Excep_ICU_IRQ13:
 846                             	.LFB48:
 167:../generate/inthandler.c **** 
 168:../generate/inthandler.c **** // ICU IRQ13
 169:../generate/inthandler.c **** void INT_Excep_ICU_IRQ13(void){ }
 847                             		.loc 1 169 31
 848                             		; Note: Interrupt Handler
 849 0000 7E AA                   		push.l	r10
 850                             	.LCFI96:
 851 0002 EF 0A                   		mov.L	r0, r10
 852                             	.LCFI97:
 853                             		.loc 1 169 1
 854 0004 03                      		nop
 855 0005 7E BA                   		pop	r10
 856 0007 7F 95                   		rte
 857                             	.LFE48:
 859                             		.section	.text.INT_Excep_ICU_IRQ14,"ax",@progbits
 860                             		.global	_INT_Excep_ICU_IRQ14
 862                             	_INT_Excep_ICU_IRQ14:
 863                             	.LFB49:
 170:../generate/inthandler.c **** 
 171:../generate/inthandler.c **** // ICU IRQ14
 172:../generate/inthandler.c **** void INT_Excep_ICU_IRQ14(void){ }
 864                             		.loc 1 172 31
 865                             		; Note: Interrupt Handler
 866 0000 7E AA                   		push.l	r10
 867                             	.LCFI98:
 868 0002 EF 0A                   		mov.L	r0, r10
 869                             	.LCFI99:
 870                             		.loc 1 172 1
 871 0004 03                      		nop
 872 0005 7E BA                   		pop	r10
 873 0007 7F 95                   		rte
 874                             	.LFE49:
 876                             		.section	.text.INT_Excep_ICU_IRQ15,"ax",@progbits
 877                             		.global	_INT_Excep_ICU_IRQ15
 879                             	_INT_Excep_ICU_IRQ15:
 880                             	.LFB50:
 173:../generate/inthandler.c **** 
 174:../generate/inthandler.c **** // ICU IRQ15
 175:../generate/inthandler.c **** void INT_Excep_ICU_IRQ15(void){ }
 881                             		.loc 1 175 31
 882                             		; Note: Interrupt Handler
 883 0000 7E AA                   		push.l	r10
 884                             	.LCFI100:
 885 0002 EF 0A                   		mov.L	r0, r10
 886                             	.LCFI101:
 887                             		.loc 1 175 1
 888 0004 03                      		nop
 889 0005 7E BA                   		pop	r10
 890 0007 7F 95                   		rte
 891                             	.LFE50:
 893                             		.section	.text.INT_Excep_SCI3_RXI3,"ax",@progbits
 894                             		.global	_INT_Excep_SCI3_RXI3
 896                             	_INT_Excep_SCI3_RXI3:
 897                             	.LFB51:
 176:../generate/inthandler.c **** 
 177:../generate/inthandler.c **** // SCI3 RXI3
 178:../generate/inthandler.c **** void INT_Excep_SCI3_RXI3(void){ }
 898                             		.loc 1 178 31
 899                             		; Note: Interrupt Handler
 900 0000 7E AA                   		push.l	r10
 901                             	.LCFI102:
 902 0002 EF 0A                   		mov.L	r0, r10
 903                             	.LCFI103:
 904                             		.loc 1 178 1
 905 0004 03                      		nop
 906 0005 7E BA                   		pop	r10
 907 0007 7F 95                   		rte
 908                             	.LFE51:
 910                             		.section	.text.INT_Excep_SCI3_TXI3,"ax",@progbits
 911                             		.global	_INT_Excep_SCI3_TXI3
 913                             	_INT_Excep_SCI3_TXI3:
 914                             	.LFB52:
 179:../generate/inthandler.c **** 
 180:../generate/inthandler.c **** // SCI3 TXI3
 181:../generate/inthandler.c **** void INT_Excep_SCI3_TXI3(void){ }
 915                             		.loc 1 181 31
 916                             		; Note: Interrupt Handler
 917 0000 7E AA                   		push.l	r10
 918                             	.LCFI104:
 919 0002 EF 0A                   		mov.L	r0, r10
 920                             	.LCFI105:
 921                             		.loc 1 181 1
 922 0004 03                      		nop
 923 0005 7E BA                   		pop	r10
 924 0007 7F 95                   		rte
 925                             	.LFE52:
 927                             		.section	.text.INT_Excep_SCI4_RXI4,"ax",@progbits
 928                             		.global	_INT_Excep_SCI4_RXI4
 930                             	_INT_Excep_SCI4_RXI4:
 931                             	.LFB53:
 182:../generate/inthandler.c **** 
 183:../generate/inthandler.c **** // SCI4 RXI4
 184:../generate/inthandler.c **** void INT_Excep_SCI4_RXI4(void){ }
 932                             		.loc 1 184 31
 933                             		; Note: Interrupt Handler
 934 0000 7E AA                   		push.l	r10
 935                             	.LCFI106:
 936 0002 EF 0A                   		mov.L	r0, r10
 937                             	.LCFI107:
 938                             		.loc 1 184 1
 939 0004 03                      		nop
 940 0005 7E BA                   		pop	r10
 941 0007 7F 95                   		rte
 942                             	.LFE53:
 944                             		.section	.text.INT_Excep_SCI4_TXI4,"ax",@progbits
 945                             		.global	_INT_Excep_SCI4_TXI4
 947                             	_INT_Excep_SCI4_TXI4:
 948                             	.LFB54:
 185:../generate/inthandler.c **** 
 186:../generate/inthandler.c **** // SCI4 TXI4
 187:../generate/inthandler.c **** void INT_Excep_SCI4_TXI4(void){ }
 949                             		.loc 1 187 31
 950                             		; Note: Interrupt Handler
 951 0000 7E AA                   		push.l	r10
 952                             	.LCFI108:
 953 0002 EF 0A                   		mov.L	r0, r10
 954                             	.LCFI109:
 955                             		.loc 1 187 1
 956 0004 03                      		nop
 957 0005 7E BA                   		pop	r10
 958 0007 7F 95                   		rte
 959                             	.LFE54:
 961                             		.section	.text.INT_Excep_SCI5_RXI5,"ax",@progbits
 962                             		.global	_INT_Excep_SCI5_RXI5
 964                             	_INT_Excep_SCI5_RXI5:
 965                             	.LFB55:
 188:../generate/inthandler.c **** 
 189:../generate/inthandler.c **** // SCI5 RXI5
 190:../generate/inthandler.c **** void INT_Excep_SCI5_RXI5(void){ }
 966                             		.loc 1 190 31
 967                             		; Note: Interrupt Handler
 968 0000 7E AA                   		push.l	r10
 969                             	.LCFI110:
 970 0002 EF 0A                   		mov.L	r0, r10
 971                             	.LCFI111:
 972                             		.loc 1 190 1
 973 0004 03                      		nop
 974 0005 7E BA                   		pop	r10
 975 0007 7F 95                   		rte
 976                             	.LFE55:
 978                             		.section	.text.INT_Excep_SCI5_TXI5,"ax",@progbits
 979                             		.global	_INT_Excep_SCI5_TXI5
 981                             	_INT_Excep_SCI5_TXI5:
 982                             	.LFB56:
 191:../generate/inthandler.c **** 
 192:../generate/inthandler.c **** // SCI5 TXI5
 193:../generate/inthandler.c **** void INT_Excep_SCI5_TXI5(void){ }
 983                             		.loc 1 193 31
 984                             		; Note: Interrupt Handler
 985 0000 7E AA                   		push.l	r10
 986                             	.LCFI112:
 987 0002 EF 0A                   		mov.L	r0, r10
 988                             	.LCFI113:
 989                             		.loc 1 193 1
 990 0004 03                      		nop
 991 0005 7E BA                   		pop	r10
 992 0007 7F 95                   		rte
 993                             	.LFE56:
 995                             		.section	.text.INT_Excep_SCI6_RXI6,"ax",@progbits
 996                             		.global	_INT_Excep_SCI6_RXI6
 998                             	_INT_Excep_SCI6_RXI6:
 999                             	.LFB57:
 194:../generate/inthandler.c **** 
 195:../generate/inthandler.c **** // SCI6 RXI6
 196:../generate/inthandler.c **** void INT_Excep_SCI6_RXI6(void)
 197:../generate/inthandler.c **** {
 1000                             		.loc 1 197 1
 1001                             		; Note: Interrupt Handler
 1002 0000 7E AA                   		push.l	r10
 1003                             	.LCFI114:
 1004 0002 6E 45                   		pushm	r4-r5
 1005                             	.LCFI115:
 1006 0004 EF 0A                   		mov.L	r0, r10
 1007                             	.LCFI116:
 198:../generate/inthandler.c **** 	received_byte = SCI6.RDR;
 1008                             		.loc 1 198 18
 1009 0006 FB 5E C0 A0 08          		mov.L	#0x8a0c0, r5
 1010                             		.loc 1 198 22
 1011 000b 89 5C                   		mov.B	5[r5], r4
 1012                             		.loc 1 198 16
 1013 000d FB 52 00 00 00 00       		mov.L	#_received_byte, r5
 1014 0013 C3 54                   		mov.B	r4, [r5]
 199:../generate/inthandler.c **** 	rx_complete_interrupt_flag = true;
 1015                             		.loc 1 199 29
 1016 0015 FB 52 00 00 00 00       		mov.L	#_rx_complete_interrupt_flag, r5
 1017 001b F8 54 01                		mov.B	#1, [r5]
 200:../generate/inthandler.c **** }
 1018                             		.loc 1 200 1
 1019 001e 03                      		nop
 1020 001f 6F 45                   		popm	r4-r5
 1021 0021 7E BA                   		pop	r10
 1022 0023 7F 95                   		rte
 1023                             	.LFE57:
 1025                             		.section	.text.INT_Excep_SCI6_TXI6,"ax",@progbits
 1026                             		.global	_INT_Excep_SCI6_TXI6
 1028                             	_INT_Excep_SCI6_TXI6:
 1029                             	.LFB58:
 201:../generate/inthandler.c **** 
 202:../generate/inthandler.c **** // SCI6 TXI6
 203:../generate/inthandler.c **** void INT_Excep_SCI6_TXI6(void)
 204:../generate/inthandler.c **** {
 1030                             		.loc 1 204 1
 1031                             		; Note: Interrupt Handler
 1032 0000 7E AA                   		push.l	r10
 1033                             	.LCFI117:
 1034 0002 7E A5                   		push.l	r5
 1035                             	.LCFI118:
 1036 0004 EF 0A                   		mov.L	r0, r10
 1037                             	.LCFI119:
 205:../generate/inthandler.c **** 	tx_complete_interrupt_flag = true;
 1038                             		.loc 1 205 29
 1039 0006 FB 52 00 00 00 00       		mov.L	#_tx_complete_interrupt_flag, r5
 1040 000c F8 54 01                		mov.B	#1, [r5]
 206:../generate/inthandler.c **** }
 1041                             		.loc 1 206 1
 1042 000f 03                      		nop
 1043 0010 7E B5                   		pop	r5
 1044 0012 7E BA                   		pop	r10
 1045 0014 7F 95                   		rte
 1046                             	.LFE58:
 1048                             		.section	.text.INT_Excep_LVD1_LVD1,"ax",@progbits
 1049                             		.global	_INT_Excep_LVD1_LVD1
 1051                             	_INT_Excep_LVD1_LVD1:
 1052                             	.LFB59:
 207:../generate/inthandler.c **** 
 208:../generate/inthandler.c **** // LVD1 LVD1
 209:../generate/inthandler.c **** void INT_Excep_LVD1_LVD1(void){ }
 1053                             		.loc 1 209 31
 1054                             		; Note: Interrupt Handler
 1055 0000 7E AA                   		push.l	r10
 1056                             	.LCFI120:
 1057 0002 EF 0A                   		mov.L	r0, r10
 1058                             	.LCFI121:
 1059                             		.loc 1 209 1
 1060 0004 03                      		nop
 1061 0005 7E BA                   		pop	r10
 1062 0007 7F 95                   		rte
 1063                             	.LFE59:
 1065                             		.section	.text.INT_Excep_LVD2_LVD2,"ax",@progbits
 1066                             		.global	_INT_Excep_LVD2_LVD2
 1068                             	_INT_Excep_LVD2_LVD2:
 1069                             	.LFB60:
 210:../generate/inthandler.c **** 
 211:../generate/inthandler.c **** // LVD2 LVD2
 212:../generate/inthandler.c **** void INT_Excep_LVD2_LVD2(void){ }
 1070                             		.loc 1 212 31
 1071                             		; Note: Interrupt Handler
 1072 0000 7E AA                   		push.l	r10
 1073                             	.LCFI122:
 1074 0002 EF 0A                   		mov.L	r0, r10
 1075                             	.LCFI123:
 1076                             		.loc 1 212 1
 1077 0004 03                      		nop
 1078 0005 7E BA                   		pop	r10
 1079 0007 7F 95                   		rte
 1080                             	.LFE60:
 1082                             		.section	.text.INT_Excep_USB0_USBR0,"ax",@progbits
 1083                             		.global	_INT_Excep_USB0_USBR0
 1085                             	_INT_Excep_USB0_USBR0:
 1086                             	.LFB61:
 213:../generate/inthandler.c **** 
 214:../generate/inthandler.c **** // USB0 USBR0
 215:../generate/inthandler.c **** void INT_Excep_USB0_USBR0(void){ }
 1087                             		.loc 1 215 32
 1088                             		; Note: Interrupt Handler
 1089 0000 7E AA                   		push.l	r10
 1090                             	.LCFI124:
 1091 0002 EF 0A                   		mov.L	r0, r10
 1092                             	.LCFI125:
 1093                             		.loc 1 215 1
 1094 0004 03                      		nop
 1095 0005 7E BA                   		pop	r10
 1096 0007 7F 95                   		rte
 1097                             	.LFE61:
 1099                             		.section	.text.INT_Excep_RTC_ALM,"ax",@progbits
 1100                             		.global	_INT_Excep_RTC_ALM
 1102                             	_INT_Excep_RTC_ALM:
 1103                             	.LFB62:
 216:../generate/inthandler.c **** 
 217:../generate/inthandler.c **** // RTC ALM
 218:../generate/inthandler.c **** void INT_Excep_RTC_ALM(void){ }
 1104                             		.loc 1 218 29
 1105                             		; Note: Interrupt Handler
 1106 0000 7E AA                   		push.l	r10
 1107                             	.LCFI126:
 1108 0002 EF 0A                   		mov.L	r0, r10
 1109                             	.LCFI127:
 1110                             		.loc 1 218 1
 1111 0004 03                      		nop
 1112 0005 7E BA                   		pop	r10
 1113 0007 7F 95                   		rte
 1114                             	.LFE62:
 1116                             		.section	.text.INT_Excep_RTC_PRD,"ax",@progbits
 1117                             		.global	_INT_Excep_RTC_PRD
 1119                             	_INT_Excep_RTC_PRD:
 1120                             	.LFB63:
 219:../generate/inthandler.c **** 
 220:../generate/inthandler.c **** // RTC PRD
 221:../generate/inthandler.c **** void INT_Excep_RTC_PRD(void){ }
 1121                             		.loc 1 221 29
 1122                             		; Note: Interrupt Handler
 1123 0000 7E AA                   		push.l	r10
 1124                             	.LCFI128:
 1125 0002 EF 0A                   		mov.L	r0, r10
 1126                             	.LCFI129:
 1127                             		.loc 1 221 1
 1128 0004 03                      		nop
 1129 0005 7E BA                   		pop	r10
 1130 0007 7F 95                   		rte
 1131                             	.LFE63:
 1133                             		.section	.text.INT_Excep_USBA_USBAR,"ax",@progbits
 1134                             		.global	_INT_Excep_USBA_USBAR
 1136                             	_INT_Excep_USBA_USBAR:
 1137                             	.LFB64:
 222:../generate/inthandler.c **** 
 223:../generate/inthandler.c **** // USBA USBAR
 224:../generate/inthandler.c **** void INT_Excep_USBA_USBAR(void){ }
 1138                             		.loc 1 224 32
 1139                             		; Note: Interrupt Handler
 1140 0000 7E AA                   		push.l	r10
 1141                             	.LCFI130:
 1142 0002 EF 0A                   		mov.L	r0, r10
 1143                             	.LCFI131:
 1144                             		.loc 1 224 1
 1145 0004 03                      		nop
 1146 0005 7E BA                   		pop	r10
 1147 0007 7F 95                   		rte
 1148                             	.LFE64:
 1150                             		.section	.text.INT_Excep_IWDT_IWUNI,"ax",@progbits
 1151                             		.global	_INT_Excep_IWDT_IWUNI
 1153                             	_INT_Excep_IWDT_IWUNI:
 1154                             	.LFB65:
 225:../generate/inthandler.c **** 
 226:../generate/inthandler.c **** // IWDT IWUNI
 227:../generate/inthandler.c **** void INT_Excep_IWDT_IWUNI(void){ }
 1155                             		.loc 1 227 32
 1156                             		; Note: Interrupt Handler
 1157 0000 7E AA                   		push.l	r10
 1158                             	.LCFI132:
 1159 0002 EF 0A                   		mov.L	r0, r10
 1160                             	.LCFI133:
 1161                             		.loc 1 227 1
 1162 0004 03                      		nop
 1163 0005 7E BA                   		pop	r10
 1164 0007 7F 95                   		rte
 1165                             	.LFE65:
 1167                             		.section	.text.INT_Excep_WDT_WUNI,"ax",@progbits
 1168                             		.global	_INT_Excep_WDT_WUNI
 1170                             	_INT_Excep_WDT_WUNI:
 1171                             	.LFB66:
 228:../generate/inthandler.c **** 
 229:../generate/inthandler.c **** // WDT WUNI
 230:../generate/inthandler.c **** void INT_Excep_WDT_WUNI(void){ }
 1172                             		.loc 1 230 30
 1173                             		; Note: Interrupt Handler
 1174 0000 7E AA                   		push.l	r10
 1175                             	.LCFI134:
 1176 0002 EF 0A                   		mov.L	r0, r10
 1177                             	.LCFI135:
 1178                             		.loc 1 230 1
 1179 0004 03                      		nop
 1180 0005 7E BA                   		pop	r10
 1181 0007 7F 95                   		rte
 1182                             	.LFE66:
 1184                             		.section	.text.INT_Excep_PDC_PCDFI,"ax",@progbits
 1185                             		.global	_INT_Excep_PDC_PCDFI
 1187                             	_INT_Excep_PDC_PCDFI:
 1188                             	.LFB67:
 231:../generate/inthandler.c **** 
 232:../generate/inthandler.c **** // PDC PCDFI
 233:../generate/inthandler.c **** void INT_Excep_PDC_PCDFI(void){ }
 1189                             		.loc 1 233 31
 1190                             		; Note: Interrupt Handler
 1191 0000 7E AA                   		push.l	r10
 1192                             	.LCFI136:
 1193 0002 EF 0A                   		mov.L	r0, r10
 1194                             	.LCFI137:
 1195                             		.loc 1 233 1
 1196 0004 03                      		nop
 1197 0005 7E BA                   		pop	r10
 1198 0007 7F 95                   		rte
 1199                             	.LFE67:
 1201                             		.section	.text.INT_Excep_SCI7_RXI7,"ax",@progbits
 1202                             		.global	_INT_Excep_SCI7_RXI7
 1204                             	_INT_Excep_SCI7_RXI7:
 1205                             	.LFB68:
 234:../generate/inthandler.c **** 
 235:../generate/inthandler.c **** // SCI7 RXI7
 236:../generate/inthandler.c **** void INT_Excep_SCI7_RXI7(void){ }
 1206                             		.loc 1 236 31
 1207                             		; Note: Interrupt Handler
 1208 0000 7E AA                   		push.l	r10
 1209                             	.LCFI138:
 1210 0002 EF 0A                   		mov.L	r0, r10
 1211                             	.LCFI139:
 1212                             		.loc 1 236 1
 1213 0004 03                      		nop
 1214 0005 7E BA                   		pop	r10
 1215 0007 7F 95                   		rte
 1216                             	.LFE68:
 1218                             		.section	.text.INT_Excep_SCI7_TXI7,"ax",@progbits
 1219                             		.global	_INT_Excep_SCI7_TXI7
 1221                             	_INT_Excep_SCI7_TXI7:
 1222                             	.LFB69:
 237:../generate/inthandler.c **** 
 238:../generate/inthandler.c **** // SCI7 TXI7
 239:../generate/inthandler.c **** void INT_Excep_SCI7_TXI7(void){ }
 1223                             		.loc 1 239 31
 1224                             		; Note: Interrupt Handler
 1225 0000 7E AA                   		push.l	r10
 1226                             	.LCFI140:
 1227 0002 EF 0A                   		mov.L	r0, r10
 1228                             	.LCFI141:
 1229                             		.loc 1 239 1
 1230 0004 03                      		nop
 1231 0005 7E BA                   		pop	r10
 1232 0007 7F 95                   		rte
 1233                             	.LFE69:
 1235                             		.section	.text.INT_Excep_SCI8_RXI8,"ax",@progbits
 1236                             		.global	_INT_Excep_SCI8_RXI8
 1238                             	_INT_Excep_SCI8_RXI8:
 1239                             	.LFB70:
 240:../generate/inthandler.c **** 
 241:../generate/inthandler.c **** // SCI8 RXI8
 242:../generate/inthandler.c **** void INT_Excep_SCI8_RXI8(void){ }
 1240                             		.loc 1 242 31
 1241                             		; Note: Interrupt Handler
 1242 0000 7E AA                   		push.l	r10
 1243                             	.LCFI142:
 1244 0002 EF 0A                   		mov.L	r0, r10
 1245                             	.LCFI143:
 1246                             		.loc 1 242 1
 1247 0004 03                      		nop
 1248 0005 7E BA                   		pop	r10
 1249 0007 7F 95                   		rte
 1250                             	.LFE70:
 1252                             		.section	.text.INT_Excep_SCI8_TXI8,"ax",@progbits
 1253                             		.global	_INT_Excep_SCI8_TXI8
 1255                             	_INT_Excep_SCI8_TXI8:
 1256                             	.LFB71:
 243:../generate/inthandler.c **** 
 244:../generate/inthandler.c **** // SCI8 TXI8
 245:../generate/inthandler.c **** void INT_Excep_SCI8_TXI8(void){ }
 1257                             		.loc 1 245 31
 1258                             		; Note: Interrupt Handler
 1259 0000 7E AA                   		push.l	r10
 1260                             	.LCFI144:
 1261 0002 EF 0A                   		mov.L	r0, r10
 1262                             	.LCFI145:
 1263                             		.loc 1 245 1
 1264 0004 03                      		nop
 1265 0005 7E BA                   		pop	r10
 1266 0007 7F 95                   		rte
 1267                             	.LFE71:
 1269                             		.section	.text.INT_Excep_SCI9_RXI9,"ax",@progbits
 1270                             		.global	_INT_Excep_SCI9_RXI9
 1272                             	_INT_Excep_SCI9_RXI9:
 1273                             	.LFB72:
 246:../generate/inthandler.c **** 
 247:../generate/inthandler.c **** // SCI9 RXI9
 248:../generate/inthandler.c **** void INT_Excep_SCI9_RXI9(void){ }
 1274                             		.loc 1 248 31
 1275                             		; Note: Interrupt Handler
 1276 0000 7E AA                   		push.l	r10
 1277                             	.LCFI146:
 1278 0002 EF 0A                   		mov.L	r0, r10
 1279                             	.LCFI147:
 1280                             		.loc 1 248 1
 1281 0004 03                      		nop
 1282 0005 7E BA                   		pop	r10
 1283 0007 7F 95                   		rte
 1284                             	.LFE72:
 1286                             		.section	.text.INT_Excep_SCI9_TXI9,"ax",@progbits
 1287                             		.global	_INT_Excep_SCI9_TXI9
 1289                             	_INT_Excep_SCI9_TXI9:
 1290                             	.LFB73:
 249:../generate/inthandler.c **** 
 250:../generate/inthandler.c **** // SCI9 TXI9
 251:../generate/inthandler.c **** void INT_Excep_SCI9_TXI9(void){ }
 1291                             		.loc 1 251 31
 1292                             		; Note: Interrupt Handler
 1293 0000 7E AA                   		push.l	r10
 1294                             	.LCFI148:
 1295 0002 EF 0A                   		mov.L	r0, r10
 1296                             	.LCFI149:
 1297                             		.loc 1 251 1
 1298 0004 03                      		nop
 1299 0005 7E BA                   		pop	r10
 1300 0007 7F 95                   		rte
 1301                             	.LFE73:
 1303                             		.section	.text.INT_Excep_SCI10_RXI10,"ax",@progbits
 1304                             		.global	_INT_Excep_SCI10_RXI10
 1306                             	_INT_Excep_SCI10_RXI10:
 1307                             	.LFB74:
 252:../generate/inthandler.c **** 
 253:../generate/inthandler.c **** // SCI10 RXI10
 254:../generate/inthandler.c **** void INT_Excep_SCI10_RXI10(void){ }
 1308                             		.loc 1 254 33
 1309                             		; Note: Interrupt Handler
 1310 0000 7E AA                   		push.l	r10
 1311                             	.LCFI150:
 1312 0002 EF 0A                   		mov.L	r0, r10
 1313                             	.LCFI151:
 1314                             		.loc 1 254 1
 1315 0004 03                      		nop
 1316 0005 7E BA                   		pop	r10
 1317 0007 7F 95                   		rte
 1318                             	.LFE74:
 1320                             		.section	.text.INT_Excep_SCI10_TXI10,"ax",@progbits
 1321                             		.global	_INT_Excep_SCI10_TXI10
 1323                             	_INT_Excep_SCI10_TXI10:
 1324                             	.LFB75:
 255:../generate/inthandler.c **** 
 256:../generate/inthandler.c **** // SCI10 TXI10
 257:../generate/inthandler.c **** void INT_Excep_SCI10_TXI10(void){ }
 1325                             		.loc 1 257 33
 1326                             		; Note: Interrupt Handler
 1327 0000 7E AA                   		push.l	r10
 1328                             	.LCFI152:
 1329 0002 EF 0A                   		mov.L	r0, r10
 1330                             	.LCFI153:
 1331                             		.loc 1 257 1
 1332 0004 03                      		nop
 1333 0005 7E BA                   		pop	r10
 1334 0007 7F 95                   		rte
 1335                             	.LFE75:
 1337                             		.section	.text.INT_Excep_ICU_GROUPBE0,"ax",@progbits
 1338                             		.global	_INT_Excep_ICU_GROUPBE0
 1340                             	_INT_Excep_ICU_GROUPBE0:
 1341                             	.LFB76:
 258:../generate/inthandler.c **** 
 259:../generate/inthandler.c **** // ICU GROUPBE0
 260:../generate/inthandler.c **** void INT_Excep_ICU_GROUPBE0(void){ }
 1342                             		.loc 1 260 34
 1343                             		; Note: Interrupt Handler
 1344 0000 7E AA                   		push.l	r10
 1345                             	.LCFI154:
 1346 0002 EF 0A                   		mov.L	r0, r10
 1347                             	.LCFI155:
 1348                             		.loc 1 260 1
 1349 0004 03                      		nop
 1350 0005 7E BA                   		pop	r10
 1351 0007 7F 95                   		rte
 1352                             	.LFE76:
 1354                             		.section	.text.INT_Excep_ICU_GROUPBL2,"ax",@progbits
 1355                             		.global	_INT_Excep_ICU_GROUPBL2
 1357                             	_INT_Excep_ICU_GROUPBL2:
 1358                             	.LFB77:
 261:../generate/inthandler.c **** 
 262:../generate/inthandler.c **** // ICU GROUPBL2
 263:../generate/inthandler.c **** void INT_Excep_ICU_GROUPBL2(void){ }
 1359                             		.loc 1 263 34
 1360                             		; Note: Interrupt Handler
 1361 0000 7E AA                   		push.l	r10
 1362                             	.LCFI156:
 1363 0002 EF 0A                   		mov.L	r0, r10
 1364                             	.LCFI157:
 1365                             		.loc 1 263 1
 1366 0004 03                      		nop
 1367 0005 7E BA                   		pop	r10
 1368 0007 7F 95                   		rte
 1369                             	.LFE77:
 1371                             		.section	.text.INT_Excep_RSPI2_SPRI2,"ax",@progbits
 1372                             		.global	_INT_Excep_RSPI2_SPRI2
 1374                             	_INT_Excep_RSPI2_SPRI2:
 1375                             	.LFB78:
 264:../generate/inthandler.c **** 
 265:../generate/inthandler.c **** // RSPI2 SPRI2
 266:../generate/inthandler.c **** void INT_Excep_RSPI2_SPRI2(void){ }
 1376                             		.loc 1 266 33
 1377                             		; Note: Interrupt Handler
 1378 0000 7E AA                   		push.l	r10
 1379                             	.LCFI158:
 1380 0002 EF 0A                   		mov.L	r0, r10
 1381                             	.LCFI159:
 1382                             		.loc 1 266 1
 1383 0004 03                      		nop
 1384 0005 7E BA                   		pop	r10
 1385 0007 7F 95                   		rte
 1386                             	.LFE78:
 1388                             		.section	.text.INT_Excep_RSPI2_SPTI2,"ax",@progbits
 1389                             		.global	_INT_Excep_RSPI2_SPTI2
 1391                             	_INT_Excep_RSPI2_SPTI2:
 1392                             	.LFB79:
 267:../generate/inthandler.c **** 
 268:../generate/inthandler.c **** // RSPI2 SPTI2
 269:../generate/inthandler.c **** void INT_Excep_RSPI2_SPTI2(void){ }
 1393                             		.loc 1 269 33
 1394                             		; Note: Interrupt Handler
 1395 0000 7E AA                   		push.l	r10
 1396                             	.LCFI160:
 1397 0002 EF 0A                   		mov.L	r0, r10
 1398                             	.LCFI161:
 1399                             		.loc 1 269 1
 1400 0004 03                      		nop
 1401 0005 7E BA                   		pop	r10
 1402 0007 7F 95                   		rte
 1403                             	.LFE79:
 1405                             		.section	.text.INT_Excep_ICU_GROUPBL0,"ax",@progbits
 1406                             		.global	_INT_Excep_ICU_GROUPBL0
 1408                             	_INT_Excep_ICU_GROUPBL0:
 1409                             	.LFB80:
 270:../generate/inthandler.c **** 
 271:../generate/inthandler.c **** // ICU GROUPBL0
 272:../generate/inthandler.c **** void INT_Excep_ICU_GROUPBL0(void)
 273:../generate/inthandler.c **** {
 1410                             		.loc 1 273 1
 1411                             		; Note: Interrupt Handler
 1412 0000 7E AA                   		push.l	r10
 1413                             	.LCFI162:
 1414 0002 6E 45                   		pushm	r4-r5
 1415                             	.LCFI163:
 1416 0004 EF 0A                   		mov.L	r0, r10
 1417                             	.LCFI164:
 274:../generate/inthandler.c ****     if (1U == ICU.GRPBL0.BIT.IS12)
 1418                             		.loc 1 274 15
 1419 0006 FB 5E 00 70 08          		mov.L	#0x87000, r5
 1420                             		.loc 1 274 29
 1421 000b EE 55 8C 01             		mov.L	1584[r5], r5
 1422 000f 68 C5                   		shlr	#12, r5
 1423 0011 64 15                   		and	#1, r5
 1424                             		.loc 1 274 8
 1425 0013 5B 55                   		movu.B	r5, r5
 1426 0015 61 15                   		cmp	#1, r5
 1427 0017 21 2A                   		bne	.L84
 275:../generate/inthandler.c ****     {
 276:../generate/inthandler.c ****     	SCI6.SIMR3.BIT.IICSTIF = 0U;
 1428                             		.loc 1 276 6
 1429 0019 FB 4E C0 A0 08          		mov.L	#0x8a0c0, r4
 1430                             		.loc 1 276 29
 1431 001e 8A CD                   		mov.B	11[r4], r5
 1432 0020 7A 35                   		bclr	#3, r5
 1433 0022 82 CD                   		mov.B	r5, 11[r4]
 277:../generate/inthandler.c ****     	while (SCI6.SIMR3.BIT.IICSTIF != 0U)
 1434                             		.loc 1 277 12
 1435 0024 03                      		nop
 1436                             	.L83:
 1437                             		.loc 1 277 13 discriminator 1
 1438 0025 FB 5E C0 A0 08          		mov.L	#0x8a0c0, r5
 1439                             		.loc 1 277 27 discriminator 1
 1440 002a 8A DD                   		mov.B	11[r5], r5
 1441 002c 5B 55                   		movu.B	r5, r5
 1442 002e 68 35                   		shlr	#3, r5
 1443 0030 64 15                   		and	#1, r5
 1444                             		.loc 1 277 12 discriminator 1
 1445 0032 5B 55                   		movu.B	r5, r5
 1446 0034 61 05                   		cmp	#0, r5
 1447 0036 21 EF                   		bne	.L83
 278:../generate/inthandler.c ****     	{
 279:../generate/inthandler.c ****     	}
 280:../generate/inthandler.c **** 
 281:../generate/inthandler.c ****     	start_complete_interrupt_flag = true;
 1448                             		.loc 1 281 36
 1449 0038 FB 52 00 00 00 00       		mov.L	#_start_complete_interrupt_flag, r5
 1450 003e F8 54 01                		mov.B	#1, [r5]
 1451                             	.L84:
 282:../generate/inthandler.c ****     }
 283:../generate/inthandler.c **** }
 1452                             		.loc 1 283 1
 1453 0041 03                      		nop
 1454 0042 6F 45                   		popm	r4-r5
 1455 0044 7E BA                   		pop	r10
 1456 0046 7F 95                   		rte
 1457                             	.LFE80:
 1459                             		.section	.text.INT_Excep_ICU_GROUPBL1,"ax",@progbits
 1460                             		.global	_INT_Excep_ICU_GROUPBL1
 1462                             	_INT_Excep_ICU_GROUPBL1:
 1463                             	.LFB81:
 284:../generate/inthandler.c **** 
 285:../generate/inthandler.c **** // ICU GROUPBL1
 286:../generate/inthandler.c **** void INT_Excep_ICU_GROUPBL1(void){ }
 1464                             		.loc 1 286 34
 1465                             		; Note: Interrupt Handler
 1466 0000 7E AA                   		push.l	r10
 1467                             	.LCFI165:
 1468 0002 EF 0A                   		mov.L	r0, r10
 1469                             	.LCFI166:
 1470                             		.loc 1 286 1
 1471 0004 03                      		nop
 1472 0005 7E BA                   		pop	r10
 1473 0007 7F 95                   		rte
 1474                             	.LFE81:
 1476                             		.section	.text.INT_Excep_ICU_GROUPAL0,"ax",@progbits
 1477                             		.global	_INT_Excep_ICU_GROUPAL0
 1479                             	_INT_Excep_ICU_GROUPAL0:
 1480                             	.LFB82:
 287:../generate/inthandler.c **** 
 288:../generate/inthandler.c **** // ICU GROUPAL0
 289:../generate/inthandler.c **** void INT_Excep_ICU_GROUPAL0(void){ }
 1481                             		.loc 1 289 34
 1482                             		; Note: Interrupt Handler
 1483 0000 7E AA                   		push.l	r10
 1484                             	.LCFI167:
 1485 0002 EF 0A                   		mov.L	r0, r10
 1486                             	.LCFI168:
 1487                             		.loc 1 289 1
 1488 0004 03                      		nop
 1489 0005 7E BA                   		pop	r10
 1490 0007 7F 95                   		rte
 1491                             	.LFE82:
 1493                             		.section	.text.INT_Excep_ICU_GROUPAL1,"ax",@progbits
 1494                             		.global	_INT_Excep_ICU_GROUPAL1
 1496                             	_INT_Excep_ICU_GROUPAL1:
 1497                             	.LFB83:
 290:../generate/inthandler.c **** 
 291:../generate/inthandler.c **** // ICU GROUPAL1
 292:../generate/inthandler.c **** void INT_Excep_ICU_GROUPAL1(void){ }
 1498                             		.loc 1 292 34
 1499                             		; Note: Interrupt Handler
 1500 0000 7E AA                   		push.l	r10
 1501                             	.LCFI169:
 1502 0002 EF 0A                   		mov.L	r0, r10
 1503                             	.LCFI170:
 1504                             		.loc 1 292 1
 1505 0004 03                      		nop
 1506 0005 7E BA                   		pop	r10
 1507 0007 7F 95                   		rte
 1508                             	.LFE83:
 1510                             		.section	.text.INT_Excep_SCI11_RXI11,"ax",@progbits
 1511                             		.global	_INT_Excep_SCI11_RXI11
 1513                             	_INT_Excep_SCI11_RXI11:
 1514                             	.LFB84:
 293:../generate/inthandler.c **** 
 294:../generate/inthandler.c **** // SCI11 RXI11
 295:../generate/inthandler.c **** void INT_Excep_SCI11_RXI11(void){ }
 1515                             		.loc 1 295 33
 1516                             		; Note: Interrupt Handler
 1517 0000 7E AA                   		push.l	r10
 1518                             	.LCFI171:
 1519 0002 EF 0A                   		mov.L	r0, r10
 1520                             	.LCFI172:
 1521                             		.loc 1 295 1
 1522 0004 03                      		nop
 1523 0005 7E BA                   		pop	r10
 1524 0007 7F 95                   		rte
 1525                             	.LFE84:
 1527                             		.section	.text.INT_Excep_SCI11_TXI11,"ax",@progbits
 1528                             		.global	_INT_Excep_SCI11_TXI11
 1530                             	_INT_Excep_SCI11_TXI11:
 1531                             	.LFB85:
 296:../generate/inthandler.c **** 
 297:../generate/inthandler.c **** // SCI11 TXI11
 298:../generate/inthandler.c **** void INT_Excep_SCI11_TXI11(void){ }
 1532                             		.loc 1 298 33
 1533                             		; Note: Interrupt Handler
 1534 0000 7E AA                   		push.l	r10
 1535                             	.LCFI173:
 1536 0002 EF 0A                   		mov.L	r0, r10
 1537                             	.LCFI174:
 1538                             		.loc 1 298 1
 1539 0004 03                      		nop
 1540 0005 7E BA                   		pop	r10
 1541 0007 7F 95                   		rte
 1542                             	.LFE85:
 1544                             		.section	.text.INT_Excep_SCI12_RXI12,"ax",@progbits
 1545                             		.global	_INT_Excep_SCI12_RXI12
 1547                             	_INT_Excep_SCI12_RXI12:
 1548                             	.LFB86:
 299:../generate/inthandler.c **** 
 300:../generate/inthandler.c **** // SCI12 RXI12
 301:../generate/inthandler.c **** void INT_Excep_SCI12_RXI12(void){ }
 1549                             		.loc 1 301 33
 1550                             		; Note: Interrupt Handler
 1551 0000 7E AA                   		push.l	r10
 1552                             	.LCFI175:
 1553 0002 EF 0A                   		mov.L	r0, r10
 1554                             	.LCFI176:
 1555                             		.loc 1 301 1
 1556 0004 03                      		nop
 1557 0005 7E BA                   		pop	r10
 1558 0007 7F 95                   		rte
 1559                             	.LFE86:
 1561                             		.section	.text.INT_Excep_SCI12_TXI12,"ax",@progbits
 1562                             		.global	_INT_Excep_SCI12_TXI12
 1564                             	_INT_Excep_SCI12_TXI12:
 1565                             	.LFB87:
 302:../generate/inthandler.c **** 
 303:../generate/inthandler.c **** // SCI12 TXI12
 304:../generate/inthandler.c **** void INT_Excep_SCI12_TXI12(void){ }
 1566                             		.loc 1 304 33
 1567                             		; Note: Interrupt Handler
 1568 0000 7E AA                   		push.l	r10
 1569                             	.LCFI177:
 1570 0002 EF 0A                   		mov.L	r0, r10
 1571                             	.LCFI178:
 1572                             		.loc 1 304 1
 1573 0004 03                      		nop
 1574 0005 7E BA                   		pop	r10
 1575 0007 7F 95                   		rte
 1576                             	.LFE87:
 1578                             		.section	.text.INT_Excep_DMAC_DMAC0I,"ax",@progbits
 1579                             		.global	_INT_Excep_DMAC_DMAC0I
 1581                             	_INT_Excep_DMAC_DMAC0I:
 1582                             	.LFB88:
 305:../generate/inthandler.c **** 
 306:../generate/inthandler.c **** // DMAC DMAC0I
 307:../generate/inthandler.c **** void INT_Excep_DMAC_DMAC0I(void){ }
 1583                             		.loc 1 307 33
 1584                             		; Note: Interrupt Handler
 1585 0000 7E AA                   		push.l	r10
 1586                             	.LCFI179:
 1587 0002 EF 0A                   		mov.L	r0, r10
 1588                             	.LCFI180:
 1589                             		.loc 1 307 1
 1590 0004 03                      		nop
 1591 0005 7E BA                   		pop	r10
 1592 0007 7F 95                   		rte
 1593                             	.LFE88:
 1595                             		.section	.text.INT_Excep_DMAC_DMAC1I,"ax",@progbits
 1596                             		.global	_INT_Excep_DMAC_DMAC1I
 1598                             	_INT_Excep_DMAC_DMAC1I:
 1599                             	.LFB89:
 308:../generate/inthandler.c **** 
 309:../generate/inthandler.c **** // DMAC DMAC1I
 310:../generate/inthandler.c **** void INT_Excep_DMAC_DMAC1I(void){ }
 1600                             		.loc 1 310 33
 1601                             		; Note: Interrupt Handler
 1602 0000 7E AA                   		push.l	r10
 1603                             	.LCFI181:
 1604 0002 EF 0A                   		mov.L	r0, r10
 1605                             	.LCFI182:
 1606                             		.loc 1 310 1
 1607 0004 03                      		nop
 1608 0005 7E BA                   		pop	r10
 1609 0007 7F 95                   		rte
 1610                             	.LFE89:
 1612                             		.section	.text.INT_Excep_DMAC_DMAC2I,"ax",@progbits
 1613                             		.global	_INT_Excep_DMAC_DMAC2I
 1615                             	_INT_Excep_DMAC_DMAC2I:
 1616                             	.LFB90:
 311:../generate/inthandler.c **** 
 312:../generate/inthandler.c **** // DMAC DMAC2I
 313:../generate/inthandler.c **** void INT_Excep_DMAC_DMAC2I(void){ }
 1617                             		.loc 1 313 33
 1618                             		; Note: Interrupt Handler
 1619 0000 7E AA                   		push.l	r10
 1620                             	.LCFI183:
 1621 0002 EF 0A                   		mov.L	r0, r10
 1622                             	.LCFI184:
 1623                             		.loc 1 313 1
 1624 0004 03                      		nop
 1625 0005 7E BA                   		pop	r10
 1626 0007 7F 95                   		rte
 1627                             	.LFE90:
 1629                             		.section	.text.INT_Excep_DMAC_DMAC3I,"ax",@progbits
 1630                             		.global	_INT_Excep_DMAC_DMAC3I
 1632                             	_INT_Excep_DMAC_DMAC3I:
 1633                             	.LFB91:
 314:../generate/inthandler.c **** 
 315:../generate/inthandler.c **** // DMAC DMAC3I
 316:../generate/inthandler.c **** void INT_Excep_DMAC_DMAC3I(void){ }
 1634                             		.loc 1 316 33
 1635                             		; Note: Interrupt Handler
 1636 0000 7E AA                   		push.l	r10
 1637                             	.LCFI185:
 1638 0002 EF 0A                   		mov.L	r0, r10
 1639                             	.LCFI186:
 1640                             		.loc 1 316 1
 1641 0004 03                      		nop
 1642 0005 7E BA                   		pop	r10
 1643 0007 7F 95                   		rte
 1644                             	.LFE91:
 1646                             		.section	.text.INT_Excep_DMAC_DMAC74I,"ax",@progbits
 1647                             		.global	_INT_Excep_DMAC_DMAC74I
 1649                             	_INT_Excep_DMAC_DMAC74I:
 1650                             	.LFB92:
 317:../generate/inthandler.c **** 
 318:../generate/inthandler.c **** // DMAC DMAC74I
 319:../generate/inthandler.c **** void INT_Excep_DMAC_DMAC74I(void){ }
 1651                             		.loc 1 319 34
 1652                             		; Note: Interrupt Handler
 1653 0000 7E AA                   		push.l	r10
 1654                             	.LCFI187:
 1655 0002 EF 0A                   		mov.L	r0, r10
 1656                             	.LCFI188:
 1657                             		.loc 1 319 1
 1658 0004 03                      		nop
 1659 0005 7E BA                   		pop	r10
 1660 0007 7F 95                   		rte
 1661                             	.LFE92:
 1663                             		.section	.text.INT_Excep_OST_OSTDI,"ax",@progbits
 1664                             		.global	_INT_Excep_OST_OSTDI
 1666                             	_INT_Excep_OST_OSTDI:
 1667                             	.LFB93:
 320:../generate/inthandler.c **** 
 321:../generate/inthandler.c **** // OST OSTDI
 322:../generate/inthandler.c **** void INT_Excep_OST_OSTDI(void){ }
 1668                             		.loc 1 322 31
 1669                             		; Note: Interrupt Handler
 1670 0000 7E AA                   		push.l	r10
 1671                             	.LCFI189:
 1672 0002 EF 0A                   		mov.L	r0, r10
 1673                             	.LCFI190:
 1674                             		.loc 1 322 1
 1675 0004 03                      		nop
 1676 0005 7E BA                   		pop	r10
 1677 0007 7F 95                   		rte
 1678                             	.LFE93:
 1680                             		.section	.text.INT_Excep_EXDMAC_EXDMAC0I,"ax",@progbits
 1681                             		.global	_INT_Excep_EXDMAC_EXDMAC0I
 1683                             	_INT_Excep_EXDMAC_EXDMAC0I:
 1684                             	.LFB94:
 323:../generate/inthandler.c **** 
 324:../generate/inthandler.c **** // EXDMAC EXDMAC0I
 325:../generate/inthandler.c **** void INT_Excep_EXDMAC_EXDMAC0I(void){ }
 1685                             		.loc 1 325 37
 1686                             		; Note: Interrupt Handler
 1687 0000 7E AA                   		push.l	r10
 1688                             	.LCFI191:
 1689 0002 EF 0A                   		mov.L	r0, r10
 1690                             	.LCFI192:
 1691                             		.loc 1 325 1
 1692 0004 03                      		nop
 1693 0005 7E BA                   		pop	r10
 1694 0007 7F 95                   		rte
 1695                             	.LFE94:
 1697                             		.section	.text.INT_Excep_EXDMAC_EXDMAC1I,"ax",@progbits
 1698                             		.global	_INT_Excep_EXDMAC_EXDMAC1I
 1700                             	_INT_Excep_EXDMAC_EXDMAC1I:
 1701                             	.LFB95:
 326:../generate/inthandler.c **** 
 327:../generate/inthandler.c **** // EXDMAC EXDMAC1I
 328:../generate/inthandler.c **** void INT_Excep_EXDMAC_EXDMAC1I(void){ }
 1702                             		.loc 1 328 37
 1703                             		; Note: Interrupt Handler
 1704 0000 7E AA                   		push.l	r10
 1705                             	.LCFI193:
 1706 0002 EF 0A                   		mov.L	r0, r10
 1707                             	.LCFI194:
 1708                             		.loc 1 328 1
 1709 0004 03                      		nop
 1710 0005 7E BA                   		pop	r10
 1711 0007 7F 95                   		rte
 1712                             	.LFE95:
 1714                             		.section	.text.INT_Excep_PERIB_INTB128,"ax",@progbits
 1715                             		.global	_INT_Excep_PERIB_INTB128
 1717                             	_INT_Excep_PERIB_INTB128:
 1718                             	.LFB96:
 329:../generate/inthandler.c **** 
 330:../generate/inthandler.c **** // PERIB INTB128
 331:../generate/inthandler.c **** void INT_Excep_PERIB_INTB128(void){ }
 1719                             		.loc 1 331 35
 1720                             		; Note: Interrupt Handler
 1721 0000 7E AA                   		push.l	r10
 1722                             	.LCFI195:
 1723 0002 EF 0A                   		mov.L	r0, r10
 1724                             	.LCFI196:
 1725                             		.loc 1 331 1
 1726 0004 03                      		nop
 1727 0005 7E BA                   		pop	r10
 1728 0007 7F 95                   		rte
 1729                             	.LFE96:
 1731                             		.section	.text.INT_Excep_PERIB_INTB129,"ax",@progbits
 1732                             		.global	_INT_Excep_PERIB_INTB129
 1734                             	_INT_Excep_PERIB_INTB129:
 1735                             	.LFB97:
 332:../generate/inthandler.c **** 
 333:../generate/inthandler.c **** // PERIB INTB129
 334:../generate/inthandler.c **** void INT_Excep_PERIB_INTB129(void){ }
 1736                             		.loc 1 334 35
 1737                             		; Note: Interrupt Handler
 1738 0000 7E AA                   		push.l	r10
 1739                             	.LCFI197:
 1740 0002 EF 0A                   		mov.L	r0, r10
 1741                             	.LCFI198:
 1742                             		.loc 1 334 1
 1743 0004 03                      		nop
 1744 0005 7E BA                   		pop	r10
 1745 0007 7F 95                   		rte
 1746                             	.LFE97:
 1748                             		.section	.text.INT_Excep_PERIB_INTB130,"ax",@progbits
 1749                             		.global	_INT_Excep_PERIB_INTB130
 1751                             	_INT_Excep_PERIB_INTB130:
 1752                             	.LFB98:
 335:../generate/inthandler.c **** 
 336:../generate/inthandler.c **** // PERIB INTB130
 337:../generate/inthandler.c **** void INT_Excep_PERIB_INTB130(void){ }
 1753                             		.loc 1 337 35
 1754                             		; Note: Interrupt Handler
 1755 0000 7E AA                   		push.l	r10
 1756                             	.LCFI199:
 1757 0002 EF 0A                   		mov.L	r0, r10
 1758                             	.LCFI200:
 1759                             		.loc 1 337 1
 1760 0004 03                      		nop
 1761 0005 7E BA                   		pop	r10
 1762 0007 7F 95                   		rte
 1763                             	.LFE98:
 1765                             		.section	.text.INT_Excep_PERIB_INTB131,"ax",@progbits
 1766                             		.global	_INT_Excep_PERIB_INTB131
 1768                             	_INT_Excep_PERIB_INTB131:
 1769                             	.LFB99:
 338:../generate/inthandler.c **** 
 339:../generate/inthandler.c **** // PERIB INTB131
 340:../generate/inthandler.c **** void INT_Excep_PERIB_INTB131(void){ }
 1770                             		.loc 1 340 35
 1771                             		; Note: Interrupt Handler
 1772 0000 7E AA                   		push.l	r10
 1773                             	.LCFI201:
 1774 0002 EF 0A                   		mov.L	r0, r10
 1775                             	.LCFI202:
 1776                             		.loc 1 340 1
 1777 0004 03                      		nop
 1778 0005 7E BA                   		pop	r10
 1779 0007 7F 95                   		rte
 1780                             	.LFE99:
 1782                             		.section	.text.INT_Excep_PERIB_INTB132,"ax",@progbits
 1783                             		.global	_INT_Excep_PERIB_INTB132
 1785                             	_INT_Excep_PERIB_INTB132:
 1786                             	.LFB100:
 341:../generate/inthandler.c **** 
 342:../generate/inthandler.c **** // PERIB INTB132
 343:../generate/inthandler.c **** void INT_Excep_PERIB_INTB132(void){ }
 1787                             		.loc 1 343 35
 1788                             		; Note: Interrupt Handler
 1789 0000 7E AA                   		push.l	r10
 1790                             	.LCFI203:
 1791 0002 EF 0A                   		mov.L	r0, r10
 1792                             	.LCFI204:
 1793                             		.loc 1 343 1
 1794 0004 03                      		nop
 1795 0005 7E BA                   		pop	r10
 1796 0007 7F 95                   		rte
 1797                             	.LFE100:
 1799                             		.section	.text.INT_Excep_PERIB_INTB133,"ax",@progbits
 1800                             		.global	_INT_Excep_PERIB_INTB133
 1802                             	_INT_Excep_PERIB_INTB133:
 1803                             	.LFB101:
 344:../generate/inthandler.c **** 
 345:../generate/inthandler.c **** // PERIB INTB133
 346:../generate/inthandler.c **** void INT_Excep_PERIB_INTB133(void){ }
 1804                             		.loc 1 346 35
 1805                             		; Note: Interrupt Handler
 1806 0000 7E AA                   		push.l	r10
 1807                             	.LCFI205:
 1808 0002 EF 0A                   		mov.L	r0, r10
 1809                             	.LCFI206:
 1810                             		.loc 1 346 1
 1811 0004 03                      		nop
 1812 0005 7E BA                   		pop	r10
 1813 0007 7F 95                   		rte
 1814                             	.LFE101:
 1816                             		.section	.text.INT_Excep_PERIB_INTB134,"ax",@progbits
 1817                             		.global	_INT_Excep_PERIB_INTB134
 1819                             	_INT_Excep_PERIB_INTB134:
 1820                             	.LFB102:
 347:../generate/inthandler.c **** 
 348:../generate/inthandler.c **** // PERIB INTB134
 349:../generate/inthandler.c **** void INT_Excep_PERIB_INTB134(void){ }
 1821                             		.loc 1 349 35
 1822                             		; Note: Interrupt Handler
 1823 0000 7E AA                   		push.l	r10
 1824                             	.LCFI207:
 1825 0002 EF 0A                   		mov.L	r0, r10
 1826                             	.LCFI208:
 1827                             		.loc 1 349 1
 1828 0004 03                      		nop
 1829 0005 7E BA                   		pop	r10
 1830 0007 7F 95                   		rte
 1831                             	.LFE102:
 1833                             		.section	.text.INT_Excep_PERIB_INTB135,"ax",@progbits
 1834                             		.global	_INT_Excep_PERIB_INTB135
 1836                             	_INT_Excep_PERIB_INTB135:
 1837                             	.LFB103:
 350:../generate/inthandler.c **** 
 351:../generate/inthandler.c **** // PERIB INTB135
 352:../generate/inthandler.c **** void INT_Excep_PERIB_INTB135(void){ }
 1838                             		.loc 1 352 35
 1839                             		; Note: Interrupt Handler
 1840 0000 7E AA                   		push.l	r10
 1841                             	.LCFI209:
 1842 0002 EF 0A                   		mov.L	r0, r10
 1843                             	.LCFI210:
 1844                             		.loc 1 352 1
 1845 0004 03                      		nop
 1846 0005 7E BA                   		pop	r10
 1847 0007 7F 95                   		rte
 1848                             	.LFE103:
 1850                             		.section	.text.INT_Excep_PERIB_INTB136,"ax",@progbits
 1851                             		.global	_INT_Excep_PERIB_INTB136
 1853                             	_INT_Excep_PERIB_INTB136:
 1854                             	.LFB104:
 353:../generate/inthandler.c **** 
 354:../generate/inthandler.c **** // PERIB INTB136
 355:../generate/inthandler.c **** void INT_Excep_PERIB_INTB136(void){ }
 1855                             		.loc 1 355 35
 1856                             		; Note: Interrupt Handler
 1857 0000 7E AA                   		push.l	r10
 1858                             	.LCFI211:
 1859 0002 EF 0A                   		mov.L	r0, r10
 1860                             	.LCFI212:
 1861                             		.loc 1 355 1
 1862 0004 03                      		nop
 1863 0005 7E BA                   		pop	r10
 1864 0007 7F 95                   		rte
 1865                             	.LFE104:
 1867                             		.section	.text.INT_Excep_PERIB_INTB137,"ax",@progbits
 1868                             		.global	_INT_Excep_PERIB_INTB137
 1870                             	_INT_Excep_PERIB_INTB137:
 1871                             	.LFB105:
 356:../generate/inthandler.c **** 
 357:../generate/inthandler.c **** // PERIB INTB137
 358:../generate/inthandler.c **** void INT_Excep_PERIB_INTB137(void){ }
 1872                             		.loc 1 358 35
 1873                             		; Note: Interrupt Handler
 1874 0000 7E AA                   		push.l	r10
 1875                             	.LCFI213:
 1876 0002 EF 0A                   		mov.L	r0, r10
 1877                             	.LCFI214:
 1878                             		.loc 1 358 1
 1879 0004 03                      		nop
 1880 0005 7E BA                   		pop	r10
 1881 0007 7F 95                   		rte
 1882                             	.LFE105:
 1884                             		.section	.text.INT_Excep_PERIB_INTB138,"ax",@progbits
 1885                             		.global	_INT_Excep_PERIB_INTB138
 1887                             	_INT_Excep_PERIB_INTB138:
 1888                             	.LFB106:
 359:../generate/inthandler.c **** 
 360:../generate/inthandler.c **** // PERIB INTB138
 361:../generate/inthandler.c **** void INT_Excep_PERIB_INTB138(void){ }
 1889                             		.loc 1 361 35
 1890                             		; Note: Interrupt Handler
 1891 0000 7E AA                   		push.l	r10
 1892                             	.LCFI215:
 1893 0002 EF 0A                   		mov.L	r0, r10
 1894                             	.LCFI216:
 1895                             		.loc 1 361 1
 1896 0004 03                      		nop
 1897 0005 7E BA                   		pop	r10
 1898 0007 7F 95                   		rte
 1899                             	.LFE106:
 1901                             		.section	.text.INT_Excep_PERIB_INTB139,"ax",@progbits
 1902                             		.global	_INT_Excep_PERIB_INTB139
 1904                             	_INT_Excep_PERIB_INTB139:
 1905                             	.LFB107:
 362:../generate/inthandler.c **** 
 363:../generate/inthandler.c **** // PERIB INTB139
 364:../generate/inthandler.c **** void INT_Excep_PERIB_INTB139(void){ }
 1906                             		.loc 1 364 35
 1907                             		; Note: Interrupt Handler
 1908 0000 7E AA                   		push.l	r10
 1909                             	.LCFI217:
 1910 0002 EF 0A                   		mov.L	r0, r10
 1911                             	.LCFI218:
 1912                             		.loc 1 364 1
 1913 0004 03                      		nop
 1914 0005 7E BA                   		pop	r10
 1915 0007 7F 95                   		rte
 1916                             	.LFE107:
 1918                             		.section	.text.INT_Excep_PERIB_INTB140,"ax",@progbits
 1919                             		.global	_INT_Excep_PERIB_INTB140
 1921                             	_INT_Excep_PERIB_INTB140:
 1922                             	.LFB108:
 365:../generate/inthandler.c **** 
 366:../generate/inthandler.c **** // PERIB INTB140
 367:../generate/inthandler.c **** void INT_Excep_PERIB_INTB140(void){ }
 1923                             		.loc 1 367 35
 1924                             		; Note: Interrupt Handler
 1925 0000 7E AA                   		push.l	r10
 1926                             	.LCFI219:
 1927 0002 EF 0A                   		mov.L	r0, r10
 1928                             	.LCFI220:
 1929                             		.loc 1 367 1
 1930 0004 03                      		nop
 1931 0005 7E BA                   		pop	r10
 1932 0007 7F 95                   		rte
 1933                             	.LFE108:
 1935                             		.section	.text.INT_Excep_PERIB_INTB141,"ax",@progbits
 1936                             		.global	_INT_Excep_PERIB_INTB141
 1938                             	_INT_Excep_PERIB_INTB141:
 1939                             	.LFB109:
 368:../generate/inthandler.c **** 
 369:../generate/inthandler.c **** // PERIB INTB141
 370:../generate/inthandler.c **** void INT_Excep_PERIB_INTB141(void){ }
 1940                             		.loc 1 370 35
 1941                             		; Note: Interrupt Handler
 1942 0000 7E AA                   		push.l	r10
 1943                             	.LCFI221:
 1944 0002 EF 0A                   		mov.L	r0, r10
 1945                             	.LCFI222:
 1946                             		.loc 1 370 1
 1947 0004 03                      		nop
 1948 0005 7E BA                   		pop	r10
 1949 0007 7F 95                   		rte
 1950                             	.LFE109:
 1952                             		.section	.text.INT_Excep_PERIB_INTB142,"ax",@progbits
 1953                             		.global	_INT_Excep_PERIB_INTB142
 1955                             	_INT_Excep_PERIB_INTB142:
 1956                             	.LFB110:
 371:../generate/inthandler.c **** 
 372:../generate/inthandler.c **** // PERIB INTB142
 373:../generate/inthandler.c **** void INT_Excep_PERIB_INTB142(void){ }
 1957                             		.loc 1 373 35
 1958                             		; Note: Interrupt Handler
 1959 0000 7E AA                   		push.l	r10
 1960                             	.LCFI223:
 1961 0002 EF 0A                   		mov.L	r0, r10
 1962                             	.LCFI224:
 1963                             		.loc 1 373 1
 1964 0004 03                      		nop
 1965 0005 7E BA                   		pop	r10
 1966 0007 7F 95                   		rte
 1967                             	.LFE110:
 1969                             		.section	.text.INT_Excep_PERIB_INTB143,"ax",@progbits
 1970                             		.global	_INT_Excep_PERIB_INTB143
 1972                             	_INT_Excep_PERIB_INTB143:
 1973                             	.LFB111:
 374:../generate/inthandler.c **** 
 375:../generate/inthandler.c **** // PERIB INTB143
 376:../generate/inthandler.c **** void INT_Excep_PERIB_INTB143(void){ }
 1974                             		.loc 1 376 35
 1975                             		; Note: Interrupt Handler
 1976 0000 7E AA                   		push.l	r10
 1977                             	.LCFI225:
 1978 0002 EF 0A                   		mov.L	r0, r10
 1979                             	.LCFI226:
 1980                             		.loc 1 376 1
 1981 0004 03                      		nop
 1982 0005 7E BA                   		pop	r10
 1983 0007 7F 95                   		rte
 1984                             	.LFE111:
 1986                             		.section	.text.INT_Excep_PERIB_INTB144,"ax",@progbits
 1987                             		.global	_INT_Excep_PERIB_INTB144
 1989                             	_INT_Excep_PERIB_INTB144:
 1990                             	.LFB112:
 377:../generate/inthandler.c **** 
 378:../generate/inthandler.c **** // PERIB INTB144
 379:../generate/inthandler.c **** void INT_Excep_PERIB_INTB144(void){ }
 1991                             		.loc 1 379 35
 1992                             		; Note: Interrupt Handler
 1993 0000 7E AA                   		push.l	r10
 1994                             	.LCFI227:
 1995 0002 EF 0A                   		mov.L	r0, r10
 1996                             	.LCFI228:
 1997                             		.loc 1 379 1
 1998 0004 03                      		nop
 1999 0005 7E BA                   		pop	r10
 2000 0007 7F 95                   		rte
 2001                             	.LFE112:
 2003                             		.section	.text.INT_Excep_PERIB_INTB145,"ax",@progbits
 2004                             		.global	_INT_Excep_PERIB_INTB145
 2006                             	_INT_Excep_PERIB_INTB145:
 2007                             	.LFB113:
 380:../generate/inthandler.c **** 
 381:../generate/inthandler.c **** // PERIB INTB145
 382:../generate/inthandler.c **** void INT_Excep_PERIB_INTB145(void){ }
 2008                             		.loc 1 382 35
 2009                             		; Note: Interrupt Handler
 2010 0000 7E AA                   		push.l	r10
 2011                             	.LCFI229:
 2012 0002 EF 0A                   		mov.L	r0, r10
 2013                             	.LCFI230:
 2014                             		.loc 1 382 1
 2015 0004 03                      		nop
 2016 0005 7E BA                   		pop	r10
 2017 0007 7F 95                   		rte
 2018                             	.LFE113:
 2020                             		.section	.text.INT_Excep_PERIB_INTB146,"ax",@progbits
 2021                             		.global	_INT_Excep_PERIB_INTB146
 2023                             	_INT_Excep_PERIB_INTB146:
 2024                             	.LFB114:
 383:../generate/inthandler.c **** 
 384:../generate/inthandler.c **** // PERIB INTB146
 385:../generate/inthandler.c **** void INT_Excep_PERIB_INTB146(void){ }
 2025                             		.loc 1 385 35
 2026                             		; Note: Interrupt Handler
 2027 0000 7E AA                   		push.l	r10
 2028                             	.LCFI231:
 2029 0002 EF 0A                   		mov.L	r0, r10
 2030                             	.LCFI232:
 2031                             		.loc 1 385 1
 2032 0004 03                      		nop
 2033 0005 7E BA                   		pop	r10
 2034 0007 7F 95                   		rte
 2035                             	.LFE114:
 2037                             		.section	.text.INT_Excep_PERIB_INTB147,"ax",@progbits
 2038                             		.global	_INT_Excep_PERIB_INTB147
 2040                             	_INT_Excep_PERIB_INTB147:
 2041                             	.LFB115:
 386:../generate/inthandler.c **** 
 387:../generate/inthandler.c **** // PERIB INTB147
 388:../generate/inthandler.c **** void INT_Excep_PERIB_INTB147(void){ }
 2042                             		.loc 1 388 35
 2043                             		; Note: Interrupt Handler
 2044 0000 7E AA                   		push.l	r10
 2045                             	.LCFI233:
 2046 0002 EF 0A                   		mov.L	r0, r10
 2047                             	.LCFI234:
 2048                             		.loc 1 388 1
 2049 0004 03                      		nop
 2050 0005 7E BA                   		pop	r10
 2051 0007 7F 95                   		rte
 2052                             	.LFE115:
 2054                             		.section	.text.INT_Excep_PERIB_INTB148,"ax",@progbits
 2055                             		.global	_INT_Excep_PERIB_INTB148
 2057                             	_INT_Excep_PERIB_INTB148:
 2058                             	.LFB116:
 389:../generate/inthandler.c **** 
 390:../generate/inthandler.c **** // PERIB INTB148
 391:../generate/inthandler.c **** void INT_Excep_PERIB_INTB148(void){ }
 2059                             		.loc 1 391 35
 2060                             		; Note: Interrupt Handler
 2061 0000 7E AA                   		push.l	r10
 2062                             	.LCFI235:
 2063 0002 EF 0A                   		mov.L	r0, r10
 2064                             	.LCFI236:
 2065                             		.loc 1 391 1
 2066 0004 03                      		nop
 2067 0005 7E BA                   		pop	r10
 2068 0007 7F 95                   		rte
 2069                             	.LFE116:
 2071                             		.section	.text.INT_Excep_PERIB_INTB149,"ax",@progbits
 2072                             		.global	_INT_Excep_PERIB_INTB149
 2074                             	_INT_Excep_PERIB_INTB149:
 2075                             	.LFB117:
 392:../generate/inthandler.c **** 
 393:../generate/inthandler.c **** // PERIB INTB149
 394:../generate/inthandler.c **** void INT_Excep_PERIB_INTB149(void){ }
 2076                             		.loc 1 394 35
 2077                             		; Note: Interrupt Handler
 2078 0000 7E AA                   		push.l	r10
 2079                             	.LCFI237:
 2080 0002 EF 0A                   		mov.L	r0, r10
 2081                             	.LCFI238:
 2082                             		.loc 1 394 1
 2083 0004 03                      		nop
 2084 0005 7E BA                   		pop	r10
 2085 0007 7F 95                   		rte
 2086                             	.LFE117:
 2088                             		.section	.text.INT_Excep_PERIB_INTB150,"ax",@progbits
 2089                             		.global	_INT_Excep_PERIB_INTB150
 2091                             	_INT_Excep_PERIB_INTB150:
 2092                             	.LFB118:
 395:../generate/inthandler.c **** 
 396:../generate/inthandler.c **** // PERIB INTB150
 397:../generate/inthandler.c **** void INT_Excep_PERIB_INTB150(void){ }
 2093                             		.loc 1 397 35
 2094                             		; Note: Interrupt Handler
 2095 0000 7E AA                   		push.l	r10
 2096                             	.LCFI239:
 2097 0002 EF 0A                   		mov.L	r0, r10
 2098                             	.LCFI240:
 2099                             		.loc 1 397 1
 2100 0004 03                      		nop
 2101 0005 7E BA                   		pop	r10
 2102 0007 7F 95                   		rte
 2103                             	.LFE118:
 2105                             		.section	.text.INT_Excep_PERIB_INTB151,"ax",@progbits
 2106                             		.global	_INT_Excep_PERIB_INTB151
 2108                             	_INT_Excep_PERIB_INTB151:
 2109                             	.LFB119:
 398:../generate/inthandler.c **** 
 399:../generate/inthandler.c **** // PERIB INTB151
 400:../generate/inthandler.c **** void INT_Excep_PERIB_INTB151(void){ }
 2110                             		.loc 1 400 35
 2111                             		; Note: Interrupt Handler
 2112 0000 7E AA                   		push.l	r10
 2113                             	.LCFI241:
 2114 0002 EF 0A                   		mov.L	r0, r10
 2115                             	.LCFI242:
 2116                             		.loc 1 400 1
 2117 0004 03                      		nop
 2118 0005 7E BA                   		pop	r10
 2119 0007 7F 95                   		rte
 2120                             	.LFE119:
 2122                             		.section	.text.INT_Excep_PERIB_INTB152,"ax",@progbits
 2123                             		.global	_INT_Excep_PERIB_INTB152
 2125                             	_INT_Excep_PERIB_INTB152:
 2126                             	.LFB120:
 401:../generate/inthandler.c **** 
 402:../generate/inthandler.c **** // PERIB INTB152
 403:../generate/inthandler.c **** void INT_Excep_PERIB_INTB152(void){ }
 2127                             		.loc 1 403 35
 2128                             		; Note: Interrupt Handler
 2129 0000 7E AA                   		push.l	r10
 2130                             	.LCFI243:
 2131 0002 EF 0A                   		mov.L	r0, r10
 2132                             	.LCFI244:
 2133                             		.loc 1 403 1
 2134 0004 03                      		nop
 2135 0005 7E BA                   		pop	r10
 2136 0007 7F 95                   		rte
 2137                             	.LFE120:
 2139                             		.section	.text.INT_Excep_PERIB_INTB153,"ax",@progbits
 2140                             		.global	_INT_Excep_PERIB_INTB153
 2142                             	_INT_Excep_PERIB_INTB153:
 2143                             	.LFB121:
 404:../generate/inthandler.c **** 
 405:../generate/inthandler.c **** // PERIB INTB153
 406:../generate/inthandler.c **** void INT_Excep_PERIB_INTB153(void){ }
 2144                             		.loc 1 406 35
 2145                             		; Note: Interrupt Handler
 2146 0000 7E AA                   		push.l	r10
 2147                             	.LCFI245:
 2148 0002 EF 0A                   		mov.L	r0, r10
 2149                             	.LCFI246:
 2150                             		.loc 1 406 1
 2151 0004 03                      		nop
 2152 0005 7E BA                   		pop	r10
 2153 0007 7F 95                   		rte
 2154                             	.LFE121:
 2156                             		.section	.text.INT_Excep_PERIB_INTB154,"ax",@progbits
 2157                             		.global	_INT_Excep_PERIB_INTB154
 2159                             	_INT_Excep_PERIB_INTB154:
 2160                             	.LFB122:
 407:../generate/inthandler.c **** 
 408:../generate/inthandler.c **** // PERIB INTB154
 409:../generate/inthandler.c **** void INT_Excep_PERIB_INTB154(void){ }
 2161                             		.loc 1 409 35
 2162                             		; Note: Interrupt Handler
 2163 0000 7E AA                   		push.l	r10
 2164                             	.LCFI247:
 2165 0002 EF 0A                   		mov.L	r0, r10
 2166                             	.LCFI248:
 2167                             		.loc 1 409 1
 2168 0004 03                      		nop
 2169 0005 7E BA                   		pop	r10
 2170 0007 7F 95                   		rte
 2171                             	.LFE122:
 2173                             		.section	.text.INT_Excep_PERIB_INTB155,"ax",@progbits
 2174                             		.global	_INT_Excep_PERIB_INTB155
 2176                             	_INT_Excep_PERIB_INTB155:
 2177                             	.LFB123:
 410:../generate/inthandler.c **** 
 411:../generate/inthandler.c **** // PERIB INTB155
 412:../generate/inthandler.c **** void INT_Excep_PERIB_INTB155(void){ }
 2178                             		.loc 1 412 35
 2179                             		; Note: Interrupt Handler
 2180 0000 7E AA                   		push.l	r10
 2181                             	.LCFI249:
 2182 0002 EF 0A                   		mov.L	r0, r10
 2183                             	.LCFI250:
 2184                             		.loc 1 412 1
 2185 0004 03                      		nop
 2186 0005 7E BA                   		pop	r10
 2187 0007 7F 95                   		rte
 2188                             	.LFE123:
 2190                             		.section	.text.INT_Excep_PERIB_INTB156,"ax",@progbits
 2191                             		.global	_INT_Excep_PERIB_INTB156
 2193                             	_INT_Excep_PERIB_INTB156:
 2194                             	.LFB124:
 413:../generate/inthandler.c **** 
 414:../generate/inthandler.c **** // PERIB INTB156
 415:../generate/inthandler.c **** void INT_Excep_PERIB_INTB156(void){ }
 2195                             		.loc 1 415 35
 2196                             		; Note: Interrupt Handler
 2197 0000 7E AA                   		push.l	r10
 2198                             	.LCFI251:
 2199 0002 EF 0A                   		mov.L	r0, r10
 2200                             	.LCFI252:
 2201                             		.loc 1 415 1
 2202 0004 03                      		nop
 2203 0005 7E BA                   		pop	r10
 2204 0007 7F 95                   		rte
 2205                             	.LFE124:
 2207                             		.section	.text.INT_Excep_PERIB_INTB157,"ax",@progbits
 2208                             		.global	_INT_Excep_PERIB_INTB157
 2210                             	_INT_Excep_PERIB_INTB157:
 2211                             	.LFB125:
 416:../generate/inthandler.c **** 
 417:../generate/inthandler.c **** // PERIB INTB157
 418:../generate/inthandler.c **** void INT_Excep_PERIB_INTB157(void){ }
 2212                             		.loc 1 418 35
 2213                             		; Note: Interrupt Handler
 2214 0000 7E AA                   		push.l	r10
 2215                             	.LCFI253:
 2216 0002 EF 0A                   		mov.L	r0, r10
 2217                             	.LCFI254:
 2218                             		.loc 1 418 1
 2219 0004 03                      		nop
 2220 0005 7E BA                   		pop	r10
 2221 0007 7F 95                   		rte
 2222                             	.LFE125:
 2224                             		.section	.text.INT_Excep_PERIB_INTB158,"ax",@progbits
 2225                             		.global	_INT_Excep_PERIB_INTB158
 2227                             	_INT_Excep_PERIB_INTB158:
 2228                             	.LFB126:
 419:../generate/inthandler.c **** 
 420:../generate/inthandler.c **** // PERIB INTB158
 421:../generate/inthandler.c **** void INT_Excep_PERIB_INTB158(void){ }
 2229                             		.loc 1 421 35
 2230                             		; Note: Interrupt Handler
 2231 0000 7E AA                   		push.l	r10
 2232                             	.LCFI255:
 2233 0002 EF 0A                   		mov.L	r0, r10
 2234                             	.LCFI256:
 2235                             		.loc 1 421 1
 2236 0004 03                      		nop
 2237 0005 7E BA                   		pop	r10
 2238 0007 7F 95                   		rte
 2239                             	.LFE126:
 2241                             		.section	.text.INT_Excep_PERIB_INTB159,"ax",@progbits
 2242                             		.global	_INT_Excep_PERIB_INTB159
 2244                             	_INT_Excep_PERIB_INTB159:
 2245                             	.LFB127:
 422:../generate/inthandler.c **** 
 423:../generate/inthandler.c **** // PERIB INTB159
 424:../generate/inthandler.c **** void INT_Excep_PERIB_INTB159(void){ }
 2246                             		.loc 1 424 35
 2247                             		; Note: Interrupt Handler
 2248 0000 7E AA                   		push.l	r10
 2249                             	.LCFI257:
 2250 0002 EF 0A                   		mov.L	r0, r10
 2251                             	.LCFI258:
 2252                             		.loc 1 424 1
 2253 0004 03                      		nop
 2254 0005 7E BA                   		pop	r10
 2255 0007 7F 95                   		rte
 2256                             	.LFE127:
 2258                             		.section	.text.INT_Excep_PERIB_INTB160,"ax",@progbits
 2259                             		.global	_INT_Excep_PERIB_INTB160
 2261                             	_INT_Excep_PERIB_INTB160:
 2262                             	.LFB128:
 425:../generate/inthandler.c **** 
 426:../generate/inthandler.c **** // PERIB INTB160
 427:../generate/inthandler.c **** void INT_Excep_PERIB_INTB160(void){ }
 2263                             		.loc 1 427 35
 2264                             		; Note: Interrupt Handler
 2265 0000 7E AA                   		push.l	r10
 2266                             	.LCFI259:
 2267 0002 EF 0A                   		mov.L	r0, r10
 2268                             	.LCFI260:
 2269                             		.loc 1 427 1
 2270 0004 03                      		nop
 2271 0005 7E BA                   		pop	r10
 2272 0007 7F 95                   		rte
 2273                             	.LFE128:
 2275                             		.section	.text.INT_Excep_PERIB_INTB161,"ax",@progbits
 2276                             		.global	_INT_Excep_PERIB_INTB161
 2278                             	_INT_Excep_PERIB_INTB161:
 2279                             	.LFB129:
 428:../generate/inthandler.c **** 
 429:../generate/inthandler.c **** // PERIB INTB161
 430:../generate/inthandler.c **** void INT_Excep_PERIB_INTB161(void){ }
 2280                             		.loc 1 430 35
 2281                             		; Note: Interrupt Handler
 2282 0000 7E AA                   		push.l	r10
 2283                             	.LCFI261:
 2284 0002 EF 0A                   		mov.L	r0, r10
 2285                             	.LCFI262:
 2286                             		.loc 1 430 1
 2287 0004 03                      		nop
 2288 0005 7E BA                   		pop	r10
 2289 0007 7F 95                   		rte
 2290                             	.LFE129:
 2292                             		.section	.text.INT_Excep_PERIB_INTB162,"ax",@progbits
 2293                             		.global	_INT_Excep_PERIB_INTB162
 2295                             	_INT_Excep_PERIB_INTB162:
 2296                             	.LFB130:
 431:../generate/inthandler.c **** 
 432:../generate/inthandler.c **** // PERIB INTB162
 433:../generate/inthandler.c **** void INT_Excep_PERIB_INTB162(void){ }
 2297                             		.loc 1 433 35
 2298                             		; Note: Interrupt Handler
 2299 0000 7E AA                   		push.l	r10
 2300                             	.LCFI263:
 2301 0002 EF 0A                   		mov.L	r0, r10
 2302                             	.LCFI264:
 2303                             		.loc 1 433 1
 2304 0004 03                      		nop
 2305 0005 7E BA                   		pop	r10
 2306 0007 7F 95                   		rte
 2307                             	.LFE130:
 2309                             		.section	.text.INT_Excep_PERIB_INTB163,"ax",@progbits
 2310                             		.global	_INT_Excep_PERIB_INTB163
 2312                             	_INT_Excep_PERIB_INTB163:
 2313                             	.LFB131:
 434:../generate/inthandler.c **** 
 435:../generate/inthandler.c **** // PERIB INTB163
 436:../generate/inthandler.c **** void INT_Excep_PERIB_INTB163(void){ }
 2314                             		.loc 1 436 35
 2315                             		; Note: Interrupt Handler
 2316 0000 7E AA                   		push.l	r10
 2317                             	.LCFI265:
 2318 0002 EF 0A                   		mov.L	r0, r10
 2319                             	.LCFI266:
 2320                             		.loc 1 436 1
 2321 0004 03                      		nop
 2322 0005 7E BA                   		pop	r10
 2323 0007 7F 95                   		rte
 2324                             	.LFE131:
 2326                             		.section	.text.INT_Excep_PERIB_INTB164,"ax",@progbits
 2327                             		.global	_INT_Excep_PERIB_INTB164
 2329                             	_INT_Excep_PERIB_INTB164:
 2330                             	.LFB132:
 437:../generate/inthandler.c **** 
 438:../generate/inthandler.c **** // PERIB INTB164
 439:../generate/inthandler.c **** void INT_Excep_PERIB_INTB164(void){ }
 2331                             		.loc 1 439 35
 2332                             		; Note: Interrupt Handler
 2333 0000 7E AA                   		push.l	r10
 2334                             	.LCFI267:
 2335 0002 EF 0A                   		mov.L	r0, r10
 2336                             	.LCFI268:
 2337                             		.loc 1 439 1
 2338 0004 03                      		nop
 2339 0005 7E BA                   		pop	r10
 2340 0007 7F 95                   		rte
 2341                             	.LFE132:
 2343                             		.section	.text.INT_Excep_PERIB_INTB165,"ax",@progbits
 2344                             		.global	_INT_Excep_PERIB_INTB165
 2346                             	_INT_Excep_PERIB_INTB165:
 2347                             	.LFB133:
 440:../generate/inthandler.c **** 
 441:../generate/inthandler.c **** // PERIB INTB165
 442:../generate/inthandler.c **** void INT_Excep_PERIB_INTB165(void){ }
 2348                             		.loc 1 442 35
 2349                             		; Note: Interrupt Handler
 2350 0000 7E AA                   		push.l	r10
 2351                             	.LCFI269:
 2352 0002 EF 0A                   		mov.L	r0, r10
 2353                             	.LCFI270:
 2354                             		.loc 1 442 1
 2355 0004 03                      		nop
 2356 0005 7E BA                   		pop	r10
 2357 0007 7F 95                   		rte
 2358                             	.LFE133:
 2360                             		.section	.text.INT_Excep_PERIB_INTB166,"ax",@progbits
 2361                             		.global	_INT_Excep_PERIB_INTB166
 2363                             	_INT_Excep_PERIB_INTB166:
 2364                             	.LFB134:
 443:../generate/inthandler.c **** 
 444:../generate/inthandler.c **** // PERIB INTB166
 445:../generate/inthandler.c **** void INT_Excep_PERIB_INTB166(void){ }
 2365                             		.loc 1 445 35
 2366                             		; Note: Interrupt Handler
 2367 0000 7E AA                   		push.l	r10
 2368                             	.LCFI271:
 2369 0002 EF 0A                   		mov.L	r0, r10
 2370                             	.LCFI272:
 2371                             		.loc 1 445 1
 2372 0004 03                      		nop
 2373 0005 7E BA                   		pop	r10
 2374 0007 7F 95                   		rte
 2375                             	.LFE134:
 2377                             		.section	.text.INT_Excep_PERIB_INTB167,"ax",@progbits
 2378                             		.global	_INT_Excep_PERIB_INTB167
 2380                             	_INT_Excep_PERIB_INTB167:
 2381                             	.LFB135:
 446:../generate/inthandler.c **** 
 447:../generate/inthandler.c **** // PERIB INTB167
 448:../generate/inthandler.c **** void INT_Excep_PERIB_INTB167(void){ }
 2382                             		.loc 1 448 35
 2383                             		; Note: Interrupt Handler
 2384 0000 7E AA                   		push.l	r10
 2385                             	.LCFI273:
 2386 0002 EF 0A                   		mov.L	r0, r10
 2387                             	.LCFI274:
 2388                             		.loc 1 448 1
 2389 0004 03                      		nop
 2390 0005 7E BA                   		pop	r10
 2391 0007 7F 95                   		rte
 2392                             	.LFE135:
 2394                             		.section	.text.INT_Excep_PERIB_INTB168,"ax",@progbits
 2395                             		.global	_INT_Excep_PERIB_INTB168
 2397                             	_INT_Excep_PERIB_INTB168:
 2398                             	.LFB136:
 449:../generate/inthandler.c **** 
 450:../generate/inthandler.c **** // PERIB INTB168
 451:../generate/inthandler.c **** void INT_Excep_PERIB_INTB168(void){ }
 2399                             		.loc 1 451 35
 2400                             		; Note: Interrupt Handler
 2401 0000 7E AA                   		push.l	r10
 2402                             	.LCFI275:
 2403 0002 EF 0A                   		mov.L	r0, r10
 2404                             	.LCFI276:
 2405                             		.loc 1 451 1
 2406 0004 03                      		nop
 2407 0005 7E BA                   		pop	r10
 2408 0007 7F 95                   		rte
 2409                             	.LFE136:
 2411                             		.section	.text.INT_Excep_PERIB_INTB169,"ax",@progbits
 2412                             		.global	_INT_Excep_PERIB_INTB169
 2414                             	_INT_Excep_PERIB_INTB169:
 2415                             	.LFB137:
 452:../generate/inthandler.c **** 
 453:../generate/inthandler.c **** // PERIB INTB169
 454:../generate/inthandler.c **** void INT_Excep_PERIB_INTB169(void){ }
 2416                             		.loc 1 454 35
 2417                             		; Note: Interrupt Handler
 2418 0000 7E AA                   		push.l	r10
 2419                             	.LCFI277:
 2420 0002 EF 0A                   		mov.L	r0, r10
 2421                             	.LCFI278:
 2422                             		.loc 1 454 1
 2423 0004 03                      		nop
 2424 0005 7E BA                   		pop	r10
 2425 0007 7F 95                   		rte
 2426                             	.LFE137:
 2428                             		.section	.text.INT_Excep_PERIB_INTB170,"ax",@progbits
 2429                             		.global	_INT_Excep_PERIB_INTB170
 2431                             	_INT_Excep_PERIB_INTB170:
 2432                             	.LFB138:
 455:../generate/inthandler.c **** 
 456:../generate/inthandler.c **** // PERIB INTB170
 457:../generate/inthandler.c **** void INT_Excep_PERIB_INTB170(void){ }
 2433                             		.loc 1 457 35
 2434                             		; Note: Interrupt Handler
 2435 0000 7E AA                   		push.l	r10
 2436                             	.LCFI279:
 2437 0002 EF 0A                   		mov.L	r0, r10
 2438                             	.LCFI280:
 2439                             		.loc 1 457 1
 2440 0004 03                      		nop
 2441 0005 7E BA                   		pop	r10
 2442 0007 7F 95                   		rte
 2443                             	.LFE138:
 2445                             		.section	.text.INT_Excep_PERIB_INTB171,"ax",@progbits
 2446                             		.global	_INT_Excep_PERIB_INTB171
 2448                             	_INT_Excep_PERIB_INTB171:
 2449                             	.LFB139:
 458:../generate/inthandler.c **** 
 459:../generate/inthandler.c **** // PERIB INTB171
 460:../generate/inthandler.c **** void INT_Excep_PERIB_INTB171(void){ }
 2450                             		.loc 1 460 35
 2451                             		; Note: Interrupt Handler
 2452 0000 7E AA                   		push.l	r10
 2453                             	.LCFI281:
 2454 0002 EF 0A                   		mov.L	r0, r10
 2455                             	.LCFI282:
 2456                             		.loc 1 460 1
 2457 0004 03                      		nop
 2458 0005 7E BA                   		pop	r10
 2459 0007 7F 95                   		rte
 2460                             	.LFE139:
 2462                             		.section	.text.INT_Excep_PERIB_INTB172,"ax",@progbits
 2463                             		.global	_INT_Excep_PERIB_INTB172
 2465                             	_INT_Excep_PERIB_INTB172:
 2466                             	.LFB140:
 461:../generate/inthandler.c **** 
 462:../generate/inthandler.c **** // PERIB INTB172
 463:../generate/inthandler.c **** void INT_Excep_PERIB_INTB172(void){ }
 2467                             		.loc 1 463 35
 2468                             		; Note: Interrupt Handler
 2469 0000 7E AA                   		push.l	r10
 2470                             	.LCFI283:
 2471 0002 EF 0A                   		mov.L	r0, r10
 2472                             	.LCFI284:
 2473                             		.loc 1 463 1
 2474 0004 03                      		nop
 2475 0005 7E BA                   		pop	r10
 2476 0007 7F 95                   		rte
 2477                             	.LFE140:
 2479                             		.section	.text.INT_Excep_PERIB_INTB173,"ax",@progbits
 2480                             		.global	_INT_Excep_PERIB_INTB173
 2482                             	_INT_Excep_PERIB_INTB173:
 2483                             	.LFB141:
 464:../generate/inthandler.c **** 
 465:../generate/inthandler.c **** // PERIB INTB173
 466:../generate/inthandler.c **** void INT_Excep_PERIB_INTB173(void){ }
 2484                             		.loc 1 466 35
 2485                             		; Note: Interrupt Handler
 2486 0000 7E AA                   		push.l	r10
 2487                             	.LCFI285:
 2488 0002 EF 0A                   		mov.L	r0, r10
 2489                             	.LCFI286:
 2490                             		.loc 1 466 1
 2491 0004 03                      		nop
 2492 0005 7E BA                   		pop	r10
 2493 0007 7F 95                   		rte
 2494                             	.LFE141:
 2496                             		.section	.text.INT_Excep_PERIB_INTB174,"ax",@progbits
 2497                             		.global	_INT_Excep_PERIB_INTB174
 2499                             	_INT_Excep_PERIB_INTB174:
 2500                             	.LFB142:
 467:../generate/inthandler.c **** 
 468:../generate/inthandler.c **** // PERIB INTB174
 469:../generate/inthandler.c **** void INT_Excep_PERIB_INTB174(void){ }
 2501                             		.loc 1 469 35
 2502                             		; Note: Interrupt Handler
 2503 0000 7E AA                   		push.l	r10
 2504                             	.LCFI287:
 2505 0002 EF 0A                   		mov.L	r0, r10
 2506                             	.LCFI288:
 2507                             		.loc 1 469 1
 2508 0004 03                      		nop
 2509 0005 7E BA                   		pop	r10
 2510 0007 7F 95                   		rte
 2511                             	.LFE142:
 2513                             		.section	.text.INT_Excep_PERIB_INTB175,"ax",@progbits
 2514                             		.global	_INT_Excep_PERIB_INTB175
 2516                             	_INT_Excep_PERIB_INTB175:
 2517                             	.LFB143:
 470:../generate/inthandler.c **** 
 471:../generate/inthandler.c **** // PERIB INTB175
 472:../generate/inthandler.c **** void INT_Excep_PERIB_INTB175(void){ }
 2518                             		.loc 1 472 35
 2519                             		; Note: Interrupt Handler
 2520 0000 7E AA                   		push.l	r10
 2521                             	.LCFI289:
 2522 0002 EF 0A                   		mov.L	r0, r10
 2523                             	.LCFI290:
 2524                             		.loc 1 472 1
 2525 0004 03                      		nop
 2526 0005 7E BA                   		pop	r10
 2527 0007 7F 95                   		rte
 2528                             	.LFE143:
 2530                             		.section	.text.INT_Excep_PERIB_INTB176,"ax",@progbits
 2531                             		.global	_INT_Excep_PERIB_INTB176
 2533                             	_INT_Excep_PERIB_INTB176:
 2534                             	.LFB144:
 473:../generate/inthandler.c **** 
 474:../generate/inthandler.c **** // PERIB INTB176
 475:../generate/inthandler.c **** void INT_Excep_PERIB_INTB176(void){ }
 2535                             		.loc 1 475 35
 2536                             		; Note: Interrupt Handler
 2537 0000 7E AA                   		push.l	r10
 2538                             	.LCFI291:
 2539 0002 EF 0A                   		mov.L	r0, r10
 2540                             	.LCFI292:
 2541                             		.loc 1 475 1
 2542 0004 03                      		nop
 2543 0005 7E BA                   		pop	r10
 2544 0007 7F 95                   		rte
 2545                             	.LFE144:
 2547                             		.section	.text.INT_Excep_PERIB_INTB177,"ax",@progbits
 2548                             		.global	_INT_Excep_PERIB_INTB177
 2550                             	_INT_Excep_PERIB_INTB177:
 2551                             	.LFB145:
 476:../generate/inthandler.c **** 
 477:../generate/inthandler.c **** // PERIB INTB177
 478:../generate/inthandler.c **** void INT_Excep_PERIB_INTB177(void){ }
 2552                             		.loc 1 478 35
 2553                             		; Note: Interrupt Handler
 2554 0000 7E AA                   		push.l	r10
 2555                             	.LCFI293:
 2556 0002 EF 0A                   		mov.L	r0, r10
 2557                             	.LCFI294:
 2558                             		.loc 1 478 1
 2559 0004 03                      		nop
 2560 0005 7E BA                   		pop	r10
 2561 0007 7F 95                   		rte
 2562                             	.LFE145:
 2564                             		.section	.text.INT_Excep_PERIB_INTB178,"ax",@progbits
 2565                             		.global	_INT_Excep_PERIB_INTB178
 2567                             	_INT_Excep_PERIB_INTB178:
 2568                             	.LFB146:
 479:../generate/inthandler.c **** 
 480:../generate/inthandler.c **** // PERIB INTB178
 481:../generate/inthandler.c **** void INT_Excep_PERIB_INTB178(void){ }
 2569                             		.loc 1 481 35
 2570                             		; Note: Interrupt Handler
 2571 0000 7E AA                   		push.l	r10
 2572                             	.LCFI295:
 2573 0002 EF 0A                   		mov.L	r0, r10
 2574                             	.LCFI296:
 2575                             		.loc 1 481 1
 2576 0004 03                      		nop
 2577 0005 7E BA                   		pop	r10
 2578 0007 7F 95                   		rte
 2579                             	.LFE146:
 2581                             		.section	.text.INT_Excep_PERIB_INTB179,"ax",@progbits
 2582                             		.global	_INT_Excep_PERIB_INTB179
 2584                             	_INT_Excep_PERIB_INTB179:
 2585                             	.LFB147:
 482:../generate/inthandler.c **** 
 483:../generate/inthandler.c **** // PERIB INTB179
 484:../generate/inthandler.c **** void INT_Excep_PERIB_INTB179(void){ }
 2586                             		.loc 1 484 35
 2587                             		; Note: Interrupt Handler
 2588 0000 7E AA                   		push.l	r10
 2589                             	.LCFI297:
 2590 0002 EF 0A                   		mov.L	r0, r10
 2591                             	.LCFI298:
 2592                             		.loc 1 484 1
 2593 0004 03                      		nop
 2594 0005 7E BA                   		pop	r10
 2595 0007 7F 95                   		rte
 2596                             	.LFE147:
 2598                             		.section	.text.INT_Excep_PERIB_INTB180,"ax",@progbits
 2599                             		.global	_INT_Excep_PERIB_INTB180
 2601                             	_INT_Excep_PERIB_INTB180:
 2602                             	.LFB148:
 485:../generate/inthandler.c **** 
 486:../generate/inthandler.c **** // PERIB INTB180
 487:../generate/inthandler.c **** void INT_Excep_PERIB_INTB180(void){ }
 2603                             		.loc 1 487 35
 2604                             		; Note: Interrupt Handler
 2605 0000 7E AA                   		push.l	r10
 2606                             	.LCFI299:
 2607 0002 EF 0A                   		mov.L	r0, r10
 2608                             	.LCFI300:
 2609                             		.loc 1 487 1
 2610 0004 03                      		nop
 2611 0005 7E BA                   		pop	r10
 2612 0007 7F 95                   		rte
 2613                             	.LFE148:
 2615                             		.section	.text.INT_Excep_PERIB_INTB181,"ax",@progbits
 2616                             		.global	_INT_Excep_PERIB_INTB181
 2618                             	_INT_Excep_PERIB_INTB181:
 2619                             	.LFB149:
 488:../generate/inthandler.c **** 
 489:../generate/inthandler.c **** // PERIB INTB181
 490:../generate/inthandler.c **** void INT_Excep_PERIB_INTB181(void){ }
 2620                             		.loc 1 490 35
 2621                             		; Note: Interrupt Handler
 2622 0000 7E AA                   		push.l	r10
 2623                             	.LCFI301:
 2624 0002 EF 0A                   		mov.L	r0, r10
 2625                             	.LCFI302:
 2626                             		.loc 1 490 1
 2627 0004 03                      		nop
 2628 0005 7E BA                   		pop	r10
 2629 0007 7F 95                   		rte
 2630                             	.LFE149:
 2632                             		.section	.text.INT_Excep_PERIB_INTB182,"ax",@progbits
 2633                             		.global	_INT_Excep_PERIB_INTB182
 2635                             	_INT_Excep_PERIB_INTB182:
 2636                             	.LFB150:
 491:../generate/inthandler.c **** 
 492:../generate/inthandler.c **** // PERIB INTB182
 493:../generate/inthandler.c **** void INT_Excep_PERIB_INTB182(void){ }
 2637                             		.loc 1 493 35
 2638                             		; Note: Interrupt Handler
 2639 0000 7E AA                   		push.l	r10
 2640                             	.LCFI303:
 2641 0002 EF 0A                   		mov.L	r0, r10
 2642                             	.LCFI304:
 2643                             		.loc 1 493 1
 2644 0004 03                      		nop
 2645 0005 7E BA                   		pop	r10
 2646 0007 7F 95                   		rte
 2647                             	.LFE150:
 2649                             		.section	.text.INT_Excep_PERIB_INTB183,"ax",@progbits
 2650                             		.global	_INT_Excep_PERIB_INTB183
 2652                             	_INT_Excep_PERIB_INTB183:
 2653                             	.LFB151:
 494:../generate/inthandler.c **** 
 495:../generate/inthandler.c **** // PERIB INTB183
 496:../generate/inthandler.c **** void INT_Excep_PERIB_INTB183(void){ }
 2654                             		.loc 1 496 35
 2655                             		; Note: Interrupt Handler
 2656 0000 7E AA                   		push.l	r10
 2657                             	.LCFI305:
 2658 0002 EF 0A                   		mov.L	r0, r10
 2659                             	.LCFI306:
 2660                             		.loc 1 496 1
 2661 0004 03                      		nop
 2662 0005 7E BA                   		pop	r10
 2663 0007 7F 95                   		rte
 2664                             	.LFE151:
 2666                             		.section	.text.INT_Excep_PERIB_INTB184,"ax",@progbits
 2667                             		.global	_INT_Excep_PERIB_INTB184
 2669                             	_INT_Excep_PERIB_INTB184:
 2670                             	.LFB152:
 497:../generate/inthandler.c **** 
 498:../generate/inthandler.c **** // PERIB INTB184
 499:../generate/inthandler.c **** void INT_Excep_PERIB_INTB184(void){ }
 2671                             		.loc 1 499 35
 2672                             		; Note: Interrupt Handler
 2673 0000 7E AA                   		push.l	r10
 2674                             	.LCFI307:
 2675 0002 EF 0A                   		mov.L	r0, r10
 2676                             	.LCFI308:
 2677                             		.loc 1 499 1
 2678 0004 03                      		nop
 2679 0005 7E BA                   		pop	r10
 2680 0007 7F 95                   		rte
 2681                             	.LFE152:
 2683                             		.section	.text.INT_Excep_PERIB_INTB185,"ax",@progbits
 2684                             		.global	_INT_Excep_PERIB_INTB185
 2686                             	_INT_Excep_PERIB_INTB185:
 2687                             	.LFB153:
 500:../generate/inthandler.c **** 
 501:../generate/inthandler.c **** // PERIB INTB185
 502:../generate/inthandler.c **** void INT_Excep_PERIB_INTB185(void){ }
 2688                             		.loc 1 502 35
 2689                             		; Note: Interrupt Handler
 2690 0000 7E AA                   		push.l	r10
 2691                             	.LCFI309:
 2692 0002 EF 0A                   		mov.L	r0, r10
 2693                             	.LCFI310:
 2694                             		.loc 1 502 1
 2695 0004 03                      		nop
 2696 0005 7E BA                   		pop	r10
 2697 0007 7F 95                   		rte
 2698                             	.LFE153:
 2700                             		.section	.text.INT_Excep_PERIB_INTB186,"ax",@progbits
 2701                             		.global	_INT_Excep_PERIB_INTB186
 2703                             	_INT_Excep_PERIB_INTB186:
 2704                             	.LFB154:
 503:../generate/inthandler.c **** 
 504:../generate/inthandler.c **** // PERIB INTB186
 505:../generate/inthandler.c **** void INT_Excep_PERIB_INTB186(void){ }
 2705                             		.loc 1 505 35
 2706                             		; Note: Interrupt Handler
 2707 0000 7E AA                   		push.l	r10
 2708                             	.LCFI311:
 2709 0002 EF 0A                   		mov.L	r0, r10
 2710                             	.LCFI312:
 2711                             		.loc 1 505 1
 2712 0004 03                      		nop
 2713 0005 7E BA                   		pop	r10
 2714 0007 7F 95                   		rte
 2715                             	.LFE154:
 2717                             		.section	.text.INT_Excep_PERIB_INTB187,"ax",@progbits
 2718                             		.global	_INT_Excep_PERIB_INTB187
 2720                             	_INT_Excep_PERIB_INTB187:
 2721                             	.LFB155:
 506:../generate/inthandler.c **** 
 507:../generate/inthandler.c **** // PERIB INTB187
 508:../generate/inthandler.c **** void INT_Excep_PERIB_INTB187(void){ }
 2722                             		.loc 1 508 35
 2723                             		; Note: Interrupt Handler
 2724 0000 7E AA                   		push.l	r10
 2725                             	.LCFI313:
 2726 0002 EF 0A                   		mov.L	r0, r10
 2727                             	.LCFI314:
 2728                             		.loc 1 508 1
 2729 0004 03                      		nop
 2730 0005 7E BA                   		pop	r10
 2731 0007 7F 95                   		rte
 2732                             	.LFE155:
 2734                             		.section	.text.INT_Excep_PERIB_INTB188,"ax",@progbits
 2735                             		.global	_INT_Excep_PERIB_INTB188
 2737                             	_INT_Excep_PERIB_INTB188:
 2738                             	.LFB156:
 509:../generate/inthandler.c **** 
 510:../generate/inthandler.c **** // PERIB INTB188
 511:../generate/inthandler.c **** void INT_Excep_PERIB_INTB188(void){ }
 2739                             		.loc 1 511 35
 2740                             		; Note: Interrupt Handler
 2741 0000 7E AA                   		push.l	r10
 2742                             	.LCFI315:
 2743 0002 EF 0A                   		mov.L	r0, r10
 2744                             	.LCFI316:
 2745                             		.loc 1 511 1
 2746 0004 03                      		nop
 2747 0005 7E BA                   		pop	r10
 2748 0007 7F 95                   		rte
 2749                             	.LFE156:
 2751                             		.section	.text.INT_Excep_PERIB_INTB189,"ax",@progbits
 2752                             		.global	_INT_Excep_PERIB_INTB189
 2754                             	_INT_Excep_PERIB_INTB189:
 2755                             	.LFB157:
 512:../generate/inthandler.c **** 
 513:../generate/inthandler.c **** // PERIB INTB189
 514:../generate/inthandler.c **** void INT_Excep_PERIB_INTB189(void){ }
 2756                             		.loc 1 514 35
 2757                             		; Note: Interrupt Handler
 2758 0000 7E AA                   		push.l	r10
 2759                             	.LCFI317:
 2760 0002 EF 0A                   		mov.L	r0, r10
 2761                             	.LCFI318:
 2762                             		.loc 1 514 1
 2763 0004 03                      		nop
 2764 0005 7E BA                   		pop	r10
 2765 0007 7F 95                   		rte
 2766                             	.LFE157:
 2768                             		.section	.text.INT_Excep_PERIB_INTB190,"ax",@progbits
 2769                             		.global	_INT_Excep_PERIB_INTB190
 2771                             	_INT_Excep_PERIB_INTB190:
 2772                             	.LFB158:
 515:../generate/inthandler.c **** 
 516:../generate/inthandler.c **** // PERIB INTB190
 517:../generate/inthandler.c **** void INT_Excep_PERIB_INTB190(void){ }
 2773                             		.loc 1 517 35
 2774                             		; Note: Interrupt Handler
 2775 0000 7E AA                   		push.l	r10
 2776                             	.LCFI319:
 2777 0002 EF 0A                   		mov.L	r0, r10
 2778                             	.LCFI320:
 2779                             		.loc 1 517 1
 2780 0004 03                      		nop
 2781 0005 7E BA                   		pop	r10
 2782 0007 7F 95                   		rte
 2783                             	.LFE158:
 2785                             		.section	.text.INT_Excep_PERIB_INTB191,"ax",@progbits
 2786                             		.global	_INT_Excep_PERIB_INTB191
 2788                             	_INT_Excep_PERIB_INTB191:
 2789                             	.LFB159:
 518:../generate/inthandler.c **** 
 519:../generate/inthandler.c **** // PERIB INTB191
 520:../generate/inthandler.c **** void INT_Excep_PERIB_INTB191(void){ }
 2790                             		.loc 1 520 35
 2791                             		; Note: Interrupt Handler
 2792 0000 7E AA                   		push.l	r10
 2793                             	.LCFI321:
 2794 0002 EF 0A                   		mov.L	r0, r10
 2795                             	.LCFI322:
 2796                             		.loc 1 520 1
 2797 0004 03                      		nop
 2798 0005 7E BA                   		pop	r10
 2799 0007 7F 95                   		rte
 2800                             	.LFE159:
 2802                             		.section	.text.INT_Excep_PERIB_INTB192,"ax",@progbits
 2803                             		.global	_INT_Excep_PERIB_INTB192
 2805                             	_INT_Excep_PERIB_INTB192:
 2806                             	.LFB160:
 521:../generate/inthandler.c **** 
 522:../generate/inthandler.c **** // PERIB INTB192
 523:../generate/inthandler.c **** void INT_Excep_PERIB_INTB192(void){ }
 2807                             		.loc 1 523 35
 2808                             		; Note: Interrupt Handler
 2809 0000 7E AA                   		push.l	r10
 2810                             	.LCFI323:
 2811 0002 EF 0A                   		mov.L	r0, r10
 2812                             	.LCFI324:
 2813                             		.loc 1 523 1
 2814 0004 03                      		nop
 2815 0005 7E BA                   		pop	r10
 2816 0007 7F 95                   		rte
 2817                             	.LFE160:
 2819                             		.section	.text.INT_Excep_PERIB_INTB193,"ax",@progbits
 2820                             		.global	_INT_Excep_PERIB_INTB193
 2822                             	_INT_Excep_PERIB_INTB193:
 2823                             	.LFB161:
 524:../generate/inthandler.c **** 
 525:../generate/inthandler.c **** // PERIB INTB193
 526:../generate/inthandler.c **** void INT_Excep_PERIB_INTB193(void){ }
 2824                             		.loc 1 526 35
 2825                             		; Note: Interrupt Handler
 2826 0000 7E AA                   		push.l	r10
 2827                             	.LCFI325:
 2828 0002 EF 0A                   		mov.L	r0, r10
 2829                             	.LCFI326:
 2830                             		.loc 1 526 1
 2831 0004 03                      		nop
 2832 0005 7E BA                   		pop	r10
 2833 0007 7F 95                   		rte
 2834                             	.LFE161:
 2836                             		.section	.text.INT_Excep_PERIB_INTB194,"ax",@progbits
 2837                             		.global	_INT_Excep_PERIB_INTB194
 2839                             	_INT_Excep_PERIB_INTB194:
 2840                             	.LFB162:
 527:../generate/inthandler.c **** 
 528:../generate/inthandler.c **** // PERIB INTB194
 529:../generate/inthandler.c **** void INT_Excep_PERIB_INTB194(void){ }
 2841                             		.loc 1 529 35
 2842                             		; Note: Interrupt Handler
 2843 0000 7E AA                   		push.l	r10
 2844                             	.LCFI327:
 2845 0002 EF 0A                   		mov.L	r0, r10
 2846                             	.LCFI328:
 2847                             		.loc 1 529 1
 2848 0004 03                      		nop
 2849 0005 7E BA                   		pop	r10
 2850 0007 7F 95                   		rte
 2851                             	.LFE162:
 2853                             		.section	.text.INT_Excep_PERIB_INTB195,"ax",@progbits
 2854                             		.global	_INT_Excep_PERIB_INTB195
 2856                             	_INT_Excep_PERIB_INTB195:
 2857                             	.LFB163:
 530:../generate/inthandler.c **** 
 531:../generate/inthandler.c **** // PERIB INTB195
 532:../generate/inthandler.c **** void INT_Excep_PERIB_INTB195(void){ }
 2858                             		.loc 1 532 35
 2859                             		; Note: Interrupt Handler
 2860 0000 7E AA                   		push.l	r10
 2861                             	.LCFI329:
 2862 0002 EF 0A                   		mov.L	r0, r10
 2863                             	.LCFI330:
 2864                             		.loc 1 532 1
 2865 0004 03                      		nop
 2866 0005 7E BA                   		pop	r10
 2867 0007 7F 95                   		rte
 2868                             	.LFE163:
 2870                             		.section	.text.INT_Excep_PERIB_INTB196,"ax",@progbits
 2871                             		.global	_INT_Excep_PERIB_INTB196
 2873                             	_INT_Excep_PERIB_INTB196:
 2874                             	.LFB164:
 533:../generate/inthandler.c **** 
 534:../generate/inthandler.c **** // PERIB INTB196
 535:../generate/inthandler.c **** void INT_Excep_PERIB_INTB196(void){ }
 2875                             		.loc 1 535 35
 2876                             		; Note: Interrupt Handler
 2877 0000 7E AA                   		push.l	r10
 2878                             	.LCFI331:
 2879 0002 EF 0A                   		mov.L	r0, r10
 2880                             	.LCFI332:
 2881                             		.loc 1 535 1
 2882 0004 03                      		nop
 2883 0005 7E BA                   		pop	r10
 2884 0007 7F 95                   		rte
 2885                             	.LFE164:
 2887                             		.section	.text.INT_Excep_PERIB_INTB197,"ax",@progbits
 2888                             		.global	_INT_Excep_PERIB_INTB197
 2890                             	_INT_Excep_PERIB_INTB197:
 2891                             	.LFB165:
 536:../generate/inthandler.c **** 
 537:../generate/inthandler.c **** // PERIB INTB197
 538:../generate/inthandler.c **** void INT_Excep_PERIB_INTB197(void){ }
 2892                             		.loc 1 538 35
 2893                             		; Note: Interrupt Handler
 2894 0000 7E AA                   		push.l	r10
 2895                             	.LCFI333:
 2896 0002 EF 0A                   		mov.L	r0, r10
 2897                             	.LCFI334:
 2898                             		.loc 1 538 1
 2899 0004 03                      		nop
 2900 0005 7E BA                   		pop	r10
 2901 0007 7F 95                   		rte
 2902                             	.LFE165:
 2904                             		.section	.text.INT_Excep_PERIB_INTB198,"ax",@progbits
 2905                             		.global	_INT_Excep_PERIB_INTB198
 2907                             	_INT_Excep_PERIB_INTB198:
 2908                             	.LFB166:
 539:../generate/inthandler.c **** 
 540:../generate/inthandler.c **** // PERIB INTB198
 541:../generate/inthandler.c **** void INT_Excep_PERIB_INTB198(void){ }
 2909                             		.loc 1 541 35
 2910                             		; Note: Interrupt Handler
 2911 0000 7E AA                   		push.l	r10
 2912                             	.LCFI335:
 2913 0002 EF 0A                   		mov.L	r0, r10
 2914                             	.LCFI336:
 2915                             		.loc 1 541 1
 2916 0004 03                      		nop
 2917 0005 7E BA                   		pop	r10
 2918 0007 7F 95                   		rte
 2919                             	.LFE166:
 2921                             		.section	.text.INT_Excep_PERIB_INTB199,"ax",@progbits
 2922                             		.global	_INT_Excep_PERIB_INTB199
 2924                             	_INT_Excep_PERIB_INTB199:
 2925                             	.LFB167:
 542:../generate/inthandler.c **** 
 543:../generate/inthandler.c **** // PERIB INTB199
 544:../generate/inthandler.c **** void INT_Excep_PERIB_INTB199(void){ }
 2926                             		.loc 1 544 35
 2927                             		; Note: Interrupt Handler
 2928 0000 7E AA                   		push.l	r10
 2929                             	.LCFI337:
 2930 0002 EF 0A                   		mov.L	r0, r10
 2931                             	.LCFI338:
 2932                             		.loc 1 544 1
 2933 0004 03                      		nop
 2934 0005 7E BA                   		pop	r10
 2935 0007 7F 95                   		rte
 2936                             	.LFE167:
 2938                             		.section	.text.INT_Excep_PERIB_INTB200,"ax",@progbits
 2939                             		.global	_INT_Excep_PERIB_INTB200
 2941                             	_INT_Excep_PERIB_INTB200:
 2942                             	.LFB168:
 545:../generate/inthandler.c **** 
 546:../generate/inthandler.c **** // PERIB INTB200
 547:../generate/inthandler.c **** void INT_Excep_PERIB_INTB200(void){ }
 2943                             		.loc 1 547 35
 2944                             		; Note: Interrupt Handler
 2945 0000 7E AA                   		push.l	r10
 2946                             	.LCFI339:
 2947 0002 EF 0A                   		mov.L	r0, r10
 2948                             	.LCFI340:
 2949                             		.loc 1 547 1
 2950 0004 03                      		nop
 2951 0005 7E BA                   		pop	r10
 2952 0007 7F 95                   		rte
 2953                             	.LFE168:
 2955                             		.section	.text.INT_Excep_PERIB_INTB201,"ax",@progbits
 2956                             		.global	_INT_Excep_PERIB_INTB201
 2958                             	_INT_Excep_PERIB_INTB201:
 2959                             	.LFB169:
 548:../generate/inthandler.c **** 
 549:../generate/inthandler.c **** // PERIB INTB201
 550:../generate/inthandler.c **** void INT_Excep_PERIB_INTB201(void){ }
 2960                             		.loc 1 550 35
 2961                             		; Note: Interrupt Handler
 2962 0000 7E AA                   		push.l	r10
 2963                             	.LCFI341:
 2964 0002 EF 0A                   		mov.L	r0, r10
 2965                             	.LCFI342:
 2966                             		.loc 1 550 1
 2967 0004 03                      		nop
 2968 0005 7E BA                   		pop	r10
 2969 0007 7F 95                   		rte
 2970                             	.LFE169:
 2972                             		.section	.text.INT_Excep_PERIB_INTB202,"ax",@progbits
 2973                             		.global	_INT_Excep_PERIB_INTB202
 2975                             	_INT_Excep_PERIB_INTB202:
 2976                             	.LFB170:
 551:../generate/inthandler.c **** 
 552:../generate/inthandler.c **** // PERIB INTB202
 553:../generate/inthandler.c **** void INT_Excep_PERIB_INTB202(void){ }
 2977                             		.loc 1 553 35
 2978                             		; Note: Interrupt Handler
 2979 0000 7E AA                   		push.l	r10
 2980                             	.LCFI343:
 2981 0002 EF 0A                   		mov.L	r0, r10
 2982                             	.LCFI344:
 2983                             		.loc 1 553 1
 2984 0004 03                      		nop
 2985 0005 7E BA                   		pop	r10
 2986 0007 7F 95                   		rte
 2987                             	.LFE170:
 2989                             		.section	.text.INT_Excep_PERIB_INTB203,"ax",@progbits
 2990                             		.global	_INT_Excep_PERIB_INTB203
 2992                             	_INT_Excep_PERIB_INTB203:
 2993                             	.LFB171:
 554:../generate/inthandler.c **** 
 555:../generate/inthandler.c **** // PERIB INTB203
 556:../generate/inthandler.c **** void INT_Excep_PERIB_INTB203(void){ }
 2994                             		.loc 1 556 35
 2995                             		; Note: Interrupt Handler
 2996 0000 7E AA                   		push.l	r10
 2997                             	.LCFI345:
 2998 0002 EF 0A                   		mov.L	r0, r10
 2999                             	.LCFI346:
 3000                             		.loc 1 556 1
 3001 0004 03                      		nop
 3002 0005 7E BA                   		pop	r10
 3003 0007 7F 95                   		rte
 3004                             	.LFE171:
 3006                             		.section	.text.INT_Excep_PERIB_INTB204,"ax",@progbits
 3007                             		.global	_INT_Excep_PERIB_INTB204
 3009                             	_INT_Excep_PERIB_INTB204:
 3010                             	.LFB172:
 557:../generate/inthandler.c **** 
 558:../generate/inthandler.c **** // PERIB INTB204
 559:../generate/inthandler.c **** void INT_Excep_PERIB_INTB204(void){ }
 3011                             		.loc 1 559 35
 3012                             		; Note: Interrupt Handler
 3013 0000 7E AA                   		push.l	r10
 3014                             	.LCFI347:
 3015 0002 EF 0A                   		mov.L	r0, r10
 3016                             	.LCFI348:
 3017                             		.loc 1 559 1
 3018 0004 03                      		nop
 3019 0005 7E BA                   		pop	r10
 3020 0007 7F 95                   		rte
 3021                             	.LFE172:
 3023                             		.section	.text.INT_Excep_PERIB_INTB205,"ax",@progbits
 3024                             		.global	_INT_Excep_PERIB_INTB205
 3026                             	_INT_Excep_PERIB_INTB205:
 3027                             	.LFB173:
 560:../generate/inthandler.c **** 
 561:../generate/inthandler.c **** // PERIB INTB205
 562:../generate/inthandler.c **** void INT_Excep_PERIB_INTB205(void){ }
 3028                             		.loc 1 562 35
 3029                             		; Note: Interrupt Handler
 3030 0000 7E AA                   		push.l	r10
 3031                             	.LCFI349:
 3032 0002 EF 0A                   		mov.L	r0, r10
 3033                             	.LCFI350:
 3034                             		.loc 1 562 1
 3035 0004 03                      		nop
 3036 0005 7E BA                   		pop	r10
 3037 0007 7F 95                   		rte
 3038                             	.LFE173:
 3040                             		.section	.text.INT_Excep_PERIB_INTB206,"ax",@progbits
 3041                             		.global	_INT_Excep_PERIB_INTB206
 3043                             	_INT_Excep_PERIB_INTB206:
 3044                             	.LFB174:
 563:../generate/inthandler.c **** 
 564:../generate/inthandler.c **** // PERIB INTB206
 565:../generate/inthandler.c **** void INT_Excep_PERIB_INTB206(void){ }
 3045                             		.loc 1 565 35
 3046                             		; Note: Interrupt Handler
 3047 0000 7E AA                   		push.l	r10
 3048                             	.LCFI351:
 3049 0002 EF 0A                   		mov.L	r0, r10
 3050                             	.LCFI352:
 3051                             		.loc 1 565 1
 3052 0004 03                      		nop
 3053 0005 7E BA                   		pop	r10
 3054 0007 7F 95                   		rte
 3055                             	.LFE174:
 3057                             		.section	.text.INT_Excep_PERIB_INTB207,"ax",@progbits
 3058                             		.global	_INT_Excep_PERIB_INTB207
 3060                             	_INT_Excep_PERIB_INTB207:
 3061                             	.LFB175:
 566:../generate/inthandler.c **** 
 567:../generate/inthandler.c **** // PERIB INTB207
 568:../generate/inthandler.c **** void INT_Excep_PERIB_INTB207(void){ }
 3062                             		.loc 1 568 35
 3063                             		; Note: Interrupt Handler
 3064 0000 7E AA                   		push.l	r10
 3065                             	.LCFI353:
 3066 0002 EF 0A                   		mov.L	r0, r10
 3067                             	.LCFI354:
 3068                             		.loc 1 568 1
 3069 0004 03                      		nop
 3070 0005 7E BA                   		pop	r10
 3071 0007 7F 95                   		rte
 3072                             	.LFE175:
 3074                             		.section	.text.INT_Excep_PERIA_INTA208,"ax",@progbits
 3075                             		.global	_INT_Excep_PERIA_INTA208
 3077                             	_INT_Excep_PERIA_INTA208:
 3078                             	.LFB176:
 569:../generate/inthandler.c **** 
 570:../generate/inthandler.c **** // PERIA INTA208
 571:../generate/inthandler.c **** void INT_Excep_PERIA_INTA208(void){ }
 3079                             		.loc 1 571 35
 3080                             		; Note: Interrupt Handler
 3081 0000 7E AA                   		push.l	r10
 3082                             	.LCFI355:
 3083 0002 EF 0A                   		mov.L	r0, r10
 3084                             	.LCFI356:
 3085                             		.loc 1 571 1
 3086 0004 03                      		nop
 3087 0005 7E BA                   		pop	r10
 3088 0007 7F 95                   		rte
 3089                             	.LFE176:
 3091                             		.section	.text.INT_Excep_PERIA_INTA209,"ax",@progbits
 3092                             		.global	_INT_Excep_PERIA_INTA209
 3094                             	_INT_Excep_PERIA_INTA209:
 3095                             	.LFB177:
 572:../generate/inthandler.c **** 
 573:../generate/inthandler.c **** // PERIA INTA209
 574:../generate/inthandler.c **** void INT_Excep_PERIA_INTA209(void){ }
 3096                             		.loc 1 574 35
 3097                             		; Note: Interrupt Handler
 3098 0000 7E AA                   		push.l	r10
 3099                             	.LCFI357:
 3100 0002 EF 0A                   		mov.L	r0, r10
 3101                             	.LCFI358:
 3102                             		.loc 1 574 1
 3103 0004 03                      		nop
 3104 0005 7E BA                   		pop	r10
 3105 0007 7F 95                   		rte
 3106                             	.LFE177:
 3108                             		.section	.text.INT_Excep_PERIA_INTA210,"ax",@progbits
 3109                             		.global	_INT_Excep_PERIA_INTA210
 3111                             	_INT_Excep_PERIA_INTA210:
 3112                             	.LFB178:
 575:../generate/inthandler.c **** 
 576:../generate/inthandler.c **** // PERIA INTA210
 577:../generate/inthandler.c **** void INT_Excep_PERIA_INTA210(void){ }
 3113                             		.loc 1 577 35
 3114                             		; Note: Interrupt Handler
 3115 0000 7E AA                   		push.l	r10
 3116                             	.LCFI359:
 3117 0002 EF 0A                   		mov.L	r0, r10
 3118                             	.LCFI360:
 3119                             		.loc 1 577 1
 3120 0004 03                      		nop
 3121 0005 7E BA                   		pop	r10
 3122 0007 7F 95                   		rte
 3123                             	.LFE178:
 3125                             		.section	.text.INT_Excep_PERIA_INTA211,"ax",@progbits
 3126                             		.global	_INT_Excep_PERIA_INTA211
 3128                             	_INT_Excep_PERIA_INTA211:
 3129                             	.LFB179:
 578:../generate/inthandler.c **** 
 579:../generate/inthandler.c **** // PERIA INTA211
 580:../generate/inthandler.c **** void INT_Excep_PERIA_INTA211(void){ }
 3130                             		.loc 1 580 35
 3131                             		; Note: Interrupt Handler
 3132 0000 7E AA                   		push.l	r10
 3133                             	.LCFI361:
 3134 0002 EF 0A                   		mov.L	r0, r10
 3135                             	.LCFI362:
 3136                             		.loc 1 580 1
 3137 0004 03                      		nop
 3138 0005 7E BA                   		pop	r10
 3139 0007 7F 95                   		rte
 3140                             	.LFE179:
 3142                             		.section	.text.INT_Excep_PERIA_INTA212,"ax",@progbits
 3143                             		.global	_INT_Excep_PERIA_INTA212
 3145                             	_INT_Excep_PERIA_INTA212:
 3146                             	.LFB180:
 581:../generate/inthandler.c **** 
 582:../generate/inthandler.c **** // PERIA INTA212
 583:../generate/inthandler.c **** void INT_Excep_PERIA_INTA212(void){ }
 3147                             		.loc 1 583 35
 3148                             		; Note: Interrupt Handler
 3149 0000 7E AA                   		push.l	r10
 3150                             	.LCFI363:
 3151 0002 EF 0A                   		mov.L	r0, r10
 3152                             	.LCFI364:
 3153                             		.loc 1 583 1
 3154 0004 03                      		nop
 3155 0005 7E BA                   		pop	r10
 3156 0007 7F 95                   		rte
 3157                             	.LFE180:
 3159                             		.section	.text.INT_Excep_PERIA_INTA213,"ax",@progbits
 3160                             		.global	_INT_Excep_PERIA_INTA213
 3162                             	_INT_Excep_PERIA_INTA213:
 3163                             	.LFB181:
 584:../generate/inthandler.c **** 
 585:../generate/inthandler.c **** // PERIA INTA213
 586:../generate/inthandler.c **** void INT_Excep_PERIA_INTA213(void){ }
 3164                             		.loc 1 586 35
 3165                             		; Note: Interrupt Handler
 3166 0000 7E AA                   		push.l	r10
 3167                             	.LCFI365:
 3168 0002 EF 0A                   		mov.L	r0, r10
 3169                             	.LCFI366:
 3170                             		.loc 1 586 1
 3171 0004 03                      		nop
 3172 0005 7E BA                   		pop	r10
 3173 0007 7F 95                   		rte
 3174                             	.LFE181:
 3176                             		.section	.text.INT_Excep_PERIA_INTA214,"ax",@progbits
 3177                             		.global	_INT_Excep_PERIA_INTA214
 3179                             	_INT_Excep_PERIA_INTA214:
 3180                             	.LFB182:
 587:../generate/inthandler.c **** 
 588:../generate/inthandler.c **** // PERIA INTA214
 589:../generate/inthandler.c **** void INT_Excep_PERIA_INTA214(void){ }
 3181                             		.loc 1 589 35
 3182                             		; Note: Interrupt Handler
 3183 0000 7E AA                   		push.l	r10
 3184                             	.LCFI367:
 3185 0002 EF 0A                   		mov.L	r0, r10
 3186                             	.LCFI368:
 3187                             		.loc 1 589 1
 3188 0004 03                      		nop
 3189 0005 7E BA                   		pop	r10
 3190 0007 7F 95                   		rte
 3191                             	.LFE182:
 3193                             		.section	.text.INT_Excep_PERIA_INTA215,"ax",@progbits
 3194                             		.global	_INT_Excep_PERIA_INTA215
 3196                             	_INT_Excep_PERIA_INTA215:
 3197                             	.LFB183:
 590:../generate/inthandler.c **** 
 591:../generate/inthandler.c **** // PERIA INTA215
 592:../generate/inthandler.c **** void INT_Excep_PERIA_INTA215(void){ }
 3198                             		.loc 1 592 35
 3199                             		; Note: Interrupt Handler
 3200 0000 7E AA                   		push.l	r10
 3201                             	.LCFI369:
 3202 0002 EF 0A                   		mov.L	r0, r10
 3203                             	.LCFI370:
 3204                             		.loc 1 592 1
 3205 0004 03                      		nop
 3206 0005 7E BA                   		pop	r10
 3207 0007 7F 95                   		rte
 3208                             	.LFE183:
 3210                             		.section	.text.INT_Excep_PERIA_INTA216,"ax",@progbits
 3211                             		.global	_INT_Excep_PERIA_INTA216
 3213                             	_INT_Excep_PERIA_INTA216:
 3214                             	.LFB184:
 593:../generate/inthandler.c **** 
 594:../generate/inthandler.c **** // PERIA INTA216
 595:../generate/inthandler.c **** void INT_Excep_PERIA_INTA216(void){ }
 3215                             		.loc 1 595 35
 3216                             		; Note: Interrupt Handler
 3217 0000 7E AA                   		push.l	r10
 3218                             	.LCFI371:
 3219 0002 EF 0A                   		mov.L	r0, r10
 3220                             	.LCFI372:
 3221                             		.loc 1 595 1
 3222 0004 03                      		nop
 3223 0005 7E BA                   		pop	r10
 3224 0007 7F 95                   		rte
 3225                             	.LFE184:
 3227                             		.section	.text.INT_Excep_PERIA_INTA217,"ax",@progbits
 3228                             		.global	_INT_Excep_PERIA_INTA217
 3230                             	_INT_Excep_PERIA_INTA217:
 3231                             	.LFB185:
 596:../generate/inthandler.c **** 
 597:../generate/inthandler.c **** // PERIA INTA217
 598:../generate/inthandler.c **** void INT_Excep_PERIA_INTA217(void){ }
 3232                             		.loc 1 598 35
 3233                             		; Note: Interrupt Handler
 3234 0000 7E AA                   		push.l	r10
 3235                             	.LCFI373:
 3236 0002 EF 0A                   		mov.L	r0, r10
 3237                             	.LCFI374:
 3238                             		.loc 1 598 1
 3239 0004 03                      		nop
 3240 0005 7E BA                   		pop	r10
 3241 0007 7F 95                   		rte
 3242                             	.LFE185:
 3244                             		.section	.text.INT_Excep_PERIA_INTA218,"ax",@progbits
 3245                             		.global	_INT_Excep_PERIA_INTA218
 3247                             	_INT_Excep_PERIA_INTA218:
 3248                             	.LFB186:
 599:../generate/inthandler.c **** 
 600:../generate/inthandler.c **** // PERIA INTA218
 601:../generate/inthandler.c **** void INT_Excep_PERIA_INTA218(void){ }
 3249                             		.loc 1 601 35
 3250                             		; Note: Interrupt Handler
 3251 0000 7E AA                   		push.l	r10
 3252                             	.LCFI375:
 3253 0002 EF 0A                   		mov.L	r0, r10
 3254                             	.LCFI376:
 3255                             		.loc 1 601 1
 3256 0004 03                      		nop
 3257 0005 7E BA                   		pop	r10
 3258 0007 7F 95                   		rte
 3259                             	.LFE186:
 3261                             		.section	.text.INT_Excep_PERIA_INTA219,"ax",@progbits
 3262                             		.global	_INT_Excep_PERIA_INTA219
 3264                             	_INT_Excep_PERIA_INTA219:
 3265                             	.LFB187:
 602:../generate/inthandler.c **** 
 603:../generate/inthandler.c **** // PERIA INTA219
 604:../generate/inthandler.c **** void INT_Excep_PERIA_INTA219(void){ }
 3266                             		.loc 1 604 35
 3267                             		; Note: Interrupt Handler
 3268 0000 7E AA                   		push.l	r10
 3269                             	.LCFI377:
 3270 0002 EF 0A                   		mov.L	r0, r10
 3271                             	.LCFI378:
 3272                             		.loc 1 604 1
 3273 0004 03                      		nop
 3274 0005 7E BA                   		pop	r10
 3275 0007 7F 95                   		rte
 3276                             	.LFE187:
 3278                             		.section	.text.INT_Excep_PERIA_INTA220,"ax",@progbits
 3279                             		.global	_INT_Excep_PERIA_INTA220
 3281                             	_INT_Excep_PERIA_INTA220:
 3282                             	.LFB188:
 605:../generate/inthandler.c **** 
 606:../generate/inthandler.c **** // PERIA INTA220
 607:../generate/inthandler.c **** void INT_Excep_PERIA_INTA220(void){ }
 3283                             		.loc 1 607 35
 3284                             		; Note: Interrupt Handler
 3285 0000 7E AA                   		push.l	r10
 3286                             	.LCFI379:
 3287 0002 EF 0A                   		mov.L	r0, r10
 3288                             	.LCFI380:
 3289                             		.loc 1 607 1
 3290 0004 03                      		nop
 3291 0005 7E BA                   		pop	r10
 3292 0007 7F 95                   		rte
 3293                             	.LFE188:
 3295                             		.section	.text.INT_Excep_PERIA_INTA221,"ax",@progbits
 3296                             		.global	_INT_Excep_PERIA_INTA221
 3298                             	_INT_Excep_PERIA_INTA221:
 3299                             	.LFB189:
 608:../generate/inthandler.c **** 
 609:../generate/inthandler.c **** // PERIA INTA221
 610:../generate/inthandler.c **** void INT_Excep_PERIA_INTA221(void){ }
 3300                             		.loc 1 610 35
 3301                             		; Note: Interrupt Handler
 3302 0000 7E AA                   		push.l	r10
 3303                             	.LCFI381:
 3304 0002 EF 0A                   		mov.L	r0, r10
 3305                             	.LCFI382:
 3306                             		.loc 1 610 1
 3307 0004 03                      		nop
 3308 0005 7E BA                   		pop	r10
 3309 0007 7F 95                   		rte
 3310                             	.LFE189:
 3312                             		.section	.text.INT_Excep_PERIA_INTA222,"ax",@progbits
 3313                             		.global	_INT_Excep_PERIA_INTA222
 3315                             	_INT_Excep_PERIA_INTA222:
 3316                             	.LFB190:
 611:../generate/inthandler.c **** 
 612:../generate/inthandler.c **** // PERIA INTA222
 613:../generate/inthandler.c **** void INT_Excep_PERIA_INTA222(void){ }
 3317                             		.loc 1 613 35
 3318                             		; Note: Interrupt Handler
 3319 0000 7E AA                   		push.l	r10
 3320                             	.LCFI383:
 3321 0002 EF 0A                   		mov.L	r0, r10
 3322                             	.LCFI384:
 3323                             		.loc 1 613 1
 3324 0004 03                      		nop
 3325 0005 7E BA                   		pop	r10
 3326 0007 7F 95                   		rte
 3327                             	.LFE190:
 3329                             		.section	.text.INT_Excep_PERIA_INTA223,"ax",@progbits
 3330                             		.global	_INT_Excep_PERIA_INTA223
 3332                             	_INT_Excep_PERIA_INTA223:
 3333                             	.LFB191:
 614:../generate/inthandler.c **** 
 615:../generate/inthandler.c **** // PERIA INTA223
 616:../generate/inthandler.c **** void INT_Excep_PERIA_INTA223(void){ }
 3334                             		.loc 1 616 35
 3335                             		; Note: Interrupt Handler
 3336 0000 7E AA                   		push.l	r10
 3337                             	.LCFI385:
 3338 0002 EF 0A                   		mov.L	r0, r10
 3339                             	.LCFI386:
 3340                             		.loc 1 616 1
 3341 0004 03                      		nop
 3342 0005 7E BA                   		pop	r10
 3343 0007 7F 95                   		rte
 3344                             	.LFE191:
 3346                             		.section	.text.INT_Excep_PERIA_INTA224,"ax",@progbits
 3347                             		.global	_INT_Excep_PERIA_INTA224
 3349                             	_INT_Excep_PERIA_INTA224:
 3350                             	.LFB192:
 617:../generate/inthandler.c **** 
 618:../generate/inthandler.c **** // PERIA INTA224
 619:../generate/inthandler.c **** void INT_Excep_PERIA_INTA224(void){ }
 3351                             		.loc 1 619 35
 3352                             		; Note: Interrupt Handler
 3353 0000 7E AA                   		push.l	r10
 3354                             	.LCFI387:
 3355 0002 EF 0A                   		mov.L	r0, r10
 3356                             	.LCFI388:
 3357                             		.loc 1 619 1
 3358 0004 03                      		nop
 3359 0005 7E BA                   		pop	r10
 3360 0007 7F 95                   		rte
 3361                             	.LFE192:
 3363                             		.section	.text.INT_Excep_PERIA_INTA225,"ax",@progbits
 3364                             		.global	_INT_Excep_PERIA_INTA225
 3366                             	_INT_Excep_PERIA_INTA225:
 3367                             	.LFB193:
 620:../generate/inthandler.c **** 
 621:../generate/inthandler.c **** // PERIA INTA225
 622:../generate/inthandler.c **** void INT_Excep_PERIA_INTA225(void){ }
 3368                             		.loc 1 622 35
 3369                             		; Note: Interrupt Handler
 3370 0000 7E AA                   		push.l	r10
 3371                             	.LCFI389:
 3372 0002 EF 0A                   		mov.L	r0, r10
 3373                             	.LCFI390:
 3374                             		.loc 1 622 1
 3375 0004 03                      		nop
 3376 0005 7E BA                   		pop	r10
 3377 0007 7F 95                   		rte
 3378                             	.LFE193:
 3380                             		.section	.text.INT_Excep_PERIA_INTA226,"ax",@progbits
 3381                             		.global	_INT_Excep_PERIA_INTA226
 3383                             	_INT_Excep_PERIA_INTA226:
 3384                             	.LFB194:
 623:../generate/inthandler.c **** 
 624:../generate/inthandler.c **** // PERIA INTA226
 625:../generate/inthandler.c **** void INT_Excep_PERIA_INTA226(void){ }
 3385                             		.loc 1 625 35
 3386                             		; Note: Interrupt Handler
 3387 0000 7E AA                   		push.l	r10
 3388                             	.LCFI391:
 3389 0002 EF 0A                   		mov.L	r0, r10
 3390                             	.LCFI392:
 3391                             		.loc 1 625 1
 3392 0004 03                      		nop
 3393 0005 7E BA                   		pop	r10
 3394 0007 7F 95                   		rte
 3395                             	.LFE194:
 3397                             		.section	.text.INT_Excep_PERIA_INTA227,"ax",@progbits
 3398                             		.global	_INT_Excep_PERIA_INTA227
 3400                             	_INT_Excep_PERIA_INTA227:
 3401                             	.LFB195:
 626:../generate/inthandler.c **** 
 627:../generate/inthandler.c **** // PERIA INTA227
 628:../generate/inthandler.c **** void INT_Excep_PERIA_INTA227(void){ }
 3402                             		.loc 1 628 35
 3403                             		; Note: Interrupt Handler
 3404 0000 7E AA                   		push.l	r10
 3405                             	.LCFI393:
 3406 0002 EF 0A                   		mov.L	r0, r10
 3407                             	.LCFI394:
 3408                             		.loc 1 628 1
 3409 0004 03                      		nop
 3410 0005 7E BA                   		pop	r10
 3411 0007 7F 95                   		rte
 3412                             	.LFE195:
 3414                             		.section	.text.INT_Excep_PERIA_INTA228,"ax",@progbits
 3415                             		.global	_INT_Excep_PERIA_INTA228
 3417                             	_INT_Excep_PERIA_INTA228:
 3418                             	.LFB196:
 629:../generate/inthandler.c **** 
 630:../generate/inthandler.c **** // PERIA INTA228
 631:../generate/inthandler.c **** void INT_Excep_PERIA_INTA228(void){ }
 3419                             		.loc 1 631 35
 3420                             		; Note: Interrupt Handler
 3421 0000 7E AA                   		push.l	r10
 3422                             	.LCFI395:
 3423 0002 EF 0A                   		mov.L	r0, r10
 3424                             	.LCFI396:
 3425                             		.loc 1 631 1
 3426 0004 03                      		nop
 3427 0005 7E BA                   		pop	r10
 3428 0007 7F 95                   		rte
 3429                             	.LFE196:
 3431                             		.section	.text.INT_Excep_PERIA_INTA229,"ax",@progbits
 3432                             		.global	_INT_Excep_PERIA_INTA229
 3434                             	_INT_Excep_PERIA_INTA229:
 3435                             	.LFB197:
 632:../generate/inthandler.c **** 
 633:../generate/inthandler.c **** // PERIA INTA229
 634:../generate/inthandler.c **** void INT_Excep_PERIA_INTA229(void){ }
 3436                             		.loc 1 634 35
 3437                             		; Note: Interrupt Handler
 3438 0000 7E AA                   		push.l	r10
 3439                             	.LCFI397:
 3440 0002 EF 0A                   		mov.L	r0, r10
 3441                             	.LCFI398:
 3442                             		.loc 1 634 1
 3443 0004 03                      		nop
 3444 0005 7E BA                   		pop	r10
 3445 0007 7F 95                   		rte
 3446                             	.LFE197:
 3448                             		.section	.text.INT_Excep_PERIA_INTA230,"ax",@progbits
 3449                             		.global	_INT_Excep_PERIA_INTA230
 3451                             	_INT_Excep_PERIA_INTA230:
 3452                             	.LFB198:
 635:../generate/inthandler.c **** 
 636:../generate/inthandler.c **** // PERIA INTA230
 637:../generate/inthandler.c **** void INT_Excep_PERIA_INTA230(void){ }
 3453                             		.loc 1 637 35
 3454                             		; Note: Interrupt Handler
 3455 0000 7E AA                   		push.l	r10
 3456                             	.LCFI399:
 3457 0002 EF 0A                   		mov.L	r0, r10
 3458                             	.LCFI400:
 3459                             		.loc 1 637 1
 3460 0004 03                      		nop
 3461 0005 7E BA                   		pop	r10
 3462 0007 7F 95                   		rte
 3463                             	.LFE198:
 3465                             		.section	.text.INT_Excep_PERIA_INTA231,"ax",@progbits
 3466                             		.global	_INT_Excep_PERIA_INTA231
 3468                             	_INT_Excep_PERIA_INTA231:
 3469                             	.LFB199:
 638:../generate/inthandler.c **** 
 639:../generate/inthandler.c **** // PERIA INTA231
 640:../generate/inthandler.c **** void INT_Excep_PERIA_INTA231(void){ }
 3470                             		.loc 1 640 35
 3471                             		; Note: Interrupt Handler
 3472 0000 7E AA                   		push.l	r10
 3473                             	.LCFI401:
 3474 0002 EF 0A                   		mov.L	r0, r10
 3475                             	.LCFI402:
 3476                             		.loc 1 640 1
 3477 0004 03                      		nop
 3478 0005 7E BA                   		pop	r10
 3479 0007 7F 95                   		rte
 3480                             	.LFE199:
 3482                             		.section	.text.INT_Excep_PERIA_INTA232,"ax",@progbits
 3483                             		.global	_INT_Excep_PERIA_INTA232
 3485                             	_INT_Excep_PERIA_INTA232:
 3486                             	.LFB200:
 641:../generate/inthandler.c **** 
 642:../generate/inthandler.c **** // PERIA INTA232
 643:../generate/inthandler.c **** void INT_Excep_PERIA_INTA232(void){ }
 3487                             		.loc 1 643 35
 3488                             		; Note: Interrupt Handler
 3489 0000 7E AA                   		push.l	r10
 3490                             	.LCFI403:
 3491 0002 EF 0A                   		mov.L	r0, r10
 3492                             	.LCFI404:
 3493                             		.loc 1 643 1
 3494 0004 03                      		nop
 3495 0005 7E BA                   		pop	r10
 3496 0007 7F 95                   		rte
 3497                             	.LFE200:
 3499                             		.section	.text.INT_Excep_PERIA_INTA233,"ax",@progbits
 3500                             		.global	_INT_Excep_PERIA_INTA233
 3502                             	_INT_Excep_PERIA_INTA233:
 3503                             	.LFB201:
 644:../generate/inthandler.c **** 
 645:../generate/inthandler.c **** // PERIA INTA233
 646:../generate/inthandler.c **** void INT_Excep_PERIA_INTA233(void){ }
 3504                             		.loc 1 646 35
 3505                             		; Note: Interrupt Handler
 3506 0000 7E AA                   		push.l	r10
 3507                             	.LCFI405:
 3508 0002 EF 0A                   		mov.L	r0, r10
 3509                             	.LCFI406:
 3510                             		.loc 1 646 1
 3511 0004 03                      		nop
 3512 0005 7E BA                   		pop	r10
 3513 0007 7F 95                   		rte
 3514                             	.LFE201:
 3516                             		.section	.text.INT_Excep_PERIA_INTA234,"ax",@progbits
 3517                             		.global	_INT_Excep_PERIA_INTA234
 3519                             	_INT_Excep_PERIA_INTA234:
 3520                             	.LFB202:
 647:../generate/inthandler.c **** 
 648:../generate/inthandler.c **** // PERIA INTA234
 649:../generate/inthandler.c **** void INT_Excep_PERIA_INTA234(void){ }
 3521                             		.loc 1 649 35
 3522                             		; Note: Interrupt Handler
 3523 0000 7E AA                   		push.l	r10
 3524                             	.LCFI407:
 3525 0002 EF 0A                   		mov.L	r0, r10
 3526                             	.LCFI408:
 3527                             		.loc 1 649 1
 3528 0004 03                      		nop
 3529 0005 7E BA                   		pop	r10
 3530 0007 7F 95                   		rte
 3531                             	.LFE202:
 3533                             		.section	.text.INT_Excep_PERIA_INTA235,"ax",@progbits
 3534                             		.global	_INT_Excep_PERIA_INTA235
 3536                             	_INT_Excep_PERIA_INTA235:
 3537                             	.LFB203:
 650:../generate/inthandler.c **** 
 651:../generate/inthandler.c **** // PERIA INTA235
 652:../generate/inthandler.c **** void INT_Excep_PERIA_INTA235(void){ }
 3538                             		.loc 1 652 35
 3539                             		; Note: Interrupt Handler
 3540 0000 7E AA                   		push.l	r10
 3541                             	.LCFI409:
 3542 0002 EF 0A                   		mov.L	r0, r10
 3543                             	.LCFI410:
 3544                             		.loc 1 652 1
 3545 0004 03                      		nop
 3546 0005 7E BA                   		pop	r10
 3547 0007 7F 95                   		rte
 3548                             	.LFE203:
 3550                             		.section	.text.INT_Excep_PERIA_INTA236,"ax",@progbits
 3551                             		.global	_INT_Excep_PERIA_INTA236
 3553                             	_INT_Excep_PERIA_INTA236:
 3554                             	.LFB204:
 653:../generate/inthandler.c **** 
 654:../generate/inthandler.c **** // PERIA INTA236
 655:../generate/inthandler.c **** void INT_Excep_PERIA_INTA236(void){ }
 3555                             		.loc 1 655 35
 3556                             		; Note: Interrupt Handler
 3557 0000 7E AA                   		push.l	r10
 3558                             	.LCFI411:
 3559 0002 EF 0A                   		mov.L	r0, r10
 3560                             	.LCFI412:
 3561                             		.loc 1 655 1
 3562 0004 03                      		nop
 3563 0005 7E BA                   		pop	r10
 3564 0007 7F 95                   		rte
 3565                             	.LFE204:
 3567                             		.section	.text.INT_Excep_PERIA_INTA237,"ax",@progbits
 3568                             		.global	_INT_Excep_PERIA_INTA237
 3570                             	_INT_Excep_PERIA_INTA237:
 3571                             	.LFB205:
 656:../generate/inthandler.c **** 
 657:../generate/inthandler.c **** // PERIA INTA237
 658:../generate/inthandler.c **** void INT_Excep_PERIA_INTA237(void){ }
 3572                             		.loc 1 658 35
 3573                             		; Note: Interrupt Handler
 3574 0000 7E AA                   		push.l	r10
 3575                             	.LCFI413:
 3576 0002 EF 0A                   		mov.L	r0, r10
 3577                             	.LCFI414:
 3578                             		.loc 1 658 1
 3579 0004 03                      		nop
 3580 0005 7E BA                   		pop	r10
 3581 0007 7F 95                   		rte
 3582                             	.LFE205:
 3584                             		.section	.text.INT_Excep_PERIA_INTA238,"ax",@progbits
 3585                             		.global	_INT_Excep_PERIA_INTA238
 3587                             	_INT_Excep_PERIA_INTA238:
 3588                             	.LFB206:
 659:../generate/inthandler.c **** 
 660:../generate/inthandler.c **** // PERIA INTA238
 661:../generate/inthandler.c **** void INT_Excep_PERIA_INTA238(void){ }
 3589                             		.loc 1 661 35
 3590                             		; Note: Interrupt Handler
 3591 0000 7E AA                   		push.l	r10
 3592                             	.LCFI415:
 3593 0002 EF 0A                   		mov.L	r0, r10
 3594                             	.LCFI416:
 3595                             		.loc 1 661 1
 3596 0004 03                      		nop
 3597 0005 7E BA                   		pop	r10
 3598 0007 7F 95                   		rte
 3599                             	.LFE206:
 3601                             		.section	.text.INT_Excep_PERIA_INTA239,"ax",@progbits
 3602                             		.global	_INT_Excep_PERIA_INTA239
 3604                             	_INT_Excep_PERIA_INTA239:
 3605                             	.LFB207:
 662:../generate/inthandler.c **** 
 663:../generate/inthandler.c **** // PERIA INTA239
 664:../generate/inthandler.c **** void INT_Excep_PERIA_INTA239(void){ }
 3606                             		.loc 1 664 35
 3607                             		; Note: Interrupt Handler
 3608 0000 7E AA                   		push.l	r10
 3609                             	.LCFI417:
 3610 0002 EF 0A                   		mov.L	r0, r10
 3611                             	.LCFI418:
 3612                             		.loc 1 664 1
 3613 0004 03                      		nop
 3614 0005 7E BA                   		pop	r10
 3615 0007 7F 95                   		rte
 3616                             	.LFE207:
 3618                             		.section	.text.INT_Excep_PERIA_INTA240,"ax",@progbits
 3619                             		.global	_INT_Excep_PERIA_INTA240
 3621                             	_INT_Excep_PERIA_INTA240:
 3622                             	.LFB208:
 665:../generate/inthandler.c **** 
 666:../generate/inthandler.c **** // PERIA INTA240
 667:../generate/inthandler.c **** void INT_Excep_PERIA_INTA240(void){ }
 3623                             		.loc 1 667 35
 3624                             		; Note: Interrupt Handler
 3625 0000 7E AA                   		push.l	r10
 3626                             	.LCFI419:
 3627 0002 EF 0A                   		mov.L	r0, r10
 3628                             	.LCFI420:
 3629                             		.loc 1 667 1
 3630 0004 03                      		nop
 3631 0005 7E BA                   		pop	r10
 3632 0007 7F 95                   		rte
 3633                             	.LFE208:
 3635                             		.section	.text.INT_Excep_PERIA_INTA241,"ax",@progbits
 3636                             		.global	_INT_Excep_PERIA_INTA241
 3638                             	_INT_Excep_PERIA_INTA241:
 3639                             	.LFB209:
 668:../generate/inthandler.c **** 
 669:../generate/inthandler.c **** // PERIA INTA241
 670:../generate/inthandler.c **** void INT_Excep_PERIA_INTA241(void){ }
 3640                             		.loc 1 670 35
 3641                             		; Note: Interrupt Handler
 3642 0000 7E AA                   		push.l	r10
 3643                             	.LCFI421:
 3644 0002 EF 0A                   		mov.L	r0, r10
 3645                             	.LCFI422:
 3646                             		.loc 1 670 1
 3647 0004 03                      		nop
 3648 0005 7E BA                   		pop	r10
 3649 0007 7F 95                   		rte
 3650                             	.LFE209:
 3652                             		.section	.text.INT_Excep_PERIA_INTA242,"ax",@progbits
 3653                             		.global	_INT_Excep_PERIA_INTA242
 3655                             	_INT_Excep_PERIA_INTA242:
 3656                             	.LFB210:
 671:../generate/inthandler.c **** 
 672:../generate/inthandler.c **** // PERIA INTA242
 673:../generate/inthandler.c **** void INT_Excep_PERIA_INTA242(void){ }
 3657                             		.loc 1 673 35
 3658                             		; Note: Interrupt Handler
 3659 0000 7E AA                   		push.l	r10
 3660                             	.LCFI423:
 3661 0002 EF 0A                   		mov.L	r0, r10
 3662                             	.LCFI424:
 3663                             		.loc 1 673 1
 3664 0004 03                      		nop
 3665 0005 7E BA                   		pop	r10
 3666 0007 7F 95                   		rte
 3667                             	.LFE210:
 3669                             		.section	.text.INT_Excep_PERIA_INTA243,"ax",@progbits
 3670                             		.global	_INT_Excep_PERIA_INTA243
 3672                             	_INT_Excep_PERIA_INTA243:
 3673                             	.LFB211:
 674:../generate/inthandler.c **** 
 675:../generate/inthandler.c **** // PERIA INTA243
 676:../generate/inthandler.c **** void INT_Excep_PERIA_INTA243(void){ }
 3674                             		.loc 1 676 35
 3675                             		; Note: Interrupt Handler
 3676 0000 7E AA                   		push.l	r10
 3677                             	.LCFI425:
 3678 0002 EF 0A                   		mov.L	r0, r10
 3679                             	.LCFI426:
 3680                             		.loc 1 676 1
 3681 0004 03                      		nop
 3682 0005 7E BA                   		pop	r10
 3683 0007 7F 95                   		rte
 3684                             	.LFE211:
 3686                             		.section	.text.INT_Excep_PERIA_INTA244,"ax",@progbits
 3687                             		.global	_INT_Excep_PERIA_INTA244
 3689                             	_INT_Excep_PERIA_INTA244:
 3690                             	.LFB212:
 677:../generate/inthandler.c **** 
 678:../generate/inthandler.c **** // PERIA INTA244
 679:../generate/inthandler.c **** void INT_Excep_PERIA_INTA244(void){ }
 3691                             		.loc 1 679 35
 3692                             		; Note: Interrupt Handler
 3693 0000 7E AA                   		push.l	r10
 3694                             	.LCFI427:
 3695 0002 EF 0A                   		mov.L	r0, r10
 3696                             	.LCFI428:
 3697                             		.loc 1 679 1
 3698 0004 03                      		nop
 3699 0005 7E BA                   		pop	r10
 3700 0007 7F 95                   		rte
 3701                             	.LFE212:
 3703                             		.section	.text.INT_Excep_PERIA_INTA245,"ax",@progbits
 3704                             		.global	_INT_Excep_PERIA_INTA245
 3706                             	_INT_Excep_PERIA_INTA245:
 3707                             	.LFB213:
 680:../generate/inthandler.c **** 
 681:../generate/inthandler.c **** // PERIA INTA245
 682:../generate/inthandler.c **** void INT_Excep_PERIA_INTA245(void){ }
 3708                             		.loc 1 682 35
 3709                             		; Note: Interrupt Handler
 3710 0000 7E AA                   		push.l	r10
 3711                             	.LCFI429:
 3712 0002 EF 0A                   		mov.L	r0, r10
 3713                             	.LCFI430:
 3714                             		.loc 1 682 1
 3715 0004 03                      		nop
 3716 0005 7E BA                   		pop	r10
 3717 0007 7F 95                   		rte
 3718                             	.LFE213:
 3720                             		.section	.text.INT_Excep_PERIA_INTA246,"ax",@progbits
 3721                             		.global	_INT_Excep_PERIA_INTA246
 3723                             	_INT_Excep_PERIA_INTA246:
 3724                             	.LFB214:
 683:../generate/inthandler.c **** 
 684:../generate/inthandler.c **** // PERIA INTA246
 685:../generate/inthandler.c **** void INT_Excep_PERIA_INTA246(void){ }
 3725                             		.loc 1 685 35
 3726                             		; Note: Interrupt Handler
 3727 0000 7E AA                   		push.l	r10
 3728                             	.LCFI431:
 3729 0002 EF 0A                   		mov.L	r0, r10
 3730                             	.LCFI432:
 3731                             		.loc 1 685 1
 3732 0004 03                      		nop
 3733 0005 7E BA                   		pop	r10
 3734 0007 7F 95                   		rte
 3735                             	.LFE214:
 3737                             		.section	.text.INT_Excep_PERIA_INTA247,"ax",@progbits
 3738                             		.global	_INT_Excep_PERIA_INTA247
 3740                             	_INT_Excep_PERIA_INTA247:
 3741                             	.LFB215:
 686:../generate/inthandler.c **** 
 687:../generate/inthandler.c **** // PERIA INTA247
 688:../generate/inthandler.c **** void INT_Excep_PERIA_INTA247(void){ }
 3742                             		.loc 1 688 35
 3743                             		; Note: Interrupt Handler
 3744 0000 7E AA                   		push.l	r10
 3745                             	.LCFI433:
 3746 0002 EF 0A                   		mov.L	r0, r10
 3747                             	.LCFI434:
 3748                             		.loc 1 688 1
 3749 0004 03                      		nop
 3750 0005 7E BA                   		pop	r10
 3751 0007 7F 95                   		rte
 3752                             	.LFE215:
 3754                             		.section	.text.INT_Excep_PERIA_INTA248,"ax",@progbits
 3755                             		.global	_INT_Excep_PERIA_INTA248
 3757                             	_INT_Excep_PERIA_INTA248:
 3758                             	.LFB216:
 689:../generate/inthandler.c **** 
 690:../generate/inthandler.c **** // PERIA INTA248
 691:../generate/inthandler.c **** void INT_Excep_PERIA_INTA248(void){ }
 3759                             		.loc 1 691 35
 3760                             		; Note: Interrupt Handler
 3761 0000 7E AA                   		push.l	r10
 3762                             	.LCFI435:
 3763 0002 EF 0A                   		mov.L	r0, r10
 3764                             	.LCFI436:
 3765                             		.loc 1 691 1
 3766 0004 03                      		nop
 3767 0005 7E BA                   		pop	r10
 3768 0007 7F 95                   		rte
 3769                             	.LFE216:
 3771                             		.section	.text.INT_Excep_PERIA_INTA249,"ax",@progbits
 3772                             		.global	_INT_Excep_PERIA_INTA249
 3774                             	_INT_Excep_PERIA_INTA249:
 3775                             	.LFB217:
 692:../generate/inthandler.c **** 
 693:../generate/inthandler.c **** // PERIA INTA249
 694:../generate/inthandler.c **** void INT_Excep_PERIA_INTA249(void){ }
 3776                             		.loc 1 694 35
 3777                             		; Note: Interrupt Handler
 3778 0000 7E AA                   		push.l	r10
 3779                             	.LCFI437:
 3780 0002 EF 0A                   		mov.L	r0, r10
 3781                             	.LCFI438:
 3782                             		.loc 1 694 1
 3783 0004 03                      		nop
 3784 0005 7E BA                   		pop	r10
 3785 0007 7F 95                   		rte
 3786                             	.LFE217:
 3788                             		.section	.text.INT_Excep_PERIA_INTA250,"ax",@progbits
 3789                             		.global	_INT_Excep_PERIA_INTA250
 3791                             	_INT_Excep_PERIA_INTA250:
 3792                             	.LFB218:
 695:../generate/inthandler.c **** 
 696:../generate/inthandler.c **** // PERIA INTA250
 697:../generate/inthandler.c **** void INT_Excep_PERIA_INTA250(void){ }
 3793                             		.loc 1 697 35
 3794                             		; Note: Interrupt Handler
 3795 0000 7E AA                   		push.l	r10
 3796                             	.LCFI439:
 3797 0002 EF 0A                   		mov.L	r0, r10
 3798                             	.LCFI440:
 3799                             		.loc 1 697 1
 3800 0004 03                      		nop
 3801 0005 7E BA                   		pop	r10
 3802 0007 7F 95                   		rte
 3803                             	.LFE218:
 3805                             		.section	.text.INT_Excep_PERIA_INTA251,"ax",@progbits
 3806                             		.global	_INT_Excep_PERIA_INTA251
 3808                             	_INT_Excep_PERIA_INTA251:
 3809                             	.LFB219:
 698:../generate/inthandler.c **** 
 699:../generate/inthandler.c **** // PERIA INTA251
 700:../generate/inthandler.c **** void INT_Excep_PERIA_INTA251(void){ }
 3810                             		.loc 1 700 35
 3811                             		; Note: Interrupt Handler
 3812 0000 7E AA                   		push.l	r10
 3813                             	.LCFI441:
 3814 0002 EF 0A                   		mov.L	r0, r10
 3815                             	.LCFI442:
 3816                             		.loc 1 700 1
 3817 0004 03                      		nop
 3818 0005 7E BA                   		pop	r10
 3819 0007 7F 95                   		rte
 3820                             	.LFE219:
 3822                             		.section	.text.INT_Excep_PERIA_INTA252,"ax",@progbits
 3823                             		.global	_INT_Excep_PERIA_INTA252
 3825                             	_INT_Excep_PERIA_INTA252:
 3826                             	.LFB220:
 701:../generate/inthandler.c **** 
 702:../generate/inthandler.c **** // PERIA INTA252
 703:../generate/inthandler.c **** void INT_Excep_PERIA_INTA252(void){ }
 3827                             		.loc 1 703 35
 3828                             		; Note: Interrupt Handler
 3829 0000 7E AA                   		push.l	r10
 3830                             	.LCFI443:
 3831 0002 EF 0A                   		mov.L	r0, r10
 3832                             	.LCFI444:
 3833                             		.loc 1 703 1
 3834 0004 03                      		nop
 3835 0005 7E BA                   		pop	r10
 3836 0007 7F 95                   		rte
 3837                             	.LFE220:
 3839                             		.section	.text.INT_Excep_PERIA_INTA253,"ax",@progbits
 3840                             		.global	_INT_Excep_PERIA_INTA253
 3842                             	_INT_Excep_PERIA_INTA253:
 3843                             	.LFB221:
 704:../generate/inthandler.c **** 
 705:../generate/inthandler.c **** // PERIA INTA253
 706:../generate/inthandler.c **** void INT_Excep_PERIA_INTA253(void){ }
 3844                             		.loc 1 706 35
 3845                             		; Note: Interrupt Handler
 3846 0000 7E AA                   		push.l	r10
 3847                             	.LCFI445:
 3848 0002 EF 0A                   		mov.L	r0, r10
 3849                             	.LCFI446:
 3850                             		.loc 1 706 1
 3851 0004 03                      		nop
 3852 0005 7E BA                   		pop	r10
 3853 0007 7F 95                   		rte
 3854                             	.LFE221:
 3856                             		.section	.text.INT_Excep_PERIA_INTA254,"ax",@progbits
 3857                             		.global	_INT_Excep_PERIA_INTA254
 3859                             	_INT_Excep_PERIA_INTA254:
 3860                             	.LFB222:
 707:../generate/inthandler.c **** 
 708:../generate/inthandler.c **** // PERIA INTA254
 709:../generate/inthandler.c **** void INT_Excep_PERIA_INTA254(void){ }
 3861                             		.loc 1 709 35
 3862                             		; Note: Interrupt Handler
 3863 0000 7E AA                   		push.l	r10
 3864                             	.LCFI447:
 3865 0002 EF 0A                   		mov.L	r0, r10
 3866                             	.LCFI448:
 3867                             		.loc 1 709 1
 3868 0004 03                      		nop
 3869 0005 7E BA                   		pop	r10
 3870 0007 7F 95                   		rte
 3871                             	.LFE222:
 3873                             		.section	.text.INT_Excep_PERIA_INTA255,"ax",@progbits
 3874                             		.global	_INT_Excep_PERIA_INTA255
 3876                             	_INT_Excep_PERIA_INTA255:
 3877                             	.LFB223:
 710:../generate/inthandler.c **** 
 711:../generate/inthandler.c **** // PERIA INTA255
 712:../generate/inthandler.c **** void INT_Excep_PERIA_INTA255(void){ }
 3878                             		.loc 1 712 35
 3879                             		; Note: Interrupt Handler
 3880 0000 7E AA                   		push.l	r10
 3881                             	.LCFI449:
 3882 0002 EF 0A                   		mov.L	r0, r10
 3883                             	.LCFI450:
 3884                             		.loc 1 712 1
 3885 0004 03                      		nop
 3886 0005 7E BA                   		pop	r10
 3887 0007 7F 95                   		rte
 3888                             	.LFE223:
 7990                             	.Letext0:
 7991                             		.file 2 "c:\\program files (x86)\\gcc for renesas rx 8.3.0.201904-gnurx-elf\\rx-elf\\rx-elf\\rx-el
 7992                             		.file 3 "c:\\program files (x86)\\gcc for renesas rx 8.3.0.201904-gnurx-elf\\rx-elf\\rx-elf\\rx-el
 7993                             		.file 4 "C:/Users/John/Desktop/workspace/miniwinwm/e2studio/MiniWinCamera/RX65N_GCC/generate/iodef
