   1                             		.file	"mf_kerning.c"
   2                             		.section P,"ax"
   3                             	.Ltext0:
   4                             		.section	.text.fit_leftedge,"ax",@progbits
   6                             	_fit_leftedge:
   7                             	.LFB0:
   8                             		.file 1 "C:/Users/John/Desktop/workspace/miniwinwm/MiniWin/gl/fonts/truetype/mcufont/mf_kerning.c"
   1:C:/Users/John/Desktop/workspace/miniwinwm/MiniWin/gl/fonts/truetype/mcufont\mf_kerning.c **** #include "mf_kerning.h"
   2:C:/Users/John/Desktop/workspace/miniwinwm/MiniWin/gl/fonts/truetype/mcufont\mf_kerning.c **** #include <stdbool.h>
   3:C:/Users/John/Desktop/workspace/miniwinwm/MiniWin/gl/fonts/truetype/mcufont\mf_kerning.c **** 
   4:C:/Users/John/Desktop/workspace/miniwinwm/MiniWin/gl/fonts/truetype/mcufont\mf_kerning.c **** #if MF_USE_KERNING
   5:C:/Users/John/Desktop/workspace/miniwinwm/MiniWin/gl/fonts/truetype/mcufont\mf_kerning.c **** 
   6:C:/Users/John/Desktop/workspace/miniwinwm/MiniWin/gl/fonts/truetype/mcufont\mf_kerning.c **** /* Structure for keeping track of the edge of the glyph as it is rendered. */
   7:C:/Users/John/Desktop/workspace/miniwinwm/MiniWin/gl/fonts/truetype/mcufont\mf_kerning.c **** struct kerning_state_s
   8:C:/Users/John/Desktop/workspace/miniwinwm/MiniWin/gl/fonts/truetype/mcufont\mf_kerning.c **** {
   9:C:/Users/John/Desktop/workspace/miniwinwm/MiniWin/gl/fonts/truetype/mcufont\mf_kerning.c ****     uint8_t edgepos[MF_KERNING_ZONES];
  10:C:/Users/John/Desktop/workspace/miniwinwm/MiniWin/gl/fonts/truetype/mcufont\mf_kerning.c ****     uint8_t zoneheight;
  11:C:/Users/John/Desktop/workspace/miniwinwm/MiniWin/gl/fonts/truetype/mcufont\mf_kerning.c **** };
  12:C:/Users/John/Desktop/workspace/miniwinwm/MiniWin/gl/fonts/truetype/mcufont\mf_kerning.c **** 
  13:C:/Users/John/Desktop/workspace/miniwinwm/MiniWin/gl/fonts/truetype/mcufont\mf_kerning.c **** /* Pixel callback for analyzing the left edge of a glyph. */
  14:C:/Users/John/Desktop/workspace/miniwinwm/MiniWin/gl/fonts/truetype/mcufont\mf_kerning.c **** static void fit_leftedge(int16_t x, int16_t y, uint8_t count, uint8_t alpha,
  15:C:/Users/John/Desktop/workspace/miniwinwm/MiniWin/gl/fonts/truetype/mcufont\mf_kerning.c ****                          void *state)
  16:C:/Users/John/Desktop/workspace/miniwinwm/MiniWin/gl/fonts/truetype/mcufont\mf_kerning.c **** {
   9                             		.loc 1 16 1
  10 0000 6E 7A                   		pushm	r7-r10
  11                             	.LCFI0:
  12 0002 71 0A EC                		add	#-20, r0, r10
  13                             	.LCFI1:
  14 0005 EF A0                   		mov.L	r10, r0
  15 0007 75 45 28                		mov.L	#40, r5
  16 000a 4B A5                   		add	r10, r5
  17 000c D7 A1 04                		mov.W	r1, 8[r10]
  18 000f D7 A2 05                		mov.W	r2, 10[r10]
  19 0012 C7 A3 0C                		mov.B	r3, 12[r10]
  20 0015 C7 A4 0D                		mov.B	r4, 13[r10]
  17:C:/Users/John/Desktop/workspace/miniwinwm/MiniWin/gl/fonts/truetype/mcufont\mf_kerning.c ****     struct kerning_state_s *s = state;
  21                             		.loc 1 17 29
  22 0018 EC 55                   		mov.L	[r5], r5
  23 001a E3 A5                   		mov.L	r5, [r10]
  18:C:/Users/John/Desktop/workspace/miniwinwm/MiniWin/gl/fonts/truetype/mcufont\mf_kerning.c ****     
  19:C:/Users/John/Desktop/workspace/miniwinwm/MiniWin/gl/fonts/truetype/mcufont\mf_kerning.c ****     if (alpha > 7)
  24                             		.loc 1 19 8
  25 001c 59 A5 0D                		movu.B	13[r10], r5
  26 001f 61 75                   		cmp	#7, r5
  27 0021 25 33                   		bleu	.L3
  28                             	.LBB2:
  20:C:/Users/John/Desktop/workspace/miniwinwm/MiniWin/gl/fonts/truetype/mcufont\mf_kerning.c ****     {
  21:C:/Users/John/Desktop/workspace/miniwinwm/MiniWin/gl/fonts/truetype/mcufont\mf_kerning.c ****         uint8_t zone = y / s->zoneheight;
  29                             		.loc 1 21 26
  30 0023 DD A4 05                		mov.W	10[r10], r4
  31                             		.loc 1 21 29
  32 0026 EC A5                   		mov.L	[r10], r5
  33 0028 8C 55                   		mov.B	16[r5], r5
  34 002a 5B 55                   		movu.B	r5, r5
  35                             		.loc 1 21 26
  36 002c EF 47                   		mov.L	r4, r7
  37 002e FC 23 57                		div	r5, r7
  38 0031 EF 75                   		mov.L	r7, r5
  39                             		.loc 1 21 17
  40 0033 C7 A5 04                		mov.B	r5, 4[r10]
  22:C:/Users/John/Desktop/workspace/miniwinwm/MiniWin/gl/fonts/truetype/mcufont\mf_kerning.c ****         if (x < s->edgepos[zone])
  41                             		.loc 1 22 15
  42 0036 DD A4 04                		mov.W	8[r10], r4
  43                             		.loc 1 22 27
  44 0039 59 A5 04                		movu.B	4[r10], r5
  45 003c EC A3                   		mov.L	[r10], r3
  46 003e FE 45 35                		mov.B	[r5,r3], r5
  47 0041 5B 55                   		movu.B	r5, r5
  48                             		.loc 1 22 12
  49 0043 47 54                   		cmp	r5, r4
  50 0045 28 0F                   		bge	.L3
  23:C:/Users/John/Desktop/workspace/miniwinwm/MiniWin/gl/fonts/truetype/mcufont\mf_kerning.c ****             s->edgepos[zone] = x;
  51                             		.loc 1 23 23
  52 0047 59 A5 04                		movu.B	4[r10], r5
  53                             		.loc 1 23 30
  54 004a DD A4 04                		mov.W	8[r10], r4
  55 004d CF 43                   		mov.B	r4, r3
  56 004f EC A4                   		mov.L	[r10], r4
  57 0051 FE 05 43                		mov.B	r3, [r5,r4]
  58                             	.L3:
  59                             	.LBE2:
  24:C:/Users/John/Desktop/workspace/miniwinwm/MiniWin/gl/fonts/truetype/mcufont\mf_kerning.c ****     }
  25:C:/Users/John/Desktop/workspace/miniwinwm/MiniWin/gl/fonts/truetype/mcufont\mf_kerning.c **** }
  60                             		.loc 1 25 1
  61 0054 03                      		nop
  62 0055 3F 7A 09                		rtsd	#36, r7-r10
  63                             	.LFE0:
  65                             		.section	.text.fit_rightedge,"ax",@progbits
  67                             	_fit_rightedge:
  68                             	.LFB1:
  26:C:/Users/John/Desktop/workspace/miniwinwm/MiniWin/gl/fonts/truetype/mcufont\mf_kerning.c **** 
  27:C:/Users/John/Desktop/workspace/miniwinwm/MiniWin/gl/fonts/truetype/mcufont\mf_kerning.c **** /* Pixel callback for analyzing the right edge of a glyph. */
  28:C:/Users/John/Desktop/workspace/miniwinwm/MiniWin/gl/fonts/truetype/mcufont\mf_kerning.c **** static void fit_rightedge(int16_t x, int16_t y, uint8_t count, uint8_t alpha,
  29:C:/Users/John/Desktop/workspace/miniwinwm/MiniWin/gl/fonts/truetype/mcufont\mf_kerning.c ****                          void *state)
  30:C:/Users/John/Desktop/workspace/miniwinwm/MiniWin/gl/fonts/truetype/mcufont\mf_kerning.c **** {
  69                             		.loc 1 30 1
  70 0000 6E 7A                   		pushm	r7-r10
  71                             	.LCFI2:
  72 0002 71 0A EC                		add	#-20, r0, r10
  73                             	.LCFI3:
  74 0005 EF A0                   		mov.L	r10, r0
  75 0007 75 45 28                		mov.L	#40, r5
  76 000a 4B A5                   		add	r10, r5
  77 000c D7 A1 04                		mov.W	r1, 8[r10]
  78 000f D7 A2 05                		mov.W	r2, 10[r10]
  79 0012 C7 A3 0C                		mov.B	r3, 12[r10]
  80 0015 C7 A4 0D                		mov.B	r4, 13[r10]
  31:C:/Users/John/Desktop/workspace/miniwinwm/MiniWin/gl/fonts/truetype/mcufont\mf_kerning.c ****     struct kerning_state_s *s = state;
  81                             		.loc 1 31 29
  82 0018 EC 55                   		mov.L	[r5], r5
  83 001a E3 A5                   		mov.L	r5, [r10]
  32:C:/Users/John/Desktop/workspace/miniwinwm/MiniWin/gl/fonts/truetype/mcufont\mf_kerning.c ****     
  33:C:/Users/John/Desktop/workspace/miniwinwm/MiniWin/gl/fonts/truetype/mcufont\mf_kerning.c ****     if (alpha > 7)
  84                             		.loc 1 33 8
  85 001c 59 A5 0D                		movu.B	13[r10], r5
  86 001f 61 75                   		cmp	#7, r5
  87 0021 25 42                   		bleu	.L6
  88                             	.LBB3:
  34:C:/Users/John/Desktop/workspace/miniwinwm/MiniWin/gl/fonts/truetype/mcufont\mf_kerning.c ****     {
  35:C:/Users/John/Desktop/workspace/miniwinwm/MiniWin/gl/fonts/truetype/mcufont\mf_kerning.c ****         uint8_t zone = y / s->zoneheight;
  89                             		.loc 1 35 26
  90 0023 DD A4 05                		mov.W	10[r10], r4
  91                             		.loc 1 35 29
  92 0026 EC A5                   		mov.L	[r10], r5
  93 0028 8C 55                   		mov.B	16[r5], r5
  94 002a 5B 55                   		movu.B	r5, r5
  95                             		.loc 1 35 26
  96 002c EF 47                   		mov.L	r4, r7
  97 002e FC 23 57                		div	r5, r7
  98 0031 EF 75                   		mov.L	r7, r5
  99                             		.loc 1 35 17
 100 0033 C7 A5 04                		mov.B	r5, 4[r10]
  36:C:/Users/John/Desktop/workspace/miniwinwm/MiniWin/gl/fonts/truetype/mcufont\mf_kerning.c ****         x += count - 1;
 101                             		.loc 1 36 11
 102 0036 59 A5 0C                		movu.B	12[r10], r5
 103 0039 DF 54                   		mov.W	r5, r4
 104 003b DD A5 04                		mov.W	8[r10], r5
 105 003e 4B 45                   		add	r4, r5
 106 0040 60 15                   		sub	#1, r5
 107 0042 D7 A5 04                		mov.W	r5, 8[r10]
  37:C:/Users/John/Desktop/workspace/miniwinwm/MiniWin/gl/fonts/truetype/mcufont\mf_kerning.c ****         if (x > s->edgepos[zone])
 108                             		.loc 1 37 15
 109 0045 DD A4 04                		mov.W	8[r10], r4
 110                             		.loc 1 37 27
 111 0048 59 A5 04                		movu.B	4[r10], r5
 112 004b EC A3                   		mov.L	[r10], r3
 113 004d FE 45 35                		mov.B	[r5,r3], r5
 114 0050 5B 55                   		movu.B	r5, r5
 115                             		.loc 1 37 12
 116 0052 47 54                   		cmp	r5, r4
 117 0054 2B 0F                   		ble	.L6
  38:C:/Users/John/Desktop/workspace/miniwinwm/MiniWin/gl/fonts/truetype/mcufont\mf_kerning.c ****             s->edgepos[zone] = x;
 118                             		.loc 1 38 23
 119 0056 59 A5 04                		movu.B	4[r10], r5
 120                             		.loc 1 38 30
 121 0059 DD A4 04                		mov.W	8[r10], r4
 122 005c CF 43                   		mov.B	r4, r3
 123 005e EC A4                   		mov.L	[r10], r4
 124 0060 FE 05 43                		mov.B	r3, [r5,r4]
 125                             	.L6:
 126                             	.LBE3:
  39:C:/Users/John/Desktop/workspace/miniwinwm/MiniWin/gl/fonts/truetype/mcufont\mf_kerning.c ****     }
  40:C:/Users/John/Desktop/workspace/miniwinwm/MiniWin/gl/fonts/truetype/mcufont\mf_kerning.c **** }
 127                             		.loc 1 40 1
 128 0063 03                      		nop
 129 0064 3F 7A 09                		rtsd	#36, r7-r10
 130                             	.LFE1:
 132                             		.section	.text.do_kerning,"ax",@progbits
 134                             	_do_kerning:
 135                             	.LFB2:
  41:C:/Users/John/Desktop/workspace/miniwinwm/MiniWin/gl/fonts/truetype/mcufont\mf_kerning.c **** 
  42:C:/Users/John/Desktop/workspace/miniwinwm/MiniWin/gl/fonts/truetype/mcufont\mf_kerning.c **** /* Should kerning be done against this character? */
  43:C:/Users/John/Desktop/workspace/miniwinwm/MiniWin/gl/fonts/truetype/mcufont\mf_kerning.c **** static bool do_kerning(mf_char c)
  44:C:/Users/John/Desktop/workspace/miniwinwm/MiniWin/gl/fonts/truetype/mcufont\mf_kerning.c **** {
 136                             		.loc 1 44 1
 137 0000 7E AA                   		push.l	r10
 138                             	.LCFI4:
 139 0002 71 0A FC                		add	#-4, r0, r10
 140                             	.LCFI5:
 141 0005 EF A0                   		mov.L	r10, r0
 142 0007 C3 A1                   		mov.B	r1, [r10]
  45:C:/Users/John/Desktop/workspace/miniwinwm/MiniWin/gl/fonts/truetype/mcufont\mf_kerning.c ****     /* Just a speed optimization, spaces would be ignored anyway. */
  46:C:/Users/John/Desktop/workspace/miniwinwm/MiniWin/gl/fonts/truetype/mcufont\mf_kerning.c ****     if (c == ' ' || c == '\n' || c == '\r' || c == '\t')
 143                             		.loc 1 46 8
 144 0009 58 A5                   		movu.B	[r10], r5
 145 000b 75 55 20                		cmp	#32, r5
 146 000e 20 12                   		beq	.L8
 147                             		.loc 1 46 18 discriminator 1
 148 0010 58 A5                   		movu.B	[r10], r5
 149 0012 61 A5                   		cmp	#10, r5
 150 0014 20 0C                   		beq	.L8
 151                             		.loc 1 46 31 discriminator 2
 152 0016 58 A5                   		movu.B	[r10], r5
 153 0018 61 D5                   		cmp	#13, r5
 154 001a 16                      		beq	.L8
 155                             		.loc 1 46 44 discriminator 3
 156 001b 58 A5                   		movu.B	[r10], r5
 157 001d 61 95                   		cmp	#9, r5
 158 001f 1D                      		bne	.L9
 159                             		.balign 8,3,1
 160                             	.L8:
  47:C:/Users/John/Desktop/workspace/miniwinwm/MiniWin/gl/fonts/truetype/mcufont\mf_kerning.c ****         return false;
 161                             		.loc 1 47 16
 162 0020 66 05                   		mov	#0, r5
 163 0022 2E 15                   		bra	.L10
 164                             	.L9:
  48:C:/Users/John/Desktop/workspace/miniwinwm/MiniWin/gl/fonts/truetype/mcufont\mf_kerning.c ****     
  49:C:/Users/John/Desktop/workspace/miniwinwm/MiniWin/gl/fonts/truetype/mcufont\mf_kerning.c ****     /* Do not kern against digits, in order to keep values in tables nicely
  50:C:/Users/John/Desktop/workspace/miniwinwm/MiniWin/gl/fonts/truetype/mcufont\mf_kerning.c ****      * aligned. Most fonts have constant width for digits. */
  51:C:/Users/John/Desktop/workspace/miniwinwm/MiniWin/gl/fonts/truetype/mcufont\mf_kerning.c ****     if (c >= '0' && c <= '9')
 165                             		.loc 1 51 8
 166 0024 58 A5                   		movu.B	[r10], r5
 167 0026 75 55 2F                		cmp	#47, r5
 168 0029 25 0C                   		bleu	.L11
 169                             		.loc 1 51 18 discriminator 1
 170 002b 58 A5                   		movu.B	[r10], r5
 171 002d 75 55 39                		cmp	#57, r5
 172 0030 24 05                   		bgtu	.L11
  52:C:/Users/John/Desktop/workspace/miniwinwm/MiniWin/gl/fonts/truetype/mcufont\mf_kerning.c ****         return false;
 173                             		.loc 1 52 16
 174 0032 66 05                   		mov	#0, r5
 175 0034 0B                      		bra	.L10
 176                             	.L11:
  53:C:/Users/John/Desktop/workspace/miniwinwm/MiniWin/gl/fonts/truetype/mcufont\mf_kerning.c ****     
  54:C:/Users/John/Desktop/workspace/miniwinwm/MiniWin/gl/fonts/truetype/mcufont\mf_kerning.c ****     return true;
 177                             		.loc 1 54 12
 178 0035 66 15                   		mov	#1, r5
 179                             	.L10:
 180 0037 5B 55                   		movu.B	r5, r5
  55:C:/Users/John/Desktop/workspace/miniwinwm/MiniWin/gl/fonts/truetype/mcufont\mf_kerning.c **** }
 181                             		.loc 1 55 1
 182 0039 EF 51                   		mov.L	r5, r1
 183 003b 3F AA 02                		rtsd	#8, r10-r10
 184                             	.LFE2:
 186 003e EF 00                   		.section	.text.max16,"ax",@progbits
 188                             	_max16:
 189                             	.LFB3:
  56:C:/Users/John/Desktop/workspace/miniwinwm/MiniWin/gl/fonts/truetype/mcufont\mf_kerning.c **** 
  57:C:/Users/John/Desktop/workspace/miniwinwm/MiniWin/gl/fonts/truetype/mcufont\mf_kerning.c **** /*static int16_t min16(int16_t a, int16_t b) { return (a < b) ? a : b; }*/
  58:C:/Users/John/Desktop/workspace/miniwinwm/MiniWin/gl/fonts/truetype/mcufont\mf_kerning.c **** static int16_t max16(int16_t a, int16_t b) { return (a > b) ? a : b; }
 190                             		.loc 1 58 44
 191 0000 7E AA                   		push.l	r10
 192                             	.LCFI6:
 193 0002 71 0A FC                		add	#-4, r0, r10
 194                             	.LCFI7:
 195 0005 EF A0                   		mov.L	r10, r0
 196 0007 D3 A1                   		mov.W	r1, [r10]
 197 0009 D7 A2 01                		mov.W	r2, 2[r10]
 198                             		.loc 1 58 65
 199 000c DD A4 01                		mov.W	2[r10], r4
 200 000f DC A5                   		mov.W	[r10], r5
 201 0011 FC 13 45                		max	r4, r5
 202 0014 DF 55                   		mov.W	r5, r5
 203                             		.loc 1 58 1
 204 0016 EF 51                   		mov.L	r5, r1
 205 0018 3F AA 02                		rtsd	#8, r10-r10
 206                             	.LFE3:
 208                             		.section	.text.avg16,"ax",@progbits
 210                             	_avg16:
 211                             	.LFB4:
  59:C:/Users/John/Desktop/workspace/miniwinwm/MiniWin/gl/fonts/truetype/mcufont\mf_kerning.c **** static int16_t avg16(int16_t a, int16_t b) { return (a + b) / 2; }
 212                             		.loc 1 59 44
 213 0000 7E AA                   		push.l	r10
 214                             	.LCFI8:
 215 0002 71 0A FC                		add	#-4, r0, r10
 216                             	.LCFI9:
 217 0005 EF A0                   		mov.L	r10, r0
 218 0007 D3 A1                   		mov.W	r1, [r10]
 219 0009 D7 A2 01                		mov.W	r2, 2[r10]
 220                             		.loc 1 59 56
 221 000c DC A4                   		mov.W	[r10], r4
 222 000e DD A5 01                		mov.W	2[r10], r5
 223 0011 4B 45                   		add	r4, r5
 224                             		.loc 1 59 61
 225 0013 FD 9F 54                		shlr	#31, r5, r4
 226 0016 4B 45                   		add	r4, r5
 227 0018 6A 15                   		shar	#1, r5
 228 001a DF 55                   		mov.W	r5, r5
 229                             		.loc 1 59 1
 230 001c EF 51                   		mov.L	r5, r1
 231 001e 3F AA 02                		rtsd	#8, r10-r10
 232                             	.LFE4:
 234                             		.section	.text.mf_compute_kerning,"ax",@progbits
 235                             		.global	_mf_compute_kerning
 237                             	_mf_compute_kerning:
 238                             	.LFB5:
  60:C:/Users/John/Desktop/workspace/miniwinwm/MiniWin/gl/fonts/truetype/mcufont\mf_kerning.c **** 
  61:C:/Users/John/Desktop/workspace/miniwinwm/MiniWin/gl/fonts/truetype/mcufont\mf_kerning.c **** int8_t mf_compute_kerning(const struct mf_font_s *font,
  62:C:/Users/John/Desktop/workspace/miniwinwm/MiniWin/gl/fonts/truetype/mcufont\mf_kerning.c ****                           mf_char c1, mf_char c2)
  63:C:/Users/John/Desktop/workspace/miniwinwm/MiniWin/gl/fonts/truetype/mcufont\mf_kerning.c **** {
 239                             		.loc 1 63 1
 240 0000 6E 6A                   		pushm	r6-r10
 241                             	.LCFI10:
 242 0002 71 0A C8                		add	#-56, r0, r10
 243                             	.LCFI11:
 244 0005 71 A0 F8                		add	#-8, r10, r0
 245                             	.LCFI12:
 246 0008 E7 A1 0C                		mov.L	r1, 48[r10]
 247 000b C7 A2 34                		mov.B	r2, 52[r10]
 248 000e C7 A3 35                		mov.B	r3, 53[r10]
  64:C:/Users/John/Desktop/workspace/miniwinwm/MiniWin/gl/fonts/truetype/mcufont\mf_kerning.c ****     struct kerning_state_s leftedge, rightedge;
  65:C:/Users/John/Desktop/workspace/miniwinwm/MiniWin/gl/fonts/truetype/mcufont\mf_kerning.c ****     uint8_t w1, w2, i, min_space;
  66:C:/Users/John/Desktop/workspace/miniwinwm/MiniWin/gl/fonts/truetype/mcufont\mf_kerning.c ****     int16_t normal_space, adjust, max_adjust;
  67:C:/Users/John/Desktop/workspace/miniwinwm/MiniWin/gl/fonts/truetype/mcufont\mf_kerning.c ****     
  68:C:/Users/John/Desktop/workspace/miniwinwm/MiniWin/gl/fonts/truetype/mcufont\mf_kerning.c ****     if (font->flags & MF_FONT_FLAG_MONOSPACE)
 249                             		.loc 1 68 13
 250 0011 ED A5 0C                		mov.L	48[r10], r5
 251 0014 8B DD                   		mov.B	15[r5], r5
 252                             		.loc 1 68 21
 253 0016 5B 55                   		movu.B	r5, r5
 254 0018 64 15                   		and	#1, r5
 255                             		.loc 1 68 8
 256 001a 61 05                   		cmp	#0, r5
 257 001c 16                      		beq	.L17
  69:C:/Users/John/Desktop/workspace/miniwinwm/MiniWin/gl/fonts/truetype/mcufont\mf_kerning.c ****         return 0; /* No kerning for monospace fonts */
 258                             		.loc 1 69 16
 259 001d 66 05                   		mov	#0, r5
 260 001f 38 AF 01                		bra	.L33
 261                             	.L17:
  70:C:/Users/John/Desktop/workspace/miniwinwm/MiniWin/gl/fonts/truetype/mcufont\mf_kerning.c ****     
  71:C:/Users/John/Desktop/workspace/miniwinwm/MiniWin/gl/fonts/truetype/mcufont\mf_kerning.c ****     if (!do_kerning(c1) || !do_kerning(c2))
 262                             		.loc 1 71 10
 263 0022 CD A1 34                		mov.B	52[r10], r1
 264 0025 05 00 00 00             		bsr	_do_kerning
 265 0029 EF 15                   		mov.L	r1, r5
 266                             		.loc 1 71 9
 267 002b FD 74 D5 01             		xor	#1, r5
 268                             		.loc 1 71 8
 269 002f 5B 55                   		movu.B	r5, r5
 270 0031 61 05                   		cmp	#0, r5
 271 0033 21 14                   		bne	.L19
 272                             		.loc 1 71 29 discriminator 1
 273 0035 CD A1 35                		mov.B	53[r10], r1
 274 0038 05 00 00 00             		bsr	_do_kerning
 275 003c EF 15                   		mov.L	r1, r5
 276                             		.loc 1 71 28 discriminator 1
 277 003e FD 74 D5 01             		xor	#1, r5
 278                             		.loc 1 71 25 discriminator 1
 279 0042 5B 55                   		movu.B	r5, r5
 280 0044 61 05                   		cmp	#0, r5
 281 0046 16                      		beq	.L20
 282                             	.L19:
  72:C:/Users/John/Desktop/workspace/miniwinwm/MiniWin/gl/fonts/truetype/mcufont\mf_kerning.c ****         return 0;
 283                             		.loc 1 72 16
 284 0047 66 05                   		mov	#0, r5
 285 0049 38 85 01                		bra	.L33
 286                             	.L20:
  73:C:/Users/John/Desktop/workspace/miniwinwm/MiniWin/gl/fonts/truetype/mcufont\mf_kerning.c ****     
  74:C:/Users/John/Desktop/workspace/miniwinwm/MiniWin/gl/fonts/truetype/mcufont\mf_kerning.c ****     /* Compute the height of one kerning zone in pixels */
  75:C:/Users/John/Desktop/workspace/miniwinwm/MiniWin/gl/fonts/truetype/mcufont\mf_kerning.c ****     i = (font->height + MF_KERNING_ZONES - 1) / MF_KERNING_ZONES;
 287                             		.loc 1 75 14
 288 004c ED A5 0C                		mov.L	48[r10], r5
 289 004f 8A 5D                   		mov.B	9[r5], r5
 290 0051 5B 55                   		movu.B	r5, r5
 291                             		.loc 1 75 42
 292 0053 62 F5                   		add	#15, r5
 293                             		.loc 1 75 47
 294 0055 61 05                   		cmp	#0, r5
 295 0057 28 04                   		bge	.L21
 296 0059 62 F5                   		add	#15, r5
 297                             	.L21:
 298 005b 6A 45                   		shar	#4, r5
 299                             		.loc 1 75 7
 300 005d C3 A5                   		mov.B	r5, [r10]
  76:C:/Users/John/Desktop/workspace/miniwinwm/MiniWin/gl/fonts/truetype/mcufont\mf_kerning.c ****     if (i < 1) i = 1;
 301                             		.loc 1 76 8
 302 005f 58 A5                   		movu.B	[r10], r5
 303 0061 61 05                   		cmp	#0, r5
 304 0063 1C                      		bne	.L22
 305                             		.loc 1 76 18 discriminator 1
 306 0064 F8 A4 01                		mov.B	#1, [r10]
 307                             	.L22:
  77:C:/Users/John/Desktop/workspace/miniwinwm/MiniWin/gl/fonts/truetype/mcufont\mf_kerning.c ****     
  78:C:/Users/John/Desktop/workspace/miniwinwm/MiniWin/gl/fonts/truetype/mcufont\mf_kerning.c ****     /* Initialize structures */
  79:C:/Users/John/Desktop/workspace/miniwinwm/MiniWin/gl/fonts/truetype/mcufont\mf_kerning.c ****     leftedge.zoneheight = rightedge.zoneheight = i;
 308                             		.loc 1 79 48
 309 0067 71 A5 1D                		add	#29, r10, r5
 310 006a CC A4                   		mov.B	[r10], r4
 311 006c 84 54                   		mov.B	r4, 16[r5]
 312                             		.loc 1 79 36
 313 006e 71 A5 1D                		add	#29, r10, r5
 314 0071 8C 55                   		mov.B	16[r5], r5
 315                             		.loc 1 79 25
 316 0073 C7 A5 1C                		mov.B	r5, 28[r10]
  80:C:/Users/John/Desktop/workspace/miniwinwm/MiniWin/gl/fonts/truetype/mcufont\mf_kerning.c ****     for (i = 0; i < MF_KERNING_ZONES; i++)
 317                             		.loc 1 80 12
 318 0076 F8 A4 00                		mov.B	#0, [r10]
 319                             		.loc 1 80 5
 320 0079 2E 1A                   		bra	.L23
 321                             	.L24:
  81:C:/Users/John/Desktop/workspace/miniwinwm/MiniWin/gl/fonts/truetype/mcufont\mf_kerning.c ****     {
  82:C:/Users/John/Desktop/workspace/miniwinwm/MiniWin/gl/fonts/truetype/mcufont\mf_kerning.c ****         leftedge.edgepos[i] = 255;
 322                             		.loc 1 82 25 discriminator 3
 323 007b 58 A5                   		movu.B	[r10], r5
 324                             		.loc 1 82 29 discriminator 3
 325 007d 4B A5                   		add	r10, r5
 326 007f F9 54 0C FF             		mov.B	#-1, 12[r5]
  83:C:/Users/John/Desktop/workspace/miniwinwm/MiniWin/gl/fonts/truetype/mcufont\mf_kerning.c ****         rightedge.edgepos[i] = 0;
 327                             		.loc 1 83 26 discriminator 3
 328 0083 58 A5                   		movu.B	[r10], r5
 329                             		.loc 1 83 30 discriminator 3
 330 0085 71 A4 1D                		add	#29, r10, r4
 331 0088 66 07                   		mov	#0, r7
 332 008a FE 05 47                		mov.B	r7, [r5,r4]
  80:C:/Users/John/Desktop/workspace/miniwinwm/MiniWin/gl/fonts/truetype/mcufont\mf_kerning.c ****     for (i = 0; i < MF_KERNING_ZONES; i++)
 333                             		.loc 1 80 40 discriminator 3
 334 008d CC A5                   		mov.B	[r10], r5
 335 008f 62 15                   		add	#1, r5
 336 0091 C3 A5                   		mov.B	r5, [r10]
 337                             	.L23:
  80:C:/Users/John/Desktop/workspace/miniwinwm/MiniWin/gl/fonts/truetype/mcufont\mf_kerning.c ****     for (i = 0; i < MF_KERNING_ZONES; i++)
 338                             		.loc 1 80 5 discriminator 1
 339 0093 58 A5                   		movu.B	[r10], r5
 340 0095 61 F5                   		cmp	#15, r5
 341 0097 25 E4                   		bleu	.L24
  84:C:/Users/John/Desktop/workspace/miniwinwm/MiniWin/gl/fonts/truetype/mcufont\mf_kerning.c ****     }
  85:C:/Users/John/Desktop/workspace/miniwinwm/MiniWin/gl/fonts/truetype/mcufont\mf_kerning.c ****     
  86:C:/Users/John/Desktop/workspace/miniwinwm/MiniWin/gl/fonts/truetype/mcufont\mf_kerning.c ****     /* Analyze the edges of both glyphs. */
  87:C:/Users/John/Desktop/workspace/miniwinwm/MiniWin/gl/fonts/truetype/mcufont\mf_kerning.c ****     w1 = mf_render_character(font, 0, 0, c1, fit_rightedge, &rightedge);
 342                             		.loc 1 87 10
 343 0099 71 A5 1D                		add	#29, r10, r5
 344 009c A0 0D                   		mov.L	r5, 4[r0]
 345 009e F8 02 00 00 00 00       		mov.L	#_fit_rightedge, [r0]
 346 00a4 CD A4 34                		mov.B	52[r10], r4
 347 00a7 66 03                   		mov	#0, r3
 348 00a9 66 02                   		mov	#0, r2
 349 00ab ED A1 0C                		mov.L	48[r10], r1
 350 00ae 05 00 00 00             		bsr	_mf_render_character
 351 00b2 EF 15                   		mov.L	r1, r5
 352 00b4 C7 A5 04                		mov.B	r5, 4[r10]
  88:C:/Users/John/Desktop/workspace/miniwinwm/MiniWin/gl/fonts/truetype/mcufont\mf_kerning.c ****     w2 = mf_render_character(font, 0, 0, c2, fit_leftedge, &leftedge);
 353                             		.loc 1 88 10
 354 00b7 71 A5 0C                		add	#12, r10, r5
 355 00ba A0 0D                   		mov.L	r5, 4[r0]
 356 00bc F8 02 00 00 00 00       		mov.L	#_fit_leftedge, [r0]
 357 00c2 CD A4 35                		mov.B	53[r10], r4
 358 00c5 66 03                   		mov	#0, r3
 359 00c7 66 02                   		mov	#0, r2
 360 00c9 ED A1 0C                		mov.L	48[r10], r1
 361 00cc 05 00 00 00             		bsr	_mf_render_character
 362 00d0 EF 15                   		mov.L	r1, r5
 363 00d2 C7 A5 05                		mov.B	r5, 5[r10]
  89:C:/Users/John/Desktop/workspace/miniwinwm/MiniWin/gl/fonts/truetype/mcufont\mf_kerning.c ****     
  90:C:/Users/John/Desktop/workspace/miniwinwm/MiniWin/gl/fonts/truetype/mcufont\mf_kerning.c ****     /* Find the minimum horizontal space between the glyphs. */
  91:C:/Users/John/Desktop/workspace/miniwinwm/MiniWin/gl/fonts/truetype/mcufont\mf_kerning.c ****     min_space = 255;
 364                             		.loc 1 91 15
 365 00d5 F9 A4 01 FF             		mov.B	#-1, 1[r10]
  92:C:/Users/John/Desktop/workspace/miniwinwm/MiniWin/gl/fonts/truetype/mcufont\mf_kerning.c ****     for (i = 0; i < MF_KERNING_ZONES; i++)
 366                             		.loc 1 92 12
 367 00d9 F8 A4 00                		mov.B	#0, [r10]
 368                             		.loc 1 92 5
 369 00dc 2E 51                   		bra	.L25
 370                             	.L29:
 371                             	.LBB4:
  93:C:/Users/John/Desktop/workspace/miniwinwm/MiniWin/gl/fonts/truetype/mcufont\mf_kerning.c ****     {
  94:C:/Users/John/Desktop/workspace/miniwinwm/MiniWin/gl/fonts/truetype/mcufont\mf_kerning.c ****         uint8_t space;
  95:C:/Users/John/Desktop/workspace/miniwinwm/MiniWin/gl/fonts/truetype/mcufont\mf_kerning.c ****         if (leftedge.edgepos[i] == 255 || rightedge.edgepos[i] == 0)
 372                             		.loc 1 95 29
 373 00de 58 A5                   		movu.B	[r10], r5
 374 00e0 4B A5                   		add	r10, r5
 375 00e2 8B 55                   		mov.B	12[r5], r5
 376                             		.loc 1 95 12
 377 00e4 5B 55                   		movu.B	r5, r5
 378 00e6 75 55 FF                		cmp	#0xff, r5
 379 00e9 20 3D                   		beq	.L34
 380                             		.loc 1 95 60 discriminator 1
 381 00eb 58 A5                   		movu.B	[r10], r5
 382 00ed 71 A4 1D                		add	#29, r10, r4
 383 00f0 FE 45 45                		mov.B	[r5,r4], r5
 384                             		.loc 1 95 40 discriminator 1
 385 00f3 5B 55                   		movu.B	r5, r5
 386 00f5 61 05                   		cmp	#0, r5
 387 00f7 20 2F                   		beq	.L34
  96:C:/Users/John/Desktop/workspace/miniwinwm/MiniWin/gl/fonts/truetype/mcufont\mf_kerning.c ****             continue; /* Outside glyph area. */
  97:C:/Users/John/Desktop/workspace/miniwinwm/MiniWin/gl/fonts/truetype/mcufont\mf_kerning.c ****         
  98:C:/Users/John/Desktop/workspace/miniwinwm/MiniWin/gl/fonts/truetype/mcufont\mf_kerning.c ****         space = w1 - rightedge.edgepos[i] + leftedge.edgepos[i];
 388                             		.loc 1 98 39
 389 00f9 58 A5                   		movu.B	[r10], r5
 390 00fb 71 A4 1D                		add	#29, r10, r4
 391 00fe FE 45 45                		mov.B	[r5,r4], r5
 392                             		.loc 1 98 20
 393 0101 CD A4 04                		mov.B	4[r10], r4
 394 0104 FF 05 54                		sub	r5, r4, r5
 395 0107 CF 54                   		mov.B	r5, r4
 396                             		.loc 1 98 61
 397 0109 58 A5                   		movu.B	[r10], r5
 398 010b 4B A5                   		add	r10, r5
 399 010d 8B 55                   		mov.B	12[r5], r5
 400                             		.loc 1 98 15
 401 010f 4B 45                   		add	r4, r5
 402 0111 C7 A5 06                		mov.B	r5, 6[r10]
  99:C:/Users/John/Desktop/workspace/miniwinwm/MiniWin/gl/fonts/truetype/mcufont\mf_kerning.c ****         if (space < min_space)
 403                             		.loc 1 99 12
 404 0114 59 A4 06                		movu.B	6[r10], r4
 405 0117 59 A5 01                		movu.B	1[r10], r5
 406 011a 47 54                   		cmp	r5, r4
 407 011c 22 0B                   		bgeu	.L28
 100:C:/Users/John/Desktop/workspace/miniwinwm/MiniWin/gl/fonts/truetype/mcufont\mf_kerning.c ****             min_space = space;
 408                             		.loc 1 100 23
 409 011e CD A5 06                		mov.B	6[r10], r5
 410 0121 C7 A5 01                		mov.B	r5, 1[r10]
 411 0124 2E 03                   		bra	.L28
 412                             	.L34:
  96:C:/Users/John/Desktop/workspace/miniwinwm/MiniWin/gl/fonts/truetype/mcufont\mf_kerning.c ****             continue; /* Outside glyph area. */
 413                             		.loc 1 96 13
 414 0126 03                      		nop
 415                             	.L28:
 416                             	.LBE4:
  92:C:/Users/John/Desktop/workspace/miniwinwm/MiniWin/gl/fonts/truetype/mcufont\mf_kerning.c ****     {
 417                             		.loc 1 92 40 discriminator 2
 418 0127 CC A5                   		mov.B	[r10], r5
 419 0129 62 15                   		add	#1, r5
 420 012b C3 A5                   		mov.B	r5, [r10]
 421                             	.L25:
  92:C:/Users/John/Desktop/workspace/miniwinwm/MiniWin/gl/fonts/truetype/mcufont\mf_kerning.c ****     {
 422                             		.loc 1 92 5 discriminator 1
 423 012d 58 A5                   		movu.B	[r10], r5
 424 012f 61 F5                   		cmp	#15, r5
 425 0131 25 AD                   		bleu	.L29
 101:C:/Users/John/Desktop/workspace/miniwinwm/MiniWin/gl/fonts/truetype/mcufont\mf_kerning.c ****     }
 102:C:/Users/John/Desktop/workspace/miniwinwm/MiniWin/gl/fonts/truetype/mcufont\mf_kerning.c ****     
 103:C:/Users/John/Desktop/workspace/miniwinwm/MiniWin/gl/fonts/truetype/mcufont\mf_kerning.c ****     if (min_space == 255)
 426                             		.loc 1 103 8
 427 0133 59 A5 01                		movu.B	1[r10], r5
 428 0136 75 55 FF                		cmp	#0xff, r5
 429 0139 1E                      		bne	.L30
 104:C:/Users/John/Desktop/workspace/miniwinwm/MiniWin/gl/fonts/truetype/mcufont\mf_kerning.c ****         return 0; /* One of the characters is space, or both are punctuation. */
 430                             		.loc 1 104 16
 431 013a 66 05                   		mov	#0, r5
 432 013c 38 92 00                		bra	.L33
 433                             	.L30:
 105:C:/Users/John/Desktop/workspace/miniwinwm/MiniWin/gl/fonts/truetype/mcufont\mf_kerning.c ****     
 106:C:/Users/John/Desktop/workspace/miniwinwm/MiniWin/gl/fonts/truetype/mcufont\mf_kerning.c ****     /* Compute the adjustment of the glyph position. */
 107:C:/Users/John/Desktop/workspace/miniwinwm/MiniWin/gl/fonts/truetype/mcufont\mf_kerning.c ****     normal_space = avg16(w1, w2) * MF_KERNING_SPACE_PERCENT / 100;
 434                             		.loc 1 107 20
 435 013f 59 A5 04                		movu.B	4[r10], r5
 436 0142 DF 54                   		mov.W	r5, r4
 437 0144 59 A5 05                		movu.B	5[r10], r5
 438 0147 DF 52                   		mov.W	r5, r2
 439 0149 DF 41                   		mov.W	r4, r1
 440 014b 05 00 00 00             		bsr	_avg16
 441 014f EF 15                   		mov.L	r1, r5
 442 0151 DF 55                   		mov.W	r5, r5
 443                             		.loc 1 107 34
 444 0153 66 F4                   		mov.L	#15, r4
 445 0155 4F 54                   		mul	r5, r4
 446                             		.loc 1 107 61
 447 0157 FB 72 1F 85 EB 51       		mov.L	#0x51eb851f, r7
 448 015d FC 1B 47                		emul	r4, r7
 449 0160 EF 75                   		mov.L	r7, r5
 450 0162 EF 86                   		mov.L	r8, r6
 451 0164 FD A5 63                		shar	#5, r6, r3
 452 0167 FD BF 45                		shar	#31, r4, r5
 453 016a FF 05 53                		sub	r5, r3, r5
 454                             		.loc 1 107 18
 455 016d D7 A5 04                		mov.W	r5, 8[r10]
 108:C:/Users/John/Desktop/workspace/miniwinwm/MiniWin/gl/fonts/truetype/mcufont\mf_kerning.c ****     normal_space += MF_KERNING_SPACE_PIXELS;
 456                             		.loc 1 108 18
 457 0170 DD A5 04                		mov.W	8[r10], r5
 458 0173 62 35                   		add	#3, r5
 459 0175 D7 A5 04                		mov.W	r5, 8[r10]
 109:C:/Users/John/Desktop/workspace/miniwinwm/MiniWin/gl/fonts/truetype/mcufont\mf_kerning.c ****     adjust = normal_space - min_space;
 460                             		.loc 1 109 27
 461 0178 DD A4 04                		mov.W	8[r10], r4
 462 017b 59 A5 01                		movu.B	1[r10], r5
 463 017e FF 05 54                		sub	r5, r4, r5
 464                             		.loc 1 109 12
 465 0181 D7 A5 01                		mov.W	r5, 2[r10]
 110:C:/Users/John/Desktop/workspace/miniwinwm/MiniWin/gl/fonts/truetype/mcufont\mf_kerning.c ****     max_adjust = -max16(w1, w2) * MF_KERNING_LIMIT / 100;
 466                             		.loc 1 110 19
 467 0184 59 A5 04                		movu.B	4[r10], r5
 468 0187 DF 54                   		mov.W	r5, r4
 469 0189 59 A5 05                		movu.B	5[r10], r5
 470 018c DF 52                   		mov.W	r5, r2
 471 018e DF 41                   		mov.W	r4, r1
 472 0190 05 00 00 00             		bsr	_max16
 473 0194 EF 15                   		mov.L	r1, r5
 474                             		.loc 1 110 16
 475 0196 DF 54                   		mov.W	r5, r4
 476 0198 FB 72 67 66 66 66       		mov.L	#0x66666667, r7
 477 019e FC 1B 47                		emul	r4, r7
 478 01a1 EF 75                   		mov.L	r7, r5
 479 01a3 EF 86                   		mov.L	r8, r6
 480 01a5 FD A1 65                		shar	#1, r6, r5
 481 01a8 6B F4                   		shar	#31, r4
 482 01aa FF 05 54                		sub	r5, r4, r5
 483 01ad D7 A5 05                		mov.W	r5, 10[r10]
 111:C:/Users/John/Desktop/workspace/miniwinwm/MiniWin/gl/fonts/truetype/mcufont\mf_kerning.c ****     
 112:C:/Users/John/Desktop/workspace/miniwinwm/MiniWin/gl/fonts/truetype/mcufont\mf_kerning.c ****     if (adjust > 0) adjust = 0;
 484                             		.loc 1 112 8
 485 01b0 DD A5 01                		mov.W	2[r10], r5
 486 01b3 61 05                   		cmp	#0, r5
 487 01b5 2B 06                   		ble	.L31
 488                             		.loc 1 112 28 discriminator 1
 489 01b7 F9 A5 01 00             		mov.W	#0, 2[r10]
 490                             	.L31:
 113:C:/Users/John/Desktop/workspace/miniwinwm/MiniWin/gl/fonts/truetype/mcufont\mf_kerning.c ****     if (adjust < max_adjust) adjust = max_adjust;
 491                             		.loc 1 113 8
 492 01bb DD A4 01                		mov.W	2[r10], r4
 493 01be DD A5 05                		mov.W	10[r10], r5
 494 01c1 47 54                   		cmp	r5, r4
 495 01c3 28 08                   		bge	.L32
 496                             		.loc 1 113 37 discriminator 1
 497 01c5 DD A5 05                		mov.W	10[r10], r5
 498 01c8 D7 A5 01                		mov.W	r5, 2[r10]
 499                             	.L32:
 114:C:/Users/John/Desktop/workspace/miniwinwm/MiniWin/gl/fonts/truetype/mcufont\mf_kerning.c ****     
 115:C:/Users/John/Desktop/workspace/miniwinwm/MiniWin/gl/fonts/truetype/mcufont\mf_kerning.c ****     return adjust;
 500                             		.loc 1 115 12
 501 01cb DD A5 01                		mov.W	2[r10], r5
 502                             		.balign 8,3,1
 503                             	.L33:
 504 01ce CF 55                   		mov.B	r5, r5
 116:C:/Users/John/Desktop/workspace/miniwinwm/MiniWin/gl/fonts/truetype/mcufont\mf_kerning.c **** }
 505                             		.loc 1 116 1 discriminator 1
 506 01d0 EF 51                   		mov.L	r5, r1
 507 01d2 3F 6A 15                		rtsd	#84, r6-r10
 508                             	.LFE5:
 667                             	.Letext0:
 668                             		.file 2 "c:\\program files (x86)\\gcc for renesas rx 8.3.0.201904-gnurx-elf\\rx-elf\\rx-elf\\rx-el
 669                             		.file 3 "c:\\program files (x86)\\gcc for renesas rx 8.3.0.201904-gnurx-elf\\rx-elf\\rx-elf\\rx-el
 670                             		.file 4 "C:/Users/John/Desktop/workspace/miniwinwm/MiniWin/gl/fonts/truetype/mcufont/mf_encoding.h
 671                             		.file 5 "C:/Users/John/Desktop/workspace/miniwinwm/MiniWin/gl/fonts/truetype/mcufont/mf_font.h"
