   1                             		.file	"mf_wordwrap.c"
   2                             		.section P,"ax"
   3                             	.Ltext0:
   4                             		.section	.text.is_wrap_space,"ax",@progbits
   6                             	_is_wrap_space:
   7                             	.LFB0:
   8                             		.file 1 "C:/Users/John/Desktop/workspace/miniwinwm/MiniWin/gl/fonts/truetype/mcufont/mf_wordwrap.c
   1:C:/Users/John/Desktop/workspace/miniwinwm/MiniWin/gl/fonts/truetype/mcufont\mf_wordwrap.c **** #include "mf_wordwrap.h"
   2:C:/Users/John/Desktop/workspace/miniwinwm/MiniWin/gl/fonts/truetype/mcufont\mf_wordwrap.c **** 
   3:C:/Users/John/Desktop/workspace/miniwinwm/MiniWin/gl/fonts/truetype/mcufont\mf_wordwrap.c **** /* Returns true if the line can be broken at this character. */
   4:C:/Users/John/Desktop/workspace/miniwinwm/MiniWin/gl/fonts/truetype/mcufont\mf_wordwrap.c **** static bool is_wrap_space(uint16_t c)
   5:C:/Users/John/Desktop/workspace/miniwinwm/MiniWin/gl/fonts/truetype/mcufont\mf_wordwrap.c **** {
   9                             		.loc 1 5 1
  10 0000 7E AA                   		push.l	r10
  11                             	.LCFI0:
  12 0002 71 0A FC                		add	#-4, r0, r10
  13                             	.LCFI1:
  14 0005 EF A0                   		mov.L	r10, r0
  15 0007 D3 A1                   		mov.W	r1, [r10]
   6:C:/Users/John/Desktop/workspace/miniwinwm/MiniWin/gl/fonts/truetype/mcufont\mf_wordwrap.c ****     return c == ' ' || c == '\n' || c == '\t' || c == '\r' || c == '-';
  16                             		.loc 1 6 60
  17 0009 5C A5                   		movu.W	[r10], r5
  18 000b 75 55 20                		cmp	#32, r5
  19 000e 20 1A                   		beq	.L2
  20                             		.loc 1 6 21 discriminator 2
  21 0010 5C A5                   		movu.W	[r10], r5
  22 0012 61 A5                   		cmp	#10, r5
  23 0014 20 14                   		beq	.L2
  24                             		.loc 1 6 34 discriminator 4
  25 0016 5C A5                   		movu.W	[r10], r5
  26 0018 61 95                   		cmp	#9, r5
  27 001a 20 0E                   		beq	.L2
  28                             		.loc 1 6 47 discriminator 6
  29 001c 5C A5                   		movu.W	[r10], r5
  30 001e 61 D5                   		cmp	#13, r5
  31 0020 10                      		beq	.L2
  32                             		.loc 1 6 60 discriminator 8
  33 0021 5C A5                   		movu.W	[r10], r5
  34 0023 75 55 2D                		cmp	#45, r5
  35 0026 1D                      		bne	.L3
  36 0027 03                      		.balign 8,3,1
  37                             	.L2:
  38                             		.loc 1 6 60 is_stmt 0 discriminator 9
  39 0028 66 15                   		mov.L	#1, r5
  40 002a 0B                      		bra	.L4
  41                             	.L3:
  42                             		.loc 1 6 60 discriminator 10
  43 002b 66 05                   		mov.L	#0, r5
  44                             	.L4:
  45                             		.loc 1 6 60 discriminator 12
  46 002d 64 15                   		and	#1, r5
  47 002f 5B 55                   		movu.B	r5, r5
   7:C:/Users/John/Desktop/workspace/miniwinwm/MiniWin/gl/fonts/truetype/mcufont\mf_wordwrap.c **** }
  48                             		.loc 1 7 1 is_stmt 1 discriminator 12
  49 0031 EF 51                   		mov.L	r5, r1
  50 0033 3F AA 02                		rtsd	#8, r10-r10
  51                             	.LFE0:
  53 0036 EF 00                   		.section	.text.get_wordlen,"ax",@progbits
  55                             	_get_wordlen:
  56                             	.LFB1:
   8:C:/Users/John/Desktop/workspace/miniwinwm/MiniWin/gl/fonts/truetype/mcufont\mf_wordwrap.c **** 
   9:C:/Users/John/Desktop/workspace/miniwinwm/MiniWin/gl/fonts/truetype/mcufont\mf_wordwrap.c **** #if MF_USE_ADVANCED_WORDWRAP
  10:C:/Users/John/Desktop/workspace/miniwinwm/MiniWin/gl/fonts/truetype/mcufont\mf_wordwrap.c **** 
  11:C:/Users/John/Desktop/workspace/miniwinwm/MiniWin/gl/fonts/truetype/mcufont\mf_wordwrap.c **** /* Represents a single word and the whitespace after it. */
  12:C:/Users/John/Desktop/workspace/miniwinwm/MiniWin/gl/fonts/truetype/mcufont\mf_wordwrap.c **** struct wordlen_s
  13:C:/Users/John/Desktop/workspace/miniwinwm/MiniWin/gl/fonts/truetype/mcufont\mf_wordwrap.c **** {
  14:C:/Users/John/Desktop/workspace/miniwinwm/MiniWin/gl/fonts/truetype/mcufont\mf_wordwrap.c ****     int16_t word; /* Length of the word in pixels. */
  15:C:/Users/John/Desktop/workspace/miniwinwm/MiniWin/gl/fonts/truetype/mcufont\mf_wordwrap.c ****     int16_t space; /* Length of the whitespace in pixels. */
  16:C:/Users/John/Desktop/workspace/miniwinwm/MiniWin/gl/fonts/truetype/mcufont\mf_wordwrap.c ****     uint16_t chars; /* Number of characters in word + space, combined. */
  17:C:/Users/John/Desktop/workspace/miniwinwm/MiniWin/gl/fonts/truetype/mcufont\mf_wordwrap.c **** };
  18:C:/Users/John/Desktop/workspace/miniwinwm/MiniWin/gl/fonts/truetype/mcufont\mf_wordwrap.c **** 
  19:C:/Users/John/Desktop/workspace/miniwinwm/MiniWin/gl/fonts/truetype/mcufont\mf_wordwrap.c **** /* Take the next word from the string and compute its width.
  20:C:/Users/John/Desktop/workspace/miniwinwm/MiniWin/gl/fonts/truetype/mcufont\mf_wordwrap.c ****  * Returns true if the word ends in a linebreak. */
  21:C:/Users/John/Desktop/workspace/miniwinwm/MiniWin/gl/fonts/truetype/mcufont\mf_wordwrap.c **** static bool get_wordlen(const struct mf_font_s *font, mf_str *text,
  22:C:/Users/John/Desktop/workspace/miniwinwm/MiniWin/gl/fonts/truetype/mcufont\mf_wordwrap.c ****                         struct wordlen_s *result)
  23:C:/Users/John/Desktop/workspace/miniwinwm/MiniWin/gl/fonts/truetype/mcufont\mf_wordwrap.c **** {
  57                             		.loc 1 23 1
  58 0000 7E AA                   		push.l	r10
  59                             	.LCFI2:
  60 0002 71 0A EC                		add	#-20, r0, r10
  61                             	.LCFI3:
  62 0005 EF A0                   		mov.L	r10, r0
  63 0007 E7 A1 02                		mov.L	r1, 8[r10]
  64 000a E7 A2 03                		mov.L	r2, 12[r10]
  65 000d E7 A3 04                		mov.L	r3, 16[r10]
  24:C:/Users/John/Desktop/workspace/miniwinwm/MiniWin/gl/fonts/truetype/mcufont\mf_wordwrap.c ****     mf_char c;
  25:C:/Users/John/Desktop/workspace/miniwinwm/MiniWin/gl/fonts/truetype/mcufont\mf_wordwrap.c ****     mf_str prev = *text;
  66                             		.loc 1 25 12
  67 0010 ED A5 03                		mov.L	12[r10], r5
  68 0013 EC 55                   		mov.L	[r5], r5
  69 0015 E7 A5 01                		mov.L	r5, 4[r10]
  26:C:/Users/John/Desktop/workspace/miniwinwm/MiniWin/gl/fonts/truetype/mcufont\mf_wordwrap.c ****     
  27:C:/Users/John/Desktop/workspace/miniwinwm/MiniWin/gl/fonts/truetype/mcufont\mf_wordwrap.c ****     result->word = 0;
  70                             		.loc 1 27 18
  71 0018 ED A5 04                		mov.L	16[r10], r5
  72 001b F8 55 00                		mov.W	#0, [r5]
  28:C:/Users/John/Desktop/workspace/miniwinwm/MiniWin/gl/fonts/truetype/mcufont\mf_wordwrap.c ****     result->space = 0;
  73                             		.loc 1 28 19
  74 001e ED A5 04                		mov.L	16[r10], r5
  75 0021 3D 51 00                		mov.W	#0, 2[r5]
  29:C:/Users/John/Desktop/workspace/miniwinwm/MiniWin/gl/fonts/truetype/mcufont\mf_wordwrap.c ****     result->chars = 0;
  76                             		.loc 1 29 19
  77 0024 ED A5 04                		mov.L	16[r10], r5
  78 0027 3D 52 00                		mov.W	#0, 4[r5]
  30:C:/Users/John/Desktop/workspace/miniwinwm/MiniWin/gl/fonts/truetype/mcufont\mf_wordwrap.c ****     
  31:C:/Users/John/Desktop/workspace/miniwinwm/MiniWin/gl/fonts/truetype/mcufont\mf_wordwrap.c ****     c = mf_getchar(text);
  79                             		.loc 1 31 9
  80 002a ED A1 03                		mov.L	12[r10], r1
  81 002d 05 00 00 00             		bsr	_mf_getchar
  82 0031 EF 15                   		mov.L	r1, r5
  83 0033 C3 A5                   		mov.B	r5, [r10]
  32:C:/Users/John/Desktop/workspace/miniwinwm/MiniWin/gl/fonts/truetype/mcufont\mf_wordwrap.c ****     while (c && !is_wrap_space(c))
  84                             		.loc 1 32 11
  85 0035 2E 42                   		bra	.L7
  86                             	.L9:
  33:C:/Users/John/Desktop/workspace/miniwinwm/MiniWin/gl/fonts/truetype/mcufont\mf_wordwrap.c ****     {
  34:C:/Users/John/Desktop/workspace/miniwinwm/MiniWin/gl/fonts/truetype/mcufont\mf_wordwrap.c ****         result->chars++;
  87                             		.loc 1 34 15
  88 0037 ED A5 04                		mov.L	16[r10], r5
  89 003a 98 D5                   		mov.W	4[r5], r5
  90                             		.loc 1 34 22
  91 003c 62 15                   		add	#1, r5
  92 003e DF 54                   		mov.W	r5, r4
  93 0040 ED A5 04                		mov.L	16[r10], r5
  94 0043 90 D4                   		mov.W	r4, 4[r5]
  35:C:/Users/John/Desktop/workspace/miniwinwm/MiniWin/gl/fonts/truetype/mcufont\mf_wordwrap.c ****         result->word += mf_character_width(font, c);
  95                             		.loc 1 35 25
  96 0045 CC A2                   		mov.B	[r10], r2
  97 0047 ED A1 02                		mov.L	8[r10], r1
  98 004a 05 00 00 00             		bsr	_mf_character_width
  99 004e EF 15                   		mov.L	r1, r5
 100 0050 CF 53                   		mov.B	r5, r3
 101                             		.loc 1 35 22
 102 0052 ED A5 04                		mov.L	16[r10], r5
 103 0055 DC 55                   		mov.W	[r5], r5
 104 0057 DF 54                   		mov.W	r5, r4
 105                             		.loc 1 35 25
 106 0059 5B 35                   		movu.B	r3, r5
 107                             		.loc 1 35 22
 108 005b 4B 45                   		add	r4, r5
 109 005d DF 54                   		mov.W	r5, r4
 110 005f ED A5 04                		mov.L	16[r10], r5
 111 0062 D3 54                   		mov.W	r4, [r5]
  36:C:/Users/John/Desktop/workspace/miniwinwm/MiniWin/gl/fonts/truetype/mcufont\mf_wordwrap.c **** 
  37:C:/Users/John/Desktop/workspace/miniwinwm/MiniWin/gl/fonts/truetype/mcufont\mf_wordwrap.c ****         prev = *text;
 112                             		.loc 1 37 14
 113 0064 ED A5 03                		mov.L	12[r10], r5
 114 0067 EC 55                   		mov.L	[r5], r5
 115 0069 E7 A5 01                		mov.L	r5, 4[r10]
  38:C:/Users/John/Desktop/workspace/miniwinwm/MiniWin/gl/fonts/truetype/mcufont\mf_wordwrap.c ****         c = mf_getchar(text);
 116                             		.loc 1 38 13
 117 006c ED A1 03                		mov.L	12[r10], r1
 118 006f 05 00 00 00             		bsr	_mf_getchar
 119 0073 EF 15                   		mov.L	r1, r5
 120 0075 C3 A5                   		mov.B	r5, [r10]
 121                             	.L7:
  32:C:/Users/John/Desktop/workspace/miniwinwm/MiniWin/gl/fonts/truetype/mcufont\mf_wordwrap.c ****     {
 122                             		.loc 1 32 11
 123 0077 58 A5                   		movu.B	[r10], r5
 124 0079 61 05                   		cmp	#0, r5
 125 007b 3A A4 00                		beq	.L10
  32:C:/Users/John/Desktop/workspace/miniwinwm/MiniWin/gl/fonts/truetype/mcufont\mf_wordwrap.c ****     {
 126                             		.loc 1 32 18 discriminator 1
 127 007e 58 A5                   		movu.B	[r10], r5
 128 0080 DF 51                   		mov.W	r5, r1
 129 0082 05 00 00 00             		bsr	_is_wrap_space
 130 0086 EF 15                   		mov.L	r1, r5
  32:C:/Users/John/Desktop/workspace/miniwinwm/MiniWin/gl/fonts/truetype/mcufont\mf_wordwrap.c ****     {
 131                             		.loc 1 32 17 discriminator 1
 132 0088 FD 74 D5 01             		xor	#1, r5
  32:C:/Users/John/Desktop/workspace/miniwinwm/MiniWin/gl/fonts/truetype/mcufont\mf_wordwrap.c ****     {
 133                             		.loc 1 32 14 discriminator 1
 134 008c 5B 55                   		movu.B	r5, r5
 135 008e 61 05                   		cmp	#0, r5
 136 0090 21 A7                   		bne	.L9
  39:C:/Users/John/Desktop/workspace/miniwinwm/MiniWin/gl/fonts/truetype/mcufont\mf_wordwrap.c ****     }
  40:C:/Users/John/Desktop/workspace/miniwinwm/MiniWin/gl/fonts/truetype/mcufont\mf_wordwrap.c ****     
  41:C:/Users/John/Desktop/workspace/miniwinwm/MiniWin/gl/fonts/truetype/mcufont\mf_wordwrap.c ****     while (c && is_wrap_space(c))
 137                             		.loc 1 41 11
 138 0092 38 8D 00                		bra	.L10
 139                             	.L16:
  42:C:/Users/John/Desktop/workspace/miniwinwm/MiniWin/gl/fonts/truetype/mcufont\mf_wordwrap.c ****     {
  43:C:/Users/John/Desktop/workspace/miniwinwm/MiniWin/gl/fonts/truetype/mcufont\mf_wordwrap.c ****         result->chars++;
 140                             		.loc 1 43 15
 141 0095 ED A5 04                		mov.L	16[r10], r5
 142 0098 98 D5                   		mov.W	4[r5], r5
 143                             		.loc 1 43 22
 144 009a 62 15                   		add	#1, r5
 145 009c DF 54                   		mov.W	r5, r4
 146 009e ED A5 04                		mov.L	16[r10], r5
 147 00a1 90 D4                   		mov.W	r4, 4[r5]
  44:C:/Users/John/Desktop/workspace/miniwinwm/MiniWin/gl/fonts/truetype/mcufont\mf_wordwrap.c ****         
  45:C:/Users/John/Desktop/workspace/miniwinwm/MiniWin/gl/fonts/truetype/mcufont\mf_wordwrap.c ****         if (c == ' ' || c == '-')
 148                             		.loc 1 45 12
 149 00a3 58 A5                   		movu.B	[r10], r5
 150 00a5 75 55 20                		cmp	#32, r5
 151 00a8 10                      		beq	.L11
 152                             		.loc 1 45 22 discriminator 1
 153 00a9 58 A5                   		movu.B	[r10], r5
 154 00ab 75 55 2D                		cmp	#45, r5
 155 00ae 21 23                   		bne	.L12
 156                             	.L11:
  46:C:/Users/John/Desktop/workspace/miniwinwm/MiniWin/gl/fonts/truetype/mcufont\mf_wordwrap.c ****             result->space += mf_character_width(font, c);
 157                             		.loc 1 46 30
 158 00b0 CC A2                   		mov.B	[r10], r2
 159 00b2 ED A1 02                		mov.L	8[r10], r1
 160 00b5 05 00 00 00             		bsr	_mf_character_width
 161 00b9 EF 15                   		mov.L	r1, r5
 162 00bb CF 53                   		mov.B	r5, r3
 163                             		.loc 1 46 27
 164 00bd ED A5 04                		mov.L	16[r10], r5
 165 00c0 98 5D                   		mov.W	2[r5], r5
 166 00c2 DF 54                   		mov.W	r5, r4
 167                             		.loc 1 46 30
 168 00c4 5B 35                   		movu.B	r3, r5
 169                             		.loc 1 46 27
 170 00c6 4B 45                   		add	r4, r5
 171 00c8 DF 54                   		mov.W	r5, r4
 172 00ca ED A5 04                		mov.L	16[r10], r5
 173 00cd 90 5C                   		mov.W	r4, 2[r5]
 174                             		.loc 1 46 13
 175 00cf 2E 3D                   		bra	.L13
 176                             	.L12:
  47:C:/Users/John/Desktop/workspace/miniwinwm/MiniWin/gl/fonts/truetype/mcufont\mf_wordwrap.c ****         else if (c == '\t')
 177                             		.loc 1 47 17
 178 00d1 58 A5                   		movu.B	[r10], r5
 179 00d3 61 95                   		cmp	#9, r5
 180 00d5 21 27                   		bne	.L14
  48:C:/Users/John/Desktop/workspace/miniwinwm/MiniWin/gl/fonts/truetype/mcufont\mf_wordwrap.c ****             result->space += mf_character_width(font, 'm') * MF_TABSIZE;
 181                             		.loc 1 48 30
 182 00d7 75 42 6D                		mov	#0x6d, r2
 183 00da ED A1 02                		mov.L	8[r10], r1
 184 00dd 05 00 00 00             		bsr	_mf_character_width
 185 00e1 EF 15                   		mov.L	r1, r5
 186 00e3 5B 55                   		movu.B	r5, r5
 187                             		.loc 1 48 60
 188 00e5 FD C3 53                		shll	#3, r5, r3
 189                             		.loc 1 48 27
 190 00e8 ED A5 04                		mov.L	16[r10], r5
 191 00eb 98 5D                   		mov.W	2[r5], r5
 192 00ed DF 54                   		mov.W	r5, r4
 193 00ef DF 35                   		mov.W	r3, r5
 194 00f1 4B 45                   		add	r4, r5
 195 00f3 DF 54                   		mov.W	r5, r4
 196 00f5 ED A5 04                		mov.L	16[r10], r5
 197 00f8 90 5C                   		mov.W	r4, 2[r5]
 198 00fa 2E 12                   		bra	.L13
 199                             	.L14:
  49:C:/Users/John/Desktop/workspace/miniwinwm/MiniWin/gl/fonts/truetype/mcufont\mf_wordwrap.c ****         else if (c == '\n') {
 200                             		.loc 1 49 17
 201 00fc 58 A5                   		movu.B	[r10], r5
 202 00fe 61 A5                   		cmp	#10, r5
 203 0100 21 0C                   		bne	.L13
  50:C:/Users/John/Desktop/workspace/miniwinwm/MiniWin/gl/fonts/truetype/mcufont\mf_wordwrap.c ****             /* Special case for newlines, skip the character then break. */
  51:C:/Users/John/Desktop/workspace/miniwinwm/MiniWin/gl/fonts/truetype/mcufont\mf_wordwrap.c ****             prev = *text;
 204                             		.loc 1 51 18
 205 0102 ED A5 03                		mov.L	12[r10], r5
 206 0105 EC 55                   		mov.L	[r5], r5
 207 0107 E7 A5 01                		mov.L	r5, 4[r10]
  52:C:/Users/John/Desktop/workspace/miniwinwm/MiniWin/gl/fonts/truetype/mcufont\mf_wordwrap.c ****             break;
 208                             		.loc 1 52 13
 209 010a 2E 2C                   		bra	.L15
 210                             	.L13:
  53:C:/Users/John/Desktop/workspace/miniwinwm/MiniWin/gl/fonts/truetype/mcufont\mf_wordwrap.c ****         }
  54:C:/Users/John/Desktop/workspace/miniwinwm/MiniWin/gl/fonts/truetype/mcufont\mf_wordwrap.c ****         
  55:C:/Users/John/Desktop/workspace/miniwinwm/MiniWin/gl/fonts/truetype/mcufont\mf_wordwrap.c ****         prev = *text;
 211                             		.loc 1 55 14
 212 010c ED A5 03                		mov.L	12[r10], r5
 213 010f EC 55                   		mov.L	[r5], r5
 214 0111 E7 A5 01                		mov.L	r5, 4[r10]
  56:C:/Users/John/Desktop/workspace/miniwinwm/MiniWin/gl/fonts/truetype/mcufont\mf_wordwrap.c ****         c = mf_getchar(text);
 215                             		.loc 1 56 13
 216 0114 ED A1 03                		mov.L	12[r10], r1
 217 0117 05 00 00 00             		bsr	_mf_getchar
 218 011b EF 15                   		mov.L	r1, r5
 219 011d C3 A5                   		mov.B	r5, [r10]
 220                             	.L10:
  41:C:/Users/John/Desktop/workspace/miniwinwm/MiniWin/gl/fonts/truetype/mcufont\mf_wordwrap.c ****     {
 221                             		.loc 1 41 11
 222 011f 58 A5                   		movu.B	[r10], r5
 223 0121 61 05                   		cmp	#0, r5
 224 0123 20 13                   		beq	.L15
  41:C:/Users/John/Desktop/workspace/miniwinwm/MiniWin/gl/fonts/truetype/mcufont\mf_wordwrap.c ****     {
 225                             		.loc 1 41 17 discriminator 1
 226 0125 58 A5                   		movu.B	[r10], r5
 227 0127 DF 51                   		mov.W	r5, r1
 228 0129 05 00 00 00             		bsr	_is_wrap_space
 229 012d EF 15                   		mov.L	r1, r5
  41:C:/Users/John/Desktop/workspace/miniwinwm/MiniWin/gl/fonts/truetype/mcufont\mf_wordwrap.c ****     {
 230                             		.loc 1 41 14 discriminator 1
 231 012f 5B 55                   		movu.B	r5, r5
 232 0131 61 05                   		cmp	#0, r5
 233 0133 3B 62 FF                		bne	.L16
 234                             	.L15:
  57:C:/Users/John/Desktop/workspace/miniwinwm/MiniWin/gl/fonts/truetype/mcufont\mf_wordwrap.c ****     }
  58:C:/Users/John/Desktop/workspace/miniwinwm/MiniWin/gl/fonts/truetype/mcufont\mf_wordwrap.c ****     
  59:C:/Users/John/Desktop/workspace/miniwinwm/MiniWin/gl/fonts/truetype/mcufont\mf_wordwrap.c ****     /* The last loop reads the first character of next word, put it back. */
  60:C:/Users/John/Desktop/workspace/miniwinwm/MiniWin/gl/fonts/truetype/mcufont\mf_wordwrap.c ****     if (c)
 235                             		.loc 1 60 8
 236 0136 58 A5                   		movu.B	[r10], r5
 237 0138 61 05                   		cmp	#0, r5
 238 013a 11                      		beq	.L17
  61:C:/Users/John/Desktop/workspace/miniwinwm/MiniWin/gl/fonts/truetype/mcufont\mf_wordwrap.c ****         *text = prev;
 239                             		.loc 1 61 15
 240 013b ED A5 03                		mov.L	12[r10], r5
 241 013e ED A4 01                		mov.L	4[r10], r4
 242 0141 E3 54                   		mov.L	r4, [r5]
 243                             	.L17:
  62:C:/Users/John/Desktop/workspace/miniwinwm/MiniWin/gl/fonts/truetype/mcufont\mf_wordwrap.c ****     
  63:C:/Users/John/Desktop/workspace/miniwinwm/MiniWin/gl/fonts/truetype/mcufont\mf_wordwrap.c ****     return (c == '\0' || c == '\n');
 244                             		.loc 1 63 23
 245 0143 58 A5                   		movu.B	[r10], r5
 246 0145 61 05                   		cmp	#0, r5
 247 0147 16                      		beq	.L18
 248                             		.loc 1 63 23 is_stmt 0 discriminator 2
 249 0148 58 A5                   		movu.B	[r10], r5
 250 014a 61 A5                   		cmp	#10, r5
 251 014c 1C                      		bne	.L19
 252                             	.L18:
 253                             		.loc 1 63 23 discriminator 3
 254 014d 66 15                   		mov.L	#1, r5
 255 014f 0B                      		bra	.L20
 256                             	.L19:
 257                             		.loc 1 63 23 discriminator 4
 258 0150 66 05                   		mov.L	#0, r5
 259                             	.L20:
 260                             		.loc 1 63 23 discriminator 6
 261 0152 64 15                   		and	#1, r5
 262 0154 5B 55                   		movu.B	r5, r5
  64:C:/Users/John/Desktop/workspace/miniwinwm/MiniWin/gl/fonts/truetype/mcufont\mf_wordwrap.c **** }
 263                             		.loc 1 64 1 is_stmt 1 discriminator 6
 264 0156 EF 51                   		mov.L	r5, r1
 265 0158 3F AA 06                		rtsd	#24, r10-r10
 266                             	.LFE1:
 268                             		.section	.text.append_word,"ax",@progbits
 270                             	_append_word:
 271                             	.LFB2:
  65:C:/Users/John/Desktop/workspace/miniwinwm/MiniWin/gl/fonts/truetype/mcufont\mf_wordwrap.c **** 
  66:C:/Users/John/Desktop/workspace/miniwinwm/MiniWin/gl/fonts/truetype/mcufont\mf_wordwrap.c **** /* Represents the rendered length for a single line. */
  67:C:/Users/John/Desktop/workspace/miniwinwm/MiniWin/gl/fonts/truetype/mcufont\mf_wordwrap.c **** struct linelen_s
  68:C:/Users/John/Desktop/workspace/miniwinwm/MiniWin/gl/fonts/truetype/mcufont\mf_wordwrap.c **** {
  69:C:/Users/John/Desktop/workspace/miniwinwm/MiniWin/gl/fonts/truetype/mcufont\mf_wordwrap.c ****     mf_str start; /* Start of the text for line. */
  70:C:/Users/John/Desktop/workspace/miniwinwm/MiniWin/gl/fonts/truetype/mcufont\mf_wordwrap.c ****     uint16_t chars; /* Total number of characters on the line. */
  71:C:/Users/John/Desktop/workspace/miniwinwm/MiniWin/gl/fonts/truetype/mcufont\mf_wordwrap.c ****     int16_t width; /* Total length of all words + whitespace on the line in pixels. */
  72:C:/Users/John/Desktop/workspace/miniwinwm/MiniWin/gl/fonts/truetype/mcufont\mf_wordwrap.c ****     bool linebreak; /* True if line ends in a linebreak */
  73:C:/Users/John/Desktop/workspace/miniwinwm/MiniWin/gl/fonts/truetype/mcufont\mf_wordwrap.c ****     struct wordlen_s last_word; /* Last word on the line. */
  74:C:/Users/John/Desktop/workspace/miniwinwm/MiniWin/gl/fonts/truetype/mcufont\mf_wordwrap.c ****     struct wordlen_s last_word_2; /* Second to last word on the line. */
  75:C:/Users/John/Desktop/workspace/miniwinwm/MiniWin/gl/fonts/truetype/mcufont\mf_wordwrap.c **** };
  76:C:/Users/John/Desktop/workspace/miniwinwm/MiniWin/gl/fonts/truetype/mcufont\mf_wordwrap.c **** 
  77:C:/Users/John/Desktop/workspace/miniwinwm/MiniWin/gl/fonts/truetype/mcufont\mf_wordwrap.c **** /* Append word onto the line if it fits. If it would overflow, don't add and
  78:C:/Users/John/Desktop/workspace/miniwinwm/MiniWin/gl/fonts/truetype/mcufont\mf_wordwrap.c ****  * return false. */
  79:C:/Users/John/Desktop/workspace/miniwinwm/MiniWin/gl/fonts/truetype/mcufont\mf_wordwrap.c **** static bool append_word(const struct mf_font_s *font, int16_t width,
  80:C:/Users/John/Desktop/workspace/miniwinwm/MiniWin/gl/fonts/truetype/mcufont\mf_wordwrap.c ****                         struct linelen_s *current, mf_str *text)
  81:C:/Users/John/Desktop/workspace/miniwinwm/MiniWin/gl/fonts/truetype/mcufont\mf_wordwrap.c **** {
 272                             		.loc 1 81 1
 273 0000 7E AA                   		push.l	r10
 274                             	.LCFI4:
 275 0002 71 0A E0                		add	#-32, r0, r10
 276                             	.LCFI5:
 277 0005 EF A0                   		mov.L	r10, r0
 278 0007 E7 A1 04                		mov.L	r1, 16[r10]
 279 000a D7 A2 0A                		mov.W	r2, 20[r10]
 280 000d E7 A3 06                		mov.L	r3, 24[r10]
 281 0010 E7 A4 07                		mov.L	r4, 28[r10]
  82:C:/Users/John/Desktop/workspace/miniwinwm/MiniWin/gl/fonts/truetype/mcufont\mf_wordwrap.c ****     mf_str tmp = *text;
 282                             		.loc 1 82 18
 283 0013 ED A5 07                		mov.L	28[r10], r5
 284 0016 EC 55                   		mov.L	[r5], r5
 285                             		.loc 1 82 12
 286 0018 E7 A5 01                		mov.L	r5, 4[r10]
  83:C:/Users/John/Desktop/workspace/miniwinwm/MiniWin/gl/fonts/truetype/mcufont\mf_wordwrap.c ****     struct wordlen_s wordlen;
  84:C:/Users/John/Desktop/workspace/miniwinwm/MiniWin/gl/fonts/truetype/mcufont\mf_wordwrap.c ****     bool linebreak;
  85:C:/Users/John/Desktop/workspace/miniwinwm/MiniWin/gl/fonts/truetype/mcufont\mf_wordwrap.c ****     
  86:C:/Users/John/Desktop/workspace/miniwinwm/MiniWin/gl/fonts/truetype/mcufont\mf_wordwrap.c ****     linebreak = get_wordlen(font, &tmp, &wordlen);
 287                             		.loc 1 86 17
 288 001b 71 A4 08                		add	#8, r10, r4
 289 001e 71 A5 04                		add	#4, r10, r5
 290 0021 EF 43                   		mov.L	r4, r3
 291 0023 EF 52                   		mov.L	r5, r2
 292 0025 ED A1 04                		mov.L	16[r10], r1
 293 0028 05 00 00 00             		bsr	_get_wordlen
 294 002c EF 15                   		mov.L	r1, r5
 295 002e C3 A5                   		mov.B	r5, [r10]
  87:C:/Users/John/Desktop/workspace/miniwinwm/MiniWin/gl/fonts/truetype/mcufont\mf_wordwrap.c ****     
  88:C:/Users/John/Desktop/workspace/miniwinwm/MiniWin/gl/fonts/truetype/mcufont\mf_wordwrap.c ****     if (current->width + wordlen.word <= width)
 296                             		.loc 1 88 16
 297 0030 ED A5 06                		mov.L	24[r10], r5
 298 0033 98 DD                   		mov.W	6[r5], r5
 299 0035 DF 54                   		mov.W	r5, r4
 300                             		.loc 1 88 33
 301 0037 DD A5 04                		mov.W	8[r10], r5
 302 003a DF 55                   		mov.W	r5, r5
 303                             		.loc 1 88 24
 304 003c 4B 54                   		add	r5, r4
 305                             		.loc 1 88 39
 306 003e DD A5 0A                		mov.W	20[r10], r5
 307                             		.loc 1 88 8
 308 0041 47 54                   		cmp	r5, r4
 309 0043 2A 5E                   		bgt	.L23
  89:C:/Users/John/Desktop/workspace/miniwinwm/MiniWin/gl/fonts/truetype/mcufont\mf_wordwrap.c ****     {
  90:C:/Users/John/Desktop/workspace/miniwinwm/MiniWin/gl/fonts/truetype/mcufont\mf_wordwrap.c ****         *text = tmp;
 310                             		.loc 1 90 15
 311 0045 ED A4 01                		mov.L	4[r10], r4
 312 0048 ED A5 07                		mov.L	28[r10], r5
 313 004b E3 54                   		mov.L	r4, [r5]
  91:C:/Users/John/Desktop/workspace/miniwinwm/MiniWin/gl/fonts/truetype/mcufont\mf_wordwrap.c ****         current->last_word_2 = current->last_word;
 314                             		.loc 1 91 30
 315 004d ED A4 06                		mov.L	24[r10], r4
 316 0050 ED A5 06                		mov.L	24[r10], r5
 317 0053 62 A5                   		add	#10, r5
 318 0055 EC 53                   		mov.L	[r5], r3
 319 0057 A1 43                   		mov.L	r3, 16[r4]
 320 0059 98 D5                   		mov.W	4[r5], r5
 321 005b 92 C5                   		mov.W	r5, 20[r4]
  92:C:/Users/John/Desktop/workspace/miniwinwm/MiniWin/gl/fonts/truetype/mcufont\mf_wordwrap.c ****         current->last_word = wordlen;
 322                             		.loc 1 92 28
 323 005d ED A5 06                		mov.L	24[r10], r5
 324 0060 62 A5                   		add	#10, r5
 325 0062 ED A4 02                		mov.L	8[r10], r4
 326 0065 E3 54                   		mov.L	r4, [r5]
 327 0067 DD A4 06                		mov.W	12[r10], r4
 328 006a 90 D4                   		mov.W	r4, 4[r5]
  93:C:/Users/John/Desktop/workspace/miniwinwm/MiniWin/gl/fonts/truetype/mcufont\mf_wordwrap.c ****         current->linebreak = linebreak;
 329                             		.loc 1 93 28
 330 006c ED A5 06                		mov.L	24[r10], r5
 331 006f CC A4                   		mov.B	[r10], r4
 332 0071 82 54                   		mov.B	r4, 8[r5]
  94:C:/Users/John/Desktop/workspace/miniwinwm/MiniWin/gl/fonts/truetype/mcufont\mf_wordwrap.c ****         current->chars += wordlen.chars;
 333                             		.loc 1 94 24
 334 0073 ED A5 06                		mov.L	24[r10], r5
 335 0076 98 D4                   		mov.W	4[r5], r4
 336                             		.loc 1 94 34
 337 0078 DD A5 06                		mov.W	12[r10], r5
 338                             		.loc 1 94 24
 339 007b 4B 45                   		add	r4, r5
 340 007d DF 54                   		mov.W	r5, r4
 341 007f ED A5 06                		mov.L	24[r10], r5
 342 0082 90 D4                   		mov.W	r4, 4[r5]
  95:C:/Users/John/Desktop/workspace/miniwinwm/MiniWin/gl/fonts/truetype/mcufont\mf_wordwrap.c ****         current->width += wordlen.word + wordlen.space;
 343                             		.loc 1 95 24
 344 0084 ED A5 06                		mov.L	24[r10], r5
 345 0087 98 DD                   		mov.W	6[r5], r5
 346 0089 DF 54                   		mov.W	r5, r4
 347                             		.loc 1 95 34
 348 008b DD A5 04                		mov.W	8[r10], r5
 349 008e DF 53                   		mov.W	r5, r3
 350                             		.loc 1 95 49
 351 0090 DD A5 05                		mov.W	10[r10], r5
 352                             		.loc 1 95 40
 353 0093 4B 35                   		add	r3, r5
 354                             		.loc 1 95 24
 355 0095 4B 45                   		add	r4, r5
 356 0097 DF 54                   		mov.W	r5, r4
 357 0099 ED A5 06                		mov.L	24[r10], r5
 358 009c 90 DC                   		mov.W	r4, 6[r5]
  96:C:/Users/John/Desktop/workspace/miniwinwm/MiniWin/gl/fonts/truetype/mcufont\mf_wordwrap.c ****         return true;
 359                             		.loc 1 96 16
 360 009e 66 15                   		mov	#1, r5
 361 00a0 0B                      		bra	.L25
 362                             	.L23:
  97:C:/Users/John/Desktop/workspace/miniwinwm/MiniWin/gl/fonts/truetype/mcufont\mf_wordwrap.c ****     }
  98:C:/Users/John/Desktop/workspace/miniwinwm/MiniWin/gl/fonts/truetype/mcufont\mf_wordwrap.c ****     else
  99:C:/Users/John/Desktop/workspace/miniwinwm/MiniWin/gl/fonts/truetype/mcufont\mf_wordwrap.c ****     {
 100:C:/Users/John/Desktop/workspace/miniwinwm/MiniWin/gl/fonts/truetype/mcufont\mf_wordwrap.c ****         return false;
 363                             		.loc 1 100 16
 364 00a1 66 05                   		mov	#0, r5
 365                             	.L25:
 366 00a3 5B 55                   		movu.B	r5, r5
 101:C:/Users/John/Desktop/workspace/miniwinwm/MiniWin/gl/fonts/truetype/mcufont\mf_wordwrap.c ****     }
 102:C:/Users/John/Desktop/workspace/miniwinwm/MiniWin/gl/fonts/truetype/mcufont\mf_wordwrap.c **** }
 367                             		.loc 1 102 1 discriminator 1
 368 00a5 EF 51                   		mov.L	r5, r1
 369 00a7 3F AA 09                		rtsd	#36, r10-r10
 370                             	.LFE2:
 372                             		.section	.text.append_char,"ax",@progbits
 374                             	_append_char:
 375                             	.LFB3:
 103:C:/Users/John/Desktop/workspace/miniwinwm/MiniWin/gl/fonts/truetype/mcufont\mf_wordwrap.c **** 
 104:C:/Users/John/Desktop/workspace/miniwinwm/MiniWin/gl/fonts/truetype/mcufont\mf_wordwrap.c **** /* Append a character to the line if it fits. */
 105:C:/Users/John/Desktop/workspace/miniwinwm/MiniWin/gl/fonts/truetype/mcufont\mf_wordwrap.c **** static bool append_char(const struct mf_font_s *font, int16_t width,
 106:C:/Users/John/Desktop/workspace/miniwinwm/MiniWin/gl/fonts/truetype/mcufont\mf_wordwrap.c ****                         struct linelen_s *current, mf_str *text)
 107:C:/Users/John/Desktop/workspace/miniwinwm/MiniWin/gl/fonts/truetype/mcufont\mf_wordwrap.c **** {
 376                             		.loc 1 107 1
 377 0000 7E AA                   		push.l	r10
 378                             	.LCFI6:
 379 0002 71 0A E8                		add	#-24, r0, r10
 380                             	.LCFI7:
 381 0005 EF A0                   		mov.L	r10, r0
 382 0007 E7 A1 02                		mov.L	r1, 8[r10]
 383 000a D7 A2 06                		mov.W	r2, 12[r10]
 384 000d E7 A3 04                		mov.L	r3, 16[r10]
 385 0010 E7 A4 05                		mov.L	r4, 20[r10]
 108:C:/Users/John/Desktop/workspace/miniwinwm/MiniWin/gl/fonts/truetype/mcufont\mf_wordwrap.c ****     mf_str tmp = *text;
 386                             		.loc 1 108 18
 387 0013 ED A5 05                		mov.L	20[r10], r5
 388 0016 EC 55                   		mov.L	[r5], r5
 389                             		.loc 1 108 12
 390 0018 E7 A5 01                		mov.L	r5, 4[r10]
 109:C:/Users/John/Desktop/workspace/miniwinwm/MiniWin/gl/fonts/truetype/mcufont\mf_wordwrap.c ****     mf_char c;
 110:C:/Users/John/Desktop/workspace/miniwinwm/MiniWin/gl/fonts/truetype/mcufont\mf_wordwrap.c ****     uint16_t w;
 111:C:/Users/John/Desktop/workspace/miniwinwm/MiniWin/gl/fonts/truetype/mcufont\mf_wordwrap.c ****     
 112:C:/Users/John/Desktop/workspace/miniwinwm/MiniWin/gl/fonts/truetype/mcufont\mf_wordwrap.c ****     c = mf_getchar(&tmp);
 391                             		.loc 1 112 9
 392 001b 71 A5 04                		add	#4, r10, r5
 393 001e EF 51                   		mov.L	r5, r1
 394 0020 05 00 00 00             		bsr	_mf_getchar
 395 0024 EF 15                   		mov.L	r1, r5
 396 0026 C3 A5                   		mov.B	r5, [r10]
 113:C:/Users/John/Desktop/workspace/miniwinwm/MiniWin/gl/fonts/truetype/mcufont\mf_wordwrap.c ****     w = mf_character_width(font, c);
 397                             		.loc 1 113 9
 398 0028 CC A2                   		mov.B	[r10], r2
 399 002a ED A1 02                		mov.L	8[r10], r1
 400 002d 05 00 00 00             		bsr	_mf_character_width
 401 0031 EF 15                   		mov.L	r1, r5
 402                             		.loc 1 113 7
 403 0033 5B 55                   		movu.B	r5, r5
 404 0035 D7 A5 01                		mov.W	r5, 2[r10]
 114:C:/Users/John/Desktop/workspace/miniwinwm/MiniWin/gl/fonts/truetype/mcufont\mf_wordwrap.c ****     
 115:C:/Users/John/Desktop/workspace/miniwinwm/MiniWin/gl/fonts/truetype/mcufont\mf_wordwrap.c ****     if (current->width + w <= width)
 405                             		.loc 1 115 16
 406 0038 ED A5 04                		mov.L	16[r10], r5
 407 003b 98 DD                   		mov.W	6[r5], r5
 408 003d DF 54                   		mov.W	r5, r4
 409                             		.loc 1 115 24
 410 003f 5D A5 01                		movu.W	2[r10], r5
 411 0042 4B 54                   		add	r5, r4
 412                             		.loc 1 115 28
 413 0044 DD A5 06                		mov.W	12[r10], r5
 414                             		.loc 1 115 8
 415 0047 47 54                   		cmp	r5, r4
 416 0049 2A 2C                   		bgt	.L27
 116:C:/Users/John/Desktop/workspace/miniwinwm/MiniWin/gl/fonts/truetype/mcufont\mf_wordwrap.c ****     {
 117:C:/Users/John/Desktop/workspace/miniwinwm/MiniWin/gl/fonts/truetype/mcufont\mf_wordwrap.c ****         *text = tmp;
 417                             		.loc 1 117 15
 418 004b ED A4 01                		mov.L	4[r10], r4
 419 004e ED A5 05                		mov.L	20[r10], r5
 420 0051 E3 54                   		mov.L	r4, [r5]
 118:C:/Users/John/Desktop/workspace/miniwinwm/MiniWin/gl/fonts/truetype/mcufont\mf_wordwrap.c ****         current->chars++;
 421                             		.loc 1 118 16
 422 0053 ED A5 04                		mov.L	16[r10], r5
 423 0056 98 D5                   		mov.W	4[r5], r5
 424                             		.loc 1 118 23
 425 0058 62 15                   		add	#1, r5
 426 005a DF 54                   		mov.W	r5, r4
 427 005c ED A5 04                		mov.L	16[r10], r5
 428 005f 90 D4                   		mov.W	r4, 4[r5]
 119:C:/Users/John/Desktop/workspace/miniwinwm/MiniWin/gl/fonts/truetype/mcufont\mf_wordwrap.c ****         current->width += w;
 429                             		.loc 1 119 24
 430 0061 ED A5 04                		mov.L	16[r10], r5
 431 0064 98 DD                   		mov.W	6[r5], r5
 432 0066 DD A4 01                		mov.W	2[r10], r4
 433 0069 4B 45                   		add	r4, r5
 434 006b DF 54                   		mov.W	r5, r4
 435 006d ED A5 04                		mov.L	16[r10], r5
 436 0070 90 DC                   		mov.W	r4, 6[r5]
 120:C:/Users/John/Desktop/workspace/miniwinwm/MiniWin/gl/fonts/truetype/mcufont\mf_wordwrap.c ****         return true;
 437                             		.loc 1 120 16
 438 0072 66 15                   		mov	#1, r5
 439 0074 0B                      		bra	.L29
 440                             	.L27:
 121:C:/Users/John/Desktop/workspace/miniwinwm/MiniWin/gl/fonts/truetype/mcufont\mf_wordwrap.c ****     }
 122:C:/Users/John/Desktop/workspace/miniwinwm/MiniWin/gl/fonts/truetype/mcufont\mf_wordwrap.c ****     else
 123:C:/Users/John/Desktop/workspace/miniwinwm/MiniWin/gl/fonts/truetype/mcufont\mf_wordwrap.c ****     {
 124:C:/Users/John/Desktop/workspace/miniwinwm/MiniWin/gl/fonts/truetype/mcufont\mf_wordwrap.c ****         return false;
 441                             		.loc 1 124 16
 442 0075 66 05                   		mov	#0, r5
 443                             	.L29:
 444 0077 5B 55                   		movu.B	r5, r5
 125:C:/Users/John/Desktop/workspace/miniwinwm/MiniWin/gl/fonts/truetype/mcufont\mf_wordwrap.c ****     }
 126:C:/Users/John/Desktop/workspace/miniwinwm/MiniWin/gl/fonts/truetype/mcufont\mf_wordwrap.c **** }
 445                             		.loc 1 126 1 discriminator 1
 446 0079 EF 51                   		mov.L	r5, r1
 447 007b 3F AA 07                		rtsd	#28, r10-r10
 448                             	.LFE3:
 450                             		.section	.text.sq16,"ax",@progbits
 452                             	_sq16:
 453                             	.LFB4:
 127:C:/Users/John/Desktop/workspace/miniwinwm/MiniWin/gl/fonts/truetype/mcufont\mf_wordwrap.c **** 
 128:C:/Users/John/Desktop/workspace/miniwinwm/MiniWin/gl/fonts/truetype/mcufont\mf_wordwrap.c **** /*static int16_t abs16(int16_t x) { return (x > 0) ? x : -x; }*/
 129:C:/Users/John/Desktop/workspace/miniwinwm/MiniWin/gl/fonts/truetype/mcufont\mf_wordwrap.c **** static int32_t sq16(int16_t x) { return (int32_t)x * x; }
 454                             		.loc 1 129 32
 455 0000 7E AA                   		push.l	r10
 456                             	.LCFI8:
 457 0002 71 0A FC                		add	#-4, r0, r10
 458                             	.LCFI9:
 459 0005 EF A0                   		mov.L	r10, r0
 460 0007 D3 A1                   		mov.W	r1, [r10]
 461                             		.loc 1 129 41
 462 0009 DC A4                   		mov.W	[r10], r4
 463                             		.loc 1 129 52
 464 000b DC A5                   		mov.W	[r10], r5
 465 000d 4F 45                   		mul	r4, r5
 466                             		.loc 1 129 1
 467 000f EF 51                   		mov.L	r5, r1
 468 0011 3F AA 02                		rtsd	#8, r10-r10
 469                             	.LFE4:
 471                             		.section	.text.tune_lines,"ax",@progbits
 473                             	_tune_lines:
 474                             	.LFB5:
 130:C:/Users/John/Desktop/workspace/miniwinwm/MiniWin/gl/fonts/truetype/mcufont\mf_wordwrap.c **** 
 131:C:/Users/John/Desktop/workspace/miniwinwm/MiniWin/gl/fonts/truetype/mcufont\mf_wordwrap.c **** /* Try to balance the lines by potentially moving one word from the previous
 132:C:/Users/John/Desktop/workspace/miniwinwm/MiniWin/gl/fonts/truetype/mcufont\mf_wordwrap.c ****  * line to the the current one. */
 133:C:/Users/John/Desktop/workspace/miniwinwm/MiniWin/gl/fonts/truetype/mcufont\mf_wordwrap.c **** static void tune_lines(struct linelen_s *current, struct linelen_s *previous,
 134:C:/Users/John/Desktop/workspace/miniwinwm/MiniWin/gl/fonts/truetype/mcufont\mf_wordwrap.c ****                        int16_t max_width)
 135:C:/Users/John/Desktop/workspace/miniwinwm/MiniWin/gl/fonts/truetype/mcufont\mf_wordwrap.c **** {
 475                             		.loc 1 135 1
 476 0000 7E AA                   		push.l	r10
 477                             	.LCFI10:
 478 0002 7E A6                   		push.l	r6
 479                             	.LCFI11:
 480 0004 71 0A E0                		add	#-32, r0, r10
 481                             	.LCFI12:
 482 0007 EF A0                   		mov.L	r10, r0
 483 0009 E7 A1 05                		mov.L	r1, 20[r10]
 484 000c E7 A2 06                		mov.L	r2, 24[r10]
 485 000f D7 A3 0E                		mov.W	r3, 28[r10]
 136:C:/Users/John/Desktop/workspace/miniwinwm/MiniWin/gl/fonts/truetype/mcufont\mf_wordwrap.c ****     int16_t curw1, prevw1;
 137:C:/Users/John/Desktop/workspace/miniwinwm/MiniWin/gl/fonts/truetype/mcufont\mf_wordwrap.c ****     int16_t curw2, prevw2;
 138:C:/Users/John/Desktop/workspace/miniwinwm/MiniWin/gl/fonts/truetype/mcufont\mf_wordwrap.c ****     int32_t delta1, delta2;
 139:C:/Users/John/Desktop/workspace/miniwinwm/MiniWin/gl/fonts/truetype/mcufont\mf_wordwrap.c ****     
 140:C:/Users/John/Desktop/workspace/miniwinwm/MiniWin/gl/fonts/truetype/mcufont\mf_wordwrap.c ****     /* If the lines are rendered as is */
 141:C:/Users/John/Desktop/workspace/miniwinwm/MiniWin/gl/fonts/truetype/mcufont\mf_wordwrap.c ****     curw1 = current->width - current->last_word.space;
 486                             		.loc 1 141 20
 487 0012 ED A5 05                		mov.L	20[r10], r5
 488 0015 98 DD                   		mov.W	6[r5], r5
 489 0017 DF 54                   		mov.W	r5, r4
 490                             		.loc 1 141 48
 491 0019 ED A5 05                		mov.L	20[r10], r5
 492 001c 99 D5                   		mov.W	12[r5], r5
 493                             		.loc 1 141 28
 494 001e FF 05 54                		sub	r5, r4, r5
 495                             		.loc 1 141 11
 496 0021 D7 A5 01                		mov.W	r5, 2[r10]
 142:C:/Users/John/Desktop/workspace/miniwinwm/MiniWin/gl/fonts/truetype/mcufont\mf_wordwrap.c ****     prevw1 = previous->width - previous->last_word.space;
 497                             		.loc 1 142 22
 498 0024 ED A5 06                		mov.L	24[r10], r5
 499 0027 98 DD                   		mov.W	6[r5], r5
 500 0029 DF 54                   		mov.W	r5, r4
 501                             		.loc 1 142 51
 502 002b ED A5 06                		mov.L	24[r10], r5
 503 002e 99 D5                   		mov.W	12[r5], r5
 504                             		.loc 1 142 30
 505 0030 FF 05 54                		sub	r5, r4, r5
 506                             		.loc 1 142 12
 507 0033 D7 A5 02                		mov.W	r5, 4[r10]
 143:C:/Users/John/Desktop/workspace/miniwinwm/MiniWin/gl/fonts/truetype/mcufont\mf_wordwrap.c ****     delta1 = sq16(max_width - prevw1) + sq16(max_width - curw1);
 508                             		.loc 1 143 29
 509 0036 DD A4 0E                		mov.W	28[r10], r4
 510 0039 DD A5 02                		mov.W	4[r10], r5
 511 003c FF 05 54                		sub	r5, r4, r5
 512                             		.loc 1 143 14
 513 003f DF 51                   		mov.W	r5, r1
 514 0041 05 00 00 00             		bsr	_sq16
 515 0045 EF 16                   		mov.L	r1, r6
 516                             		.loc 1 143 56
 517 0047 DD A4 0E                		mov.W	28[r10], r4
 518 004a DD A5 01                		mov.W	2[r10], r5
 519 004d FF 05 54                		sub	r5, r4, r5
 520                             		.loc 1 143 41
 521 0050 DF 51                   		mov.W	r5, r1
 522 0052 05 00 00 00             		bsr	_sq16
 523 0056 EF 15                   		mov.L	r1, r5
 524                             		.loc 1 143 12
 525 0058 4B 65                   		add	r6, r5
 526 005a E7 A5 02                		mov.L	r5, 8[r10]
 144:C:/Users/John/Desktop/workspace/miniwinwm/MiniWin/gl/fonts/truetype/mcufont\mf_wordwrap.c ****     
 145:C:/Users/John/Desktop/workspace/miniwinwm/MiniWin/gl/fonts/truetype/mcufont\mf_wordwrap.c ****     /* If the last word is moved */
 146:C:/Users/John/Desktop/workspace/miniwinwm/MiniWin/gl/fonts/truetype/mcufont\mf_wordwrap.c ****     curw2 = current->width + previous->last_word.word;
 527                             		.loc 1 146 20
 528 005d ED A5 05                		mov.L	20[r10], r5
 529 0060 98 DD                   		mov.W	6[r5], r5
 530 0062 DF 54                   		mov.W	r5, r4
 531                             		.loc 1 146 49
 532 0064 ED A5 06                		mov.L	24[r10], r5
 533 0067 99 5D                   		mov.W	10[r5], r5
 534                             		.loc 1 146 28
 535 0069 4B 45                   		add	r4, r5
 536                             		.loc 1 146 11
 537 006b D7 A5 06                		mov.W	r5, 12[r10]
 147:C:/Users/John/Desktop/workspace/miniwinwm/MiniWin/gl/fonts/truetype/mcufont\mf_wordwrap.c ****     prevw2 = previous->width - previous->last_word.word
 538                             		.loc 1 147 22
 539 006e ED A5 06                		mov.L	24[r10], r5
 540 0071 98 DD                   		mov.W	6[r5], r5
 541 0073 DF 54                   		mov.W	r5, r4
 542                             		.loc 1 147 51
 543 0075 ED A5 06                		mov.L	24[r10], r5
 544 0078 99 5D                   		mov.W	10[r5], r5
 545                             		.loc 1 147 30
 546 007a FF 05 54                		sub	r5, r4, r5
 547 007d DF 54                   		mov.W	r5, r4
 148:C:/Users/John/Desktop/workspace/miniwinwm/MiniWin/gl/fonts/truetype/mcufont\mf_wordwrap.c ****                              - previous->last_word.space
 548                             		.loc 1 148 51
 549 007f ED A5 06                		mov.L	24[r10], r5
 550 0082 99 D5                   		mov.W	12[r5], r5
 551                             		.loc 1 148 30
 552 0084 FF 05 54                		sub	r5, r4, r5
 553 0087 DF 54                   		mov.W	r5, r4
 149:C:/Users/John/Desktop/workspace/miniwinwm/MiniWin/gl/fonts/truetype/mcufont\mf_wordwrap.c ****                              - previous->last_word_2.space;
 554                             		.loc 1 149 53
 555 0089 ED A5 06                		mov.L	24[r10], r5
 556 008c 9A 5D                   		mov.W	18[r5], r5
 557                             		.loc 1 149 30
 558 008e FF 05 54                		sub	r5, r4, r5
 147:C:/Users/John/Desktop/workspace/miniwinwm/MiniWin/gl/fonts/truetype/mcufont\mf_wordwrap.c ****     prevw2 = previous->width - previous->last_word.word
 559                             		.loc 1 147 12
 560 0091 D7 A5 07                		mov.W	r5, 14[r10]
 150:C:/Users/John/Desktop/workspace/miniwinwm/MiniWin/gl/fonts/truetype/mcufont\mf_wordwrap.c ****     delta2 = sq16(max_width - prevw2) + sq16(max_width - curw2);
 561                             		.loc 1 150 29
 562 0094 DD A4 0E                		mov.W	28[r10], r4
 563 0097 DD A5 07                		mov.W	14[r10], r5
 564 009a FF 05 54                		sub	r5, r4, r5
 565                             		.loc 1 150 14
 566 009d DF 51                   		mov.W	r5, r1
 567 009f 05 00 00 00             		bsr	_sq16
 568 00a3 EF 16                   		mov.L	r1, r6
 569                             		.loc 1 150 56
 570 00a5 DD A4 0E                		mov.W	28[r10], r4
 571 00a8 DD A5 06                		mov.W	12[r10], r5
 572 00ab FF 05 54                		sub	r5, r4, r5
 573                             		.loc 1 150 41
 574 00ae DF 51                   		mov.W	r5, r1
 575 00b0 05 00 00 00             		bsr	_sq16
 576 00b4 EF 15                   		mov.L	r1, r5
 577                             		.loc 1 150 12
 578 00b6 4B 65                   		add	r6, r5
 579 00b8 E7 A5 04                		mov.L	r5, 16[r10]
 151:C:/Users/John/Desktop/workspace/miniwinwm/MiniWin/gl/fonts/truetype/mcufont\mf_wordwrap.c ****     
 152:C:/Users/John/Desktop/workspace/miniwinwm/MiniWin/gl/fonts/truetype/mcufont\mf_wordwrap.c ****     if (delta1 > delta2 && curw2 <= max_width)
 580                             		.loc 1 152 8
 581 00bb ED A4 02                		mov.L	8[r10], r4
 582 00be ED A5 04                		mov.L	16[r10], r5
 583 00c1 47 54                   		cmp	r5, r4
 584 00c3 2A 05 38 9C 00          		ble	.L36
 585                             		.loc 1 152 25 discriminator 1
 586 00c8 DD A4 06                		mov.W	12[r10], r4
 587 00cb DD A5 0E                		mov.W	28[r10], r5
 588 00ce 47 54                   		cmp	r5, r4
 589 00d0 2B 05 38 8F 00          		bgt	.L36
 590                             	.LBB2:
 153:C:/Users/John/Desktop/workspace/miniwinwm/MiniWin/gl/fonts/truetype/mcufont\mf_wordwrap.c ****     {
 154:C:/Users/John/Desktop/workspace/miniwinwm/MiniWin/gl/fonts/truetype/mcufont\mf_wordwrap.c ****         /* Do the change. */
 155:C:/Users/John/Desktop/workspace/miniwinwm/MiniWin/gl/fonts/truetype/mcufont\mf_wordwrap.c ****         uint16_t chars;
 156:C:/Users/John/Desktop/workspace/miniwinwm/MiniWin/gl/fonts/truetype/mcufont\mf_wordwrap.c ****         
 157:C:/Users/John/Desktop/workspace/miniwinwm/MiniWin/gl/fonts/truetype/mcufont\mf_wordwrap.c ****         chars = previous->last_word.chars;
 591                             		.loc 1 157 15
 592 00d5 ED A5 06                		mov.L	24[r10], r5
 593 00d8 99 DD                   		mov.W	14[r5], r5
 594 00da D3 A5                   		mov.W	r5, [r10]
 158:C:/Users/John/Desktop/workspace/miniwinwm/MiniWin/gl/fonts/truetype/mcufont\mf_wordwrap.c ****         previous->chars -= chars;
 595                             		.loc 1 158 25
 596 00dc ED A5 06                		mov.L	24[r10], r5
 597 00df 98 D4                   		mov.W	4[r5], r4
 598 00e1 DC A5                   		mov.W	[r10], r5
 599 00e3 FF 05 54                		sub	r5, r4, r5
 600 00e6 DF 54                   		mov.W	r5, r4
 601 00e8 ED A5 06                		mov.L	24[r10], r5
 602 00eb 90 D4                   		mov.W	r4, 4[r5]
 159:C:/Users/John/Desktop/workspace/miniwinwm/MiniWin/gl/fonts/truetype/mcufont\mf_wordwrap.c ****         current->chars += chars;
 603                             		.loc 1 159 24
 604 00ed ED A5 05                		mov.L	20[r10], r5
 605 00f0 98 D5                   		mov.W	4[r5], r5
 606 00f2 DC A4                   		mov.W	[r10], r4
 607 00f4 4B 45                   		add	r4, r5
 608 00f6 DF 54                   		mov.W	r5, r4
 609 00f8 ED A5 05                		mov.L	20[r10], r5
 610 00fb 90 D4                   		mov.W	r4, 4[r5]
 160:C:/Users/John/Desktop/workspace/miniwinwm/MiniWin/gl/fonts/truetype/mcufont\mf_wordwrap.c ****         previous->width -= previous->last_word.word + previous->last_word.space;
 611                             		.loc 1 160 25
 612 00fd ED A5 06                		mov.L	24[r10], r5
 613 0100 98 DD                   		mov.W	6[r5], r5
 614 0102 DF 54                   		mov.W	r5, r4
 615                             		.loc 1 160 47
 616 0104 ED A5 06                		mov.L	24[r10], r5
 617 0107 99 5D                   		mov.W	10[r5], r5
 618 0109 DF 53                   		mov.W	r5, r3
 619                             		.loc 1 160 74
 620 010b ED A5 06                		mov.L	24[r10], r5
 621 010e 99 D5                   		mov.W	12[r5], r5
 622                             		.loc 1 160 53
 623 0110 4B 35                   		add	r3, r5
 624                             		.loc 1 160 25
 625 0112 FF 05 54                		sub	r5, r4, r5
 626 0115 DF 54                   		mov.W	r5, r4
 627 0117 ED A5 06                		mov.L	24[r10], r5
 628 011a 90 DC                   		mov.W	r4, 6[r5]
 161:C:/Users/John/Desktop/workspace/miniwinwm/MiniWin/gl/fonts/truetype/mcufont\mf_wordwrap.c ****         current->width += previous->last_word.word + previous->last_word.space;
 629                             		.loc 1 161 24
 630 011c ED A5 05                		mov.L	20[r10], r5
 631 011f 98 DD                   		mov.W	6[r5], r5
 632 0121 DF 54                   		mov.W	r5, r4
 633                             		.loc 1 161 46
 634 0123 ED A5 06                		mov.L	24[r10], r5
 635 0126 99 5D                   		mov.W	10[r5], r5
 636 0128 DF 53                   		mov.W	r5, r3
 637                             		.loc 1 161 73
 638 012a ED A5 06                		mov.L	24[r10], r5
 639 012d 99 D5                   		mov.W	12[r5], r5
 640                             		.loc 1 161 52
 641 012f 4B 35                   		add	r3, r5
 642                             		.loc 1 161 24
 643 0131 4B 45                   		add	r4, r5
 644 0133 DF 54                   		mov.W	r5, r4
 645 0135 ED A5 05                		mov.L	20[r10], r5
 646 0138 90 DC                   		mov.W	r4, 6[r5]
 162:C:/Users/John/Desktop/workspace/miniwinwm/MiniWin/gl/fonts/truetype/mcufont\mf_wordwrap.c ****         previous->last_word = previous->last_word_2;
 647                             		.loc 1 162 29
 648 013a ED A5 06                		mov.L	24[r10], r5
 649 013d 62 A5                   		add	#10, r5
 650 013f ED A4 06                		mov.L	24[r10], r4
 651 0142 A9 43                   		mov.L	16[r4], r3
 652 0144 E3 53                   		mov.L	r3, [r5]
 653 0146 9A C4                   		mov.W	20[r4], r4
 654 0148 90 D4                   		mov.W	r4, 4[r5]
 163:C:/Users/John/Desktop/workspace/miniwinwm/MiniWin/gl/fonts/truetype/mcufont\mf_wordwrap.c ****         
 164:C:/Users/John/Desktop/workspace/miniwinwm/MiniWin/gl/fonts/truetype/mcufont\mf_wordwrap.c ****         while (chars--) mf_rewind(&current->start);
 655                             		.loc 1 164 15
 656 014a 0A                      		bra	.L34
 657                             	.L35:
 658                             		.loc 1 164 25 discriminator 2
 659 014b ED A5 05                		mov.L	20[r10], r5
 660 014e EF 51                   		mov.L	r5, r1
 661 0150 05 00 00 00             		bsr	_mf_rewind
 662                             	.L34:
 663                             		.loc 1 164 21 discriminator 1
 664 0154 DC A5                   		mov.W	[r10], r5
 665 0156 71 54 FF                		add	#-1, r5, r4
 666 0159 D3 A4                   		mov.W	r4, [r10]
 667                             		.loc 1 164 15 discriminator 1
 668 015b 5F 55                   		movu.W	r5, r5
 669 015d 61 05                   		cmp	#0, r5
 670 015f 21 EC                   		bne	.L35
 671                             	.L36:
 672                             	.LBE2:
 165:C:/Users/John/Desktop/workspace/miniwinwm/MiniWin/gl/fonts/truetype/mcufont\mf_wordwrap.c ****     }
 166:C:/Users/John/Desktop/workspace/miniwinwm/MiniWin/gl/fonts/truetype/mcufont\mf_wordwrap.c **** }
 673                             		.loc 1 166 1
 674 0161 03                      		nop
 675 0162 71 00 20                		add	#32, r0
 676 0165 7E B6                   		pop	r6
 677 0167 7E BA                   		pop	r10
 678 0169 02                      		rts
 679                             	.LFE5:
 681                             		.section	.text.mf_wordwrap,"ax",@progbits
 682                             		.global	_mf_wordwrap
 684                             	_mf_wordwrap:
 685                             	.LFB6:
 167:C:/Users/John/Desktop/workspace/miniwinwm/MiniWin/gl/fonts/truetype/mcufont\mf_wordwrap.c **** 
 168:C:/Users/John/Desktop/workspace/miniwinwm/MiniWin/gl/fonts/truetype/mcufont\mf_wordwrap.c **** void mf_wordwrap(const struct mf_font_s *font, int16_t width,
 169:C:/Users/John/Desktop/workspace/miniwinwm/MiniWin/gl/fonts/truetype/mcufont\mf_wordwrap.c ****                  mf_str text, mf_line_callback_t callback, void *state)
 170:C:/Users/John/Desktop/workspace/miniwinwm/MiniWin/gl/fonts/truetype/mcufont\mf_wordwrap.c **** {
 686                             		.loc 1 170 1
 687 0000 7E AA                   		push.l	r10
 688                             	.LCFI13:
 689 0002 7E A6                   		push.l	r6
 690                             	.LCFI14:
 691 0004 71 0A B8                		add	#-72, r0, r10
 692                             	.LCFI15:
 693 0007 EF A0                   		mov.L	r10, r0
 694 0009 75 46 54                		mov.L	#0x54, r6
 695 000c 4B A6                   		add	r10, r6
 696 000e E7 A1 0D                		mov.L	r1, 52[r10]
 697 0011 D7 A2 1C                		mov.W	r2, 56[r10]
 698 0014 E7 A3 0F                		mov.L	r3, 60[r10]
 699 0017 E7 A4 10                		mov.L	r4, 64[r10]
 171:C:/Users/John/Desktop/workspace/miniwinwm/MiniWin/gl/fonts/truetype/mcufont\mf_wordwrap.c ****     struct linelen_s current = { 0 };
 700                             		.loc 1 171 22
 701 001a 71 A5 04                		add	#4, r10, r5
 702 001d EF 51                   		mov.L	r5, r1
 703 001f 75 43 18                		mov.L	#24, r3
 704 0022 66 02                   		mov	#0, r2
 705 0024 7F 88                   		sstr.b
 172:C:/Users/John/Desktop/workspace/miniwinwm/MiniWin/gl/fonts/truetype/mcufont\mf_wordwrap.c ****     struct linelen_s previous = { 0 };
 706                             		.loc 1 172 22
 707 0026 71 A5 1C                		add	#28, r10, r5
 708 0029 EF 51                   		mov.L	r5, r1
 709 002b 75 43 18                		mov.L	#24, r3
 710 002e 66 02                   		mov	#0, r2
 711 0030 7F 88                   		sstr.b
 173:C:/Users/John/Desktop/workspace/miniwinwm/MiniWin/gl/fonts/truetype/mcufont\mf_wordwrap.c ****     bool full;
 174:C:/Users/John/Desktop/workspace/miniwinwm/MiniWin/gl/fonts/truetype/mcufont\mf_wordwrap.c ****     
 175:C:/Users/John/Desktop/workspace/miniwinwm/MiniWin/gl/fonts/truetype/mcufont\mf_wordwrap.c ****     current.start = text;
 712                             		.loc 1 175 19
 713 0032 ED A5 0F                		mov.L	60[r10], r5
 714 0035 E7 A5 01                		mov.L	r5, 4[r10]
 176:C:/Users/John/Desktop/workspace/miniwinwm/MiniWin/gl/fonts/truetype/mcufont\mf_wordwrap.c ****     
 177:C:/Users/John/Desktop/workspace/miniwinwm/MiniWin/gl/fonts/truetype/mcufont\mf_wordwrap.c ****     while (*text)
 715                             		.loc 1 177 11
 716 0038 38 DE 00                		bra	.L38
 717                             	.L45:
 178:C:/Users/John/Desktop/workspace/miniwinwm/MiniWin/gl/fonts/truetype/mcufont\mf_wordwrap.c ****     {
 179:C:/Users/John/Desktop/workspace/miniwinwm/MiniWin/gl/fonts/truetype/mcufont\mf_wordwrap.c ****         full = !append_word(font, width, &current, &text);
 718                             		.loc 1 179 17
 719 003b 71 A4 3C                		add	#60, r10, r4
 720 003e 71 A5 04                		add	#4, r10, r5
 721 0041 EF 53                   		mov.L	r5, r3
 722 0043 DD A2 1C                		mov.W	56[r10], r2
 723 0046 ED A1 0D                		mov.L	52[r10], r1
 724 0049 05 00 00 00             		bsr	_append_word
 725 004d EF 15                   		mov.L	r1, r5
 726 004f 5B 55                   		movu.B	r5, r5
 727                             		.loc 1 179 9
 728 0051 61 05                   		cmp	#0, r5
 729 0053 FC DB 51                		scne.L	r5
 730 0056 FD 74 D5 01             		xor	#1, r5
 731 005a 5B 55                   		movu.B	r5, r5
 732                             		.loc 1 179 14
 733 005c C3 A5                   		mov.B	r5, [r10]
 734 005e CC A5                   		mov.B	[r10], r5
 735 0060 64 15                   		and	#1, r5
 736 0062 C3 A5                   		mov.B	r5, [r10]
 180:C:/Users/John/Desktop/workspace/miniwinwm/MiniWin/gl/fonts/truetype/mcufont\mf_wordwrap.c ****         
 181:C:/Users/John/Desktop/workspace/miniwinwm/MiniWin/gl/fonts/truetype/mcufont\mf_wordwrap.c ****         if (full || current.linebreak)
 737                             		.loc 1 181 12
 738 0064 58 A5                   		movu.B	[r10], r5
 739 0066 61 05                   		cmp	#0, r5
 740 0068 21 0C                   		bne	.L39
 741                             		.loc 1 181 28 discriminator 1
 742 006a CD A5 0C                		mov.B	12[r10], r5
 743                             		.loc 1 181 18 discriminator 1
 744 006d 5B 55                   		movu.B	r5, r5
 745 006f 61 05                   		cmp	#0, r5
 746 0071 3A A5 00                		beq	.L38
 747                             	.L39:
 182:C:/Users/John/Desktop/workspace/miniwinwm/MiniWin/gl/fonts/truetype/mcufont\mf_wordwrap.c ****         {
 183:C:/Users/John/Desktop/workspace/miniwinwm/MiniWin/gl/fonts/truetype/mcufont\mf_wordwrap.c ****             if (!current.chars)
 748                             		.loc 1 183 25
 749 0074 DD A5 04                		mov.W	8[r10], r5
 750                             		.loc 1 183 16
 751 0077 5F 55                   		movu.W	r5, r5
 752 0079 61 05                   		cmp	#0, r5
 753 007b 21 1D                   		bne	.L40
 184:C:/Users/John/Desktop/workspace/miniwinwm/MiniWin/gl/fonts/truetype/mcufont\mf_wordwrap.c ****             {
 185:C:/Users/John/Desktop/workspace/miniwinwm/MiniWin/gl/fonts/truetype/mcufont\mf_wordwrap.c ****                 /* We have a very long word. We must just cut it off at some
 186:C:/Users/John/Desktop/workspace/miniwinwm/MiniWin/gl/fonts/truetype/mcufont\mf_wordwrap.c ****                  * point. */
 187:C:/Users/John/Desktop/workspace/miniwinwm/MiniWin/gl/fonts/truetype/mcufont\mf_wordwrap.c ****                 while (append_char(font, width, &current, &text));
 754                             		.loc 1 187 23
 755 007d 03                      		nop
 756                             	.L41:
 757                             		.loc 1 187 24 discriminator 1
 758 007e 71 A4 3C                		add	#60, r10, r4
 759 0081 71 A5 04                		add	#4, r10, r5
 760 0084 EF 53                   		mov.L	r5, r3
 761 0086 DD A2 1C                		mov.W	56[r10], r2
 762 0089 ED A1 0D                		mov.L	52[r10], r1
 763 008c 05 00 00 00             		bsr	_append_char
 764 0090 EF 15                   		mov.L	r1, r5
 765                             		.loc 1 187 23 discriminator 1
 766 0092 5B 55                   		movu.B	r5, r5
 767 0094 61 05                   		cmp	#0, r5
 768 0096 21 E8                   		bne	.L41
 769                             	.L40:
 188:C:/Users/John/Desktop/workspace/miniwinwm/MiniWin/gl/fonts/truetype/mcufont\mf_wordwrap.c ****             }
 189:C:/Users/John/Desktop/workspace/miniwinwm/MiniWin/gl/fonts/truetype/mcufont\mf_wordwrap.c ****             
 190:C:/Users/John/Desktop/workspace/miniwinwm/MiniWin/gl/fonts/truetype/mcufont\mf_wordwrap.c ****             if (previous.chars)
 770                             		.loc 1 190 25
 771 0098 DD A5 10                		mov.W	32[r10], r5
 772                             		.loc 1 190 16
 773 009b 5F 55                   		movu.W	r5, r5
 774 009d 61 05                   		cmp	#0, r5
 775 009f 20 48                   		beq	.L42
 191:C:/Users/John/Desktop/workspace/miniwinwm/MiniWin/gl/fonts/truetype/mcufont\mf_wordwrap.c ****             {
 192:C:/Users/John/Desktop/workspace/miniwinwm/MiniWin/gl/fonts/truetype/mcufont\mf_wordwrap.c ****                 /* Tune the length and dispatch the previous line. */
 193:C:/Users/John/Desktop/workspace/miniwinwm/MiniWin/gl/fonts/truetype/mcufont\mf_wordwrap.c ****                 if (!previous.linebreak && !current.linebreak)
 776                             		.loc 1 193 30
 777 00a1 CD A5 24                		mov.B	36[r10], r5
 778                             		.loc 1 193 21
 779 00a4 FD 74 D5 01             		xor	#1, r5
 780                             		.loc 1 193 20
 781 00a8 5B 55                   		movu.B	r5, r5
 782 00aa 61 05                   		cmp	#0, r5
 783 00ac 20 20                   		beq	.L43
 784                             		.loc 1 193 52 discriminator 1
 785 00ae CD A5 0C                		mov.B	12[r10], r5
 786                             		.loc 1 193 44 discriminator 1
 787 00b1 FD 74 D5 01             		xor	#1, r5
 788                             		.loc 1 193 41 discriminator 1
 789 00b5 5B 55                   		movu.B	r5, r5
 790 00b7 61 05                   		cmp	#0, r5
 791 00b9 20 13                   		beq	.L43
 194:C:/Users/John/Desktop/workspace/miniwinwm/MiniWin/gl/fonts/truetype/mcufont\mf_wordwrap.c ****                     tune_lines(&current, &previous, width);
 792                             		.loc 1 194 21
 793 00bb 71 A4 1C                		add	#28, r10, r4
 794 00be 71 A5 04                		add	#4, r10, r5
 795 00c1 DD A3 1C                		mov.W	56[r10], r3
 796 00c4 EF 42                   		mov.L	r4, r2
 797 00c6 EF 51                   		mov.L	r5, r1
 798 00c8 05 00 00 00             		bsr	_tune_lines
 799                             	.L43:
 195:C:/Users/John/Desktop/workspace/miniwinwm/MiniWin/gl/fonts/truetype/mcufont\mf_wordwrap.c ****                 
 196:C:/Users/John/Desktop/workspace/miniwinwm/MiniWin/gl/fonts/truetype/mcufont\mf_wordwrap.c ****                 if (!callback(previous.start, previous.chars, state))
 800                             		.loc 1 196 22
 801 00cc ED A4 07                		mov.L	28[r10], r4
 802 00cf DD A2 10                		mov.W	32[r10], r2
 803 00d2 ED A5 10                		mov.L	64[r10], r5
 804 00d5 EC 63                   		mov.L	[r6], r3
 805 00d7 EF 41                   		mov.L	r4, r1
 806 00d9 7F 15                   		jsr	r5
 807                             	.LVL0:
 808 00db EF 15                   		mov.L	r1, r5
 809                             		.loc 1 196 21
 810 00dd FD 74 D5 01             		xor	#1, r5
 811                             		.loc 1 196 20
 812 00e1 5B 55                   		movu.B	r5, r5
 813 00e3 61 05                   		cmp	#0, r5
 814 00e5 21 7A                   		bne	.L49
 815                             	.L42:
 197:C:/Users/John/Desktop/workspace/miniwinwm/MiniWin/gl/fonts/truetype/mcufont\mf_wordwrap.c ****                     return;
 198:C:/Users/John/Desktop/workspace/miniwinwm/MiniWin/gl/fonts/truetype/mcufont\mf_wordwrap.c ****             }
 199:C:/Users/John/Desktop/workspace/miniwinwm/MiniWin/gl/fonts/truetype/mcufont\mf_wordwrap.c ****             
 200:C:/Users/John/Desktop/workspace/miniwinwm/MiniWin/gl/fonts/truetype/mcufont\mf_wordwrap.c ****             previous = current;
 816                             		.loc 1 200 22
 817 00e7 75 44 18                		mov.L	#24, r4
 818 00ea 71 A5 1C                		add	#28, r10, r5
 819 00ed EF 51                   		mov.L	r5, r1
 820 00ef 71 A5 04                		add	#4, r10, r5
 821 00f2 EF 52                   		mov.L	r5, r2
 822 00f4 EF 43                   		mov.L	r4, r3
 823 00f6 7F 8F                   		smovf
 201:C:/Users/John/Desktop/workspace/miniwinwm/MiniWin/gl/fonts/truetype/mcufont\mf_wordwrap.c ****             current.start = text;
 824                             		.loc 1 201 27
 825 00f8 ED A5 0F                		mov.L	60[r10], r5
 826 00fb E7 A5 01                		mov.L	r5, 4[r10]
 202:C:/Users/John/Desktop/workspace/miniwinwm/MiniWin/gl/fonts/truetype/mcufont\mf_wordwrap.c ****             current.chars = 0;
 827                             		.loc 1 202 27
 828 00fe F9 A5 04 00             		mov.W	#0, 8[r10]
 203:C:/Users/John/Desktop/workspace/miniwinwm/MiniWin/gl/fonts/truetype/mcufont\mf_wordwrap.c ****             current.width = 0;
 829                             		.loc 1 203 27
 830 0102 F9 A5 05 00             		mov.W	#0, 10[r10]
 204:C:/Users/John/Desktop/workspace/miniwinwm/MiniWin/gl/fonts/truetype/mcufont\mf_wordwrap.c ****             current.linebreak = false;
 831                             		.loc 1 204 31
 832 0106 F9 A4 0C 00             		mov.B	#0, 12[r10]
 205:C:/Users/John/Desktop/workspace/miniwinwm/MiniWin/gl/fonts/truetype/mcufont\mf_wordwrap.c ****             current.last_word.word = 0;
 833                             		.loc 1 205 36
 834 010a F9 A5 07 00             		mov.W	#0, 14[r10]
 206:C:/Users/John/Desktop/workspace/miniwinwm/MiniWin/gl/fonts/truetype/mcufont\mf_wordwrap.c ****             current.last_word.space = 0;
 835                             		.loc 1 206 37
 836 010e F9 A5 08 00             		mov.W	#0, 16[r10]
 207:C:/Users/John/Desktop/workspace/miniwinwm/MiniWin/gl/fonts/truetype/mcufont\mf_wordwrap.c ****             current.last_word.chars = 0;
 837                             		.loc 1 207 37
 838 0112 F9 A5 09 00             		mov.W	#0, 18[r10]
 839                             	.L38:
 177:C:/Users/John/Desktop/workspace/miniwinwm/MiniWin/gl/fonts/truetype/mcufont\mf_wordwrap.c ****     {
 840                             		.loc 1 177 12
 841 0116 ED A5 0F                		mov.L	60[r10], r5
 842 0119 CC 55                   		mov.B	[r5], r5
 177:C:/Users/John/Desktop/workspace/miniwinwm/MiniWin/gl/fonts/truetype/mcufont\mf_wordwrap.c ****     {
 843                             		.loc 1 177 11
 844 011b 5B 55                   		movu.B	r5, r5
 845 011d 61 05                   		cmp	#0, r5
 846 011f 3B 1C FF                		bne	.L45
 208:C:/Users/John/Desktop/workspace/miniwinwm/MiniWin/gl/fonts/truetype/mcufont\mf_wordwrap.c ****         }
 209:C:/Users/John/Desktop/workspace/miniwinwm/MiniWin/gl/fonts/truetype/mcufont\mf_wordwrap.c ****     }
 210:C:/Users/John/Desktop/workspace/miniwinwm/MiniWin/gl/fonts/truetype/mcufont\mf_wordwrap.c ****     
 211:C:/Users/John/Desktop/workspace/miniwinwm/MiniWin/gl/fonts/truetype/mcufont\mf_wordwrap.c ****     /* Dispatch the last lines. */
 212:C:/Users/John/Desktop/workspace/miniwinwm/MiniWin/gl/fonts/truetype/mcufont\mf_wordwrap.c ****     if (previous.chars)
 847                             		.loc 1 212 17
 848 0122 DD A5 10                		mov.W	32[r10], r5
 849                             		.loc 1 212 8
 850 0125 5F 55                   		movu.W	r5, r5
 851 0127 61 05                   		cmp	#0, r5
 852 0129 20 1D                   		beq	.L46
 213:C:/Users/John/Desktop/workspace/miniwinwm/MiniWin/gl/fonts/truetype/mcufont\mf_wordwrap.c ****     {
 214:C:/Users/John/Desktop/workspace/miniwinwm/MiniWin/gl/fonts/truetype/mcufont\mf_wordwrap.c ****         if (!callback(previous.start, previous.chars, state))
 853                             		.loc 1 214 14
 854 012b ED A4 07                		mov.L	28[r10], r4
 855 012e DD A2 10                		mov.W	32[r10], r2
 856 0131 ED A5 10                		mov.L	64[r10], r5
 857 0134 EC 63                   		mov.L	[r6], r3
 858 0136 EF 41                   		mov.L	r4, r1
 859 0138 7F 15                   		jsr	r5
 860                             	.LVL1:
 861 013a EF 15                   		mov.L	r1, r5
 862                             		.loc 1 214 13
 863 013c FD 74 D5 01             		xor	#1, r5
 864                             		.loc 1 214 12
 865 0140 5B 55                   		movu.B	r5, r5
 866 0142 61 05                   		cmp	#0, r5
 867 0144 21 1E                   		bne	.L50
 868                             	.L46:
 215:C:/Users/John/Desktop/workspace/miniwinwm/MiniWin/gl/fonts/truetype/mcufont\mf_wordwrap.c ****             return;
 216:C:/Users/John/Desktop/workspace/miniwinwm/MiniWin/gl/fonts/truetype/mcufont\mf_wordwrap.c ****     }
 217:C:/Users/John/Desktop/workspace/miniwinwm/MiniWin/gl/fonts/truetype/mcufont\mf_wordwrap.c ****     
 218:C:/Users/John/Desktop/workspace/miniwinwm/MiniWin/gl/fonts/truetype/mcufont\mf_wordwrap.c ****     if (current.chars)
 869                             		.loc 1 218 16
 870 0146 DD A5 04                		mov.W	8[r10], r5
 871                             		.loc 1 218 8
 872 0149 5F 55                   		movu.W	r5, r5
 873 014b 61 05                   		cmp	#0, r5
 874 014d 20 16                   		beq	.L37
 219:C:/Users/John/Desktop/workspace/miniwinwm/MiniWin/gl/fonts/truetype/mcufont\mf_wordwrap.c ****         callback(current.start, current.chars, state);
 875                             		.loc 1 219 9
 876 014f ED A4 01                		mov.L	4[r10], r4
 877 0152 DD A2 04                		mov.W	8[r10], r2
 878 0155 ED A5 10                		mov.L	64[r10], r5
 879 0158 EC 63                   		mov.L	[r6], r3
 880 015a EF 41                   		mov.L	r4, r1
 881 015c 7F 15                   		jsr	r5
 882                             	.LVL2:
 883 015e 0D                      		bra	.L37
 884                             	.L49:
 197:C:/Users/John/Desktop/workspace/miniwinwm/MiniWin/gl/fonts/truetype/mcufont\mf_wordwrap.c ****             }
 885                             		.loc 1 197 21
 886 015f 03                      		nop
 887 0160 2E 03                   		bra	.L37
 888                             	.L50:
 215:C:/Users/John/Desktop/workspace/miniwinwm/MiniWin/gl/fonts/truetype/mcufont\mf_wordwrap.c ****             return;
 889                             		.loc 1 215 13
 890 0162 03                      		nop
 891                             		.balign 8,3,2
 892                             	.L37:
 220:C:/Users/John/Desktop/workspace/miniwinwm/MiniWin/gl/fonts/truetype/mcufont\mf_wordwrap.c **** }
 893                             		.loc 1 220 1
 894 0163 71 00 48                		add	#0x48, r0
 895 0166 7E B6                   		pop	r6
 896 0168 7E BA                   		pop	r10
 897 016a 02                      		rts
 898                             	.LFE6:
 1063                             	.Letext0:
 1064                             		.file 2 "c:\\program files (x86)\\gcc for renesas rx 8.3.0.201904-gnurx-elf\\rx-elf\\rx-elf\\rx-el
 1065                             		.file 3 "c:\\program files (x86)\\gcc for renesas rx 8.3.0.201904-gnurx-elf\\rx-elf\\rx-elf\\rx-el
 1066                             		.file 4 "C:/Users/John/Desktop/workspace/miniwinwm/MiniWin/gl/fonts/truetype/mcufont/mf_encoding.h
 1067                             		.file 5 "C:/Users/John/Desktop/workspace/miniwinwm/MiniWin/gl/fonts/truetype/mcufont/mf_font.h"
 1068                             		.file 6 "C:/Users/John/Desktop/workspace/miniwinwm/MiniWin/gl/fonts/truetype/mcufont/mf_wordwrap.h
