   1                             		.file	"miniwin_debug.c"
   2                             		.section P,"ax"
   3                             	.Ltext0:
   4                             		.section C,"a",@progbits
   5                             		.p2align 2
   6                             	.LC0:
   7 0000 41 53 53 45 52 54 20 46 		.string	"ASSERT FAILED"
   7      41 49 4C 45 44 00 
   8 000e 00 00                   		.section	.text.mw_debug_print_assert,"ax",@progbits
   9                             		.global	_mw_debug_print_assert
  11                             	_mw_debug_print_assert:
  12                             	.LFB0:
  13                             		.file 1 "C:/Users/John/Desktop/workspace/miniwinwm/MiniWin/miniwin_debug.c"
   1:C:/Users/John/Desktop/workspace/miniwinwm/MiniWin\miniwin_debug.c **** /*
   2:C:/Users/John/Desktop/workspace/miniwinwm/MiniWin\miniwin_debug.c **** 
   3:C:/Users/John/Desktop/workspace/miniwinwm/MiniWin\miniwin_debug.c **** MIT License
   4:C:/Users/John/Desktop/workspace/miniwinwm/MiniWin\miniwin_debug.c **** 
   5:C:/Users/John/Desktop/workspace/miniwinwm/MiniWin\miniwin_debug.c **** Copyright (c) John Blaiklock 2019 miniwin Embedded Window Manager
   6:C:/Users/John/Desktop/workspace/miniwinwm/MiniWin\miniwin_debug.c **** 
   7:C:/Users/John/Desktop/workspace/miniwinwm/MiniWin\miniwin_debug.c **** Permission is hereby granted, free of charge, to any person obtaining a copy
   8:C:/Users/John/Desktop/workspace/miniwinwm/MiniWin\miniwin_debug.c **** of this software and associated documentation files (the "Software"), to deal
   9:C:/Users/John/Desktop/workspace/miniwinwm/MiniWin\miniwin_debug.c **** in the Software without restriction, including without limitation the rights
  10:C:/Users/John/Desktop/workspace/miniwinwm/MiniWin\miniwin_debug.c **** to use, copy, modify, merge, publish, distribute, sublicense, and/or sell
  11:C:/Users/John/Desktop/workspace/miniwinwm/MiniWin\miniwin_debug.c **** copies of the Software, and to permit persons to whom the Software is
  12:C:/Users/John/Desktop/workspace/miniwinwm/MiniWin\miniwin_debug.c **** furnished to do so, subject to the following conditions:
  13:C:/Users/John/Desktop/workspace/miniwinwm/MiniWin\miniwin_debug.c **** 
  14:C:/Users/John/Desktop/workspace/miniwinwm/MiniWin\miniwin_debug.c **** The above copyright notice and this permission notice shall be included in all
  15:C:/Users/John/Desktop/workspace/miniwinwm/MiniWin\miniwin_debug.c **** copies or substantial portions of the Software.
  16:C:/Users/John/Desktop/workspace/miniwinwm/MiniWin\miniwin_debug.c **** 
  17:C:/Users/John/Desktop/workspace/miniwinwm/MiniWin\miniwin_debug.c **** THE SOFTWARE IS PROVIDED "AS IS", WITHOUT WARRANTY OF ANY KIND, EXPRESS OR
  18:C:/Users/John/Desktop/workspace/miniwinwm/MiniWin\miniwin_debug.c **** IMPLIED, INCLUDING BUT NOT LIMITED TO THE WARRANTIES OF MERCHANTABILITY,
  19:C:/Users/John/Desktop/workspace/miniwinwm/MiniWin\miniwin_debug.c **** FITNESS FOR A PARTICULAR PURPOSE AND NONINFRINGEMENT. IN NO EVENT SHALL THE
  20:C:/Users/John/Desktop/workspace/miniwinwm/MiniWin\miniwin_debug.c **** AUTHORS OR COPYRIGHT HOLDERS BE LIABLE FOR ANY CLAIM, DAMAGES OR OTHER
  21:C:/Users/John/Desktop/workspace/miniwinwm/MiniWin\miniwin_debug.c **** LIABILITY, WHETHER IN AN ACTION OF CONTRACT, TORT OR OTHERWISE, ARISING FROM,
  22:C:/Users/John/Desktop/workspace/miniwinwm/MiniWin\miniwin_debug.c **** OUT OF OR IN CONNECTION WITH THE SOFTWARE OR THE USE OR OTHER DEALINGS IN THE
  23:C:/Users/John/Desktop/workspace/miniwinwm/MiniWin\miniwin_debug.c **** SOFTWARE.
  24:C:/Users/John/Desktop/workspace/miniwinwm/MiniWin\miniwin_debug.c **** 
  25:C:/Users/John/Desktop/workspace/miniwinwm/MiniWin\miniwin_debug.c **** */
  26:C:/Users/John/Desktop/workspace/miniwinwm/MiniWin\miniwin_debug.c **** 
  27:C:/Users/John/Desktop/workspace/miniwinwm/MiniWin\miniwin_debug.c **** /***************
  28:C:/Users/John/Desktop/workspace/miniwinwm/MiniWin\miniwin_debug.c **** *** INCLUDES ***
  29:C:/Users/John/Desktop/workspace/miniwinwm/MiniWin\miniwin_debug.c **** ***************/
  30:C:/Users/John/Desktop/workspace/miniwinwm/MiniWin\miniwin_debug.c **** 
  31:C:/Users/John/Desktop/workspace/miniwinwm/MiniWin\miniwin_debug.c **** #include <stdint.h>
  32:C:/Users/John/Desktop/workspace/miniwinwm/MiniWin\miniwin_debug.c **** #include <stdbool.h>
  33:C:/Users/John/Desktop/workspace/miniwinwm/MiniWin\miniwin_debug.c **** #include "miniwin.h"
  34:C:/Users/John/Desktop/workspace/miniwinwm/MiniWin\miniwin_debug.c **** 
  35:C:/Users/John/Desktop/workspace/miniwinwm/MiniWin\miniwin_debug.c **** /****************
  36:C:/Users/John/Desktop/workspace/miniwinwm/MiniWin\miniwin_debug.c **** *** CONSTANTS ***
  37:C:/Users/John/Desktop/workspace/miniwinwm/MiniWin\miniwin_debug.c **** ****************/
  38:C:/Users/John/Desktop/workspace/miniwinwm/MiniWin\miniwin_debug.c **** 
  39:C:/Users/John/Desktop/workspace/miniwinwm/MiniWin\miniwin_debug.c **** /************
  40:C:/Users/John/Desktop/workspace/miniwinwm/MiniWin\miniwin_debug.c **** *** TYPES ***
  41:C:/Users/John/Desktop/workspace/miniwinwm/MiniWin\miniwin_debug.c **** ************/
  42:C:/Users/John/Desktop/workspace/miniwinwm/MiniWin\miniwin_debug.c **** 
  43:C:/Users/John/Desktop/workspace/miniwinwm/MiniWin\miniwin_debug.c **** /***********************
  44:C:/Users/John/Desktop/workspace/miniwinwm/MiniWin\miniwin_debug.c **** *** GLOBAL VARIABLES ***
  45:C:/Users/John/Desktop/workspace/miniwinwm/MiniWin\miniwin_debug.c **** ***********************/
  46:C:/Users/John/Desktop/workspace/miniwinwm/MiniWin\miniwin_debug.c **** 
  47:C:/Users/John/Desktop/workspace/miniwinwm/MiniWin\miniwin_debug.c **** /**********************
  48:C:/Users/John/Desktop/workspace/miniwinwm/MiniWin\miniwin_debug.c **** *** LOCAL VARIABLES ***
  49:C:/Users/John/Desktop/workspace/miniwinwm/MiniWin\miniwin_debug.c **** **********************/
  50:C:/Users/John/Desktop/workspace/miniwinwm/MiniWin\miniwin_debug.c **** 
  51:C:/Users/John/Desktop/workspace/miniwinwm/MiniWin\miniwin_debug.c **** /********************************
  52:C:/Users/John/Desktop/workspace/miniwinwm/MiniWin\miniwin_debug.c **** *** LOCAL FUNCTION PROTOTYPES ***
  53:C:/Users/John/Desktop/workspace/miniwinwm/MiniWin\miniwin_debug.c **** ********************************/
  54:C:/Users/John/Desktop/workspace/miniwinwm/MiniWin\miniwin_debug.c **** 
  55:C:/Users/John/Desktop/workspace/miniwinwm/MiniWin\miniwin_debug.c **** /**********************
  56:C:/Users/John/Desktop/workspace/miniwinwm/MiniWin\miniwin_debug.c **** *** LOCAL FUNCTIONS ***
  57:C:/Users/John/Desktop/workspace/miniwinwm/MiniWin\miniwin_debug.c **** **********************/
  58:C:/Users/John/Desktop/workspace/miniwinwm/MiniWin\miniwin_debug.c **** 
  59:C:/Users/John/Desktop/workspace/miniwinwm/MiniWin\miniwin_debug.c **** /***********************
  60:C:/Users/John/Desktop/workspace/miniwinwm/MiniWin\miniwin_debug.c **** *** GLOBAL FUNCTIONS ***
  61:C:/Users/John/Desktop/workspace/miniwinwm/MiniWin\miniwin_debug.c **** ***********************/
  62:C:/Users/John/Desktop/workspace/miniwinwm/MiniWin\miniwin_debug.c **** 
  63:C:/Users/John/Desktop/workspace/miniwinwm/MiniWin\miniwin_debug.c **** #ifndef NDEBUG
  64:C:/Users/John/Desktop/workspace/miniwinwm/MiniWin\miniwin_debug.c **** 
  65:C:/Users/John/Desktop/workspace/miniwinwm/MiniWin\miniwin_debug.c **** void mw_debug_print_assert(bool expression, const char *function_name, int32_t line_number, const c
  66:C:/Users/John/Desktop/workspace/miniwinwm/MiniWin\miniwin_debug.c **** {
  14                             		.loc 1 66 1
  15 0000 7E AA                   		push.l	r10
  16                             	.LCFI0:
  17 0002 7E A6                   		push.l	r6
  18                             	.LCFI1:
  19 0004 71 0A D4                		add	#-44, r0, r10
  20                             	.LCFI2:
  21 0007 71 A0 FC                		add	#-4, r10, r0
  22                             	.LCFI3:
  23 000a C7 A1 1C                		mov.B	r1, 28[r10]
  24 000d E7 A2 08                		mov.L	r2, 32[r10]
  25 0010 E7 A3 09                		mov.L	r3, 36[r10]
  26 0013 E7 A4 0A                		mov.L	r4, 40[r10]
  67:C:/Users/John/Desktop/workspace/miniwinwm/MiniWin\miniwin_debug.c ****     mw_gl_draw_info_t draw_info = {0};
  27                             		.loc 1 67 23
  28 0016 EF A1                   		mov.L	r10, r1
  29 0018 66 C3                   		mov.L	#12, r3
  30 001a 66 02                   		mov	#0, r2
  31 001c 7F 88                   		sstr.b
  68:C:/Users/John/Desktop/workspace/miniwinwm/MiniWin\miniwin_debug.c ****     draw_info.clip_rect.width = MW_ROOT_WIDTH;
  32                             		.loc 1 68 33
  33 001e 05 00 00 00             		bsr	_mw_hal_lcd_get_display_width
  34 0022 EF 15                   		mov.L	r1, r5
  35                             		.loc 1 68 31
  36 0024 D7 A5 04                		mov.W	r5, 8[r10]
  69:C:/Users/John/Desktop/workspace/miniwinwm/MiniWin\miniwin_debug.c ****     draw_info.clip_rect.height = MW_ROOT_HEIGHT;
  37                             		.loc 1 69 34
  38 0027 05 00 00 00             		bsr	_mw_hal_lcd_get_display_height
  39 002b EF 15                   		mov.L	r1, r5
  40                             		.loc 1 69 32
  41 002d D7 A5 05                		mov.W	r5, 10[r10]
  70:C:/Users/John/Desktop/workspace/miniwinwm/MiniWin\miniwin_debug.c **** 
  71:C:/Users/John/Desktop/workspace/miniwinwm/MiniWin\miniwin_debug.c ****     char number_buffer[15];
  72:C:/Users/John/Desktop/workspace/miniwinwm/MiniWin\miniwin_debug.c **** 
  73:C:/Users/John/Desktop/workspace/miniwinwm/MiniWin\miniwin_debug.c ****     if (expression)
  42                             		.loc 1 73 8
  43 0030 59 A5 1C                		movu.B	28[r10], r5
  44 0033 61 05                   		cmp	#0, r5
  45 0035 3B B1 00                		bne	.L6
  74:C:/Users/John/Desktop/workspace/miniwinwm/MiniWin\miniwin_debug.c ****     {
  75:C:/Users/John/Desktop/workspace/miniwinwm/MiniWin\miniwin_debug.c ****     	return;
  76:C:/Users/John/Desktop/workspace/miniwinwm/MiniWin\miniwin_debug.c ****     }
  77:C:/Users/John/Desktop/workspace/miniwinwm/MiniWin\miniwin_debug.c **** 
  78:C:/Users/John/Desktop/workspace/miniwinwm/MiniWin\miniwin_debug.c **** 	mw_hal_lcd_filled_rectangle(0,
  46                             		.loc 1 78 2
  47 0038 05 00 00 00             		bsr	_mw_hal_lcd_get_display_width
  48 003c EF 15                   		mov.L	r1, r5
  49 003e DF 56                   		mov.W	r5, r6
  50 0040 05 00 00 00             		bsr	_mw_hal_lcd_get_display_height
  51 0044 EF 15                   		mov.L	r1, r5
  52 0046 F8 0A FF 00             		mov.L	#0xff, [r0]
  53 004a DF 54                   		mov.W	r5, r4
  54 004c DF 63                   		mov.W	r6, r3
  55 004e 66 02                   		mov	#0, r2
  56 0050 66 01                   		mov	#0, r1
  57 0052 05 00 00 00             		bsr	_mw_hal_lcd_filled_rectangle
  79:C:/Users/John/Desktop/workspace/miniwinwm/MiniWin\miniwin_debug.c **** 		0,
  80:C:/Users/John/Desktop/workspace/miniwinwm/MiniWin\miniwin_debug.c **** 		MW_ROOT_WIDTH,
  81:C:/Users/John/Desktop/workspace/miniwinwm/MiniWin\miniwin_debug.c **** 		MW_ROOT_HEIGHT,
  82:C:/Users/John/Desktop/workspace/miniwinwm/MiniWin\miniwin_debug.c **** 		MW_HAL_LCD_BLUE);
  83:C:/Users/John/Desktop/workspace/miniwinwm/MiniWin\miniwin_debug.c **** 
  84:C:/Users/John/Desktop/workspace/miniwinwm/MiniWin\miniwin_debug.c **** 	mw_gl_set_fg_colour(MW_HAL_LCD_YELLOW);
  58                             		.loc 1 84 2
  59 0056 FB 12 00 FF FF 00       		mov.L	#0xffff00, r1
  60 005c 05 00 00 00             		bsr	_mw_gl_set_fg_colour
  85:C:/Users/John/Desktop/workspace/miniwinwm/MiniWin\miniwin_debug.c **** 	mw_gl_set_bg_transparency(MW_GL_BG_TRANSPARENT);
  61                             		.loc 1 85 2
  62 0060 66 01                   		mov.L	#0, r1
  63 0062 05 00 00 00             		bsr	_mw_gl_set_bg_transparency
  86:C:/Users/John/Desktop/workspace/miniwinwm/MiniWin\miniwin_debug.c **** 	mw_gl_set_font(MW_GL_FONT_9);
  64                             		.loc 1 86 2
  65 0066 66 01                   		mov.L	#0, r1
  66 0068 05 00 00 00             		bsr	_mw_gl_set_font
  87:C:/Users/John/Desktop/workspace/miniwinwm/MiniWin\miniwin_debug.c **** 	mw_gl_set_text_rotation(MW_GL_TEXT_ROTATION_0);
  67                             		.loc 1 87 2
  68 006c 66 01                   		mov.L	#0, r1
  69 006e 05 00 00 00             		bsr	_mw_gl_set_text_rotation
  88:C:/Users/John/Desktop/workspace/miniwinwm/MiniWin\miniwin_debug.c **** 
  89:C:/Users/John/Desktop/workspace/miniwinwm/MiniWin\miniwin_debug.c **** 	mw_gl_string(&draw_info, 0, 0, "ASSERT FAILED");
  70                             		.loc 1 89 2
  71 0072 FB 42 00 00 00 00       		mov.L	#.LC0, r4
  72 0078 66 03                   		mov	#0, r3
  73 007a 66 02                   		mov	#0, r2
  74 007c EF A1                   		mov.L	r10, r1
  75 007e 05 00 00 00             		bsr	_mw_gl_string
  90:C:/Users/John/Desktop/workspace/miniwinwm/MiniWin\miniwin_debug.c **** 	mw_gl_string(&draw_info, 0, (int16_t)mw_gl_get_font_height() + 1, function_name);
  76                             		.loc 1 90 39
  77 0082 05 00 00 00             		bsr	_mw_gl_get_font_height
  78 0086 EF 15                   		mov.L	r1, r5
  79                             		.loc 1 90 63
  80 0088 62 15                   		add	#1, r5
  81                             		.loc 1 90 2
  82 008a ED A4 08                		mov.L	32[r10], r4
  83 008d DF 53                   		mov.W	r5, r3
  84 008f 66 02                   		mov	#0, r2
  85 0091 EF A1                   		mov.L	r10, r1
  86 0093 05 00 00 00             		bsr	_mw_gl_string
  91:C:/Users/John/Desktop/workspace/miniwinwm/MiniWin\miniwin_debug.c **** 	(void)mw_util_safe_itoa(line_number, number_buffer, 15, 10, false, 0, ' ');
  87                             		.loc 1 91 8
  88 0097 71 A5 0C                		add	#12, r10, r5
  89 009a 3C 02 20                		mov.B	#32, 2[r0]
  90 009d 3C 01 00                		mov.B	#0, 1[r0]
  91 00a0 F8 04 00                		mov.B	#0, [r0]
  92 00a3 66 A4                   		mov.L	#10, r4
  93 00a5 66 F3                   		mov.L	#15, r3
  94 00a7 EF 52                   		mov.L	r5, r2
  95 00a9 ED A1 09                		mov.L	36[r10], r1
  96 00ac 05 00 00 00             		bsr	_mw_util_safe_itoa
  92:C:/Users/John/Desktop/workspace/miniwinwm/MiniWin\miniwin_debug.c **** 
  93:C:/Users/John/Desktop/workspace/miniwinwm/MiniWin\miniwin_debug.c **** 	mw_gl_string(&draw_info, 0, 2 * ((int16_t)mw_gl_get_font_height() + 1), number_buffer);
  97                             		.loc 1 93 44
  98 00b0 05 00 00 00             		bsr	_mw_gl_get_font_height
  99 00b4 EF 15                   		mov.L	r1, r5
 100                             		.loc 1 93 35
 101 00b6 DF 55                   		mov.W	r5, r5
 102                             		.loc 1 93 68
 103 00b8 62 15                   		add	#1, r5
 104                             		.loc 1 93 2
 105 00ba 4B 55                   		add	r5, r5
 106 00bc DF 53                   		mov.W	r5, r3
 107 00be 71 A5 0C                		add	#12, r10, r5
 108 00c1 EF 54                   		mov.L	r5, r4
 109 00c3 66 02                   		mov	#0, r2
 110 00c5 EF A1                   		mov.L	r10, r1
 111 00c7 05 00 00 00             		bsr	_mw_gl_string
  94:C:/Users/John/Desktop/workspace/miniwinwm/MiniWin\miniwin_debug.c **** 	mw_gl_string(&draw_info, 0, 3 * ((int16_t)mw_gl_get_font_height() + 1), message);
 112                             		.loc 1 94 44
 113 00cb 05 00 00 00             		bsr	_mw_gl_get_font_height
 114 00cf EF 15                   		mov.L	r1, r5
 115                             		.loc 1 94 35
 116 00d1 DF 55                   		mov.W	r5, r5
 117                             		.loc 1 94 68
 118 00d3 62 15                   		add	#1, r5
 119                             		.loc 1 94 2
 120 00d5 63 35                   		mul	#3, r5
 121 00d7 ED A4 0A                		mov.L	40[r10], r4
 122 00da DF 53                   		mov.W	r5, r3
 123 00dc 66 02                   		mov	#0, r2
 124 00de EF A1                   		mov.L	r10, r1
 125 00e0 05 00 00 00             		bsr	_mw_gl_string
 126                             	.L4:
  95:C:/Users/John/Desktop/workspace/miniwinwm/MiniWin\miniwin_debug.c **** 
  96:C:/Users/John/Desktop/workspace/miniwinwm/MiniWin\miniwin_debug.c **** 	while (true)
 127                             		.loc 1 96 8 discriminator 1
 128 00e4 2E 00                   		bra	.L4
 129                             	.L6:
  75:C:/Users/John/Desktop/workspace/miniwinwm/MiniWin\miniwin_debug.c ****     }
 130                             		.loc 1 75 6
 131 00e6 03                      		nop
  97:C:/Users/John/Desktop/workspace/miniwinwm/MiniWin\miniwin_debug.c **** 	{
  98:C:/Users/John/Desktop/workspace/miniwinwm/MiniWin\miniwin_debug.c **** 	}
  99:C:/Users/John/Desktop/workspace/miniwinwm/MiniWin\miniwin_debug.c **** }
 132                             		.loc 1 99 1
 133 00e7 71 00 30                		add	#48, r0
 134 00ea 7E B6                   		pop	r6
 135 00ec 7E BA                   		pop	r10
 136 00ee 02                      		rts
 137                             	.LFE0:
 187                             	.Letext0:
 188                             		.file 2 "c:\\program files (x86)\\gcc for renesas rx 8.3.0.201904-gnurx-elf\\rx-elf\\rx-elf\\rx-el
 189                             		.file 3 "c:\\program files (x86)\\gcc for renesas rx 8.3.0.201904-gnurx-elf\\rx-elf\\rx-elf\\rx-el
 190                             		.file 4 "c:\\program files (x86)\\gcc for renesas rx 8.3.0.201904-gnurx-elf\\rx-elf\\rx-elf\\rx-el
 191                             		.file 5 "c:\\program files (x86)\\gcc for renesas rx 8.3.0.201904-gnurx-elf\\rx-elf\\rx-elf\\rx-el
 192                             		.file 6 "c:\\program files (x86)\\gcc for renesas rx 8.3.0.201904-gnurx-elf\\rx-elf\\rx-elf\\lib\\
 193                             		.file 7 "c:\\program files (x86)\\gcc for renesas rx 8.3.0.201904-gnurx-elf\\rx-elf\\rx-elf\\rx-el
 194                             		.file 8 "C:\\Users\\John\\Desktop\\workspace\\miniwinwm\\MiniWin/miniwin_utilities.h"
 195                             		.file 9 "C:/Users/John/Desktop/workspace/miniwinwm/MiniWin/gl/gl.h"
 196                             		.file 10 "C:/Users/John/Desktop/workspace/miniwinwm/MiniWin/bitmaps/mw_bitmaps.h"
 197                             		.file 11 "C:/Users/John/Desktop/workspace/miniwinwm/MiniWin/hal/hal_timer.h"
