   1                             		.file	"miniwin_user.c"
   2                             		.section P,"ax"
   3                             	.Ltext0:
   4                             		.comm	_window_window_camera_handle,4,4
   5                             		.section	.text.mw_user_root_paint_function,"ax",@progbits
   6                             		.global	_mw_user_root_paint_function
   8                             	_mw_user_root_paint_function:
   9                             	.LFB0:
  10                             		.file 1 "C:/Users/John/Desktop/workspace/miniwinwm/MiniWinCamera_Common/miniwin_user.c"
   1:C:/Users/John/Desktop/workspace/miniwinwm/MiniWinCamera_Common\miniwin_user.c **** /*
   2:C:/Users/John/Desktop/workspace/miniwinwm/MiniWinCamera_Common\miniwin_user.c **** 
   3:C:/Users/John/Desktop/workspace/miniwinwm/MiniWinCamera_Common\miniwin_user.c **** MIT License
   4:C:/Users/John/Desktop/workspace/miniwinwm/MiniWinCamera_Common\miniwin_user.c **** 
   5:C:/Users/John/Desktop/workspace/miniwinwm/MiniWinCamera_Common\miniwin_user.c **** Copyright (c) John Blaiklock 2019 miniwin Embedded Window Manager
   6:C:/Users/John/Desktop/workspace/miniwinwm/MiniWinCamera_Common\miniwin_user.c **** 
   7:C:/Users/John/Desktop/workspace/miniwinwm/MiniWinCamera_Common\miniwin_user.c **** Permission is hereby granted, free of charge, to any person obtaining a copy
   8:C:/Users/John/Desktop/workspace/miniwinwm/MiniWinCamera_Common\miniwin_user.c **** of this software and associated documentation files (the "Software"), to deal
   9:C:/Users/John/Desktop/workspace/miniwinwm/MiniWinCamera_Common\miniwin_user.c **** in the Software without restriction, including without limitation the rights
  10:C:/Users/John/Desktop/workspace/miniwinwm/MiniWinCamera_Common\miniwin_user.c **** to use, copy, modify, merge, publish, distribute, sublicense, and/or sell
  11:C:/Users/John/Desktop/workspace/miniwinwm/MiniWinCamera_Common\miniwin_user.c **** copies of the Software, and to permit persons to whom the Software is
  12:C:/Users/John/Desktop/workspace/miniwinwm/MiniWinCamera_Common\miniwin_user.c **** furnished to do so, subject to the following conditions:
  13:C:/Users/John/Desktop/workspace/miniwinwm/MiniWinCamera_Common\miniwin_user.c **** 
  14:C:/Users/John/Desktop/workspace/miniwinwm/MiniWinCamera_Common\miniwin_user.c **** The above copyright notice and this permission notice shall be included in all
  15:C:/Users/John/Desktop/workspace/miniwinwm/MiniWinCamera_Common\miniwin_user.c **** copies or substantial portions of the Software.
  16:C:/Users/John/Desktop/workspace/miniwinwm/MiniWinCamera_Common\miniwin_user.c **** 
  17:C:/Users/John/Desktop/workspace/miniwinwm/MiniWinCamera_Common\miniwin_user.c **** THE SOFTWARE IS PROVIDED "AS IS", WITHOUT WARRANTY OF ANY KIND, EXPRESS OR
  18:C:/Users/John/Desktop/workspace/miniwinwm/MiniWinCamera_Common\miniwin_user.c **** IMPLIED, INCLUDING BUT NOT LIMITED TO THE WARRANTIES OF MERCHANTABILITY,
  19:C:/Users/John/Desktop/workspace/miniwinwm/MiniWinCamera_Common\miniwin_user.c **** FITNESS FOR A PARTICULAR PURPOSE AND NONINFRINGEMENT. IN NO EVENT SHALL THE
  20:C:/Users/John/Desktop/workspace/miniwinwm/MiniWinCamera_Common\miniwin_user.c **** AUTHORS OR COPYRIGHT HOLDERS BE LIABLE FOR ANY CLAIM, DAMAGES OR OTHER
  21:C:/Users/John/Desktop/workspace/miniwinwm/MiniWinCamera_Common\miniwin_user.c **** LIABILITY, WHETHER IN AN ACTION OF CONTRACT, TORT OR OTHERWISE, ARISING FROM,
  22:C:/Users/John/Desktop/workspace/miniwinwm/MiniWinCamera_Common\miniwin_user.c **** OUT OF OR IN CONNECTION WITH THE SOFTWARE OR THE USE OR OTHER DEALINGS IN THE
  23:C:/Users/John/Desktop/workspace/miniwinwm/MiniWinCamera_Common\miniwin_user.c **** SOFTWARE.
  24:C:/Users/John/Desktop/workspace/miniwinwm/MiniWinCamera_Common\miniwin_user.c **** 
  25:C:/Users/John/Desktop/workspace/miniwinwm/MiniWinCamera_Common\miniwin_user.c **** */
  26:C:/Users/John/Desktop/workspace/miniwinwm/MiniWinCamera_Common\miniwin_user.c **** 
  27:C:/Users/John/Desktop/workspace/miniwinwm/MiniWinCamera_Common\miniwin_user.c **** /***************
  28:C:/Users/John/Desktop/workspace/miniwinwm/MiniWinCamera_Common\miniwin_user.c **** *** INCLUDES ***
  29:C:/Users/John/Desktop/workspace/miniwinwm/MiniWinCamera_Common\miniwin_user.c **** ***************/
  30:C:/Users/John/Desktop/workspace/miniwinwm/MiniWinCamera_Common\miniwin_user.c **** 
  31:C:/Users/John/Desktop/workspace/miniwinwm/MiniWinCamera_Common\miniwin_user.c **** #include <stdlib.h>
  32:C:/Users/John/Desktop/workspace/miniwinwm/MiniWinCamera_Common\miniwin_user.c **** #include "miniwin.h"
  33:C:/Users/John/Desktop/workspace/miniwinwm/MiniWinCamera_Common\miniwin_user.c **** #include "miniwin_user.h"
  34:C:/Users/John/Desktop/workspace/miniwinwm/MiniWinCamera_Common\miniwin_user.c **** #include "window_camera.h"
  35:C:/Users/John/Desktop/workspace/miniwinwm/MiniWinCamera_Common\miniwin_user.c **** 
  36:C:/Users/John/Desktop/workspace/miniwinwm/MiniWinCamera_Common\miniwin_user.c **** /****************
  37:C:/Users/John/Desktop/workspace/miniwinwm/MiniWinCamera_Common\miniwin_user.c **** *** CONSTANTS ***
  38:C:/Users/John/Desktop/workspace/miniwinwm/MiniWinCamera_Common\miniwin_user.c **** ****************/
  39:C:/Users/John/Desktop/workspace/miniwinwm/MiniWinCamera_Common\miniwin_user.c **** 
  40:C:/Users/John/Desktop/workspace/miniwinwm/MiniWinCamera_Common\miniwin_user.c **** /************
  41:C:/Users/John/Desktop/workspace/miniwinwm/MiniWinCamera_Common\miniwin_user.c **** *** TYPES ***
  42:C:/Users/John/Desktop/workspace/miniwinwm/MiniWinCamera_Common\miniwin_user.c **** ************/
  43:C:/Users/John/Desktop/workspace/miniwinwm/MiniWinCamera_Common\miniwin_user.c **** 
  44:C:/Users/John/Desktop/workspace/miniwinwm/MiniWinCamera_Common\miniwin_user.c **** /***********************
  45:C:/Users/John/Desktop/workspace/miniwinwm/MiniWinCamera_Common\miniwin_user.c **** *** GLOBAL VARIABLES ***
  46:C:/Users/John/Desktop/workspace/miniwinwm/MiniWinCamera_Common\miniwin_user.c **** ***********************/
  47:C:/Users/John/Desktop/workspace/miniwinwm/MiniWinCamera_Common\miniwin_user.c **** 
  48:C:/Users/John/Desktop/workspace/miniwinwm/MiniWinCamera_Common\miniwin_user.c **** /* windows */
  49:C:/Users/John/Desktop/workspace/miniwinwm/MiniWinCamera_Common\miniwin_user.c **** mw_handle_t window_window_camera_handle;
  50:C:/Users/John/Desktop/workspace/miniwinwm/MiniWinCamera_Common\miniwin_user.c **** 
  51:C:/Users/John/Desktop/workspace/miniwinwm/MiniWinCamera_Common\miniwin_user.c **** /* controls */
  52:C:/Users/John/Desktop/workspace/miniwinwm/MiniWinCamera_Common\miniwin_user.c **** 
  53:C:/Users/John/Desktop/workspace/miniwinwm/MiniWinCamera_Common\miniwin_user.c **** /**********************
  54:C:/Users/John/Desktop/workspace/miniwinwm/MiniWinCamera_Common\miniwin_user.c **** *** LOCAL VARIABLES ***
  55:C:/Users/John/Desktop/workspace/miniwinwm/MiniWinCamera_Common\miniwin_user.c **** **********************/
  56:C:/Users/John/Desktop/workspace/miniwinwm/MiniWinCamera_Common\miniwin_user.c **** 
  57:C:/Users/John/Desktop/workspace/miniwinwm/MiniWinCamera_Common\miniwin_user.c **** /* controls instance data */
  58:C:/Users/John/Desktop/workspace/miniwinwm/MiniWinCamera_Common\miniwin_user.c **** 
  59:C:/Users/John/Desktop/workspace/miniwinwm/MiniWinCamera_Common\miniwin_user.c **** /********************************
  60:C:/Users/John/Desktop/workspace/miniwinwm/MiniWinCamera_Common\miniwin_user.c **** *** LOCAL FUNCTION PROTOTYPES ***
  61:C:/Users/John/Desktop/workspace/miniwinwm/MiniWinCamera_Common\miniwin_user.c **** ********************************/
  62:C:/Users/John/Desktop/workspace/miniwinwm/MiniWinCamera_Common\miniwin_user.c **** 
  63:C:/Users/John/Desktop/workspace/miniwinwm/MiniWinCamera_Common\miniwin_user.c **** /**********************
  64:C:/Users/John/Desktop/workspace/miniwinwm/MiniWinCamera_Common\miniwin_user.c **** *** LOCAL FUNCTIONS ***
  65:C:/Users/John/Desktop/workspace/miniwinwm/MiniWinCamera_Common\miniwin_user.c **** **********************/
  66:C:/Users/John/Desktop/workspace/miniwinwm/MiniWinCamera_Common\miniwin_user.c **** 
  67:C:/Users/John/Desktop/workspace/miniwinwm/MiniWinCamera_Common\miniwin_user.c **** /***********************
  68:C:/Users/John/Desktop/workspace/miniwinwm/MiniWinCamera_Common\miniwin_user.c **** *** GLOBAL FUNCTIONS ***
  69:C:/Users/John/Desktop/workspace/miniwinwm/MiniWinCamera_Common\miniwin_user.c **** ***********************/
  70:C:/Users/John/Desktop/workspace/miniwinwm/MiniWinCamera_Common\miniwin_user.c **** 
  71:C:/Users/John/Desktop/workspace/miniwinwm/MiniWinCamera_Common\miniwin_user.c **** void mw_user_root_paint_function(const mw_gl_draw_info_t *draw_info)
  72:C:/Users/John/Desktop/workspace/miniwinwm/MiniWinCamera_Common\miniwin_user.c **** {
  11                             		.loc 1 72 1
  12 0000 7E AA                   		push.l	r10
  13                             	.LCFI0:
  14 0002 7E A6                   		push.l	r6
  15                             	.LCFI1:
  16 0004 71 0A FC                		add	#-4, r0, r10
  17                             	.LCFI2:
  18 0007 71 A0 FC                		add	#-4, r10, r0
  19                             	.LCFI3:
  20 000a E3 A1                   		mov.L	r1, [r10]
  73:C:/Users/John/Desktop/workspace/miniwinwm/MiniWinCamera_Common\miniwin_user.c ****     mw_gl_set_solid_fill_colour(MW_HAL_LCD_PURPLE);
  21                             		.loc 1 73 5
  22 000c FB 12 99 00 99 00       		mov.L	#0x990099, r1
  23 0012 05 00 00 00             		bsr	_mw_gl_set_solid_fill_colour
  74:C:/Users/John/Desktop/workspace/miniwinwm/MiniWinCamera_Common\miniwin_user.c ****     mw_gl_clear_pattern();
  24                             		.loc 1 74 5
  25 0016 05 00 00 00             		bsr	_mw_gl_clear_pattern
  75:C:/Users/John/Desktop/workspace/miniwinwm/MiniWinCamera_Common\miniwin_user.c ****     mw_gl_set_border(MW_GL_BORDER_OFF);
  26                             		.loc 1 75 5
  27 001a 66 01                   		mov.L	#0, r1
  28 001c 05 00 00 00             		bsr	_mw_gl_set_border
  76:C:/Users/John/Desktop/workspace/miniwinwm/MiniWinCamera_Common\miniwin_user.c ****     mw_gl_set_fill(MW_GL_FILL);
  29                             		.loc 1 76 5
  30 0020 66 11                   		mov.L	#1, r1
  31 0022 05 00 00 00             		bsr	_mw_gl_set_fill
  77:C:/Users/John/Desktop/workspace/miniwinwm/MiniWinCamera_Common\miniwin_user.c ****     mw_gl_rectangle(draw_info, 0, 0, MW_ROOT_WIDTH, MW_ROOT_HEIGHT);
  32                             		.loc 1 77 5
  33 0026 05 00 00 00             		bsr	_mw_hal_lcd_get_display_width
  34 002a EF 15                   		mov.L	r1, r5
  35 002c DF 56                   		mov.W	r5, r6
  36 002e 05 00 00 00             		bsr	_mw_hal_lcd_get_display_height
  37 0032 EF 15                   		mov.L	r1, r5
  38 0034 D3 05                   		mov.W	r5, [r0]
  39 0036 DF 64                   		mov.W	r6, r4
  40 0038 66 03                   		mov	#0, r3
  41 003a 66 02                   		mov	#0, r2
  42 003c EC A1                   		mov.L	[r10], r1
  43 003e 05 00 00 00             		bsr	_mw_gl_rectangle
  78:C:/Users/John/Desktop/workspace/miniwinwm/MiniWinCamera_Common\miniwin_user.c **** }
  44                             		.loc 1 78 1
  45 0042 03                      		nop
  46 0043 62 80                   		add	#8, r0
  47 0045 7E B6                   		pop	r6
  48 0047 7E BA                   		pop	r10
  49 0049 02                      		rts
  50                             	.LFE0:
  52                             		.section	.text.mw_user_root_message_function,"ax",@progbits
  53                             		.global	_mw_user_root_message_function
  55                             	_mw_user_root_message_function:
  56                             	.LFB1:
  79:C:/Users/John/Desktop/workspace/miniwinwm/MiniWinCamera_Common\miniwin_user.c **** 
  80:C:/Users/John/Desktop/workspace/miniwinwm/MiniWinCamera_Common\miniwin_user.c **** void mw_user_root_message_function(const mw_message_t *message)
  81:C:/Users/John/Desktop/workspace/miniwinwm/MiniWinCamera_Common\miniwin_user.c **** {
  57                             		.loc 1 81 1
  58 0000 7E AA                   		push.l	r10
  59                             	.LCFI4:
  60 0002 71 0A FC                		add	#-4, r0, r10
  61                             	.LCFI5:
  62 0005 EF A0                   		mov.L	r10, r0
  63 0007 E3 A1                   		mov.L	r1, [r10]
  82:C:/Users/John/Desktop/workspace/miniwinwm/MiniWinCamera_Common\miniwin_user.c ****     (void)message;
  83:C:/Users/John/Desktop/workspace/miniwinwm/MiniWinCamera_Common\miniwin_user.c **** }
  64                             		.loc 1 83 1
  65 0009 03                      		nop
  66 000a 3F AA 02                		rtsd	#8, r10-r10
  67                             	.LFE1:
  69                             		.section C,"a",@progbits
  70                             		.p2align 2
  71                             	.LC0:
  72 0000 43 61 6D 65 72 61 00    		.string	"Camera"
  73 0007 00                      		.section	.text.mw_user_init,"ax",@progbits
  74                             		.global	_mw_user_init
  76                             	_mw_user_init:
  77                             	.LFB2:
  84:C:/Users/John/Desktop/workspace/miniwinwm/MiniWinCamera_Common\miniwin_user.c **** 
  85:C:/Users/John/Desktop/workspace/miniwinwm/MiniWinCamera_Common\miniwin_user.c **** void mw_user_init(void)
  86:C:/Users/John/Desktop/workspace/miniwinwm/MiniWinCamera_Common\miniwin_user.c **** {
  78                             		.loc 1 86 1
  79 0000 7E AA                   		push.l	r10
  80                             	.LCFI6:
  81 0002 71 0A F8                		add	#-8, r0, r10
  82                             	.LCFI7:
  83 0005 71 A0 F0                		add	#-16, r10, r0
  84                             	.LCFI8:
  87:C:/Users/John/Desktop/workspace/miniwinwm/MiniWinCamera_Common\miniwin_user.c ****     mw_util_rect_t r;
  88:C:/Users/John/Desktop/workspace/miniwinwm/MiniWinCamera_Common\miniwin_user.c **** 
  89:C:/Users/John/Desktop/workspace/miniwinwm/MiniWinCamera_Common\miniwin_user.c ****     mw_util_set_rect(&r, 10, 15, 162, 139);
  85                             		.loc 1 89 5
  86 0008 F8 09 8B 00             		mov.W	#0x8b, [r0]
  87 000c 75 44 A2                		mov	#0xa2, r4
  88 000f 66 F3                   		mov	#15, r3
  89 0011 66 A2                   		mov	#10, r2
  90 0013 EF A1                   		mov.L	r10, r1
  91 0015 05 00 00 00             		bsr	_mw_util_set_rect
  90:C:/Users/John/Desktop/workspace/miniwinwm/MiniWinCamera_Common\miniwin_user.c ****     window_window_camera_handle = mw_add_window(&r,
  92                             		.loc 1 90 35
  93 0019 3E 03 00                		mov.L	#0, 12[r0]
  94 001c F9 0E 02 0B 00 01       		mov.L	#0x1000b, 8[r0]
  95 0022 3C 04 00                		mov.B	#0, 4[r0]
  96 0025 F8 06 00                		mov.L	#0, [r0]
  97 0028 FB 42 00 00 00 00       		mov.L	#_window_window_camera_message_function, r4
  98 002e FB 32 00 00 00 00       		mov.L	#_window_window_camera_paint_function, r3
  99 0034 FB 22 00 00 00 00       		mov.L	#.LC0, r2
 100 003a EF A1                   		mov.L	r10, r1
 101 003c 05 00 00 00             		bsr	_mw_add_window
 102 0040 EF 14                   		mov.L	r1, r4
 103                             		.loc 1 90 33
 104 0042 FB 52 00 00 00 00       		mov.L	#_window_window_camera_handle, r5
 105 0048 E3 54                   		mov.L	r4, [r5]
  91:C:/Users/John/Desktop/workspace/miniwinwm/MiniWinCamera_Common\miniwin_user.c ****         "Camera", 
  92:C:/Users/John/Desktop/workspace/miniwinwm/MiniWinCamera_Common\miniwin_user.c ****         window_window_camera_paint_function,
  93:C:/Users/John/Desktop/workspace/miniwinwm/MiniWinCamera_Common\miniwin_user.c ****         window_window_camera_message_function,
  94:C:/Users/John/Desktop/workspace/miniwinwm/MiniWinCamera_Common\miniwin_user.c ****         NULL,
  95:C:/Users/John/Desktop/workspace/miniwinwm/MiniWinCamera_Common\miniwin_user.c ****         0U,
  96:C:/Users/John/Desktop/workspace/miniwinwm/MiniWinCamera_Common\miniwin_user.c ****         0U | MW_WINDOW_FLAG_HAS_BORDER | MW_WINDOW_FLAG_HAS_TITLE_BAR | MW_WINDOW_FLAG_IS_VISIBLE |
  97:C:/Users/John/Desktop/workspace/miniwinwm/MiniWinCamera_Common\miniwin_user.c ****         NULL);
  98:C:/Users/John/Desktop/workspace/miniwinwm/MiniWinCamera_Common\miniwin_user.c **** 
  99:C:/Users/John/Desktop/workspace/miniwinwm/MiniWinCamera_Common\miniwin_user.c ****     mw_paint_all();
 106                             		.loc 1 99 5
 107 004a 05 00 00 00             		bsr	_mw_paint_all
 100:C:/Users/John/Desktop/workspace/miniwinwm/MiniWinCamera_Common\miniwin_user.c **** }
 108                             		.loc 1 100 1
 109 004e 03                      		nop
 110 004f 3F AA 07                		rtsd	#28, r10-r10
 111                             	.LFE2:
 204                             	.Letext0:
 205                             		.file 2 "c:\\program files (x86)\\gcc for renesas rx 8.3.0.201904-gnurx-elf\\rx-elf\\rx-elf\\rx-el
 206                             		.file 3 "c:\\program files (x86)\\gcc for renesas rx 8.3.0.201904-gnurx-elf\\rx-elf\\rx-elf\\rx-el
 207                             		.file 4 "c:\\program files (x86)\\gcc for renesas rx 8.3.0.201904-gnurx-elf\\rx-elf\\rx-elf\\rx-el
 208                             		.file 5 "c:\\program files (x86)\\gcc for renesas rx 8.3.0.201904-gnurx-elf\\rx-elf\\rx-elf\\lib\\
 209                             		.file 6 "c:\\program files (x86)\\gcc for renesas rx 8.3.0.201904-gnurx-elf\\rx-elf\\rx-elf\\rx-el
 210                             		.file 7 "c:\\program files (x86)\\gcc for renesas rx 8.3.0.201904-gnurx-elf\\rx-elf\\rx-elf\\rx-el
 211                             		.file 8 "C:\\Users\\John\\Desktop\\workspace\\miniwinwm\\MiniWin/miniwin_utilities.h"
 212                             		.file 9 "C:\\Users\\John\\Desktop\\workspace\\miniwinwm\\MiniWin/gl/gl.h"
 213                             		.file 10 "C:\\Users\\John\\Desktop\\workspace\\miniwinwm\\MiniWin/bitmaps/mw_bitmaps.h"
 214                             		.file 11 "C:\\Users\\John\\Desktop\\workspace\\miniwinwm\\MiniWin/hal/hal_timer.h"
 215                             		.file 12 "C:\\Users\\John\\Desktop\\workspace\\miniwinwm\\MiniWin/miniwin.h"
 216                             		.file 13 "C:/Users/John/Desktop/workspace/miniwinwm/MiniWinCamera_Common/miniwin_user.h"
