   1                             		.file	"ui_check_box.c"
   2                             		.section P,"ax"
   3                             	.Ltext0:
   4                             		.section C,"a",@progbits
   5                             		.p2align 2
   6                             	.LC0:
   7 0000 4E 75 6C 6C 20 70 6F 69 		.string	"Null pointer argument"
   7      6E 74 65 72 20 61 72 67 
   7      75 6D 65 6E 74 00 
   8 0016 00 00                   		.section	.text.check_box_paint_function,"ax",@progbits
  10                             	_check_box_paint_function:
  11                             	.LFB0:
  12                             		.file 1 "C:/Users/John/Desktop/workspace/miniwinwm/MiniWin/ui/ui_check_box.c"
   1:C:/Users/John/Desktop/workspace/miniwinwm/MiniWin/ui\ui_check_box.c **** /*
   2:C:/Users/John/Desktop/workspace/miniwinwm/MiniWin/ui\ui_check_box.c **** 
   3:C:/Users/John/Desktop/workspace/miniwinwm/MiniWin/ui\ui_check_box.c **** MIT License
   4:C:/Users/John/Desktop/workspace/miniwinwm/MiniWin/ui\ui_check_box.c **** 
   5:C:/Users/John/Desktop/workspace/miniwinwm/MiniWin/ui\ui_check_box.c **** Copyright (c) John Blaiklock 2019 miniwin Embedded Window Manager
   6:C:/Users/John/Desktop/workspace/miniwinwm/MiniWin/ui\ui_check_box.c **** 
   7:C:/Users/John/Desktop/workspace/miniwinwm/MiniWin/ui\ui_check_box.c **** Permission is hereby granted, free of charge, to any person obtaining a copy
   8:C:/Users/John/Desktop/workspace/miniwinwm/MiniWin/ui\ui_check_box.c **** of this software and associated documentation files (the "Software"), to deal
   9:C:/Users/John/Desktop/workspace/miniwinwm/MiniWin/ui\ui_check_box.c **** in the Software without restriction, including without limitation the rights
  10:C:/Users/John/Desktop/workspace/miniwinwm/MiniWin/ui\ui_check_box.c **** to use, copy, modify, merge, publish, distribute, sublicense, and/or sell
  11:C:/Users/John/Desktop/workspace/miniwinwm/MiniWin/ui\ui_check_box.c **** copies of the Software, and to permit persons to whom the Software is
  12:C:/Users/John/Desktop/workspace/miniwinwm/MiniWin/ui\ui_check_box.c **** furnished to do so, subject to the following conditions:
  13:C:/Users/John/Desktop/workspace/miniwinwm/MiniWin/ui\ui_check_box.c **** 
  14:C:/Users/John/Desktop/workspace/miniwinwm/MiniWin/ui\ui_check_box.c **** The above copyright notice and this permission notice shall be included in all
  15:C:/Users/John/Desktop/workspace/miniwinwm/MiniWin/ui\ui_check_box.c **** copies or substantial portions of the Software.
  16:C:/Users/John/Desktop/workspace/miniwinwm/MiniWin/ui\ui_check_box.c **** 
  17:C:/Users/John/Desktop/workspace/miniwinwm/MiniWin/ui\ui_check_box.c **** THE SOFTWARE IS PROVIDED "AS IS", WITHOUT WARRANTY OF ANY KIND, EXPRESS OR
  18:C:/Users/John/Desktop/workspace/miniwinwm/MiniWin/ui\ui_check_box.c **** IMPLIED, INCLUDING BUT NOT LIMITED TO THE WARRANTIES OF MERCHANTABILITY,
  19:C:/Users/John/Desktop/workspace/miniwinwm/MiniWin/ui\ui_check_box.c **** FITNESS FOR A PARTICULAR PURPOSE AND NONINFRINGEMENT. IN NO EVENT SHALL THE
  20:C:/Users/John/Desktop/workspace/miniwinwm/MiniWin/ui\ui_check_box.c **** AUTHORS OR COPYRIGHT HOLDERS BE LIABLE FOR ANY CLAIM, DAMAGES OR OTHER
  21:C:/Users/John/Desktop/workspace/miniwinwm/MiniWin/ui\ui_check_box.c **** LIABILITY, WHETHER IN AN ACTION OF CONTRACT, TORT OR OTHERWISE, ARISING FROM,
  22:C:/Users/John/Desktop/workspace/miniwinwm/MiniWin/ui\ui_check_box.c **** OUT OF OR IN CONNECTION WITH THE SOFTWARE OR THE USE OR OTHER DEALINGS IN THE
  23:C:/Users/John/Desktop/workspace/miniwinwm/MiniWin/ui\ui_check_box.c **** SOFTWARE.
  24:C:/Users/John/Desktop/workspace/miniwinwm/MiniWin/ui\ui_check_box.c **** 
  25:C:/Users/John/Desktop/workspace/miniwinwm/MiniWin/ui\ui_check_box.c **** */
  26:C:/Users/John/Desktop/workspace/miniwinwm/MiniWin/ui\ui_check_box.c **** 
  27:C:/Users/John/Desktop/workspace/miniwinwm/MiniWin/ui\ui_check_box.c **** /***************
  28:C:/Users/John/Desktop/workspace/miniwinwm/MiniWin/ui\ui_check_box.c **** *** INCLUDES ***
  29:C:/Users/John/Desktop/workspace/miniwinwm/MiniWin/ui\ui_check_box.c **** ***************/
  30:C:/Users/John/Desktop/workspace/miniwinwm/MiniWin/ui\ui_check_box.c **** 
  31:C:/Users/John/Desktop/workspace/miniwinwm/MiniWin/ui\ui_check_box.c **** #include <stdlib.h>
  32:C:/Users/John/Desktop/workspace/miniwinwm/MiniWin/ui\ui_check_box.c **** #include "miniwin.h"
  33:C:/Users/John/Desktop/workspace/miniwinwm/MiniWin/ui\ui_check_box.c **** 
  34:C:/Users/John/Desktop/workspace/miniwinwm/MiniWin/ui\ui_check_box.c **** /****************
  35:C:/Users/John/Desktop/workspace/miniwinwm/MiniWin/ui\ui_check_box.c **** *** CONSTANTS ***
  36:C:/Users/John/Desktop/workspace/miniwinwm/MiniWin/ui\ui_check_box.c **** ****************/
  37:C:/Users/John/Desktop/workspace/miniwinwm/MiniWin/ui\ui_check_box.c **** 
  38:C:/Users/John/Desktop/workspace/miniwinwm/MiniWin/ui\ui_check_box.c **** /************
  39:C:/Users/John/Desktop/workspace/miniwinwm/MiniWin/ui\ui_check_box.c **** *** TYPES ***
  40:C:/Users/John/Desktop/workspace/miniwinwm/MiniWin/ui\ui_check_box.c **** ************/
  41:C:/Users/John/Desktop/workspace/miniwinwm/MiniWin/ui\ui_check_box.c **** 
  42:C:/Users/John/Desktop/workspace/miniwinwm/MiniWin/ui\ui_check_box.c **** /***********************
  43:C:/Users/John/Desktop/workspace/miniwinwm/MiniWin/ui\ui_check_box.c **** *** GLOBAL VARIABLES ***
  44:C:/Users/John/Desktop/workspace/miniwinwm/MiniWin/ui\ui_check_box.c **** ***********************/
  45:C:/Users/John/Desktop/workspace/miniwinwm/MiniWin/ui\ui_check_box.c **** 
  46:C:/Users/John/Desktop/workspace/miniwinwm/MiniWin/ui\ui_check_box.c **** /**********************
  47:C:/Users/John/Desktop/workspace/miniwinwm/MiniWin/ui\ui_check_box.c **** *** LOCAL VARIABLES ***
  48:C:/Users/John/Desktop/workspace/miniwinwm/MiniWin/ui\ui_check_box.c **** **********************/
  49:C:/Users/John/Desktop/workspace/miniwinwm/MiniWin/ui\ui_check_box.c **** 
  50:C:/Users/John/Desktop/workspace/miniwinwm/MiniWin/ui\ui_check_box.c **** /********************************
  51:C:/Users/John/Desktop/workspace/miniwinwm/MiniWin/ui\ui_check_box.c **** *** LOCAL FUNCTION PROTOTYPES ***
  52:C:/Users/John/Desktop/workspace/miniwinwm/MiniWin/ui\ui_check_box.c **** ********************************/
  53:C:/Users/John/Desktop/workspace/miniwinwm/MiniWin/ui\ui_check_box.c **** 
  54:C:/Users/John/Desktop/workspace/miniwinwm/MiniWin/ui\ui_check_box.c **** static void check_box_paint_function(mw_handle_t control_handle, const mw_gl_draw_info_t *draw_info
  55:C:/Users/John/Desktop/workspace/miniwinwm/MiniWin/ui\ui_check_box.c **** static void check_box_message_function(const mw_message_t *message);
  56:C:/Users/John/Desktop/workspace/miniwinwm/MiniWin/ui\ui_check_box.c **** 
  57:C:/Users/John/Desktop/workspace/miniwinwm/MiniWin/ui\ui_check_box.c **** /**********************
  58:C:/Users/John/Desktop/workspace/miniwinwm/MiniWin/ui\ui_check_box.c **** *** LOCAL FUNCTIONS ***
  59:C:/Users/John/Desktop/workspace/miniwinwm/MiniWin/ui\ui_check_box.c **** **********************/
  60:C:/Users/John/Desktop/workspace/miniwinwm/MiniWin/ui\ui_check_box.c **** 
  61:C:/Users/John/Desktop/workspace/miniwinwm/MiniWin/ui\ui_check_box.c **** /**
  62:C:/Users/John/Desktop/workspace/miniwinwm/MiniWin/ui\ui_check_box.c ****  * Control paint routine, called by window manager.
  63:C:/Users/John/Desktop/workspace/miniwinwm/MiniWin/ui\ui_check_box.c ****  *
  64:C:/Users/John/Desktop/workspace/miniwinwm/MiniWin/ui\ui_check_box.c ****  * @param control_handle The control identifier in the array of controls
  65:C:/Users/John/Desktop/workspace/miniwinwm/MiniWin/ui\ui_check_box.c ****  * @param draw_info Draw info structure describing offset and clip region
  66:C:/Users/John/Desktop/workspace/miniwinwm/MiniWin/ui\ui_check_box.c ****  */
  67:C:/Users/John/Desktop/workspace/miniwinwm/MiniWin/ui\ui_check_box.c **** static void check_box_paint_function(mw_handle_t control_handle, const mw_gl_draw_info_t *draw_info
  68:C:/Users/John/Desktop/workspace/miniwinwm/MiniWin/ui\ui_check_box.c **** {
  13                             		.loc 1 68 1
  14 0000 7E AA                   		push.l	r10
  15                             	.LCFI0:
  16 0002 71 0A F0                		add	#-16, r0, r10
  17                             	.LCFI1:
  18 0005 71 A0 F8                		add	#-8, r10, r0
  19                             	.LCFI2:
  20 0008 E7 A1 02                		mov.L	r1, 8[r10]
  21 000b E7 A2 03                		mov.L	r2, 12[r10]
  69:C:/Users/John/Desktop/workspace/miniwinwm/MiniWin/ui\ui_check_box.c **** 	int16_t height;
  70:C:/Users/John/Desktop/workspace/miniwinwm/MiniWin/ui\ui_check_box.c **** 	mw_ui_check_box_data_t *this_check_box = (mw_ui_check_box_data_t*)mw_get_control_instance_data(con
  22                             		.loc 1 70 68
  23 000e ED A1 02                		mov.L	8[r10], r1
  24 0011 05 00 00 00             		bsr	_mw_get_control_instance_data
  25 0015 E7 A1 01                		mov.L	r1, 4[r10]
  71:C:/Users/John/Desktop/workspace/miniwinwm/MiniWin/ui\ui_check_box.c **** 
  72:C:/Users/John/Desktop/workspace/miniwinwm/MiniWin/ui\ui_check_box.c **** 	MW_ASSERT(draw_info != (void*)0, "Null pointer argument");
  26                             		.loc 1 72 2
  27 0018 ED A5 03                		mov.L	12[r10], r5
  28 001b 61 05                   		cmp	#0, r5
  29 001d FC DB 51                		scne.L	r5
  30 0020 FB 42 00 00 00 00       		mov.L	#.LC0, r4
  31 0026 75 43 48                		mov.L	#0x48, r3
  32 0029 FB 22 00 00 00 00       		mov.L	#___func__.2874, r2
  33 002f CF 51                   		mov.B	r5, r1
  34 0031 05 00 00 00             		bsr	_mw_debug_print_assert
  73:C:/Users/John/Desktop/workspace/miniwinwm/MiniWin/ui\ui_check_box.c **** 
  74:C:/Users/John/Desktop/workspace/miniwinwm/MiniWin/ui\ui_check_box.c ****     /* set the box outline, text and X colour depending on enabled state */   
  75:C:/Users/John/Desktop/workspace/miniwinwm/MiniWin/ui\ui_check_box.c ****     if ((mw_get_control_flags(control_handle) & MW_CONTROL_FLAG_IS_ENABLED) == MW_CONTROL_FLAG_IS_E
  35                             		.loc 1 75 10
  36 0035 ED A1 02                		mov.L	8[r10], r1
  37 0038 05 00 00 00             		bsr	_mw_get_control_flags
  38 003c EF 15                   		mov.L	r1, r5
  39                             		.loc 1 75 47
  40 003e 5F 55                   		movu.W	r5, r5
  41 0040 64 25                   		and	#2, r5
  42                             		.loc 1 75 8
  43 0042 61 25                   		cmp	#2, r5
  44 0044 19                      		bne	.L2
  76:C:/Users/John/Desktop/workspace/miniwinwm/MiniWin/ui\ui_check_box.c **** 	{
  77:C:/Users/John/Desktop/workspace/miniwinwm/MiniWin/ui\ui_check_box.c **** 		mw_gl_set_fg_colour(MW_HAL_LCD_BLACK);
  45                             		.loc 1 77 3
  46 0045 66 01                   		mov.L	#0, r1
  47 0047 05 00 00 00             		bsr	_mw_gl_set_fg_colour
  48 004b 2E 0C                   		bra	.L3
  49                             	.L2:
  78:C:/Users/John/Desktop/workspace/miniwinwm/MiniWin/ui\ui_check_box.c **** 	}
  79:C:/Users/John/Desktop/workspace/miniwinwm/MiniWin/ui\ui_check_box.c **** 	else
  80:C:/Users/John/Desktop/workspace/miniwinwm/MiniWin/ui\ui_check_box.c **** 	{
  81:C:/Users/John/Desktop/workspace/miniwinwm/MiniWin/ui\ui_check_box.c **** 		mw_gl_set_fg_colour(MW_CONTROL_DISABLED_COLOUR);
  50                             		.loc 1 81 3
  51 004d FB 12 BF BF BF 00       		mov.L	#0xbfbfbf, r1
  52 0053 05 00 00 00             		bsr	_mw_gl_set_fg_colour
  53                             	.L3:
  82:C:/Users/John/Desktop/workspace/miniwinwm/MiniWin/ui\ui_check_box.c **** 	}
  83:C:/Users/John/Desktop/workspace/miniwinwm/MiniWin/ui\ui_check_box.c **** 
  84:C:/Users/John/Desktop/workspace/miniwinwm/MiniWin/ui\ui_check_box.c **** 	mw_gl_set_bg_transparency(MW_GL_BG_TRANSPARENT);
  54                             		.loc 1 84 2
  55 0057 66 01                   		mov.L	#0, r1
  56 0059 05 00 00 00             		bsr	_mw_gl_set_bg_transparency
  85:C:/Users/John/Desktop/workspace/miniwinwm/MiniWin/ui\ui_check_box.c **** 	mw_gl_set_text_rotation(MW_GL_TEXT_ROTATION_0);
  57                             		.loc 1 85 2
  58 005d 66 01                   		mov.L	#0, r1
  59 005f 05 00 00 00             		bsr	_mw_gl_set_text_rotation
  86:C:/Users/John/Desktop/workspace/miniwinwm/MiniWin/ui\ui_check_box.c **** 
  87:C:/Users/John/Desktop/workspace/miniwinwm/MiniWin/ui\ui_check_box.c ****     if ((mw_get_control_flags(control_handle) & MW_CONTROL_FLAG_LARGE_SIZE) == MW_CONTROL_FLAG_LARG
  60                             		.loc 1 87 10
  61 0063 ED A1 02                		mov.L	8[r10], r1
  62 0066 05 00 00 00             		bsr	_mw_get_control_flags
  63 006a EF 15                   		mov.L	r1, r5
  64                             		.loc 1 87 47
  65 006c 5F 55                   		movu.W	r5, r5
  66 006e 64 85                   		and	#8, r5
  67                             		.loc 1 87 8
  68 0070 61 85                   		cmp	#8, r5
  69 0072 21 1E                   		bne	.L4
  88:C:/Users/John/Desktop/workspace/miniwinwm/MiniWin/ui\ui_check_box.c ****     {
  89:C:/Users/John/Desktop/workspace/miniwinwm/MiniWin/ui\ui_check_box.c ****     	height = MW_UI_CHECK_BOX_LARGE_HEIGHT;
  70                             		.loc 1 89 13
  71 0074 F8 A5 1E                		mov.W	#30, [r10]
  90:C:/Users/John/Desktop/workspace/miniwinwm/MiniWin/ui\ui_check_box.c **** 
  91:C:/Users/John/Desktop/workspace/miniwinwm/MiniWin/ui\ui_check_box.c ****     	/* draw the label text */
  92:C:/Users/John/Desktop/workspace/miniwinwm/MiniWin/ui\ui_check_box.c **** 		mw_gl_set_font(MW_GL_TITLE_FONT);
  72                             		.loc 1 92 3
  73 0077 66 51                   		mov.L	#5, r1
  74 0079 05 00 00 00             		bsr	_mw_gl_set_font
  93:C:/Users/John/Desktop/workspace/miniwinwm/MiniWin/ui\ui_check_box.c ****     	mw_gl_string(draw_info,
  94:C:/Users/John/Desktop/workspace/miniwinwm/MiniWin/ui\ui_check_box.c ****     			MW_UI_CHECK_BOX_LARGE_LABEL_X_OFFSET,
  95:C:/Users/John/Desktop/workspace/miniwinwm/MiniWin/ui\ui_check_box.c ****     			MW_UI_CHECK_BOX_LARGE_LABEL_Y_OFFSET,
  96:C:/Users/John/Desktop/workspace/miniwinwm/MiniWin/ui\ui_check_box.c ****     			this_check_box->label);
  75                             		.loc 1 96 22
  76 007d ED A5 01                		mov.L	4[r10], r5
  93:C:/Users/John/Desktop/workspace/miniwinwm/MiniWin/ui\ui_check_box.c ****     	mw_gl_string(draw_info,
  77                             		.loc 1 93 6
  78 0080 EF 54                   		mov.L	r5, r4
  79 0082 66 83                   		mov	#8, r3
  80 0084 75 42 25                		mov	#37, r2
  81 0087 ED A1 03                		mov.L	12[r10], r1
  82 008a 05 00 00 00             		bsr	_mw_gl_string
  83 008e 2E 1C                   		bra	.L5
  84                             	.L4:
  97:C:/Users/John/Desktop/workspace/miniwinwm/MiniWin/ui\ui_check_box.c ****     }
  98:C:/Users/John/Desktop/workspace/miniwinwm/MiniWin/ui\ui_check_box.c ****     else
  99:C:/Users/John/Desktop/workspace/miniwinwm/MiniWin/ui\ui_check_box.c ****     {
 100:C:/Users/John/Desktop/workspace/miniwinwm/MiniWin/ui\ui_check_box.c ****     	height = MW_UI_CHECK_BOX_HEIGHT;
  85                             		.loc 1 100 13
  86 0090 F8 A5 0F                		mov.W	#15, [r10]
 101:C:/Users/John/Desktop/workspace/miniwinwm/MiniWin/ui\ui_check_box.c **** 
 102:C:/Users/John/Desktop/workspace/miniwinwm/MiniWin/ui\ui_check_box.c ****     	/* draw the label text */
 103:C:/Users/John/Desktop/workspace/miniwinwm/MiniWin/ui\ui_check_box.c **** 		mw_gl_set_font(MW_GL_FONT_9);
  87                             		.loc 1 103 3
  88 0093 66 01                   		mov.L	#0, r1
  89 0095 05 00 00 00             		bsr	_mw_gl_set_font
 104:C:/Users/John/Desktop/workspace/miniwinwm/MiniWin/ui\ui_check_box.c ****     	mw_gl_string(draw_info,
 105:C:/Users/John/Desktop/workspace/miniwinwm/MiniWin/ui\ui_check_box.c ****     			MW_UI_CHECK_BOX_LABEL_X_OFFSET,
 106:C:/Users/John/Desktop/workspace/miniwinwm/MiniWin/ui\ui_check_box.c ****     			MW_UI_CHECK_BOX_LABEL_Y_OFFSET,
 107:C:/Users/John/Desktop/workspace/miniwinwm/MiniWin/ui\ui_check_box.c ****     			this_check_box->label);
  90                             		.loc 1 107 22
  91 0099 ED A5 01                		mov.L	4[r10], r5
 104:C:/Users/John/Desktop/workspace/miniwinwm/MiniWin/ui\ui_check_box.c ****     	mw_gl_string(draw_info,
  92                             		.loc 1 104 6
  93 009c EF 54                   		mov.L	r5, r4
  94 009e 66 43                   		mov	#4, r3
  95 00a0 75 42 12                		mov	#18, r2
  96 00a3 ED A1 03                		mov.L	12[r10], r1
  97 00a6 05 00 00 00             		bsr	_mw_gl_string
  98                             	.L5:
 108:C:/Users/John/Desktop/workspace/miniwinwm/MiniWin/ui\ui_check_box.c ****     }
 109:C:/Users/John/Desktop/workspace/miniwinwm/MiniWin/ui\ui_check_box.c **** 
 110:C:/Users/John/Desktop/workspace/miniwinwm/MiniWin/ui\ui_check_box.c ****     /* draw the box */
 111:C:/Users/John/Desktop/workspace/miniwinwm/MiniWin/ui\ui_check_box.c **** 	mw_gl_set_fill(MW_GL_FILL);
  99                             		.loc 1 111 2
 100 00aa 66 11                   		mov.L	#1, r1
 101 00ac 05 00 00 00             		bsr	_mw_gl_set_fill
 112:C:/Users/John/Desktop/workspace/miniwinwm/MiniWin/ui\ui_check_box.c **** 	mw_gl_set_line(MW_GL_SOLID_LINE);
 102                             		.loc 1 112 2
 103 00b0 FB 1E FF FF 00          		mov.L	#0xffff, r1
 104 00b5 05 00 00 00             		bsr	_mw_gl_set_line
 113:C:/Users/John/Desktop/workspace/miniwinwm/MiniWin/ui\ui_check_box.c **** 	mw_gl_set_border(MW_GL_BORDER_ON);
 105                             		.loc 1 113 2
 106 00b9 66 11                   		mov.L	#1, r1
 107 00bb 05 00 00 00             		bsr	_mw_gl_set_border
 114:C:/Users/John/Desktop/workspace/miniwinwm/MiniWin/ui\ui_check_box.c **** 	mw_gl_clear_pattern();
 108                             		.loc 1 114 2
 109 00bf 05 00 00 00             		bsr	_mw_gl_clear_pattern
 115:C:/Users/John/Desktop/workspace/miniwinwm/MiniWin/ui\ui_check_box.c **** 	mw_gl_set_solid_fill_colour(MW_CONTROL_UP_COLOUR);
 110                             		.loc 1 115 2
 111 00c3 FB 12 E6 E6 E6 00       		mov.L	#0xe6e6e6, r1
 112 00c9 05 00 00 00             		bsr	_mw_gl_set_solid_fill_colour
 116:C:/Users/John/Desktop/workspace/miniwinwm/MiniWin/ui\ui_check_box.c **** 	mw_gl_rectangle(draw_info, 0, 0, height, height);
 113                             		.loc 1 116 2
 114 00cd DC A5                   		mov.W	[r10], r5
 115 00cf D3 05                   		mov.W	r5, [r0]
 116 00d1 DC A4                   		mov.W	[r10], r4
 117 00d3 66 03                   		mov	#0, r3
 118 00d5 66 02                   		mov	#0, r2
 119 00d7 ED A1 03                		mov.L	12[r10], r1
 120 00da 05 00 00 00             		bsr	_mw_gl_rectangle
 117:C:/Users/John/Desktop/workspace/miniwinwm/MiniWin/ui\ui_check_box.c **** 
 118:C:/Users/John/Desktop/workspace/miniwinwm/MiniWin/ui\ui_check_box.c **** 	/* draw 3d effect */
 119:C:/Users/John/Desktop/workspace/miniwinwm/MiniWin/ui\ui_check_box.c **** 	mw_gl_set_fg_colour(MW_HAL_LCD_WHITE);
 121                             		.loc 1 119 2
 122 00de FB 12 FF FF FF 00       		mov.L	#0xffffff, r1
 123 00e4 05 00 00 00             		bsr	_mw_gl_set_fg_colour
 120:C:/Users/John/Desktop/workspace/miniwinwm/MiniWin/ui\ui_check_box.c **** 	mw_gl_vline(draw_info, 1, 1, height - 2);
 124                             		.loc 1 120 38
 125 00e8 DC A5                   		mov.W	[r10], r5
 126 00ea 60 25                   		sub	#2, r5
 127                             		.loc 1 120 2
 128 00ec DF 54                   		mov.W	r5, r4
 129 00ee 66 13                   		mov	#1, r3
 130 00f0 66 12                   		mov	#1, r2
 131 00f2 ED A1 03                		mov.L	12[r10], r1
 132 00f5 05 00 00 00             		bsr	_mw_gl_vline
 121:C:/Users/John/Desktop/workspace/miniwinwm/MiniWin/ui\ui_check_box.c **** 	mw_gl_hline(draw_info, 1, height - 2, 1);
 133                             		.loc 1 121 35
 134 00f9 DC A5                   		mov.W	[r10], r5
 135 00fb 60 25                   		sub	#2, r5
 136                             		.loc 1 121 2
 137 00fd 66 14                   		mov	#1, r4
 138 00ff DF 53                   		mov.W	r5, r3
 139 0101 66 12                   		mov	#1, r2
 140 0103 ED A1 03                		mov.L	12[r10], r1
 141 0106 05 00 00 00             		bsr	_mw_gl_hline
 122:C:/Users/John/Desktop/workspace/miniwinwm/MiniWin/ui\ui_check_box.c **** 	mw_gl_set_fg_colour(MW_HAL_LCD_GREY7);
 142                             		.loc 1 122 2
 143 010a FB 12 A6 A6 A6 00       		mov.L	#0xa6a6a6, r1
 144 0110 05 00 00 00             		bsr	_mw_gl_set_fg_colour
 123:C:/Users/John/Desktop/workspace/miniwinwm/MiniWin/ui\ui_check_box.c **** 	mw_gl_vline(draw_info, height - 2, 1, height - 2);
 145                             		.loc 1 123 32
 146 0114 DC A5                   		mov.W	[r10], r5
 147 0116 60 25                   		sub	#2, r5
 148                             		.loc 1 123 2
 149 0118 DF 52                   		mov.W	r5, r2
 150                             		.loc 1 123 47
 151 011a DC A5                   		mov.W	[r10], r5
 152 011c 60 25                   		sub	#2, r5
 153                             		.loc 1 123 2
 154 011e DF 54                   		mov.W	r5, r4
 155 0120 66 13                   		mov	#1, r3
 156 0122 ED A1 03                		mov.L	12[r10], r1
 157 0125 05 00 00 00             		bsr	_mw_gl_vline
 124:C:/Users/John/Desktop/workspace/miniwinwm/MiniWin/ui\ui_check_box.c **** 	mw_gl_hline(draw_info, 1, height - 2, height - 2);
 158                             		.loc 1 124 35
 159 0129 DC A5                   		mov.W	[r10], r5
 160 012b 60 25                   		sub	#2, r5
 161                             		.loc 1 124 2
 162 012d DF 53                   		mov.W	r5, r3
 163                             		.loc 1 124 47
 164 012f DC A5                   		mov.W	[r10], r5
 165 0131 60 25                   		sub	#2, r5
 166                             		.loc 1 124 2
 167 0133 DF 54                   		mov.W	r5, r4
 168 0135 66 12                   		mov	#1, r2
 169 0137 ED A1 03                		mov.L	12[r10], r1
 170 013a 05 00 00 00             		bsr	_mw_gl_hline
 125:C:/Users/John/Desktop/workspace/miniwinwm/MiniWin/ui\ui_check_box.c **** 
 126:C:/Users/John/Desktop/workspace/miniwinwm/MiniWin/ui\ui_check_box.c ****     /* draw the tick if needed */
 127:C:/Users/John/Desktop/workspace/miniwinwm/MiniWin/ui\ui_check_box.c **** 	if (this_check_box->checked)
 171                             		.loc 1 127 20
 172 013e ED A5 01                		mov.L	4[r10], r5
 173 0141 8A DD                   		mov.B	11[r5], r5
 174                             		.loc 1 127 5
 175 0143 5B 55                   		movu.B	r5, r5
 176 0145 61 05                   		cmp	#0, r5
 177 0147 20 50                   		beq	.L8
 128:C:/Users/John/Desktop/workspace/miniwinwm/MiniWin/ui\ui_check_box.c **** 	{
 129:C:/Users/John/Desktop/workspace/miniwinwm/MiniWin/ui\ui_check_box.c **** 		mw_gl_set_fg_colour(MW_HAL_LCD_BLACK);
 178                             		.loc 1 129 3
 179 0149 66 01                   		mov.L	#0, r1
 180 014b 05 00 00 00             		bsr	_mw_gl_set_fg_colour
 130:C:/Users/John/Desktop/workspace/miniwinwm/MiniWin/ui\ui_check_box.c **** 		mw_gl_set_bg_transparency(MW_GL_BG_TRANSPARENT);
 181                             		.loc 1 130 3
 182 014f 66 01                   		mov.L	#0, r1
 183 0151 05 00 00 00             		bsr	_mw_gl_set_bg_transparency
 131:C:/Users/John/Desktop/workspace/miniwinwm/MiniWin/ui\ui_check_box.c **** 
 132:C:/Users/John/Desktop/workspace/miniwinwm/MiniWin/ui\ui_check_box.c **** 	    if ((mw_get_control_flags(control_handle) & MW_CONTROL_FLAG_LARGE_SIZE) == MW_CONTROL_FLAG_LAR
 184                             		.loc 1 132 11
 185 0155 ED A1 02                		mov.L	8[r10], r1
 186 0158 05 00 00 00             		bsr	_mw_get_control_flags
 187 015c EF 15                   		mov.L	r1, r5
 188                             		.loc 1 132 48
 189 015e 5F 55                   		movu.W	r5, r5
 190 0160 64 85                   		and	#8, r5
 191                             		.loc 1 132 9
 192 0162 61 85                   		cmp	#8, r5
 193 0164 21 1C                   		bne	.L7
 133:C:/Users/John/Desktop/workspace/miniwinwm/MiniWin/ui\ui_check_box.c **** 	    {
 134:C:/Users/John/Desktop/workspace/miniwinwm/MiniWin/ui\ui_check_box.c **** 	    	mw_gl_monochrome_bitmap(draw_info, 2, 2, 24U, 24U, mw_bitmaps_tick_large);
 194                             		.loc 1 134 7
 195 0166 F9 02 01 00 00 00 00    		mov.L	#_mw_bitmaps_tick_large, 4[r0]
 196 016d F8 05 18                		mov.W	#24, [r0]
 197 0170 75 44 18                		mov	#24, r4
 198 0173 66 23                   		mov	#2, r3
 199 0175 66 22                   		mov	#2, r2
 200 0177 ED A1 03                		mov.L	12[r10], r1
 201 017a 05 00 00 00             		bsr	_mw_gl_monochrome_bitmap
 135:C:/Users/John/Desktop/workspace/miniwinwm/MiniWin/ui\ui_check_box.c **** 	    }
 136:C:/Users/John/Desktop/workspace/miniwinwm/MiniWin/ui\ui_check_box.c **** 	    else
 137:C:/Users/John/Desktop/workspace/miniwinwm/MiniWin/ui\ui_check_box.c **** 	    {
 138:C:/Users/John/Desktop/workspace/miniwinwm/MiniWin/ui\ui_check_box.c **** 	    	mw_gl_monochrome_bitmap(draw_info, 1, 1, 12U, 12U, mw_bitmaps_tick);
 139:C:/Users/John/Desktop/workspace/miniwinwm/MiniWin/ui\ui_check_box.c **** 	    }
 140:C:/Users/John/Desktop/workspace/miniwinwm/MiniWin/ui\ui_check_box.c **** 	}
 141:C:/Users/John/Desktop/workspace/miniwinwm/MiniWin/ui\ui_check_box.c **** }
 202                             		.loc 1 141 1
 203 017e 2E 19                   		bra	.L8
 204                             	.L7:
 138:C:/Users/John/Desktop/workspace/miniwinwm/MiniWin/ui\ui_check_box.c **** 	    }
 205                             		.loc 1 138 7
 206 0180 F9 02 01 00 00 00 00    		mov.L	#_mw_bitmaps_tick, 4[r0]
 207 0187 F8 05 0C                		mov.W	#12, [r0]
 208 018a 66 C4                   		mov	#12, r4
 209 018c 66 13                   		mov	#1, r3
 210 018e 66 12                   		mov	#1, r2
 211 0190 ED A1 03                		mov.L	12[r10], r1
 212 0193 05 00 00 00             		bsr	_mw_gl_monochrome_bitmap
 213                             	.L8:
 214                             		.loc 1 141 1
 215 0197 03                      		nop
 216 0198 3F AA 07                		rtsd	#28, r10-r10
 217                             	.LFE0:
 219                             		.section	.text.check_box_message_function,"ax",@progbits
 221                             	_check_box_message_function:
 222                             	.LFB1:
 142:C:/Users/John/Desktop/workspace/miniwinwm/MiniWin/ui\ui_check_box.c **** 
 143:C:/Users/John/Desktop/workspace/miniwinwm/MiniWin/ui\ui_check_box.c **** /**
 144:C:/Users/John/Desktop/workspace/miniwinwm/MiniWin/ui\ui_check_box.c ****  * Control message handler called by the window manager.
 145:C:/Users/John/Desktop/workspace/miniwinwm/MiniWin/ui\ui_check_box.c ****  *
 146:C:/Users/John/Desktop/workspace/miniwinwm/MiniWin/ui\ui_check_box.c ****  * @param message The message to be processed
 147:C:/Users/John/Desktop/workspace/miniwinwm/MiniWin/ui\ui_check_box.c ****  */
 148:C:/Users/John/Desktop/workspace/miniwinwm/MiniWin/ui\ui_check_box.c **** static void check_box_message_function(const mw_message_t *message)
 149:C:/Users/John/Desktop/workspace/miniwinwm/MiniWin/ui\ui_check_box.c **** {
 223                             		.loc 1 149 1
 224 0000 7E AA                   		push.l	r10
 225                             	.LCFI3:
 226 0002 7E A6                   		push.l	r6
 227                             	.LCFI4:
 228 0004 71 0A F8                		add	#-8, r0, r10
 229                             	.LCFI5:
 230 0007 71 A0 F8                		add	#-8, r10, r0
 231                             	.LCFI6:
 232 000a E7 A1 01                		mov.L	r1, 4[r10]
 150:C:/Users/John/Desktop/workspace/miniwinwm/MiniWin/ui\ui_check_box.c **** 	mw_ui_check_box_data_t *this_check_box = (mw_ui_check_box_data_t*)mw_get_control_instance_data(mes
 233                             		.loc 1 150 68
 234 000d ED A5 01                		mov.L	4[r10], r5
 235 0010 A8 5D                   		mov.L	4[r5], r5
 236 0012 EF 51                   		mov.L	r5, r1
 237 0014 05 00 00 00             		bsr	_mw_get_control_instance_data
 238 0018 E3 A1                   		mov.L	r1, [r10]
 151:C:/Users/John/Desktop/workspace/miniwinwm/MiniWin/ui\ui_check_box.c **** 
 152:C:/Users/John/Desktop/workspace/miniwinwm/MiniWin/ui\ui_check_box.c **** 	MW_ASSERT(message != (void*)0, "Null pointer argument");
 239                             		.loc 1 152 2
 240 001a ED A5 01                		mov.L	4[r10], r5
 241 001d 61 05                   		cmp	#0, r5
 242 001f FC DB 51                		scne.L	r5
 243 0022 FB 42 00 00 00 00       		mov.L	#.LC0, r4
 244 0028 75 43 98                		mov.L	#0x98, r3
 245 002b FB 22 00 00 00 00       		mov.L	#___func__.2879, r2
 246 0031 CF 51                   		mov.B	r5, r1
 247 0033 05 00 00 00             		bsr	_mw_debug_print_assert
 153:C:/Users/John/Desktop/workspace/miniwinwm/MiniWin/ui\ui_check_box.c **** 
 154:C:/Users/John/Desktop/workspace/miniwinwm/MiniWin/ui\ui_check_box.c **** 	switch (message->message_id)
 248                             		.loc 1 154 17
 249 0037 ED A5 01                		mov.L	4[r10], r5
 250 003a A8 D5                   		mov.L	8[r5], r5
 251                             		.loc 1 154 2
 252 003c 75 55 14                		cmp	#20, r5
 253 003f 20 26                   		beq	.L10
 254 0041 75 55 2E                		cmp	#46, r5
 255 0044 20 0D                   		beq	.L11
 256 0046 61 D5                   		cmp	#13, r5
 257 0048 21 7E                   		bne	.L15
 155:C:/Users/John/Desktop/workspace/miniwinwm/MiniWin/ui\ui_check_box.c **** 	{
 156:C:/Users/John/Desktop/workspace/miniwinwm/MiniWin/ui\ui_check_box.c **** 	case MW_CONTROL_CREATED_MESSAGE:
 157:C:/Users/John/Desktop/workspace/miniwinwm/MiniWin/ui\ui_check_box.c **** 		/* initialise the control */		
 158:C:/Users/John/Desktop/workspace/miniwinwm/MiniWin/ui\ui_check_box.c **** 		this_check_box->checked = false;
 258                             		.loc 1 158 27
 259 004a EC A5                   		mov.L	[r10], r5
 260 004c 3C 5B 00                		mov.B	#0, 11[r5]
 159:C:/Users/John/Desktop/workspace/miniwinwm/MiniWin/ui\ui_check_box.c **** 		break;
 261                             		.loc 1 159 3
 262 004f 2E 7B                   		bra	.L13
 263                             	.L11:
 160:C:/Users/John/Desktop/workspace/miniwinwm/MiniWin/ui\ui_check_box.c **** 		
 161:C:/Users/John/Desktop/workspace/miniwinwm/MiniWin/ui\ui_check_box.c **** 	case MW_CHECK_BOX_SET_CHECKED_STATE_MESSAGE:
 162:C:/Users/John/Desktop/workspace/miniwinwm/MiniWin/ui\ui_check_box.c **** 		/* handle a transfer data message, which contains new number */
 163:C:/Users/John/Desktop/workspace/miniwinwm/MiniWin/ui\ui_check_box.c **** 		this_check_box->checked = ((message->message_data & 0x01U) == 0x01U);
 264                             		.loc 1 163 38
 265 0051 ED A5 01                		mov.L	4[r10], r5
 266 0054 A9 55                   		mov.L	16[r5], r5
 267                             		.loc 1 163 53
 268 0056 64 15                   		and	#1, r5
 269                             		.loc 1 163 62
 270 0058 61 05                   		cmp	#0, r5
 271 005a FC DB 51                		scne.L	r5
 272 005d CF 54                   		mov.B	r5, r4
 273                             		.loc 1 163 27
 274 005f EC A5                   		mov.L	[r10], r5
 275 0061 82 DC                   		mov.B	r4, 11[r5]
 164:C:/Users/John/Desktop/workspace/miniwinwm/MiniWin/ui\ui_check_box.c **** 		break;
 276                             		.loc 1 164 3
 277 0063 2E 67                   		bra	.L13
 278                             	.L10:
 165:C:/Users/John/Desktop/workspace/miniwinwm/MiniWin/ui\ui_check_box.c **** 
 166:C:/Users/John/Desktop/workspace/miniwinwm/MiniWin/ui\ui_check_box.c **** 	case MW_TOUCH_DOWN_MESSAGE:
 167:C:/Users/John/Desktop/workspace/miniwinwm/MiniWin/ui\ui_check_box.c **** 		/* handle a touch down event within this control */		
 168:C:/Users/John/Desktop/workspace/miniwinwm/MiniWin/ui\ui_check_box.c **** 		if ((mw_get_control_flags(message->recipient_handle) & MW_CONTROL_FLAG_IS_ENABLED) == MW_CONTROL_
 279                             		.loc 1 168 8
 280 0065 ED A5 01                		mov.L	4[r10], r5
 281 0068 A8 5D                   		mov.L	4[r5], r5
 282 006a EF 51                   		mov.L	r5, r1
 283 006c 05 00 00 00             		bsr	_mw_get_control_flags
 284 0070 EF 15                   		mov.L	r1, r5
 285                             		.loc 1 168 56
 286 0072 5F 55                   		movu.W	r5, r5
 287 0074 64 25                   		and	#2, r5
 288                             		.loc 1 168 6
 289 0076 61 25                   		cmp	#2, r5
 290 0078 21 51                   		bne	.L16
 169:C:/Users/John/Desktop/workspace/miniwinwm/MiniWin/ui\ui_check_box.c **** 		{
 170:C:/Users/John/Desktop/workspace/miniwinwm/MiniWin/ui\ui_check_box.c **** 			this_check_box->checked = !this_check_box->checked;
 291                             		.loc 1 170 45
 292 007a EC A5                   		mov.L	[r10], r5
 293 007c 8A DD                   		mov.B	11[r5], r5
 294 007e 5B 55                   		movu.B	r5, r5
 295                             		.loc 1 170 4
 296 0080 61 05                   		cmp	#0, r5
 297 0082 FC DB 51                		scne.L	r5
 298 0085 FD 74 D5 01             		xor	#1, r5
 299 0089 5B 55                   		movu.B	r5, r5
 300                             		.loc 1 170 30
 301 008b 64 15                   		and	#1, r5
 302                             		.loc 1 170 28
 303 008d EC A4                   		mov.L	[r10], r4
 304 008f 82 CD                   		mov.B	r5, 11[r4]
 171:C:/Users/John/Desktop/workspace/miniwinwm/MiniWin/ui\ui_check_box.c **** 			mw_paint_control(message->recipient_handle);
 305                             		.loc 1 171 4
 306 0091 ED A5 01                		mov.L	4[r10], r5
 307 0094 A8 5D                   		mov.L	4[r5], r5
 308 0096 EF 51                   		mov.L	r5, r1
 309 0098 05 00 00 00             		bsr	_mw_paint_control
 172:C:/Users/John/Desktop/workspace/miniwinwm/MiniWin/ui\ui_check_box.c **** 			mw_post_message(MW_CHECKBOX_STATE_CHANGE_MESSAGE,
 310                             		.loc 1 172 4
 311 009c ED A5 01                		mov.L	4[r10], r5
 312 009f A8 5E                   		mov.L	4[r5], r6
 313 00a1 ED A5 01                		mov.L	4[r10], r5
 314 00a4 A8 5D                   		mov.L	4[r5], r5
 315 00a6 EF 51                   		mov.L	r5, r1
 316 00a8 05 00 00 00             		bsr	_mw_get_control_parent_window_handle
 317 00ac EF 13                   		mov.L	r1, r3
 173:C:/Users/John/Desktop/workspace/miniwinwm/MiniWin/ui\ui_check_box.c **** 					message->recipient_handle,
 174:C:/Users/John/Desktop/workspace/miniwinwm/MiniWin/ui\ui_check_box.c **** 					mw_get_control_parent_window_handle(message->recipient_handle),
 175:C:/Users/John/Desktop/workspace/miniwinwm/MiniWin/ui\ui_check_box.c **** 					(uint32_t)this_check_box->checked,
 318                             		.loc 1 175 30
 319 00ae EC A5                   		mov.L	[r10], r5
 320 00b0 8A DD                   		mov.B	11[r5], r5
 172:C:/Users/John/Desktop/workspace/miniwinwm/MiniWin/ui\ui_check_box.c **** 			mw_post_message(MW_CHECKBOX_STATE_CHANGE_MESSAGE,
 321                             		.loc 1 172 4
 322 00b2 5B 55                   		movu.B	r5, r5
 323 00b4 3E 01 00                		mov.L	#0, 4[r0]
 324 00b7 F8 06 00                		mov.L	#0, [r0]
 325 00ba EF 54                   		mov.L	r5, r4
 326 00bc EF 62                   		mov.L	r6, r2
 327 00be 75 41 1B                		mov.L	#27, r1
 328 00c1 05 00 00 00             		bsr	_mw_post_message
 176:C:/Users/John/Desktop/workspace/miniwinwm/MiniWin/ui\ui_check_box.c **** 					NULL,
 177:C:/Users/John/Desktop/workspace/miniwinwm/MiniWin/ui\ui_check_box.c **** 					MW_WINDOW_MESSAGE);
 178:C:/Users/John/Desktop/workspace/miniwinwm/MiniWin/ui\ui_check_box.c **** 		}
 179:C:/Users/John/Desktop/workspace/miniwinwm/MiniWin/ui\ui_check_box.c **** 		break;
 329                             		.loc 1 179 3
 330 00c5 0C                      		bra	.L16
 331                             	.L15:
 180:C:/Users/John/Desktop/workspace/miniwinwm/MiniWin/ui\ui_check_box.c **** 
 181:C:/Users/John/Desktop/workspace/miniwinwm/MiniWin/ui\ui_check_box.c **** 	default:
 182:C:/Users/John/Desktop/workspace/miniwinwm/MiniWin/ui\ui_check_box.c **** 		/* keep MISRA happy */
 183:C:/Users/John/Desktop/workspace/miniwinwm/MiniWin/ui\ui_check_box.c **** 		break;
 332                             		.loc 1 183 3
 333 00c6 03                      		nop
 334 00c7 2E 03                   		bra	.L13
 335                             	.L16:
 179:C:/Users/John/Desktop/workspace/miniwinwm/MiniWin/ui\ui_check_box.c **** 
 336                             		.loc 1 179 3
 337 00c9 03                      		nop
 338                             	.L13:
 184:C:/Users/John/Desktop/workspace/miniwinwm/MiniWin/ui\ui_check_box.c **** 	}
 185:C:/Users/John/Desktop/workspace/miniwinwm/MiniWin/ui\ui_check_box.c **** }
 339                             		.loc 1 185 1
 340 00ca 03                      		nop
 341 00cb 71 00 10                		add	#16, r0
 342 00ce 7E B6                   		pop	r6
 343 00d0 7E BA                   		pop	r10
 344 00d2 02                      		rts
 345                             	.LFE1:
 347                             		.section	.text.mw_ui_check_box_add_new,"ax",@progbits
 348                             		.global	_mw_ui_check_box_add_new
 350                             	_mw_ui_check_box_add_new:
 351                             	.LFB2:
 186:C:/Users/John/Desktop/workspace/miniwinwm/MiniWin/ui\ui_check_box.c **** 
 187:C:/Users/John/Desktop/workspace/miniwinwm/MiniWin/ui\ui_check_box.c **** /***********************
 188:C:/Users/John/Desktop/workspace/miniwinwm/MiniWin/ui\ui_check_box.c **** *** GLOBAL FUNCTIONS ***
 189:C:/Users/John/Desktop/workspace/miniwinwm/MiniWin/ui\ui_check_box.c **** ***********************/
 190:C:/Users/John/Desktop/workspace/miniwinwm/MiniWin/ui\ui_check_box.c **** 
 191:C:/Users/John/Desktop/workspace/miniwinwm/MiniWin/ui\ui_check_box.c **** mw_handle_t mw_ui_check_box_add_new(int16_t x,
 192:C:/Users/John/Desktop/workspace/miniwinwm/MiniWin/ui\ui_check_box.c **** 		int16_t y,
 193:C:/Users/John/Desktop/workspace/miniwinwm/MiniWin/ui\ui_check_box.c **** 		mw_handle_t parent_handle,
 194:C:/Users/John/Desktop/workspace/miniwinwm/MiniWin/ui\ui_check_box.c **** 		uint16_t flags,
 195:C:/Users/John/Desktop/workspace/miniwinwm/MiniWin/ui\ui_check_box.c **** 		mw_ui_check_box_data_t *check_box_instance_data)
 196:C:/Users/John/Desktop/workspace/miniwinwm/MiniWin/ui\ui_check_box.c **** {
 352                             		.loc 1 196 1
 353 0000 7E AA                   		push.l	r10
 354                             	.LCFI7:
 355 0002 7E A6                   		push.l	r6
 356                             	.LCFI8:
 357 0004 71 0A E8                		add	#-24, r0, r10
 358                             	.LCFI9:
 359 0007 71 A0 F8                		add	#-8, r10, r0
 360                             	.LCFI10:
 361 000a 75 46 24                		mov.L	#36, r6
 362 000d 4B A6                   		add	r10, r6
 363 000f D7 A1 04                		mov.W	r1, 8[r10]
 364 0012 D7 A2 05                		mov.W	r2, 10[r10]
 365 0015 E7 A3 03                		mov.L	r3, 12[r10]
 366 0018 D7 A4 08                		mov.W	r4, 16[r10]
 197:C:/Users/John/Desktop/workspace/miniwinwm/MiniWin/ui\ui_check_box.c **** 	mw_util_rect_t r;
 198:C:/Users/John/Desktop/workspace/miniwinwm/MiniWin/ui\ui_check_box.c **** 
 199:C:/Users/John/Desktop/workspace/miniwinwm/MiniWin/ui\ui_check_box.c **** 	if ((flags & MW_CONTROL_FLAG_LARGE_SIZE) == MW_CONTROL_FLAG_LARGE_SIZE)
 367                             		.loc 1 199 13
 368 001b 5D A5 08                		movu.W	16[r10], r5
 369 001e 64 85                   		and	#8, r5
 370                             		.loc 1 199 5
 371 0020 61 05                   		cmp	#0, r5
 372 0022 20 16                   		beq	.L18
 200:C:/Users/John/Desktop/workspace/miniwinwm/MiniWin/ui\ui_check_box.c **** 	{
 201:C:/Users/John/Desktop/workspace/miniwinwm/MiniWin/ui\ui_check_box.c **** 		mw_util_set_rect(&r, x, y, MW_UI_CHECK_BOX_LARGE_WIDTH, MW_UI_CHECK_BOX_LARGE_HEIGHT);
 373                             		.loc 1 201 3
 374 0024 F8 05 1E                		mov.W	#30, [r0]
 375 0027 75 44 AA                		mov	#0xaa, r4
 376 002a DD A3 05                		mov.W	10[r10], r3
 377 002d DD A2 04                		mov.W	8[r10], r2
 378 0030 EF A1                   		mov.L	r10, r1
 379 0032 05 00 00 00             		bsr	_mw_util_set_rect
 380 0036 2E 14                   		bra	.L19
 381                             	.L18:
 202:C:/Users/John/Desktop/workspace/miniwinwm/MiniWin/ui\ui_check_box.c **** 	}
 203:C:/Users/John/Desktop/workspace/miniwinwm/MiniWin/ui\ui_check_box.c **** 	else
 204:C:/Users/John/Desktop/workspace/miniwinwm/MiniWin/ui\ui_check_box.c **** 	{
 205:C:/Users/John/Desktop/workspace/miniwinwm/MiniWin/ui\ui_check_box.c **** 		mw_util_set_rect(&r, x, y, MW_UI_CHECK_BOX_WIDTH, MW_UI_CHECK_BOX_HEIGHT);
 382                             		.loc 1 205 3
 383 0038 F8 05 0F                		mov.W	#15, [r0]
 384 003b 75 44 55                		mov	#0x55, r4
 385 003e DD A3 05                		mov.W	10[r10], r3
 386 0041 DD A2 04                		mov.W	8[r10], r2
 387 0044 EF A1                   		mov.L	r10, r1
 388 0046 05 00 00 00             		bsr	_mw_util_set_rect
 389                             	.L19:
 206:C:/Users/John/Desktop/workspace/miniwinwm/MiniWin/ui\ui_check_box.c **** 	}
 207:C:/Users/John/Desktop/workspace/miniwinwm/MiniWin/ui\ui_check_box.c **** 
 208:C:/Users/John/Desktop/workspace/miniwinwm/MiniWin/ui\ui_check_box.c **** 	return (mw_add_control(&r,
 390                             		.loc 1 208 10
 391 004a EC 65                   		mov.L	[r6], r5
 392 004c A0 0D                   		mov.L	r5, 4[r0]
 393 004e DD A5 08                		mov.W	16[r10], r5
 394 0051 D3 05                   		mov.W	r5, [r0]
 395 0053 FB 42 00 00 00 00       		mov.L	#_check_box_message_function, r4
 396 0059 FB 32 00 00 00 00       		mov.L	#_check_box_paint_function, r3
 397 005f ED A2 03                		mov.L	12[r10], r2
 398 0062 EF A1                   		mov.L	r10, r1
 399 0064 05 00 00 00             		bsr	_mw_add_control
 400 0068 EF 15                   		mov.L	r1, r5
 209:C:/Users/John/Desktop/workspace/miniwinwm/MiniWin/ui\ui_check_box.c **** 			parent_handle,
 210:C:/Users/John/Desktop/workspace/miniwinwm/MiniWin/ui\ui_check_box.c **** 			check_box_paint_function,
 211:C:/Users/John/Desktop/workspace/miniwinwm/MiniWin/ui\ui_check_box.c **** 			check_box_message_function,
 212:C:/Users/John/Desktop/workspace/miniwinwm/MiniWin/ui\ui_check_box.c **** 			flags,
 213:C:/Users/John/Desktop/workspace/miniwinwm/MiniWin/ui\ui_check_box.c **** 			check_box_instance_data));
 214:C:/Users/John/Desktop/workspace/miniwinwm/MiniWin/ui\ui_check_box.c **** }
 401                             		.loc 1 214 1
 402 006a EF 51                   		mov.L	r5, r1
 403 006c 71 00 20                		add	#32, r0
 404 006f 7E B6                   		pop	r6
 405 0071 7E BA                   		pop	r10
 406 0073 02                      		rts
 407                             	.LFE2:
 409                             		.section	.rodata.__func__.2874,"a"
 412                             	___func__.2874:
 413 0000 63 68 65 63 6B 5F 62 6F 		.string	"check_box_paint_function"
 413      78 5F 70 61 69 6E 74 5F 
 413      66 75 6E 63 74 69 6F 6E 
 413      00 
 414                             		.section	.rodata.__func__.2879,"a"
 417                             	___func__.2879:
 418 0000 63 68 65 63 6B 5F 62 6F 		.string	"check_box_message_function"
 418      78 5F 6D 65 73 73 61 67 
 418      65 5F 66 75 6E 63 74 69 
 418      6F 6E 00 
 521                             	.Letext0:
 522                             		.file 2 "c:\\program files (x86)\\gcc for renesas rx 8.3.0.201904-gnurx-elf\\rx-elf\\rx-elf\\rx-el
 523                             		.file 3 "c:\\program files (x86)\\gcc for renesas rx 8.3.0.201904-gnurx-elf\\rx-elf\\rx-elf\\rx-el
 524                             		.file 4 "c:\\program files (x86)\\gcc for renesas rx 8.3.0.201904-gnurx-elf\\rx-elf\\rx-elf\\rx-el
 525                             		.file 5 "c:\\program files (x86)\\gcc for renesas rx 8.3.0.201904-gnurx-elf\\rx-elf\\rx-elf\\lib\\
 526                             		.file 6 "c:\\program files (x86)\\gcc for renesas rx 8.3.0.201904-gnurx-elf\\rx-elf\\rx-elf\\rx-el
 527                             		.file 7 "c:\\program files (x86)\\gcc for renesas rx 8.3.0.201904-gnurx-elf\\rx-elf\\rx-elf\\rx-el
 528                             		.file 8 "C:\\Users\\John\\Desktop\\workspace\\miniwinwm\\MiniWin/miniwin_utilities.h"
 529                             		.file 9 "C:\\Users\\John\\Desktop\\workspace\\miniwinwm\\MiniWin/gl/gl.h"
 530                             		.file 10 "C:\\Users\\John\\Desktop\\workspace\\miniwinwm\\MiniWin/bitmaps/mw_bitmaps.h"
 531                             		.file 11 "C:\\Users\\John\\Desktop\\workspace\\miniwinwm\\MiniWin/hal/hal_timer.h"
 532                             		.file 12 "C:\\Users\\John\\Desktop\\workspace\\miniwinwm\\MiniWin/miniwin.h"
 533                             		.file 13 "C:\\Users\\John\\Desktop\\workspace\\miniwinwm\\MiniWin/ui/ui_check_box.h"
